
C:/Users/Fish/Documents/GitHub/INF2004-Embedded/forensics_tool/build/testing/uart_test_rx.elf:     file format elf32-littlearm

Sections:
Idx Name          Size      VMA       LMA       File off  Algn
  0 .boot2        00000100  10000000  10000000  00001000  2**0
                  CONTENTS, ALLOC, LOAD, READONLY, CODE
  1 .text         00006b20  10000100  10000100  00001100  2**3
                  CONTENTS, ALLOC, LOAD, READONLY, CODE
  2 .rodata       00001800  10006c20  10006c20  00007c20  2**3
                  CONTENTS, ALLOC, LOAD, READONLY, DATA
  3 .binary_info  0000002c  10008420  10008420  00009420  2**2
                  CONTENTS, ALLOC, LOAD, READONLY, DATA
  4 .ram_vector_table 000000c0  20000000  20000000  0000b000  2**2
                  ALLOC
  5 .data         00000c08  200000c0  1000844c  0000a0c0  2**4
                  CONTENTS, ALLOC, LOAD, READONLY, CODE
  6 .uninitialized_data 00000000  20000cc8  20000cc8  0000acc8  2**0
                  CONTENTS
  7 .scratch_x    00000000  20040000  20040000  0000acc8  2**0
                  CONTENTS
  8 .scratch_y    00000000  20041000  20041000  0000acc8  2**0
                  CONTENTS
  9 .bss          00000d94  20000cc8  20000cc8  0000b000  2**3
                  ALLOC
 10 .heap         00000800  20001a5c  20001a5c  0000acc8  2**2
                  CONTENTS, READONLY
 11 .stack_dummy  00000800  20041000  20041000  0000b4e0  2**5
                  CONTENTS, READONLY
 12 .ARM.attributes 00000028  00000000  00000000  0000bce0  2**0
                  CONTENTS, READONLY
 13 .comment      00000049  00000000  00000000  0000bd08  2**0
                  CONTENTS, READONLY
 14 .debug_info   000264e2  00000000  00000000  0000bd51  2**0
                  CONTENTS, READONLY, DEBUGGING, OCTETS
 15 .debug_abbrev 00007003  00000000  00000000  00032233  2**0
                  CONTENTS, READONLY, DEBUGGING, OCTETS
 16 .debug_loc    000194c1  00000000  00000000  00039236  2**0
                  CONTENTS, READONLY, DEBUGGING, OCTETS
 17 .debug_aranges 00001430  00000000  00000000  000526f8  2**3
                  CONTENTS, READONLY, DEBUGGING, OCTETS
 18 .debug_ranges 00004cb0  00000000  00000000  00053b28  2**3
                  CONTENTS, READONLY, DEBUGGING, OCTETS
 19 .debug_line   00018749  00000000  00000000  000587d8  2**0
                  CONTENTS, READONLY, DEBUGGING, OCTETS
 20 .debug_str    00007822  00000000  00000000  00070f21  2**0
                  CONTENTS, READONLY, DEBUGGING, OCTETS
 21 .debug_frame  00002b58  00000000  00000000  00078744  2**2
                  CONTENTS, READONLY, DEBUGGING, OCTETS

C:/Users/Fish/Documents/GitHub/INF2004-Embedded/forensics_tool/build/testing/uart_test_rx.elf:     file format elf32-littlearm


Disassembly of section .boot2:

10000000 <__boot2_start__>:
10000000:	4b32b500 	.word	0x4b32b500
10000004:	60582021 	.word	0x60582021
10000008:	21026898 	.word	0x21026898
1000000c:	60984388 	.word	0x60984388
10000010:	611860d8 	.word	0x611860d8
10000014:	4b2e6158 	.word	0x4b2e6158
10000018:	60992100 	.word	0x60992100
1000001c:	61592102 	.word	0x61592102
10000020:	22f02101 	.word	0x22f02101
10000024:	492b5099 	.word	0x492b5099
10000028:	21016019 	.word	0x21016019
1000002c:	20356099 	.word	0x20356099
10000030:	f844f000 	.word	0xf844f000
10000034:	42902202 	.word	0x42902202
10000038:	2106d014 	.word	0x2106d014
1000003c:	f0006619 	.word	0xf0006619
10000040:	6e19f834 	.word	0x6e19f834
10000044:	66192101 	.word	0x66192101
10000048:	66182000 	.word	0x66182000
1000004c:	f000661a 	.word	0xf000661a
10000050:	6e19f82c 	.word	0x6e19f82c
10000054:	6e196e19 	.word	0x6e196e19
10000058:	f0002005 	.word	0xf0002005
1000005c:	2101f82f 	.word	0x2101f82f
10000060:	d1f94208 	.word	0xd1f94208
10000064:	60992100 	.word	0x60992100
10000068:	6019491b 	.word	0x6019491b
1000006c:	60592100 	.word	0x60592100
10000070:	481b491a 	.word	0x481b491a
10000074:	21016001 	.word	0x21016001
10000078:	21eb6099 	.word	0x21eb6099
1000007c:	21a06619 	.word	0x21a06619
10000080:	f0006619 	.word	0xf0006619
10000084:	2100f812 	.word	0x2100f812
10000088:	49166099 	.word	0x49166099
1000008c:	60014814 	.word	0x60014814
10000090:	60992101 	.word	0x60992101
10000094:	2800bc01 	.word	0x2800bc01
10000098:	4700d000 	.word	0x4700d000
1000009c:	49134812 	.word	0x49134812
100000a0:	c8036008 	.word	0xc8036008
100000a4:	8808f380 	.word	0x8808f380
100000a8:	b5034708 	.word	0xb5034708
100000ac:	20046a99 	.word	0x20046a99
100000b0:	d0fb4201 	.word	0xd0fb4201
100000b4:	42012001 	.word	0x42012001
100000b8:	bd03d1f8 	.word	0xbd03d1f8
100000bc:	6618b502 	.word	0x6618b502
100000c0:	f7ff6618 	.word	0xf7ff6618
100000c4:	6e18fff2 	.word	0x6e18fff2
100000c8:	bd026e18 	.word	0xbd026e18
100000cc:	40020000 	.word	0x40020000
100000d0:	18000000 	.word	0x18000000
100000d4:	00070000 	.word	0x00070000
100000d8:	005f0300 	.word	0x005f0300
100000dc:	00002221 	.word	0x00002221
100000e0:	180000f4 	.word	0x180000f4
100000e4:	a0002022 	.word	0xa0002022
100000e8:	10000100 	.word	0x10000100
100000ec:	e000ed08 	.word	0xe000ed08
	...
100000fc:	7a4eb274 	.word	0x7a4eb274

Disassembly of section .text:

10000100 <__VECTOR_TABLE>:
10000100:	20042000 	.word	0x20042000
10000104:	100001f7 	.word	0x100001f7
10000108:	100001c3 	.word	0x100001c3
1000010c:	100001c5 	.word	0x100001c5
10000110:	100001c1 	.word	0x100001c1
10000114:	100001c1 	.word	0x100001c1
10000118:	100001c1 	.word	0x100001c1
1000011c:	100001c1 	.word	0x100001c1
10000120:	100001c1 	.word	0x100001c1
10000124:	100001c1 	.word	0x100001c1
10000128:	100001c1 	.word	0x100001c1
1000012c:	100001c7 	.word	0x100001c7
10000130:	100001c1 	.word	0x100001c1
10000134:	100001c1 	.word	0x100001c1
10000138:	100001c9 	.word	0x100001c9
1000013c:	100001cb 	.word	0x100001cb
10000140:	100001cd 	.word	0x100001cd
10000144:	100001cd 	.word	0x100001cd
10000148:	100001cd 	.word	0x100001cd
1000014c:	100001cd 	.word	0x100001cd
10000150:	100001cd 	.word	0x100001cd
10000154:	100001cd 	.word	0x100001cd
10000158:	100001cd 	.word	0x100001cd
1000015c:	100001cd 	.word	0x100001cd
10000160:	100001cd 	.word	0x100001cd
10000164:	100001cd 	.word	0x100001cd
10000168:	100001cd 	.word	0x100001cd
1000016c:	100001cd 	.word	0x100001cd
10000170:	100001cd 	.word	0x100001cd
10000174:	100001cd 	.word	0x100001cd
10000178:	100001cd 	.word	0x100001cd
1000017c:	100001cd 	.word	0x100001cd
10000180:	100001cd 	.word	0x100001cd
10000184:	100001cd 	.word	0x100001cd
10000188:	100001cd 	.word	0x100001cd
1000018c:	100001cd 	.word	0x100001cd
10000190:	100001cd 	.word	0x100001cd
10000194:	100001cd 	.word	0x100001cd
10000198:	100001cd 	.word	0x100001cd
1000019c:	100001cd 	.word	0x100001cd
100001a0:	100001cd 	.word	0x100001cd
100001a4:	100001cd 	.word	0x100001cd
100001a8:	100001cd 	.word	0x100001cd
100001ac:	100001cd 	.word	0x100001cd
100001b0:	100001cd 	.word	0x100001cd
100001b4:	100001cd 	.word	0x100001cd
100001b8:	100001cd 	.word	0x100001cd
100001bc:	100001cd 	.word	0x100001cd

100001c0 <isr_invalid>:
100001c0:	be00      	bkpt	0x0000

100001c2 <isr_nmi>:
100001c2:	be00      	bkpt	0x0000

100001c4 <isr_hardfault>:
100001c4:	be00      	bkpt	0x0000

100001c6 <isr_svcall>:
100001c6:	be00      	bkpt	0x0000

100001c8 <isr_pendsv>:
100001c8:	be00      	bkpt	0x0000

100001ca <isr_systick>:
100001ca:	be00      	bkpt	0x0000

100001cc <__unhandled_user_irq>:
100001cc:	f3ef 8005 	mrs	r0, IPSR
100001d0:	3810      	subs	r0, #16

100001d2 <unhandled_user_irq_num_in_r0>:
100001d2:	be00      	bkpt	0x0000

100001d4 <binary_info_header>:
100001d4:	7188ebf2 	.word	0x7188ebf2
100001d8:	10008420 	.word	0x10008420
100001dc:	1000844c 	.word	0x1000844c
100001e0:	10000234 	.word	0x10000234
100001e4:	e71aa390 	.word	0xe71aa390

100001e8 <_entry_point>:
100001e8:	2000      	movs	r0, #0
100001ea:	491f      	ldr	r1, [pc, #124]	; (10000268 <hold_non_core0_in_bootrom+0xa>)
100001ec:	6008      	str	r0, [r1, #0]
100001ee:	c806      	ldmia	r0!, {r1, r2}
100001f0:	f381 8808 	msr	MSP, r1
100001f4:	4710      	bx	r2

100001f6 <_reset_handler>:
100001f6:	481d      	ldr	r0, [pc, #116]	; (1000026c <hold_non_core0_in_bootrom+0xe>)
100001f8:	6800      	ldr	r0, [r0, #0]
100001fa:	2800      	cmp	r0, #0
100001fc:	d12f      	bne.n	1000025e <hold_non_core0_in_bootrom>
100001fe:	a40d      	add	r4, pc, #52	; (adr r4, 10000234 <data_cpy_table>)
10000200:	cc0e      	ldmia	r4!, {r1, r2, r3}
10000202:	2900      	cmp	r1, #0
10000204:	d002      	beq.n	1000020c <_reset_handler+0x16>
10000206:	f000 f812 	bl	1000022e <data_cpy>
1000020a:	e7f9      	b.n	10000200 <_reset_handler+0xa>
1000020c:	4918      	ldr	r1, [pc, #96]	; (10000270 <hold_non_core0_in_bootrom+0x12>)
1000020e:	4a19      	ldr	r2, [pc, #100]	; (10000274 <hold_non_core0_in_bootrom+0x16>)
10000210:	2000      	movs	r0, #0
10000212:	e000      	b.n	10000216 <bss_fill_test>

10000214 <bss_fill_loop>:
10000214:	c101      	stmia	r1!, {r0}

10000216 <bss_fill_test>:
10000216:	4291      	cmp	r1, r2
10000218:	d1fc      	bne.n	10000214 <bss_fill_loop>

1000021a <platform_entry>:
1000021a:	4917      	ldr	r1, [pc, #92]	; (10000278 <hold_non_core0_in_bootrom+0x1a>)
1000021c:	4788      	blx	r1
1000021e:	4917      	ldr	r1, [pc, #92]	; (1000027c <hold_non_core0_in_bootrom+0x1e>)
10000220:	4788      	blx	r1
10000222:	4917      	ldr	r1, [pc, #92]	; (10000280 <hold_non_core0_in_bootrom+0x22>)
10000224:	4788      	blx	r1
10000226:	be00      	bkpt	0x0000
10000228:	e7fd      	b.n	10000226 <platform_entry+0xc>

1000022a <data_cpy_loop>:
1000022a:	c901      	ldmia	r1!, {r0}
1000022c:	c201      	stmia	r2!, {r0}

1000022e <data_cpy>:
1000022e:	429a      	cmp	r2, r3
10000230:	d3fb      	bcc.n	1000022a <data_cpy_loop>
10000232:	4770      	bx	lr

10000234 <data_cpy_table>:
10000234:	1000844c 	.word	0x1000844c
10000238:	200000c0 	.word	0x200000c0
1000023c:	20000cc8 	.word	0x20000cc8
10000240:	10009054 	.word	0x10009054
10000244:	20040000 	.word	0x20040000
10000248:	20040000 	.word	0x20040000
1000024c:	10009054 	.word	0x10009054
10000250:	20041000 	.word	0x20041000
10000254:	20041000 	.word	0x20041000
10000258:	00000000 	.word	0x00000000
1000025c:	4770      	bx	lr

1000025e <hold_non_core0_in_bootrom>:
1000025e:	4809      	ldr	r0, [pc, #36]	; (10000284 <hold_non_core0_in_bootrom+0x26>)
10000260:	f003 fa6c 	bl	1000373c <rom_func_lookup>
10000264:	4700      	bx	r0
10000266:	0000      	.short	0x0000
10000268:	e000ed08 	.word	0xe000ed08
1000026c:	d0000000 	.word	0xd0000000
10000270:	20000cc8 	.word	0x20000cc8
10000274:	20001a5c 	.word	0x20001a5c
10000278:	100024c5 	.word	0x100024c5
1000027c:	10000385 	.word	0x10000385
10000280:	10002481 	.word	0x10002481
10000284:	00005657 	.word	0x00005657

10000288 <__bi_50>:
10000288:	50520006 5360b3ab 10007ce0              ..RP..`S.|..

10000294 <__bi_38>:
10000294:	50520006 02031c86 10007cf0              ..RP.....|..

100002a0 <__bi_30>:
100002a0:	50520006 9da22254 10007d00              ..RPT"...}..

100002ac <__bi_22>:
100002ac:	50520005 68f465de 10009054              ..RP.e.hT...

100002b8 <_init>:
100002b8:	b5f8      	push	{r3, r4, r5, r6, r7, lr}
100002ba:	46c0      	nop			; (mov r8, r8)

100002bc <__do_global_dtors_aux>:
100002bc:	b510      	push	{r4, lr}
100002be:	4c06      	ldr	r4, [pc, #24]	; (100002d8 <__do_global_dtors_aux+0x1c>)
100002c0:	7823      	ldrb	r3, [r4, #0]
100002c2:	2b00      	cmp	r3, #0
100002c4:	d107      	bne.n	100002d6 <__do_global_dtors_aux+0x1a>
100002c6:	4b05      	ldr	r3, [pc, #20]	; (100002dc <__do_global_dtors_aux+0x20>)
100002c8:	2b00      	cmp	r3, #0
100002ca:	d002      	beq.n	100002d2 <__do_global_dtors_aux+0x16>
100002cc:	4804      	ldr	r0, [pc, #16]	; (100002e0 <__do_global_dtors_aux+0x24>)
100002ce:	e000      	b.n	100002d2 <__do_global_dtors_aux+0x16>
100002d0:	bf00      	nop
100002d2:	2301      	movs	r3, #1
100002d4:	7023      	strb	r3, [r4, #0]
100002d6:	bd10      	pop	{r4, pc}
100002d8:	20000dd0 	.word	0x20000dd0
100002dc:	00000000 	.word	0x00000000
100002e0:	10006c20 	.word	0x10006c20

100002e4 <frame_dummy>:
100002e4:	4b04      	ldr	r3, [pc, #16]	; (100002f8 <frame_dummy+0x14>)
100002e6:	b510      	push	{r4, lr}
100002e8:	2b00      	cmp	r3, #0
100002ea:	d003      	beq.n	100002f4 <frame_dummy+0x10>
100002ec:	4903      	ldr	r1, [pc, #12]	; (100002fc <frame_dummy+0x18>)
100002ee:	4804      	ldr	r0, [pc, #16]	; (10000300 <frame_dummy+0x1c>)
100002f0:	e000      	b.n	100002f4 <frame_dummy+0x10>
100002f2:	bf00      	nop
100002f4:	bd10      	pop	{r4, pc}
100002f6:	46c0      	nop			; (mov r8, r8)
100002f8:	00000000 	.word	0x00000000
100002fc:	20000dd4 	.word	0x20000dd4
10000300:	10006c20 	.word	0x10006c20

10000304 <test_uart1_rx>:
10000304:	b500      	push	{lr}
10000306:	b09b      	sub	sp, #108	; 0x6c
10000308:	2000      	movs	r0, #0
1000030a:	e009      	b.n	10000320 <test_uart1_rx+0x1c>
1000030c:	466b      	mov	r3, sp
1000030e:	78da      	ldrb	r2, [r3, #3]
10000310:	2a0a      	cmp	r2, #10
10000312:	d01a      	beq.n	1000034a <test_uart1_rx+0x46>
10000314:	1c43      	adds	r3, r0, #1
10000316:	a901      	add	r1, sp, #4
10000318:	540a      	strb	r2, [r1, r0]
1000031a:	2b63      	cmp	r3, #99	; 0x63
1000031c:	dc20      	bgt.n	10000360 <test_uart1_rx+0x5c>
1000031e:	0018      	movs	r0, r3
10000320:	4b16      	ldr	r3, [pc, #88]	; (1000037c <test_uart1_rx+0x78>)
10000322:	699b      	ldr	r3, [r3, #24]
10000324:	2110      	movs	r1, #16
10000326:	000a      	movs	r2, r1
10000328:	401a      	ands	r2, r3
1000032a:	4219      	tst	r1, r3
1000032c:	d11f      	bne.n	1000036e <test_uart1_rx+0x6a>
1000032e:	466b      	mov	r3, sp
10000330:	1cd9      	adds	r1, r3, #3
10000332:	2a00      	cmp	r2, #0
10000334:	d1ea      	bne.n	1000030c <test_uart1_rx+0x8>
10000336:	4b11      	ldr	r3, [pc, #68]	; (1000037c <test_uart1_rx+0x78>)
10000338:	699b      	ldr	r3, [r3, #24]
1000033a:	06db      	lsls	r3, r3, #27
1000033c:	d4fb      	bmi.n	10000336 <test_uart1_rx+0x32>
1000033e:	4b0f      	ldr	r3, [pc, #60]	; (1000037c <test_uart1_rx+0x78>)
10000340:	681b      	ldr	r3, [r3, #0]
10000342:	700b      	strb	r3, [r1, #0]
10000344:	3201      	adds	r2, #1
10000346:	3101      	adds	r1, #1
10000348:	e7f3      	b.n	10000332 <test_uart1_rx+0x2e>
1000034a:	a901      	add	r1, sp, #4
1000034c:	480c      	ldr	r0, [pc, #48]	; (10000380 <test_uart1_rx+0x7c>)
1000034e:	f003 ffa9 	bl	100042a4 <__wrap_printf>
10000352:	2264      	movs	r2, #100	; 0x64
10000354:	2100      	movs	r1, #0
10000356:	a801      	add	r0, sp, #4
10000358:	f003 fe46 	bl	10003fe8 <__wrap_memset>
1000035c:	2300      	movs	r3, #0
1000035e:	e7de      	b.n	1000031e <test_uart1_rx+0x1a>
10000360:	2264      	movs	r2, #100	; 0x64
10000362:	2100      	movs	r1, #0
10000364:	a801      	add	r0, sp, #4
10000366:	f003 fe3f 	bl	10003fe8 <__wrap_memset>
1000036a:	2300      	movs	r3, #0
1000036c:	e7d7      	b.n	1000031e <test_uart1_rx+0x1a>
1000036e:	20fa      	movs	r0, #250	; 0xfa
10000370:	0040      	lsls	r0, r0, #1
10000372:	f001 f9a1 	bl	100016b8 <sleep_ms>
10000376:	b01b      	add	sp, #108	; 0x6c
10000378:	bd00      	pop	{pc}
1000037a:	46c0      	nop			; (mov r8, r8)
1000037c:	40038000 	.word	0x40038000
10000380:	10006c20 	.word	0x10006c20

10000384 <main>:
10000384:	b510      	push	{r4, lr}
10000386:	f003 ff99 	bl	100042bc <stdio_init_all>
1000038a:	21e1      	movs	r1, #225	; 0xe1
1000038c:	0249      	lsls	r1, r1, #9
1000038e:	4807      	ldr	r0, [pc, #28]	; (100003ac <main+0x28>)
10000390:	f001 fe14 	bl	10001fbc <uart_init>
10000394:	2102      	movs	r1, #2
10000396:	2008      	movs	r0, #8
10000398:	f000 f80a 	bl	100003b0 <gpio_set_function>
1000039c:	2102      	movs	r1, #2
1000039e:	2009      	movs	r0, #9
100003a0:	f000 f806 	bl	100003b0 <gpio_set_function>
100003a4:	f7ff ffae 	bl	10000304 <test_uart1_rx>
100003a8:	e7fc      	b.n	100003a4 <main+0x20>
100003aa:	46c0      	nop			; (mov r8, r8)
100003ac:	40038000 	.word	0x40038000

100003b0 <gpio_set_function>:
100003b0:	b510      	push	{r4, lr}
100003b2:	0083      	lsls	r3, r0, #2
100003b4:	4a08      	ldr	r2, [pc, #32]	; (100003d8 <gpio_set_function+0x28>)
100003b6:	4694      	mov	ip, r2
100003b8:	4463      	add	r3, ip
100003ba:	681c      	ldr	r4, [r3, #0]
100003bc:	2240      	movs	r2, #64	; 0x40
100003be:	4062      	eors	r2, r4
100003c0:	24c0      	movs	r4, #192	; 0xc0
100003c2:	4014      	ands	r4, r2
100003c4:	2280      	movs	r2, #128	; 0x80
100003c6:	0152      	lsls	r2, r2, #5
100003c8:	4313      	orrs	r3, r2
100003ca:	601c      	str	r4, [r3, #0]
100003cc:	00c0      	lsls	r0, r0, #3
100003ce:	4b03      	ldr	r3, [pc, #12]	; (100003dc <gpio_set_function+0x2c>)
100003d0:	469c      	mov	ip, r3
100003d2:	4460      	add	r0, ip
100003d4:	6041      	str	r1, [r0, #4]
100003d6:	bd10      	pop	{r4, pc}
100003d8:	4001c004 	.word	0x4001c004
100003dc:	40014000 	.word	0x40014000

100003e0 <running_on_fpga>:
100003e0:	4b03      	ldr	r3, [pc, #12]	; (100003f0 <running_on_fpga+0x10>)
100003e2:	681b      	ldr	r3, [r3, #0]
100003e4:	2002      	movs	r0, #2
100003e6:	4018      	ands	r0, r3
100003e8:	1e43      	subs	r3, r0, #1
100003ea:	4198      	sbcs	r0, r3
100003ec:	b2c0      	uxtb	r0, r0
100003ee:	4770      	bx	lr
100003f0:	4006c000 	.word	0x4006c000

100003f4 <hw_claim_lock>:
100003f4:	f3ef 8010 	mrs	r0, PRIMASK
100003f8:	b672      	cpsid	i
100003fa:	4b03      	ldr	r3, [pc, #12]	; (10000408 <hw_claim_lock+0x14>)
100003fc:	681b      	ldr	r3, [r3, #0]
100003fe:	2b00      	cmp	r3, #0
10000400:	d0fb      	beq.n	100003fa <hw_claim_lock+0x6>
10000402:	f3bf 8f5f 	dmb	sy
10000406:	4770      	bx	lr
10000408:	d000012c 	.word	0xd000012c

1000040c <hw_claim_unlock>:
1000040c:	f3bf 8f5f 	dmb	sy
10000410:	4b02      	ldr	r3, [pc, #8]	; (1000041c <hw_claim_unlock+0x10>)
10000412:	2200      	movs	r2, #0
10000414:	601a      	str	r2, [r3, #0]
10000416:	f380 8810 	msr	PRIMASK, r0
1000041a:	4770      	bx	lr
1000041c:	d000012c 	.word	0xd000012c

10000420 <hw_claim_or_assert>:
10000420:	b5f8      	push	{r3, r4, r5, r6, r7, lr}
10000422:	0006      	movs	r6, r0
10000424:	000c      	movs	r4, r1
10000426:	0015      	movs	r5, r2
10000428:	f7ff ffe4 	bl	100003f4 <hw_claim_lock>
1000042c:	08e3      	lsrs	r3, r4, #3
1000042e:	18f7      	adds	r7, r6, r3
10000430:	5cf1      	ldrb	r1, [r6, r3]
10000432:	2207      	movs	r2, #7
10000434:	4022      	ands	r2, r4
10000436:	2301      	movs	r3, #1
10000438:	4093      	lsls	r3, r2
1000043a:	420b      	tst	r3, r1
1000043c:	d105      	bne.n	1000044a <hw_claim_or_assert+0x2a>
1000043e:	b2db      	uxtb	r3, r3
10000440:	430b      	orrs	r3, r1
10000442:	703b      	strb	r3, [r7, #0]
10000444:	f7ff ffe2 	bl	1000040c <hw_claim_unlock>
10000448:	bdf8      	pop	{r3, r4, r5, r6, r7, pc}
1000044a:	0021      	movs	r1, r4
1000044c:	0028      	movs	r0, r5
1000044e:	f002 f8b5 	bl	100025bc <panic>

10000452 <hw_claim_unused_from_range>:
10000452:	b5f0      	push	{r4, r5, r6, r7, lr}
10000454:	b083      	sub	sp, #12
10000456:	0006      	movs	r6, r0
10000458:	9101      	str	r1, [sp, #4]
1000045a:	0014      	movs	r4, r2
1000045c:	001f      	movs	r7, r3
1000045e:	f7ff ffc9 	bl	100003f4 <hw_claim_lock>
10000462:	e000      	b.n	10000466 <hw_claim_unused_from_range+0x14>
10000464:	3401      	adds	r4, #1
10000466:	42bc      	cmp	r4, r7
10000468:	d80c      	bhi.n	10000484 <hw_claim_unused_from_range+0x32>
1000046a:	08e3      	lsrs	r3, r4, #3
1000046c:	18f5      	adds	r5, r6, r3
1000046e:	5cf3      	ldrb	r3, [r6, r3]
10000470:	2107      	movs	r1, #7
10000472:	4021      	ands	r1, r4
10000474:	2201      	movs	r2, #1
10000476:	408a      	lsls	r2, r1
10000478:	421a      	tst	r2, r3
1000047a:	d1f3      	bne.n	10000464 <hw_claim_unused_from_range+0x12>
1000047c:	b2d2      	uxtb	r2, r2
1000047e:	431a      	orrs	r2, r3
10000480:	702a      	strb	r2, [r5, #0]
10000482:	e001      	b.n	10000488 <hw_claim_unused_from_range+0x36>
10000484:	2401      	movs	r4, #1
10000486:	4264      	negs	r4, r4
10000488:	f7ff ffc0 	bl	1000040c <hw_claim_unlock>
1000048c:	2c00      	cmp	r4, #0
1000048e:	db02      	blt.n	10000496 <hw_claim_unused_from_range+0x44>
10000490:	0020      	movs	r0, r4
10000492:	b003      	add	sp, #12
10000494:	bdf0      	pop	{r4, r5, r6, r7, pc}
10000496:	9b01      	ldr	r3, [sp, #4]
10000498:	2b00      	cmp	r3, #0
1000049a:	d0f9      	beq.n	10000490 <hw_claim_unused_from_range+0x3e>
1000049c:	9808      	ldr	r0, [sp, #32]
1000049e:	f002 f88d 	bl	100025bc <panic>
	...

100004a4 <spin_locks_reset>:
100004a4:	2300      	movs	r3, #0
100004a6:	e007      	b.n	100004b8 <spin_locks_reset+0x14>
100004a8:	4a05      	ldr	r2, [pc, #20]	; (100004c0 <spin_locks_reset+0x1c>)
100004aa:	189a      	adds	r2, r3, r2
100004ac:	0092      	lsls	r2, r2, #2
100004ae:	f3bf 8f5f 	dmb	sy
100004b2:	2100      	movs	r1, #0
100004b4:	6011      	str	r1, [r2, #0]
100004b6:	3301      	adds	r3, #1
100004b8:	2b1f      	cmp	r3, #31
100004ba:	d9f5      	bls.n	100004a8 <spin_locks_reset+0x4>
100004bc:	4770      	bx	lr
100004be:	46c0      	nop			; (mov r8, r8)
100004c0:	34000040 	.word	0x34000040

100004c4 <next_striped_spin_lock_num>:
100004c4:	4a05      	ldr	r2, [pc, #20]	; (100004dc <next_striped_spin_lock_num+0x18>)
100004c6:	7810      	ldrb	r0, [r2, #0]
100004c8:	1c43      	adds	r3, r0, #1
100004ca:	b2db      	uxtb	r3, r3
100004cc:	7013      	strb	r3, [r2, #0]
100004ce:	2b17      	cmp	r3, #23
100004d0:	d902      	bls.n	100004d8 <next_striped_spin_lock_num+0x14>
100004d2:	0013      	movs	r3, r2
100004d4:	2210      	movs	r2, #16
100004d6:	701a      	strb	r2, [r3, #0]
100004d8:	4770      	bx	lr
100004da:	46c0      	nop			; (mov r8, r8)
100004dc:	20000bb0 	.word	0x20000bb0

100004e0 <spin_lock_claim_unused>:
100004e0:	b500      	push	{lr}
100004e2:	b083      	sub	sp, #12
100004e4:	0001      	movs	r1, r0
100004e6:	4b04      	ldr	r3, [pc, #16]	; (100004f8 <spin_lock_claim_unused+0x18>)
100004e8:	9300      	str	r3, [sp, #0]
100004ea:	231f      	movs	r3, #31
100004ec:	2218      	movs	r2, #24
100004ee:	4803      	ldr	r0, [pc, #12]	; (100004fc <spin_lock_claim_unused+0x1c>)
100004f0:	f7ff ffaf 	bl	10000452 <hw_claim_unused_from_range>
100004f4:	b003      	add	sp, #12
100004f6:	bd00      	pop	{pc}
100004f8:	10006c38 	.word	0x10006c38
100004fc:	20001350 	.word	0x20001350

10000500 <set_raw_irq_handler_and_unlock>:
10000500:	4b07      	ldr	r3, [pc, #28]	; (10000520 <set_raw_irq_handler_and_unlock+0x20>)
10000502:	689b      	ldr	r3, [r3, #8]
10000504:	3010      	adds	r0, #16
10000506:	0080      	lsls	r0, r0, #2
10000508:	5019      	str	r1, [r3, r0]
1000050a:	f3bf 8f5f 	dmb	sy
1000050e:	f3bf 8f5f 	dmb	sy
10000512:	4b04      	ldr	r3, [pc, #16]	; (10000524 <set_raw_irq_handler_and_unlock+0x24>)
10000514:	2100      	movs	r1, #0
10000516:	6019      	str	r1, [r3, #0]
10000518:	f382 8810 	msr	PRIMASK, r2
1000051c:	4770      	bx	lr
1000051e:	46c0      	nop			; (mov r8, r8)
10000520:	e000ed00 	.word	0xe000ed00
10000524:	d0000124 	.word	0xd0000124

10000528 <make_branch>:
10000528:	b510      	push	{r4, lr}
1000052a:	1a09      	subs	r1, r1, r0
1000052c:	1f08      	subs	r0, r1, #4
1000052e:	4b0a      	ldr	r3, [pc, #40]	; (10000558 <make_branch+0x30>)
10000530:	469c      	mov	ip, r3
10000532:	4461      	add	r1, ip
10000534:	4a09      	ldr	r2, [pc, #36]	; (1000055c <make_branch+0x34>)
10000536:	4291      	cmp	r1, r2
10000538:	d808      	bhi.n	1000054c <make_branch+0x24>
1000053a:	07c3      	lsls	r3, r0, #31
1000053c:	d406      	bmi.n	1000054c <make_branch+0x24>
1000053e:	1040      	asrs	r0, r0, #1
10000540:	0540      	lsls	r0, r0, #21
10000542:	0d40      	lsrs	r0, r0, #21
10000544:	4b06      	ldr	r3, [pc, #24]	; (10000560 <make_branch+0x38>)
10000546:	4318      	orrs	r0, r3
10000548:	b280      	uxth	r0, r0
1000054a:	bd10      	pop	{r4, pc}
1000054c:	4b05      	ldr	r3, [pc, #20]	; (10000564 <make_branch+0x3c>)
1000054e:	4a06      	ldr	r2, [pc, #24]	; (10000568 <make_branch+0x40>)
10000550:	21a3      	movs	r1, #163	; 0xa3
10000552:	4806      	ldr	r0, [pc, #24]	; (1000056c <make_branch+0x44>)
10000554:	f001 ff98 	bl	10002488 <__assert_func>
10000558:	000007fc 	.word	0x000007fc
1000055c:	00000ffe 	.word	0x00000ffe
10000560:	ffffe000 	.word	0xffffe000
10000564:	10006c54 	.word	0x10006c54
10000568:	10006ee0 	.word	0x10006ee0
1000056c:	10006c84 	.word	0x10006c84

10000570 <insert_branch_and_link>:
10000570:	b510      	push	{r4, lr}
10000572:	1a09      	subs	r1, r1, r0
10000574:	3904      	subs	r1, #4
10000576:	084c      	lsrs	r4, r1, #1
10000578:	0b09      	lsrs	r1, r1, #12
1000057a:	d108      	bne.n	1000058e <insert_branch_and_link+0x1e>
1000057c:	0549      	lsls	r1, r1, #21
1000057e:	0d49      	lsrs	r1, r1, #21
10000580:	4a06      	ldr	r2, [pc, #24]	; (1000059c <insert_branch_and_link+0x2c>)
10000582:	4311      	orrs	r1, r2
10000584:	8001      	strh	r1, [r0, #0]
10000586:	4b06      	ldr	r3, [pc, #24]	; (100005a0 <insert_branch_and_link+0x30>)
10000588:	4323      	orrs	r3, r4
1000058a:	8043      	strh	r3, [r0, #2]
1000058c:	bd10      	pop	{r4, pc}
1000058e:	4b05      	ldr	r3, [pc, #20]	; (100005a4 <insert_branch_and_link+0x34>)
10000590:	4a05      	ldr	r2, [pc, #20]	; (100005a8 <insert_branch_and_link+0x38>)
10000592:	21ab      	movs	r1, #171	; 0xab
10000594:	4805      	ldr	r0, [pc, #20]	; (100005ac <insert_branch_and_link+0x3c>)
10000596:	f001 ff77 	bl	10002488 <__assert_func>
1000059a:	46c0      	nop			; (mov r8, r8)
1000059c:	fffff000 	.word	0xfffff000
100005a0:	fffff800 	.word	0xfffff800
100005a4:	10006ce0 	.word	0x10006ce0
100005a8:	10006eb4 	.word	0x10006eb4
100005ac:	10006c84 	.word	0x10006c84

100005b0 <irq_is_enabled>:
100005b0:	2301      	movs	r3, #1
100005b2:	4083      	lsls	r3, r0
100005b4:	4a03      	ldr	r2, [pc, #12]	; (100005c4 <irq_is_enabled+0x14>)
100005b6:	6810      	ldr	r0, [r2, #0]
100005b8:	4018      	ands	r0, r3
100005ba:	1e43      	subs	r3, r0, #1
100005bc:	4198      	sbcs	r0, r3
100005be:	b2c0      	uxtb	r0, r0
100005c0:	4770      	bx	lr
100005c2:	46c0      	nop			; (mov r8, r8)
100005c4:	e000e100 	.word	0xe000e100

100005c8 <irq_set_mask_enabled>:
100005c8:	2900      	cmp	r1, #0
100005ca:	d004      	beq.n	100005d6 <irq_set_mask_enabled+0xe>
100005cc:	4b03      	ldr	r3, [pc, #12]	; (100005dc <irq_set_mask_enabled+0x14>)
100005ce:	6018      	str	r0, [r3, #0]
100005d0:	4b03      	ldr	r3, [pc, #12]	; (100005e0 <irq_set_mask_enabled+0x18>)
100005d2:	6018      	str	r0, [r3, #0]
100005d4:	4770      	bx	lr
100005d6:	4b03      	ldr	r3, [pc, #12]	; (100005e4 <irq_set_mask_enabled+0x1c>)
100005d8:	6018      	str	r0, [r3, #0]
100005da:	e7fb      	b.n	100005d4 <irq_set_mask_enabled+0xc>
100005dc:	e000e280 	.word	0xe000e280
100005e0:	e000e100 	.word	0xe000e100
100005e4:	e000e180 	.word	0xe000e180

100005e8 <irq_set_enabled>:
100005e8:	b510      	push	{r4, lr}
100005ea:	2301      	movs	r3, #1
100005ec:	4083      	lsls	r3, r0
100005ee:	0018      	movs	r0, r3
100005f0:	f7ff ffea 	bl	100005c8 <irq_set_mask_enabled>
100005f4:	bd10      	pop	{r4, pc}
	...

100005f8 <irq_set_pending>:
100005f8:	2301      	movs	r3, #1
100005fa:	4083      	lsls	r3, r0
100005fc:	4a01      	ldr	r2, [pc, #4]	; (10000604 <irq_set_pending+0xc>)
100005fe:	6013      	str	r3, [r2, #0]
10000600:	4770      	bx	lr
10000602:	46c0      	nop			; (mov r8, r8)
10000604:	e000e200 	.word	0xe000e200

10000608 <irq_get_vtable_handler>:
10000608:	4b02      	ldr	r3, [pc, #8]	; (10000614 <irq_get_vtable_handler+0xc>)
1000060a:	689b      	ldr	r3, [r3, #8]
1000060c:	3010      	adds	r0, #16
1000060e:	0080      	lsls	r0, r0, #2
10000610:	58c0      	ldr	r0, [r0, r3]
10000612:	4770      	bx	lr
10000614:	e000ed00 	.word	0xe000ed00

10000618 <irq_has_shared_handler>:
10000618:	b510      	push	{r4, lr}
1000061a:	f7ff fff5 	bl	10000608 <irq_get_vtable_handler>
1000061e:	2800      	cmp	r0, #0
10000620:	d005      	beq.n	1000062e <irq_has_shared_handler+0x16>
10000622:	4b05      	ldr	r3, [pc, #20]	; (10000638 <irq_has_shared_handler+0x20>)
10000624:	1ac0      	subs	r0, r0, r3
10000626:	282f      	cmp	r0, #47	; 0x2f
10000628:	d803      	bhi.n	10000632 <irq_has_shared_handler+0x1a>
1000062a:	2001      	movs	r0, #1
1000062c:	bd10      	pop	{r4, pc}
1000062e:	2000      	movs	r0, #0
10000630:	e7fc      	b.n	1000062c <irq_has_shared_handler+0x14>
10000632:	2000      	movs	r0, #0
10000634:	e7fa      	b.n	1000062c <irq_has_shared_handler+0x14>
10000636:	46c0      	nop			; (mov r8, r8)
10000638:	20000bb4 	.word	0x20000bb4

1000063c <irq_set_exclusive_handler>:
1000063c:	b570      	push	{r4, r5, r6, lr}
1000063e:	0004      	movs	r4, r0
10000640:	000d      	movs	r5, r1
10000642:	f3ef 8610 	mrs	r6, PRIMASK
10000646:	b672      	cpsid	i
10000648:	4b0c      	ldr	r3, [pc, #48]	; (1000067c <irq_set_exclusive_handler+0x40>)
1000064a:	681b      	ldr	r3, [r3, #0]
1000064c:	2b00      	cmp	r3, #0
1000064e:	d0fb      	beq.n	10000648 <irq_set_exclusive_handler+0xc>
10000650:	f3bf 8f5f 	dmb	sy
10000654:	0020      	movs	r0, r4
10000656:	f7ff ffd7 	bl	10000608 <irq_get_vtable_handler>
1000065a:	4b09      	ldr	r3, [pc, #36]	; (10000680 <irq_set_exclusive_handler+0x44>)
1000065c:	4298      	cmp	r0, r3
1000065e:	d001      	beq.n	10000664 <irq_set_exclusive_handler+0x28>
10000660:	42a8      	cmp	r0, r5
10000662:	d105      	bne.n	10000670 <irq_set_exclusive_handler+0x34>
10000664:	0032      	movs	r2, r6
10000666:	0029      	movs	r1, r5
10000668:	0020      	movs	r0, r4
1000066a:	f7ff ff49 	bl	10000500 <set_raw_irq_handler_and_unlock>
1000066e:	bd70      	pop	{r4, r5, r6, pc}
10000670:	4b04      	ldr	r3, [pc, #16]	; (10000684 <irq_set_exclusive_handler+0x48>)
10000672:	4a05      	ldr	r2, [pc, #20]	; (10000688 <irq_set_exclusive_handler+0x4c>)
10000674:	2186      	movs	r1, #134	; 0x86
10000676:	4805      	ldr	r0, [pc, #20]	; (1000068c <irq_set_exclusive_handler+0x50>)
10000678:	f001 ff06 	bl	10002488 <__assert_func>
1000067c:	d0000124 	.word	0xd0000124
10000680:	100001cd 	.word	0x100001cd
10000684:	10006cf0 	.word	0x10006cf0
10000688:	10006f14 	.word	0x10006f14
1000068c:	10006c84 	.word	0x10006c84

10000690 <irq_add_shared_handler>:
10000690:	b5f0      	push	{r4, r5, r6, r7, lr}
10000692:	46de      	mov	lr, fp
10000694:	4657      	mov	r7, sl
10000696:	464e      	mov	r6, r9
10000698:	4645      	mov	r5, r8
1000069a:	b5e0      	push	{r5, r6, r7, lr}
1000069c:	b089      	sub	sp, #36	; 0x24
1000069e:	4681      	mov	r9, r0
100006a0:	9101      	str	r1, [sp, #4]
100006a2:	0015      	movs	r5, r2
100006a4:	f3ef 8a10 	mrs	sl, PRIMASK
100006a8:	b672      	cpsid	i
100006aa:	4b74      	ldr	r3, [pc, #464]	; (1000087c <irq_add_shared_handler+0x1ec>)
100006ac:	681b      	ldr	r3, [r3, #0]
100006ae:	2b00      	cmp	r3, #0
100006b0:	d0fb      	beq.n	100006aa <irq_add_shared_handler+0x1a>
100006b2:	f3bf 8f5f 	dmb	sy
100006b6:	4b72      	ldr	r3, [pc, #456]	; (10000880 <irq_add_shared_handler+0x1f0>)
100006b8:	2700      	movs	r7, #0
100006ba:	57df      	ldrsb	r7, [r3, r7]
100006bc:	2f00      	cmp	r7, #0
100006be:	db40      	blt.n	10000742 <irq_add_shared_handler+0xb2>
100006c0:	007c      	lsls	r4, r7, #1
100006c2:	19e4      	adds	r4, r4, r7
100006c4:	00a4      	lsls	r4, r4, #2
100006c6:	486f      	ldr	r0, [pc, #444]	; (10000884 <irq_add_shared_handler+0x1f4>)
100006c8:	1824      	adds	r4, r4, r0
100006ca:	2206      	movs	r2, #6
100006cc:	56a2      	ldrsb	r2, [r4, r2]
100006ce:	4b6c      	ldr	r3, [pc, #432]	; (10000880 <irq_add_shared_handler+0x1f0>)
100006d0:	701a      	strb	r2, [r3, #0]
100006d2:	4b6d      	ldr	r3, [pc, #436]	; (10000888 <irq_add_shared_handler+0x1f8>)
100006d4:	689a      	ldr	r2, [r3, #8]
100006d6:	464b      	mov	r3, r9
100006d8:	3310      	adds	r3, #16
100006da:	009b      	lsls	r3, r3, #2
100006dc:	58d3      	ldr	r3, [r2, r3]
100006de:	4698      	mov	r8, r3
100006e0:	001e      	movs	r6, r3
100006e2:	1a1b      	subs	r3, r3, r0
100006e4:	2b2f      	cmp	r3, #47	; 0x2f
100006e6:	d938      	bls.n	1000075a <irq_add_shared_handler+0xca>
100006e8:	4b68      	ldr	r3, [pc, #416]	; (1000088c <irq_add_shared_handler+0x1fc>)
100006ea:	4598      	cmp	r8, r3
100006ec:	d12f      	bne.n	1000074e <irq_add_shared_handler+0xbe>
100006ee:	ae05      	add	r6, sp, #20
100006f0:	4b67      	ldr	r3, [pc, #412]	; (10000890 <irq_add_shared_handler+0x200>)
100006f2:	8033      	strh	r3, [r6, #0]
100006f4:	007b      	lsls	r3, r7, #1
100006f6:	469b      	mov	fp, r3
100006f8:	19d8      	adds	r0, r3, r7
100006fa:	0080      	lsls	r0, r0, #2
100006fc:	4b61      	ldr	r3, [pc, #388]	; (10000884 <irq_add_shared_handler+0x1f4>)
100006fe:	4698      	mov	r8, r3
10000700:	4440      	add	r0, r8
10000702:	3002      	adds	r0, #2
10000704:	4963      	ldr	r1, [pc, #396]	; (10000894 <irq_add_shared_handler+0x204>)
10000706:	f7ff ff0f 	bl	10000528 <make_branch>
1000070a:	8070      	strh	r0, [r6, #2]
1000070c:	4b62      	ldr	r3, [pc, #392]	; (10000898 <irq_add_shared_handler+0x208>)
1000070e:	80b3      	strh	r3, [r6, #4]
10000710:	23ff      	movs	r3, #255	; 0xff
10000712:	71b3      	strb	r3, [r6, #6]
10000714:	71f5      	strb	r5, [r6, #7]
10000716:	9b01      	ldr	r3, [sp, #4]
10000718:	9307      	str	r3, [sp, #28]
1000071a:	445f      	add	r7, fp
1000071c:	00bf      	lsls	r7, r7, #2
1000071e:	4447      	add	r7, r8
10000720:	ce0e      	ldmia	r6!, {r1, r2, r3}
10000722:	c70e      	stmia	r7!, {r1, r2, r3}
10000724:	2301      	movs	r3, #1
10000726:	431c      	orrs	r4, r3
10000728:	46a0      	mov	r8, r4
1000072a:	4652      	mov	r2, sl
1000072c:	4641      	mov	r1, r8
1000072e:	4648      	mov	r0, r9
10000730:	f7ff fee6 	bl	10000500 <set_raw_irq_handler_and_unlock>
10000734:	b009      	add	sp, #36	; 0x24
10000736:	bcf0      	pop	{r4, r5, r6, r7}
10000738:	46bb      	mov	fp, r7
1000073a:	46b2      	mov	sl, r6
1000073c:	46a9      	mov	r9, r5
1000073e:	46a0      	mov	r8, r4
10000740:	bdf0      	pop	{r4, r5, r6, r7, pc}
10000742:	4b56      	ldr	r3, [pc, #344]	; (1000089c <irq_add_shared_handler+0x20c>)
10000744:	4a56      	ldr	r2, [pc, #344]	; (100008a0 <irq_add_shared_handler+0x210>)
10000746:	21d7      	movs	r1, #215	; 0xd7
10000748:	4856      	ldr	r0, [pc, #344]	; (100008a4 <irq_add_shared_handler+0x214>)
1000074a:	f001 fe9d 	bl	10002488 <__assert_func>
1000074e:	4b56      	ldr	r3, [pc, #344]	; (100008a8 <irq_add_shared_handler+0x218>)
10000750:	4a53      	ldr	r2, [pc, #332]	; (100008a0 <irq_add_shared_handler+0x210>)
10000752:	21de      	movs	r1, #222	; 0xde
10000754:	4853      	ldr	r0, [pc, #332]	; (100008a4 <irq_add_shared_handler+0x214>)
10000756:	f001 fe97 	bl	10002488 <__assert_func>
1000075a:	43c0      	mvns	r0, r0
1000075c:	4440      	add	r0, r8
1000075e:	210c      	movs	r1, #12
10000760:	f003 f840 	bl	100037e4 <__wrap___aeabi_uidiv>
10000764:	2900      	cmp	r1, #0
10000766:	d112      	bne.n	1000078e <irq_add_shared_handler+0xfe>
10000768:	2301      	movs	r3, #1
1000076a:	439e      	bics	r6, r3
1000076c:	46b3      	mov	fp, r6
1000076e:	0033      	movs	r3, r6
10000770:	2600      	movs	r6, #0
10000772:	79da      	ldrb	r2, [r3, #7]
10000774:	42aa      	cmp	r2, r5
10000776:	d911      	bls.n	1000079c <irq_add_shared_handler+0x10c>
10000778:	2106      	movs	r1, #6
1000077a:	5659      	ldrsb	r1, [r3, r1]
1000077c:	2900      	cmp	r1, #0
1000077e:	db0c      	blt.n	1000079a <irq_add_shared_handler+0x10a>
10000780:	004a      	lsls	r2, r1, #1
10000782:	1852      	adds	r2, r2, r1
10000784:	0092      	lsls	r2, r2, #2
10000786:	001e      	movs	r6, r3
10000788:	4b3e      	ldr	r3, [pc, #248]	; (10000884 <irq_add_shared_handler+0x1f4>)
1000078a:	189b      	adds	r3, r3, r2
1000078c:	e7f1      	b.n	10000772 <irq_add_shared_handler+0xe2>
1000078e:	4b47      	ldr	r3, [pc, #284]	; (100008ac <irq_add_shared_handler+0x21c>)
10000790:	4a43      	ldr	r2, [pc, #268]	; (100008a0 <irq_add_shared_handler+0x210>)
10000792:	21ea      	movs	r1, #234	; 0xea
10000794:	4843      	ldr	r0, [pc, #268]	; (100008a4 <irq_add_shared_handler+0x214>)
10000796:	f001 fe77 	bl	10002488 <__assert_func>
1000079a:	001e      	movs	r6, r3
1000079c:	2e00      	cmp	r6, #0
1000079e:	d03a      	beq.n	10000816 <irq_add_shared_handler+0x186>
100007a0:	ab05      	add	r3, sp, #20
100007a2:	4a43      	ldr	r2, [pc, #268]	; (100008b0 <irq_add_shared_handler+0x220>)
100007a4:	801a      	strh	r2, [r3, #0]
100007a6:	3a81      	subs	r2, #129	; 0x81
100007a8:	805a      	strh	r2, [r3, #2]
100007aa:	2306      	movs	r3, #6
100007ac:	56f3      	ldrsb	r3, [r6, r3]
100007ae:	9302      	str	r3, [sp, #8]
100007b0:	2b00      	cmp	r3, #0
100007b2:	da17      	bge.n	100007e4 <irq_add_shared_handler+0x154>
100007b4:	483f      	ldr	r0, [pc, #252]	; (100008b4 <irq_add_shared_handler+0x224>)
100007b6:	ab05      	add	r3, sp, #20
100007b8:	469b      	mov	fp, r3
100007ba:	8098      	strh	r0, [r3, #4]
100007bc:	9a02      	ldr	r2, [sp, #8]
100007be:	719a      	strb	r2, [r3, #6]
100007c0:	71dd      	strb	r5, [r3, #7]
100007c2:	9a01      	ldr	r2, [sp, #4]
100007c4:	9207      	str	r2, [sp, #28]
100007c6:	1d30      	adds	r0, r6, #4
100007c8:	0021      	movs	r1, r4
100007ca:	f7ff fead 	bl	10000528 <make_branch>
100007ce:	80b0      	strh	r0, [r6, #4]
100007d0:	71b7      	strb	r7, [r6, #6]
100007d2:	007b      	lsls	r3, r7, #1
100007d4:	19db      	adds	r3, r3, r7
100007d6:	009b      	lsls	r3, r3, #2
100007d8:	4f2a      	ldr	r7, [pc, #168]	; (10000884 <irq_add_shared_handler+0x1f4>)
100007da:	18ff      	adds	r7, r7, r3
100007dc:	465b      	mov	r3, fp
100007de:	cb07      	ldmia	r3!, {r0, r1, r2}
100007e0:	c707      	stmia	r7!, {r0, r1, r2}
100007e2:	e7a2      	b.n	1000072a <irq_add_shared_handler+0x9a>
100007e4:	0078      	lsls	r0, r7, #1
100007e6:	19c0      	adds	r0, r0, r7
100007e8:	0080      	lsls	r0, r0, #2
100007ea:	4b26      	ldr	r3, [pc, #152]	; (10000884 <irq_add_shared_handler+0x1f4>)
100007ec:	18c0      	adds	r0, r0, r3
100007ee:	3004      	adds	r0, #4
100007f0:	1d32      	adds	r2, r6, #4
100007f2:	88b3      	ldrh	r3, [r6, #4]
100007f4:	0ad9      	lsrs	r1, r3, #11
100007f6:	291c      	cmp	r1, #28
100007f8:	d107      	bne.n	1000080a <irq_add_shared_handler+0x17a>
100007fa:	055b      	lsls	r3, r3, #21
100007fc:	1559      	asrs	r1, r3, #21
100007fe:	3102      	adds	r1, #2
10000800:	0049      	lsls	r1, r1, #1
10000802:	1851      	adds	r1, r2, r1
10000804:	f7ff fe90 	bl	10000528 <make_branch>
10000808:	e7d5      	b.n	100007b6 <irq_add_shared_handler+0x126>
1000080a:	4b2b      	ldr	r3, [pc, #172]	; (100008b8 <irq_add_shared_handler+0x228>)
1000080c:	4a2b      	ldr	r2, [pc, #172]	; (100008bc <irq_add_shared_handler+0x22c>)
1000080e:	21b1      	movs	r1, #177	; 0xb1
10000810:	4824      	ldr	r0, [pc, #144]	; (100008a4 <irq_add_shared_handler+0x214>)
10000812:	f001 fe39 	bl	10002488 <__assert_func>
10000816:	ae05      	add	r6, sp, #20
10000818:	4b1d      	ldr	r3, [pc, #116]	; (10000890 <irq_add_shared_handler+0x200>)
1000081a:	8033      	strh	r3, [r6, #0]
1000081c:	007b      	lsls	r3, r7, #1
1000081e:	9302      	str	r3, [sp, #8]
10000820:	19d8      	adds	r0, r3, r7
10000822:	0080      	lsls	r0, r0, #2
10000824:	4a17      	ldr	r2, [pc, #92]	; (10000884 <irq_add_shared_handler+0x1f4>)
10000826:	4690      	mov	r8, r2
10000828:	0002      	movs	r2, r0
1000082a:	4442      	add	r2, r8
1000082c:	9203      	str	r2, [sp, #12]
1000082e:	1c90      	adds	r0, r2, #2
10000830:	4918      	ldr	r1, [pc, #96]	; (10000894 <irq_add_shared_handler+0x204>)
10000832:	f7ff fe79 	bl	10000528 <make_branch>
10000836:	8070      	strh	r0, [r6, #2]
10000838:	9a03      	ldr	r2, [sp, #12]
1000083a:	1d10      	adds	r0, r2, #4
1000083c:	4659      	mov	r1, fp
1000083e:	f7ff fe73 	bl	10000528 <make_branch>
10000842:	80b0      	strh	r0, [r6, #4]
10000844:	4b1e      	ldr	r3, [pc, #120]	; (100008c0 <irq_add_shared_handler+0x230>)
10000846:	465a      	mov	r2, fp
10000848:	4641      	mov	r1, r8
1000084a:	1a52      	subs	r2, r2, r1
1000084c:	4152      	adcs	r2, r2
1000084e:	4353      	muls	r3, r2
10000850:	0d1b      	lsrs	r3, r3, #20
10000852:	71b3      	strb	r3, [r6, #6]
10000854:	71f5      	strb	r5, [r6, #7]
10000856:	9a01      	ldr	r2, [sp, #4]
10000858:	9207      	str	r2, [sp, #28]
1000085a:	9b02      	ldr	r3, [sp, #8]
1000085c:	469c      	mov	ip, r3
1000085e:	4467      	add	r7, ip
10000860:	00bf      	lsls	r7, r7, #2
10000862:	4447      	add	r7, r8
10000864:	ce0e      	ldmia	r6!, {r1, r2, r3}
10000866:	c70e      	stmia	r7!, {r1, r2, r3}
10000868:	4b11      	ldr	r3, [pc, #68]	; (100008b0 <irq_add_shared_handler+0x220>)
1000086a:	465a      	mov	r2, fp
1000086c:	8013      	strh	r3, [r2, #0]
1000086e:	3b81      	subs	r3, #129	; 0x81
10000870:	8053      	strh	r3, [r2, #2]
10000872:	2301      	movs	r3, #1
10000874:	431c      	orrs	r4, r3
10000876:	46a0      	mov	r8, r4
10000878:	e757      	b.n	1000072a <irq_add_shared_handler+0x9a>
1000087a:	46c0      	nop			; (mov r8, r8)
1000087c:	d0000124 	.word	0xd0000124
10000880:	20001a55 	.word	0x20001a55
10000884:	20000bb4 	.word	0x20000bb4
10000888:	e000ed00 	.word	0xe000ed00
1000088c:	100001cd 	.word	0x100001cd
10000890:	ffffa100 	.word	0xffffa100
10000894:	20000be4 	.word	0x20000be4
10000898:	ffffbd01 	.word	0xffffbd01
1000089c:	10006d28 	.word	0x10006d28
100008a0:	10006efc 	.word	0x10006efc
100008a4:	10006c84 	.word	0x10006c84
100008a8:	10006d50 	.word	0x10006d50
100008ac:	10006d78 	.word	0x10006d78
100008b0:	00004801 	.word	0x00004801
100008b4:	0000bd01 	.word	0x0000bd01
100008b8:	10006dec 	.word	0x10006dec
100008bc:	10006eec 	.word	0x10006eec
100008c0:	0000aaaa 	.word	0x0000aaaa

100008c4 <irq_remove_handler>:
100008c4:	b5f0      	push	{r4, r5, r6, r7, lr}
100008c6:	46ce      	mov	lr, r9
100008c8:	4647      	mov	r7, r8
100008ca:	b580      	push	{r7, lr}
100008cc:	b083      	sub	sp, #12
100008ce:	0006      	movs	r6, r0
100008d0:	000d      	movs	r5, r1
100008d2:	f3ef 8810 	mrs	r8, PRIMASK
100008d6:	b672      	cpsid	i
100008d8:	4b56      	ldr	r3, [pc, #344]	; (10000a34 <irq_remove_handler+0x170>)
100008da:	681b      	ldr	r3, [r3, #0]
100008dc:	2b00      	cmp	r3, #0
100008de:	d0fb      	beq.n	100008d8 <irq_remove_handler+0x14>
100008e0:	f3bf 8f5f 	dmb	sy
100008e4:	4b54      	ldr	r3, [pc, #336]	; (10000a38 <irq_remove_handler+0x174>)
100008e6:	689a      	ldr	r2, [r3, #8]
100008e8:	0034      	movs	r4, r6
100008ea:	3410      	adds	r4, #16
100008ec:	00a3      	lsls	r3, r4, #2
100008ee:	58d7      	ldr	r7, [r2, r3]
100008f0:	4b52      	ldr	r3, [pc, #328]	; (10000a3c <irq_remove_handler+0x178>)
100008f2:	429f      	cmp	r7, r3
100008f4:	d007      	beq.n	10000906 <irq_remove_handler+0x42>
100008f6:	42af      	cmp	r7, r5
100008f8:	d100      	bne.n	100008fc <irq_remove_handler+0x38>
100008fa:	e098      	b.n	10000a2e <irq_remove_handler+0x16a>
100008fc:	9701      	str	r7, [sp, #4]
100008fe:	4b50      	ldr	r3, [pc, #320]	; (10000a40 <irq_remove_handler+0x17c>)
10000900:	1afb      	subs	r3, r7, r3
10000902:	2b2f      	cmp	r3, #47	; 0x2f
10000904:	d909      	bls.n	1000091a <irq_remove_handler+0x56>
10000906:	4642      	mov	r2, r8
10000908:	0039      	movs	r1, r7
1000090a:	0030      	movs	r0, r6
1000090c:	f7ff fdf8 	bl	10000500 <set_raw_irq_handler_and_unlock>
10000910:	b003      	add	sp, #12
10000912:	bcc0      	pop	{r6, r7}
10000914:	46b9      	mov	r9, r7
10000916:	46b0      	mov	r8, r6
10000918:	bdf0      	pop	{r4, r5, r6, r7, pc}
1000091a:	0030      	movs	r0, r6
1000091c:	f7ff fe48 	bl	100005b0 <irq_is_enabled>
10000920:	4681      	mov	r9, r0
10000922:	2100      	movs	r1, #0
10000924:	0030      	movs	r0, r6
10000926:	f7ff fe5f 	bl	100005e8 <irq_set_enabled>
1000092a:	f3bf 8f5f 	dmb	sy
1000092e:	f3ef 8105 	mrs	r1, IPSR
10000932:	2900      	cmp	r1, #0
10000934:	d001      	beq.n	1000093a <irq_remove_handler+0x76>
10000936:	428c      	cmp	r4, r1
10000938:	d111      	bne.n	1000095e <irq_remove_handler+0x9a>
1000093a:	2301      	movs	r3, #1
1000093c:	9c01      	ldr	r4, [sp, #4]
1000093e:	439c      	bics	r4, r3
10000940:	2200      	movs	r2, #0
10000942:	68a3      	ldr	r3, [r4, #8]
10000944:	42ab      	cmp	r3, r5
10000946:	d012      	beq.n	1000096e <irq_remove_handler+0xaa>
10000948:	2206      	movs	r2, #6
1000094a:	56a2      	ldrsb	r2, [r4, r2]
1000094c:	2a00      	cmp	r2, #0
1000094e:	db0d      	blt.n	1000096c <irq_remove_handler+0xa8>
10000950:	0053      	lsls	r3, r2, #1
10000952:	189b      	adds	r3, r3, r2
10000954:	009b      	lsls	r3, r3, #2
10000956:	0022      	movs	r2, r4
10000958:	4c39      	ldr	r4, [pc, #228]	; (10000a40 <irq_remove_handler+0x17c>)
1000095a:	18e4      	adds	r4, r4, r3
1000095c:	e7f1      	b.n	10000942 <irq_remove_handler+0x7e>
1000095e:	2136      	movs	r1, #54	; 0x36
10000960:	4b38      	ldr	r3, [pc, #224]	; (10000a44 <irq_remove_handler+0x180>)
10000962:	4a39      	ldr	r2, [pc, #228]	; (10000a48 <irq_remove_handler+0x184>)
10000964:	31ff      	adds	r1, #255	; 0xff
10000966:	4839      	ldr	r0, [pc, #228]	; (10000a4c <irq_remove_handler+0x188>)
10000968:	f001 fd8e 	bl	10002488 <__assert_func>
1000096c:	0022      	movs	r2, r4
1000096e:	42ab      	cmp	r3, r5
10000970:	d156      	bne.n	10000a20 <irq_remove_handler+0x15c>
10000972:	2506      	movs	r5, #6
10000974:	5765      	ldrsb	r5, [r4, r5]
10000976:	2d00      	cmp	r5, #0
10000978:	db38      	blt.n	100009ec <irq_remove_handler+0x128>
1000097a:	006b      	lsls	r3, r5, #1
1000097c:	195b      	adds	r3, r3, r5
1000097e:	009a      	lsls	r2, r3, #2
10000980:	4b2f      	ldr	r3, [pc, #188]	; (10000a40 <irq_remove_handler+0x17c>)
10000982:	189b      	adds	r3, r3, r2
10000984:	689a      	ldr	r2, [r3, #8]
10000986:	60a2      	str	r2, [r4, #8]
10000988:	79da      	ldrb	r2, [r3, #7]
1000098a:	71e2      	strb	r2, [r4, #7]
1000098c:	2206      	movs	r2, #6
1000098e:	569a      	ldrsb	r2, [r3, r2]
10000990:	71a2      	strb	r2, [r4, #6]
10000992:	799b      	ldrb	r3, [r3, #6]
10000994:	b25b      	sxtb	r3, r3
10000996:	2b00      	cmp	r3, #0
10000998:	da0f      	bge.n	100009ba <irq_remove_handler+0xf6>
1000099a:	482d      	ldr	r0, [pc, #180]	; (10000a50 <irq_remove_handler+0x18c>)
1000099c:	80a0      	strh	r0, [r4, #4]
1000099e:	006b      	lsls	r3, r5, #1
100009a0:	195b      	adds	r3, r3, r5
100009a2:	009b      	lsls	r3, r3, #2
100009a4:	4a26      	ldr	r2, [pc, #152]	; (10000a40 <irq_remove_handler+0x17c>)
100009a6:	18d3      	adds	r3, r2, r3
100009a8:	4a2a      	ldr	r2, [pc, #168]	; (10000a54 <irq_remove_handler+0x190>)
100009aa:	7811      	ldrb	r1, [r2, #0]
100009ac:	7199      	strb	r1, [r3, #6]
100009ae:	7015      	strb	r5, [r2, #0]
100009b0:	4649      	mov	r1, r9
100009b2:	0030      	movs	r0, r6
100009b4:	f7ff fe18 	bl	100005e8 <irq_set_enabled>
100009b8:	e7a5      	b.n	10000906 <irq_remove_handler+0x42>
100009ba:	1d20      	adds	r0, r4, #4
100009bc:	006b      	lsls	r3, r5, #1
100009be:	195b      	adds	r3, r3, r5
100009c0:	009b      	lsls	r3, r3, #2
100009c2:	4a1f      	ldr	r2, [pc, #124]	; (10000a40 <irq_remove_handler+0x17c>)
100009c4:	189b      	adds	r3, r3, r2
100009c6:	1d1a      	adds	r2, r3, #4
100009c8:	889b      	ldrh	r3, [r3, #4]
100009ca:	0ad9      	lsrs	r1, r3, #11
100009cc:	291c      	cmp	r1, #28
100009ce:	d107      	bne.n	100009e0 <irq_remove_handler+0x11c>
100009d0:	055b      	lsls	r3, r3, #21
100009d2:	155b      	asrs	r3, r3, #21
100009d4:	3302      	adds	r3, #2
100009d6:	0059      	lsls	r1, r3, #1
100009d8:	1851      	adds	r1, r2, r1
100009da:	f7ff fda5 	bl	10000528 <make_branch>
100009de:	e7dd      	b.n	1000099c <irq_remove_handler+0xd8>
100009e0:	4b1d      	ldr	r3, [pc, #116]	; (10000a58 <irq_remove_handler+0x194>)
100009e2:	4a1e      	ldr	r2, [pc, #120]	; (10000a5c <irq_remove_handler+0x198>)
100009e4:	21b1      	movs	r1, #177	; 0xb1
100009e6:	4819      	ldr	r0, [pc, #100]	; (10000a4c <irq_remove_handler+0x188>)
100009e8:	f001 fd4e 	bl	10002488 <__assert_func>
100009ec:	2900      	cmp	r1, #0
100009ee:	d112      	bne.n	10000a16 <irq_remove_handler+0x152>
100009f0:	2a00      	cmp	r2, #0
100009f2:	d00e      	beq.n	10000a12 <irq_remove_handler+0x14e>
100009f4:	23ff      	movs	r3, #255	; 0xff
100009f6:	7193      	strb	r3, [r2, #6]
100009f8:	4b19      	ldr	r3, [pc, #100]	; (10000a60 <irq_remove_handler+0x19c>)
100009fa:	8093      	strh	r3, [r2, #4]
100009fc:	4a15      	ldr	r2, [pc, #84]	; (10000a54 <irq_remove_handler+0x190>)
100009fe:	7813      	ldrb	r3, [r2, #0]
10000a00:	71a3      	strb	r3, [r4, #6]
10000a02:	4b18      	ldr	r3, [pc, #96]	; (10000a64 <irq_remove_handler+0x1a0>)
10000a04:	490e      	ldr	r1, [pc, #56]	; (10000a40 <irq_remove_handler+0x17c>)
10000a06:	1a64      	subs	r4, r4, r1
10000a08:	4164      	adcs	r4, r4
10000a0a:	4363      	muls	r3, r4
10000a0c:	0d1b      	lsrs	r3, r3, #20
10000a0e:	7013      	strb	r3, [r2, #0]
10000a10:	e7ce      	b.n	100009b0 <irq_remove_handler+0xec>
10000a12:	4f0a      	ldr	r7, [pc, #40]	; (10000a3c <irq_remove_handler+0x178>)
10000a14:	e7f2      	b.n	100009fc <irq_remove_handler+0x138>
10000a16:	1d20      	adds	r0, r4, #4
10000a18:	4913      	ldr	r1, [pc, #76]	; (10000a68 <irq_remove_handler+0x1a4>)
10000a1a:	f7ff fda9 	bl	10000570 <insert_branch_and_link>
10000a1e:	e7c7      	b.n	100009b0 <irq_remove_handler+0xec>
10000a20:	216a      	movs	r1, #106	; 0x6a
10000a22:	4b12      	ldr	r3, [pc, #72]	; (10000a6c <irq_remove_handler+0x1a8>)
10000a24:	4a08      	ldr	r2, [pc, #32]	; (10000a48 <irq_remove_handler+0x184>)
10000a26:	31ff      	adds	r1, #255	; 0xff
10000a28:	4808      	ldr	r0, [pc, #32]	; (10000a4c <irq_remove_handler+0x188>)
10000a2a:	f001 fd2d 	bl	10002488 <__assert_func>
10000a2e:	4f03      	ldr	r7, [pc, #12]	; (10000a3c <irq_remove_handler+0x178>)
10000a30:	e769      	b.n	10000906 <irq_remove_handler+0x42>
10000a32:	46c0      	nop			; (mov r8, r8)
10000a34:	d0000124 	.word	0xd0000124
10000a38:	e000ed00 	.word	0xe000ed00
10000a3c:	100001cd 	.word	0x100001cd
10000a40:	20000bb4 	.word	0x20000bb4
10000a44:	10006e04 	.word	0x10006e04
10000a48:	10006ecc 	.word	0x10006ecc
10000a4c:	10006c84 	.word	0x10006c84
10000a50:	0000bd01 	.word	0x0000bd01
10000a54:	20001a55 	.word	0x20001a55
10000a58:	10006dec 	.word	0x10006dec
10000a5c:	10006eec 	.word	0x10006eec
10000a60:	ffffbd01 	.word	0xffffbd01
10000a64:	0000aaaa 	.word	0x0000aaaa
10000a68:	20000bee 	.word	0x20000bee
10000a6c:	10006e38 	.word	0x10006e38

10000a70 <irq_add_tail_to_free_list>:
10000a70:	b570      	push	{r4, r5, r6, lr}
10000a72:	2101      	movs	r1, #1
10000a74:	4301      	orrs	r1, r0
10000a76:	4b2e      	ldr	r3, [pc, #184]	; (10000b30 <irq_add_tail_to_free_list+0xc0>)
10000a78:	1acb      	subs	r3, r1, r3
10000a7a:	2b2f      	cmp	r3, #47	; 0x2f
10000a7c:	d828      	bhi.n	10000ad0 <irq_add_tail_to_free_list+0x60>
10000a7e:	f3ef 8305 	mrs	r3, IPSR
10000a82:	2b00      	cmp	r3, #0
10000a84:	d02b      	beq.n	10000ade <irq_add_tail_to_free_list+0x6e>
10000a86:	f3ef 8c10 	mrs	ip, PRIMASK
10000a8a:	b672      	cpsid	i
10000a8c:	4a29      	ldr	r2, [pc, #164]	; (10000b34 <irq_add_tail_to_free_list+0xc4>)
10000a8e:	6812      	ldr	r2, [r2, #0]
10000a90:	2a00      	cmp	r2, #0
10000a92:	d0fb      	beq.n	10000a8c <irq_add_tail_to_free_list+0x1c>
10000a94:	f3bf 8f5f 	dmb	sy
10000a98:	4a27      	ldr	r2, [pc, #156]	; (10000b38 <irq_add_tail_to_free_list+0xc8>)
10000a9a:	0004      	movs	r4, r0
10000a9c:	4d24      	ldr	r5, [pc, #144]	; (10000b30 <irq_add_tail_to_free_list+0xc0>)
10000a9e:	1b64      	subs	r4, r4, r5
10000aa0:	4164      	adcs	r4, r4
10000aa2:	4362      	muls	r2, r4
10000aa4:	0d12      	lsrs	r2, r2, #20
10000aa6:	b254      	sxtb	r4, r2
10000aa8:	4a24      	ldr	r2, [pc, #144]	; (10000b3c <irq_add_tail_to_free_list+0xcc>)
10000aaa:	6892      	ldr	r2, [r2, #8]
10000aac:	009b      	lsls	r3, r3, #2
10000aae:	58d2      	ldr	r2, [r2, r3]
10000ab0:	428a      	cmp	r2, r1
10000ab2:	d01b      	beq.n	10000aec <irq_add_tail_to_free_list+0x7c>
10000ab4:	2200      	movs	r2, #0
10000ab6:	2a03      	cmp	r2, #3
10000ab8:	d832      	bhi.n	10000b20 <irq_add_tail_to_free_list+0xb0>
10000aba:	0053      	lsls	r3, r2, #1
10000abc:	189b      	adds	r3, r3, r2
10000abe:	009b      	lsls	r3, r3, #2
10000ac0:	491b      	ldr	r1, [pc, #108]	; (10000b30 <irq_add_tail_to_free_list+0xc0>)
10000ac2:	18cb      	adds	r3, r1, r3
10000ac4:	799b      	ldrb	r3, [r3, #6]
10000ac6:	b25b      	sxtb	r3, r3
10000ac8:	42a3      	cmp	r3, r4
10000aca:	d01f      	beq.n	10000b0c <irq_add_tail_to_free_list+0x9c>
10000acc:	3201      	adds	r2, #1
10000ace:	e7f2      	b.n	10000ab6 <irq_add_tail_to_free_list+0x46>
10000ad0:	21c7      	movs	r1, #199	; 0xc7
10000ad2:	4b1b      	ldr	r3, [pc, #108]	; (10000b40 <irq_add_tail_to_free_list+0xd0>)
10000ad4:	4a1b      	ldr	r2, [pc, #108]	; (10000b44 <irq_add_tail_to_free_list+0xd4>)
10000ad6:	0049      	lsls	r1, r1, #1
10000ad8:	481b      	ldr	r0, [pc, #108]	; (10000b48 <irq_add_tail_to_free_list+0xd8>)
10000ada:	f001 fcd5 	bl	10002488 <__assert_func>
10000ade:	2192      	movs	r1, #146	; 0x92
10000ae0:	4b1a      	ldr	r3, [pc, #104]	; (10000b4c <irq_add_tail_to_free_list+0xdc>)
10000ae2:	4a18      	ldr	r2, [pc, #96]	; (10000b44 <irq_add_tail_to_free_list+0xd4>)
10000ae4:	31ff      	adds	r1, #255	; 0xff
10000ae6:	4818      	ldr	r0, [pc, #96]	; (10000b48 <irq_add_tail_to_free_list+0xd8>)
10000ae8:	f001 fcce 	bl	10002488 <__assert_func>
10000aec:	4a13      	ldr	r2, [pc, #76]	; (10000b3c <irq_add_tail_to_free_list+0xcc>)
10000aee:	6892      	ldr	r2, [r2, #8]
10000af0:	4917      	ldr	r1, [pc, #92]	; (10000b50 <irq_add_tail_to_free_list+0xe0>)
10000af2:	50d1      	str	r1, [r2, r3]
10000af4:	4b17      	ldr	r3, [pc, #92]	; (10000b54 <irq_add_tail_to_free_list+0xe4>)
10000af6:	781a      	ldrb	r2, [r3, #0]
10000af8:	7182      	strb	r2, [r0, #6]
10000afa:	701c      	strb	r4, [r3, #0]
10000afc:	f3bf 8f5f 	dmb	sy
10000b00:	4b0c      	ldr	r3, [pc, #48]	; (10000b34 <irq_add_tail_to_free_list+0xc4>)
10000b02:	2200      	movs	r2, #0
10000b04:	601a      	str	r2, [r3, #0]
10000b06:	f38c 8810 	msr	PRIMASK, ip
10000b0a:	bd70      	pop	{r4, r5, r6, pc}
10000b0c:	000d      	movs	r5, r1
10000b0e:	0053      	lsls	r3, r2, #1
10000b10:	1899      	adds	r1, r3, r2
10000b12:	0089      	lsls	r1, r1, #2
10000b14:	1869      	adds	r1, r5, r1
10000b16:	26ff      	movs	r6, #255	; 0xff
10000b18:	718e      	strb	r6, [r1, #6]
10000b1a:	4a0f      	ldr	r2, [pc, #60]	; (10000b58 <irq_add_tail_to_free_list+0xe8>)
10000b1c:	808a      	strh	r2, [r1, #4]
10000b1e:	e7e9      	b.n	10000af4 <irq_add_tail_to_free_list+0x84>
10000b20:	21d1      	movs	r1, #209	; 0xd1
10000b22:	4b0e      	ldr	r3, [pc, #56]	; (10000b5c <irq_add_tail_to_free_list+0xec>)
10000b24:	4a07      	ldr	r2, [pc, #28]	; (10000b44 <irq_add_tail_to_free_list+0xd4>)
10000b26:	0049      	lsls	r1, r1, #1
10000b28:	4807      	ldr	r0, [pc, #28]	; (10000b48 <irq_add_tail_to_free_list+0xd8>)
10000b2a:	f001 fcad 	bl	10002488 <__assert_func>
10000b2e:	46c0      	nop			; (mov r8, r8)
10000b30:	20000bb4 	.word	0x20000bb4
10000b34:	d0000124 	.word	0xd0000124
10000b38:	0000aaaa 	.word	0x0000aaaa
10000b3c:	e000ed00 	.word	0xe000ed00
10000b40:	10006e40 	.word	0x10006e40
10000b44:	10006e98 	.word	0x10006e98
10000b48:	10006c84 	.word	0x10006c84
10000b4c:	10006e68 	.word	0x10006e68
10000b50:	100001cd 	.word	0x100001cd
10000b54:	20001a55 	.word	0x20001a55
10000b58:	ffffbd01 	.word	0xffffbd01
10000b5c:	10006e74 	.word	0x10006e74

10000b60 <irq_init_priorities>:
10000b60:	2200      	movs	r2, #0
10000b62:	4b04      	ldr	r3, [pc, #16]	; (10000b74 <irq_init_priorities+0x14>)
10000b64:	e002      	b.n	10000b6c <irq_init_priorities+0xc>
10000b66:	4904      	ldr	r1, [pc, #16]	; (10000b78 <irq_init_priorities+0x18>)
10000b68:	c302      	stmia	r3!, {r1}
10000b6a:	3201      	adds	r2, #1
10000b6c:	2a07      	cmp	r2, #7
10000b6e:	d9fa      	bls.n	10000b66 <irq_init_priorities+0x6>
10000b70:	4770      	bx	lr
10000b72:	46c0      	nop			; (mov r8, r8)
10000b74:	e000e400 	.word	0xe000e400
10000b78:	80808080 	.word	0x80808080

10000b7c <user_irq_claim_unused>:
10000b7c:	b500      	push	{lr}
10000b7e:	b083      	sub	sp, #12
10000b80:	0001      	movs	r1, r0
10000b82:	4b06      	ldr	r3, [pc, #24]	; (10000b9c <user_irq_claim_unused+0x20>)
10000b84:	9300      	str	r3, [sp, #0]
10000b86:	2305      	movs	r3, #5
10000b88:	2200      	movs	r2, #0
10000b8a:	4805      	ldr	r0, [pc, #20]	; (10000ba0 <user_irq_claim_unused+0x24>)
10000b8c:	f7ff fc61 	bl	10000452 <hw_claim_unused_from_range>
10000b90:	2800      	cmp	r0, #0
10000b92:	db01      	blt.n	10000b98 <user_irq_claim_unused+0x1c>
10000b94:	231f      	movs	r3, #31
10000b96:	1a18      	subs	r0, r3, r0
10000b98:	b003      	add	sp, #12
10000b9a:	bd00      	pop	{pc}
10000b9c:	10006e7c 	.word	0x10006e7c
10000ba0:	20001a5a 	.word	0x20001a5a

10000ba4 <lock_init>:
10000ba4:	4b02      	ldr	r3, [pc, #8]	; (10000bb0 <lock_init+0xc>)
10000ba6:	469c      	mov	ip, r3
10000ba8:	4461      	add	r1, ip
10000baa:	0089      	lsls	r1, r1, #2
10000bac:	6001      	str	r1, [r0, #0]
10000bae:	4770      	bx	lr
10000bb0:	34000040 	.word	0x34000040

10000bb4 <mutex_init>:
10000bb4:	b510      	push	{r4, lr}
10000bb6:	0004      	movs	r4, r0
10000bb8:	f7ff fc84 	bl	100004c4 <next_striped_spin_lock_num>
10000bbc:	0001      	movs	r1, r0
10000bbe:	0020      	movs	r0, r4
10000bc0:	f7ff fff0 	bl	10000ba4 <lock_init>
10000bc4:	23ff      	movs	r3, #255	; 0xff
10000bc6:	7123      	strb	r3, [r4, #4]
10000bc8:	f3bf 8f5f 	dmb	sy
10000bcc:	bd10      	pop	{r4, pc}

10000bce <recursive_mutex_init>:
10000bce:	b510      	push	{r4, lr}
10000bd0:	0004      	movs	r4, r0
10000bd2:	f7ff fc77 	bl	100004c4 <next_striped_spin_lock_num>
10000bd6:	0001      	movs	r1, r0
10000bd8:	0020      	movs	r0, r4
10000bda:	f7ff ffe3 	bl	10000ba4 <lock_init>
10000bde:	23ff      	movs	r3, #255	; 0xff
10000be0:	7123      	strb	r3, [r4, #4]
10000be2:	2300      	movs	r3, #0
10000be4:	7163      	strb	r3, [r4, #5]
10000be6:	f3bf 8f5f 	dmb	sy
10000bea:	bd10      	pop	{r4, pc}

10000bec <critical_section_init_with_lock_num>:
10000bec:	4b03      	ldr	r3, [pc, #12]	; (10000bfc <critical_section_init_with_lock_num+0x10>)
10000bee:	469c      	mov	ip, r3
10000bf0:	4461      	add	r1, ip
10000bf2:	0089      	lsls	r1, r1, #2
10000bf4:	6001      	str	r1, [r0, #0]
10000bf6:	f3bf 8f5f 	dmb	sy
10000bfa:	4770      	bx	lr
10000bfc:	34000040 	.word	0x34000040

10000c00 <critical_section_init>:
10000c00:	b510      	push	{r4, lr}
10000c02:	0004      	movs	r4, r0
10000c04:	2001      	movs	r0, #1
10000c06:	f7ff fc6b 	bl	100004e0 <spin_lock_claim_unused>
10000c0a:	0001      	movs	r1, r0
10000c0c:	0020      	movs	r0, r4
10000c0e:	f7ff ffed 	bl	10000bec <critical_section_init_with_lock_num>
10000c12:	bd10      	pop	{r4, pc}

10000c14 <alarm_pool_post_alloc_init>:
10000c14:	b570      	push	{r4, r5, r6, lr}
10000c16:	0005      	movs	r5, r0
10000c18:	000c      	movs	r4, r1
10000c1a:	0008      	movs	r0, r1
10000c1c:	f000 ff00 	bl	10001a20 <hardware_alarm_cancel>
10000c20:	4909      	ldr	r1, [pc, #36]	; (10000c48 <alarm_pool_post_alloc_init+0x34>)
10000c22:	0020      	movs	r0, r4
10000c24:	f000 fe40 	bl	100018a8 <hardware_alarm_set_callback>
10000c28:	f7ff fc4c 	bl	100004c4 <next_striped_spin_lock_num>
10000c2c:	4b07      	ldr	r3, [pc, #28]	; (10000c4c <alarm_pool_post_alloc_init+0x38>)
10000c2e:	469c      	mov	ip, r3
10000c30:	4460      	add	r0, ip
10000c32:	0080      	lsls	r0, r0, #2
10000c34:	6068      	str	r0, [r5, #4]
10000c36:	752c      	strb	r4, [r5, #20]
10000c38:	23d0      	movs	r3, #208	; 0xd0
10000c3a:	061b      	lsls	r3, r3, #24
10000c3c:	781b      	ldrb	r3, [r3, #0]
10000c3e:	756b      	strb	r3, [r5, #21]
10000c40:	00a4      	lsls	r4, r4, #2
10000c42:	4b03      	ldr	r3, [pc, #12]	; (10000c50 <alarm_pool_post_alloc_init+0x3c>)
10000c44:	50e5      	str	r5, [r4, r3]
10000c46:	bd70      	pop	{r4, r5, r6, pc}
10000c48:	10000f59 	.word	0x10000f59
10000c4c:	34000040 	.word	0x34000040
10000c50:	20001800 	.word	0x20001800

10000c54 <sleep_until_callback>:
10000c54:	4b0a      	ldr	r3, [pc, #40]	; (10000c80 <sleep_until_callback+0x2c>)
10000c56:	681a      	ldr	r2, [r3, #0]
10000c58:	f3ef 8110 	mrs	r1, PRIMASK
10000c5c:	b672      	cpsid	i
10000c5e:	6813      	ldr	r3, [r2, #0]
10000c60:	2b00      	cmp	r3, #0
10000c62:	d0fc      	beq.n	10000c5e <sleep_until_callback+0xa>
10000c64:	f3bf 8f5f 	dmb	sy
10000c68:	4b05      	ldr	r3, [pc, #20]	; (10000c80 <sleep_until_callback+0x2c>)
10000c6a:	681b      	ldr	r3, [r3, #0]
10000c6c:	f3bf 8f5f 	dmb	sy
10000c70:	2200      	movs	r2, #0
10000c72:	601a      	str	r2, [r3, #0]
10000c74:	f381 8810 	msr	PRIMASK, r1
10000c78:	bf40      	sev
10000c7a:	2000      	movs	r0, #0
10000c7c:	2100      	movs	r1, #0
10000c7e:	4770      	bx	lr
10000c80:	20001a1c 	.word	0x20001a1c

10000c84 <timer_pool_entry_comparator>:
10000c84:	b510      	push	{r4, lr}
10000c86:	2900      	cmp	r1, #0
10000c88:	d022      	beq.n	10000cd0 <timer_pool_entry_comparator+0x4c>
10000c8a:	6803      	ldr	r3, [r0, #0]
10000c8c:	7b1b      	ldrb	r3, [r3, #12]
10000c8e:	4299      	cmp	r1, r3
10000c90:	d81e      	bhi.n	10000cd0 <timer_pool_entry_comparator+0x4c>
10000c92:	4b17      	ldr	r3, [pc, #92]	; (10000cf0 <timer_pool_entry_comparator+0x6c>)
10000c94:	469c      	mov	ip, r3
10000c96:	4461      	add	r1, ip
10000c98:	0109      	lsls	r1, r1, #4
10000c9a:	6883      	ldr	r3, [r0, #8]
10000c9c:	469c      	mov	ip, r3
10000c9e:	4461      	add	r1, ip
10000ca0:	680c      	ldr	r4, [r1, #0]
10000ca2:	6849      	ldr	r1, [r1, #4]
10000ca4:	2a00      	cmp	r2, #0
10000ca6:	d019      	beq.n	10000cdc <timer_pool_entry_comparator+0x58>
10000ca8:	6803      	ldr	r3, [r0, #0]
10000caa:	7b1b      	ldrb	r3, [r3, #12]
10000cac:	429a      	cmp	r2, r3
10000cae:	d815      	bhi.n	10000cdc <timer_pool_entry_comparator+0x58>
10000cb0:	6883      	ldr	r3, [r0, #8]
10000cb2:	480f      	ldr	r0, [pc, #60]	; (10000cf0 <timer_pool_entry_comparator+0x6c>)
10000cb4:	4684      	mov	ip, r0
10000cb6:	4462      	add	r2, ip
10000cb8:	0112      	lsls	r2, r2, #4
10000cba:	189a      	adds	r2, r3, r2
10000cbc:	6810      	ldr	r0, [r2, #0]
10000cbe:	6853      	ldr	r3, [r2, #4]
10000cc0:	0002      	movs	r2, r0
10000cc2:	2001      	movs	r0, #1
10000cc4:	428b      	cmp	r3, r1
10000cc6:	d801      	bhi.n	10000ccc <timer_pool_entry_comparator+0x48>
10000cc8:	d00e      	beq.n	10000ce8 <timer_pool_entry_comparator+0x64>
10000cca:	2000      	movs	r0, #0
10000ccc:	b2c0      	uxtb	r0, r0
10000cce:	bd10      	pop	{r4, pc}
10000cd0:	4b08      	ldr	r3, [pc, #32]	; (10000cf4 <timer_pool_entry_comparator+0x70>)
10000cd2:	4a09      	ldr	r2, [pc, #36]	; (10000cf8 <timer_pool_entry_comparator+0x74>)
10000cd4:	213c      	movs	r1, #60	; 0x3c
10000cd6:	4809      	ldr	r0, [pc, #36]	; (10000cfc <timer_pool_entry_comparator+0x78>)
10000cd8:	f001 fbd6 	bl	10002488 <__assert_func>
10000cdc:	4b05      	ldr	r3, [pc, #20]	; (10000cf4 <timer_pool_entry_comparator+0x70>)
10000cde:	4a06      	ldr	r2, [pc, #24]	; (10000cf8 <timer_pool_entry_comparator+0x74>)
10000ce0:	213c      	movs	r1, #60	; 0x3c
10000ce2:	4806      	ldr	r0, [pc, #24]	; (10000cfc <timer_pool_entry_comparator+0x78>)
10000ce4:	f001 fbd0 	bl	10002488 <__assert_func>
10000ce8:	42a2      	cmp	r2, r4
10000cea:	d8ef      	bhi.n	10000ccc <timer_pool_entry_comparator+0x48>
10000cec:	e7ed      	b.n	10000cca <timer_pool_entry_comparator+0x46>
10000cee:	46c0      	nop			; (mov r8, r8)
10000cf0:	0fffffff 	.word	0x0fffffff
10000cf4:	100070fc 	.word	0x100070fc
10000cf8:	1000737c 	.word	0x1000737c
10000cfc:	100070a8 	.word	0x100070a8

10000d00 <ph_add_child_node>:
10000d00:	b510      	push	{r4, lr}
10000d02:	2900      	cmp	r1, #0
10000d04:	d01e      	beq.n	10000d44 <ph_add_child_node+0x44>
10000d06:	7b03      	ldrb	r3, [r0, #12]
10000d08:	4299      	cmp	r1, r3
10000d0a:	d81b      	bhi.n	10000d44 <ph_add_child_node+0x44>
10000d0c:	004b      	lsls	r3, r1, #1
10000d0e:	185b      	adds	r3, r3, r1
10000d10:	3b03      	subs	r3, #3
10000d12:	6804      	ldr	r4, [r0, #0]
10000d14:	46a4      	mov	ip, r4
10000d16:	4463      	add	r3, ip
10000d18:	2900      	cmp	r1, #0
10000d1a:	d019      	beq.n	10000d50 <ph_add_child_node+0x50>
10000d1c:	2a00      	cmp	r2, #0
10000d1e:	d01d      	beq.n	10000d5c <ph_add_child_node+0x5c>
10000d20:	4291      	cmp	r1, r2
10000d22:	d021      	beq.n	10000d68 <ph_add_child_node+0x68>
10000d24:	2a00      	cmp	r2, #0
10000d26:	d025      	beq.n	10000d74 <ph_add_child_node+0x74>
10000d28:	7b04      	ldrb	r4, [r0, #12]
10000d2a:	42a2      	cmp	r2, r4
10000d2c:	d822      	bhi.n	10000d74 <ph_add_child_node+0x74>
10000d2e:	6804      	ldr	r4, [r0, #0]
10000d30:	0050      	lsls	r0, r2, #1
10000d32:	1880      	adds	r0, r0, r2
10000d34:	3803      	subs	r0, #3
10000d36:	1820      	adds	r0, r4, r0
10000d38:	7081      	strb	r1, [r0, #2]
10000d3a:	7819      	ldrb	r1, [r3, #0]
10000d3c:	2900      	cmp	r1, #0
10000d3e:	d11f      	bne.n	10000d80 <ph_add_child_node+0x80>
10000d40:	701a      	strb	r2, [r3, #0]
10000d42:	bd10      	pop	{r4, pc}
10000d44:	4b10      	ldr	r3, [pc, #64]	; (10000d88 <ph_add_child_node+0x88>)
10000d46:	4a11      	ldr	r2, [pc, #68]	; (10000d8c <ph_add_child_node+0x8c>)
10000d48:	2168      	movs	r1, #104	; 0x68
10000d4a:	4811      	ldr	r0, [pc, #68]	; (10000d90 <ph_add_child_node+0x90>)
10000d4c:	f001 fb9c 	bl	10002488 <__assert_func>
10000d50:	4b10      	ldr	r3, [pc, #64]	; (10000d94 <ph_add_child_node+0x94>)
10000d52:	4a11      	ldr	r2, [pc, #68]	; (10000d98 <ph_add_child_node+0x98>)
10000d54:	316f      	adds	r1, #111	; 0x6f
10000d56:	480e      	ldr	r0, [pc, #56]	; (10000d90 <ph_add_child_node+0x90>)
10000d58:	f001 fb96 	bl	10002488 <__assert_func>
10000d5c:	4b0f      	ldr	r3, [pc, #60]	; (10000d9c <ph_add_child_node+0x9c>)
10000d5e:	4a0e      	ldr	r2, [pc, #56]	; (10000d98 <ph_add_child_node+0x98>)
10000d60:	2170      	movs	r1, #112	; 0x70
10000d62:	480b      	ldr	r0, [pc, #44]	; (10000d90 <ph_add_child_node+0x90>)
10000d64:	f001 fb90 	bl	10002488 <__assert_func>
10000d68:	4b0d      	ldr	r3, [pc, #52]	; (10000da0 <ph_add_child_node+0xa0>)
10000d6a:	4a0b      	ldr	r2, [pc, #44]	; (10000d98 <ph_add_child_node+0x98>)
10000d6c:	2171      	movs	r1, #113	; 0x71
10000d6e:	4808      	ldr	r0, [pc, #32]	; (10000d90 <ph_add_child_node+0x90>)
10000d70:	f001 fb8a 	bl	10002488 <__assert_func>
10000d74:	4b04      	ldr	r3, [pc, #16]	; (10000d88 <ph_add_child_node+0x88>)
10000d76:	4a05      	ldr	r2, [pc, #20]	; (10000d8c <ph_add_child_node+0x8c>)
10000d78:	2168      	movs	r1, #104	; 0x68
10000d7a:	4805      	ldr	r0, [pc, #20]	; (10000d90 <ph_add_child_node+0x90>)
10000d7c:	f001 fb84 	bl	10002488 <__assert_func>
10000d80:	7041      	strb	r1, [r0, #1]
10000d82:	701a      	strb	r2, [r3, #0]
10000d84:	e7dd      	b.n	10000d42 <ph_add_child_node+0x42>
10000d86:	46c0      	nop			; (mov r8, r8)
10000d88:	10007120 	.word	0x10007120
10000d8c:	100073e8 	.word	0x100073e8
10000d90:	1000713c 	.word	0x1000713c
10000d94:	100071a4 	.word	0x100071a4
10000d98:	100073c4 	.word	0x100073c4
10000d9c:	100071b0 	.word	0x100071b0
10000da0:	100071bc 	.word	0x100071bc

10000da4 <ph_merge_nodes>:
10000da4:	b570      	push	{r4, r5, r6, lr}
10000da6:	0006      	movs	r6, r0
10000da8:	000d      	movs	r5, r1
10000daa:	0014      	movs	r4, r2
10000dac:	2900      	cmp	r1, #0
10000dae:	d014      	beq.n	10000dda <ph_merge_nodes+0x36>
10000db0:	2a00      	cmp	r2, #0
10000db2:	d014      	beq.n	10000dde <ph_merge_nodes+0x3a>
10000db4:	6880      	ldr	r0, [r0, #8]
10000db6:	6873      	ldr	r3, [r6, #4]
10000db8:	4798      	blx	r3
10000dba:	2800      	cmp	r0, #0
10000dbc:	d006      	beq.n	10000dcc <ph_merge_nodes+0x28>
10000dbe:	0022      	movs	r2, r4
10000dc0:	0029      	movs	r1, r5
10000dc2:	0030      	movs	r0, r6
10000dc4:	f7ff ff9c 	bl	10000d00 <ph_add_child_node>
10000dc8:	0028      	movs	r0, r5
10000dca:	e007      	b.n	10000ddc <ph_merge_nodes+0x38>
10000dcc:	002a      	movs	r2, r5
10000dce:	0021      	movs	r1, r4
10000dd0:	0030      	movs	r0, r6
10000dd2:	f7ff ff95 	bl	10000d00 <ph_add_child_node>
10000dd6:	0020      	movs	r0, r4
10000dd8:	e000      	b.n	10000ddc <ph_merge_nodes+0x38>
10000dda:	0010      	movs	r0, r2
10000ddc:	bd70      	pop	{r4, r5, r6, pc}
10000dde:	0008      	movs	r0, r1
10000de0:	e7fc      	b.n	10000ddc <ph_merge_nodes+0x38>
	...

10000de4 <add_alarm_under_lock>:
10000de4:	b5f0      	push	{r4, r5, r6, r7, lr}
10000de6:	b083      	sub	sp, #12
10000de8:	0005      	movs	r5, r0
10000dea:	9200      	str	r2, [sp, #0]
10000dec:	9301      	str	r3, [sp, #4]
10000dee:	ab0a      	add	r3, sp, #40	; 0x28
10000df0:	781c      	ldrb	r4, [r3, #0]
10000df2:	ab0b      	add	r3, sp, #44	; 0x2c
10000df4:	781f      	ldrb	r7, [r3, #0]
10000df6:	2c00      	cmp	r4, #0
10000df8:	d026      	beq.n	10000e48 <add_alarm_under_lock+0x64>
10000dfa:	6803      	ldr	r3, [r0, #0]
10000dfc:	7b5a      	ldrb	r2, [r3, #13]
10000dfe:	4294      	cmp	r4, r2
10000e00:	d107      	bne.n	10000e12 <add_alarm_under_lock+0x2e>
10000e02:	2301      	movs	r3, #1
10000e04:	2b00      	cmp	r3, #0
10000e06:	d119      	bne.n	10000e3c <add_alarm_under_lock+0x58>
10000e08:	2c00      	cmp	r4, #0
10000e0a:	d13b      	bne.n	10000e84 <add_alarm_under_lock+0xa0>
10000e0c:	0020      	movs	r0, r4
10000e0e:	b003      	add	sp, #12
10000e10:	bdf0      	pop	{r4, r5, r6, r7, pc}
10000e12:	2c00      	cmp	r4, #0
10000e14:	d00c      	beq.n	10000e30 <add_alarm_under_lock+0x4c>
10000e16:	7b1a      	ldrb	r2, [r3, #12]
10000e18:	4294      	cmp	r4, r2
10000e1a:	d809      	bhi.n	10000e30 <add_alarm_under_lock+0x4c>
10000e1c:	681a      	ldr	r2, [r3, #0]
10000e1e:	0063      	lsls	r3, r4, #1
10000e20:	191b      	adds	r3, r3, r4
10000e22:	3b03      	subs	r3, #3
10000e24:	18d3      	adds	r3, r2, r3
10000e26:	789b      	ldrb	r3, [r3, #2]
10000e28:	2b00      	cmp	r3, #0
10000e2a:	d0eb      	beq.n	10000e04 <add_alarm_under_lock+0x20>
10000e2c:	2301      	movs	r3, #1
10000e2e:	e7e9      	b.n	10000e04 <add_alarm_under_lock+0x20>
10000e30:	4b3e      	ldr	r3, [pc, #248]	; (10000f2c <add_alarm_under_lock+0x148>)
10000e32:	4a3f      	ldr	r2, [pc, #252]	; (10000f30 <add_alarm_under_lock+0x14c>)
10000e34:	2168      	movs	r1, #104	; 0x68
10000e36:	483f      	ldr	r0, [pc, #252]	; (10000f34 <add_alarm_under_lock+0x150>)
10000e38:	f001 fb26 	bl	10002488 <__assert_func>
10000e3c:	4b3e      	ldr	r3, [pc, #248]	; (10000f38 <add_alarm_under_lock+0x154>)
10000e3e:	4a3f      	ldr	r2, [pc, #252]	; (10000f3c <add_alarm_under_lock+0x158>)
10000e40:	2167      	movs	r1, #103	; 0x67
10000e42:	483f      	ldr	r0, [pc, #252]	; (10000f40 <add_alarm_under_lock+0x15c>)
10000e44:	f001 fb20 	bl	10002488 <__assert_func>
10000e48:	6803      	ldr	r3, [r0, #0]
10000e4a:	7b9c      	ldrb	r4, [r3, #14]
10000e4c:	2c00      	cmp	r4, #0
10000e4e:	d0db      	beq.n	10000e08 <add_alarm_under_lock+0x24>
10000e50:	d012      	beq.n	10000e78 <add_alarm_under_lock+0x94>
10000e52:	7b1a      	ldrb	r2, [r3, #12]
10000e54:	4294      	cmp	r4, r2
10000e56:	d80f      	bhi.n	10000e78 <add_alarm_under_lock+0x94>
10000e58:	0062      	lsls	r2, r4, #1
10000e5a:	1912      	adds	r2, r2, r4
10000e5c:	3a03      	subs	r2, #3
10000e5e:	6819      	ldr	r1, [r3, #0]
10000e60:	468c      	mov	ip, r1
10000e62:	4462      	add	r2, ip
10000e64:	7851      	ldrb	r1, [r2, #1]
10000e66:	7399      	strb	r1, [r3, #14]
10000e68:	2900      	cmp	r1, #0
10000e6a:	d100      	bne.n	10000e6e <add_alarm_under_lock+0x8a>
10000e6c:	73d9      	strb	r1, [r3, #15]
10000e6e:	2300      	movs	r3, #0
10000e70:	7093      	strb	r3, [r2, #2]
10000e72:	7053      	strb	r3, [r2, #1]
10000e74:	7013      	strb	r3, [r2, #0]
10000e76:	e7c7      	b.n	10000e08 <add_alarm_under_lock+0x24>
10000e78:	4b2c      	ldr	r3, [pc, #176]	; (10000f2c <add_alarm_under_lock+0x148>)
10000e7a:	4a2d      	ldr	r2, [pc, #180]	; (10000f30 <add_alarm_under_lock+0x14c>)
10000e7c:	2168      	movs	r1, #104	; 0x68
10000e7e:	482d      	ldr	r0, [pc, #180]	; (10000f34 <add_alarm_under_lock+0x150>)
10000e80:	f001 fb02 	bl	10002488 <__assert_func>
10000e84:	2c00      	cmp	r4, #0
10000e86:	d03a      	beq.n	10000efe <add_alarm_under_lock+0x11a>
10000e88:	682b      	ldr	r3, [r5, #0]
10000e8a:	7b1b      	ldrb	r3, [r3, #12]
10000e8c:	429c      	cmp	r4, r3
10000e8e:	d836      	bhi.n	10000efe <add_alarm_under_lock+0x11a>
10000e90:	4b2c      	ldr	r3, [pc, #176]	; (10000f44 <add_alarm_under_lock+0x160>)
10000e92:	18e3      	adds	r3, r4, r3
10000e94:	011b      	lsls	r3, r3, #4
10000e96:	68aa      	ldr	r2, [r5, #8]
10000e98:	4694      	mov	ip, r2
10000e9a:	4463      	add	r3, ip
10000e9c:	9a00      	ldr	r2, [sp, #0]
10000e9e:	601a      	str	r2, [r3, #0]
10000ea0:	9a01      	ldr	r2, [sp, #4]
10000ea2:	605a      	str	r2, [r3, #4]
10000ea4:	9a08      	ldr	r2, [sp, #32]
10000ea6:	609a      	str	r2, [r3, #8]
10000ea8:	9a09      	ldr	r2, [sp, #36]	; 0x24
10000eaa:	60da      	str	r2, [r3, #12]
10000eac:	682e      	ldr	r6, [r5, #0]
10000eae:	2c00      	cmp	r4, #0
10000eb0:	d02b      	beq.n	10000f0a <add_alarm_under_lock+0x126>
10000eb2:	d030      	beq.n	10000f16 <add_alarm_under_lock+0x132>
10000eb4:	7b33      	ldrb	r3, [r6, #12]
10000eb6:	429c      	cmp	r4, r3
10000eb8:	d82d      	bhi.n	10000f16 <add_alarm_under_lock+0x132>
10000eba:	0063      	lsls	r3, r4, #1
10000ebc:	191b      	adds	r3, r3, r4
10000ebe:	3b03      	subs	r3, #3
10000ec0:	6832      	ldr	r2, [r6, #0]
10000ec2:	4694      	mov	ip, r2
10000ec4:	4463      	add	r3, ip
10000ec6:	2200      	movs	r2, #0
10000ec8:	709a      	strb	r2, [r3, #2]
10000eca:	705a      	strb	r2, [r3, #1]
10000ecc:	701a      	strb	r2, [r3, #0]
10000ece:	7b71      	ldrb	r1, [r6, #13]
10000ed0:	0022      	movs	r2, r4
10000ed2:	0030      	movs	r0, r6
10000ed4:	f7ff ff66 	bl	10000da4 <ph_merge_nodes>
10000ed8:	7370      	strb	r0, [r6, #13]
10000eda:	4284      	cmp	r4, r0
10000edc:	d000      	beq.n	10000ee0 <add_alarm_under_lock+0xfc>
10000ede:	e795      	b.n	10000e0c <add_alarm_under_lock+0x28>
10000ee0:	7d28      	ldrb	r0, [r5, #20]
10000ee2:	9a00      	ldr	r2, [sp, #0]
10000ee4:	9b01      	ldr	r3, [sp, #4]
10000ee6:	f000 fd27 	bl	10001938 <hardware_alarm_set_target>
10000eea:	1e06      	subs	r6, r0, #0
10000eec:	d001      	beq.n	10000ef2 <add_alarm_under_lock+0x10e>
10000eee:	2f00      	cmp	r7, #0
10000ef0:	d017      	beq.n	10000f22 <add_alarm_under_lock+0x13e>
10000ef2:	9b0c      	ldr	r3, [sp, #48]	; 0x30
10000ef4:	2b00      	cmp	r3, #0
10000ef6:	d100      	bne.n	10000efa <add_alarm_under_lock+0x116>
10000ef8:	e788      	b.n	10000e0c <add_alarm_under_lock+0x28>
10000efa:	701e      	strb	r6, [r3, #0]
10000efc:	e786      	b.n	10000e0c <add_alarm_under_lock+0x28>
10000efe:	4b12      	ldr	r3, [pc, #72]	; (10000f48 <add_alarm_under_lock+0x164>)
10000f00:	4a12      	ldr	r2, [pc, #72]	; (10000f4c <add_alarm_under_lock+0x168>)
10000f02:	213c      	movs	r1, #60	; 0x3c
10000f04:	480e      	ldr	r0, [pc, #56]	; (10000f40 <add_alarm_under_lock+0x15c>)
10000f06:	f001 fabf 	bl	10002488 <__assert_func>
10000f0a:	4b11      	ldr	r3, [pc, #68]	; (10000f50 <add_alarm_under_lock+0x16c>)
10000f0c:	4a11      	ldr	r2, [pc, #68]	; (10000f54 <add_alarm_under_lock+0x170>)
10000f0e:	21a5      	movs	r1, #165	; 0xa5
10000f10:	4808      	ldr	r0, [pc, #32]	; (10000f34 <add_alarm_under_lock+0x150>)
10000f12:	f001 fab9 	bl	10002488 <__assert_func>
10000f16:	4b05      	ldr	r3, [pc, #20]	; (10000f2c <add_alarm_under_lock+0x148>)
10000f18:	4a05      	ldr	r2, [pc, #20]	; (10000f30 <add_alarm_under_lock+0x14c>)
10000f1a:	2168      	movs	r1, #104	; 0x68
10000f1c:	4805      	ldr	r0, [pc, #20]	; (10000f34 <add_alarm_under_lock+0x150>)
10000f1e:	f001 fab3 	bl	10002488 <__assert_func>
10000f22:	6828      	ldr	r0, [r5, #0]
10000f24:	0021      	movs	r1, r4
10000f26:	f000 ff3f 	bl	10001da8 <ph_remove_and_free_node>
10000f2a:	e7e2      	b.n	10000ef2 <add_alarm_under_lock+0x10e>
10000f2c:	10007120 	.word	0x10007120
10000f30:	100073e8 	.word	0x100073e8
10000f34:	1000713c 	.word	0x1000713c
10000f38:	100071d4 	.word	0x100071d4
10000f3c:	100073f4 	.word	0x100073f4
10000f40:	100070a8 	.word	0x100070a8
10000f44:	0fffffff 	.word	0x0fffffff
10000f48:	100070fc 	.word	0x100070fc
10000f4c:	1000737c 	.word	0x1000737c
10000f50:	100070a4 	.word	0x100070a4
10000f54:	100073d8 	.word	0x100073d8

10000f58 <alarm_pool_alarm_callback>:
10000f58:	b5f0      	push	{r4, r5, r6, r7, lr}
10000f5a:	46de      	mov	lr, fp
10000f5c:	4657      	mov	r7, sl
10000f5e:	464e      	mov	r6, r9
10000f60:	4645      	mov	r5, r8
10000f62:	b5e0      	push	{r5, r6, r7, lr}
10000f64:	b08b      	sub	sp, #44	; 0x2c
10000f66:	9009      	str	r0, [sp, #36]	; 0x24
10000f68:	2300      	movs	r3, #0
10000f6a:	9308      	str	r3, [sp, #32]
10000f6c:	0082      	lsls	r2, r0, #2
10000f6e:	4bb5      	ldr	r3, [pc, #724]	; (10001244 <alarm_pool_alarm_callback+0x2ec>)
10000f70:	58d6      	ldr	r6, [r2, r3]
10000f72:	0037      	movs	r7, r6
10000f74:	e052      	b.n	1000101c <alarm_pool_alarm_callback+0xc4>
10000f76:	4bb4      	ldr	r3, [pc, #720]	; (10001248 <alarm_pool_alarm_callback+0x2f0>)
10000f78:	4ab4      	ldr	r2, [pc, #720]	; (1000124c <alarm_pool_alarm_callback+0x2f4>)
10000f7a:	213f      	movs	r1, #63	; 0x3f
10000f7c:	48b4      	ldr	r0, [pc, #720]	; (10001250 <alarm_pool_alarm_callback+0x2f8>)
10000f7e:	f001 fa83 	bl	10002488 <__assert_func>
10000f82:	4bb4      	ldr	r3, [pc, #720]	; (10001254 <alarm_pool_alarm_callback+0x2fc>)
10000f84:	4ab4      	ldr	r2, [pc, #720]	; (10001258 <alarm_pool_alarm_callback+0x300>)
10000f86:	213c      	movs	r1, #60	; 0x3c
10000f88:	48b4      	ldr	r0, [pc, #720]	; (1000125c <alarm_pool_alarm_callback+0x304>)
10000f8a:	f001 fa7d 	bl	10002488 <__assert_func>
10000f8e:	2900      	cmp	r1, #0
10000f90:	d101      	bne.n	10000f96 <alarm_pool_alarm_callback+0x3e>
10000f92:	2800      	cmp	r0, #0
10000f94:	d169      	bne.n	1000106a <alarm_pool_alarm_callback+0x112>
10000f96:	2100      	movs	r1, #0
10000f98:	4640      	mov	r0, r8
10000f9a:	f000 fefb 	bl	10001d94 <ph_remove_head>
10000f9e:	42a0      	cmp	r0, r4
10000fa0:	d119      	bne.n	10000fd6 <alarm_pool_alarm_callback+0x7e>
10000fa2:	682a      	ldr	r2, [r5, #0]
10000fa4:	686b      	ldr	r3, [r5, #4]
10000fa6:	9206      	str	r2, [sp, #24]
10000fa8:	9307      	str	r3, [sp, #28]
10000faa:	68ab      	ldr	r3, [r5, #8]
10000fac:	4698      	mov	r8, r3
10000fae:	68eb      	ldr	r3, [r5, #12]
10000fb0:	469a      	mov	sl, r3
10000fb2:	4643      	mov	r3, r8
10000fb4:	2b00      	cmp	r3, #0
10000fb6:	d014      	beq.n	10000fe2 <alarm_pool_alarm_callback+0x8a>
10000fb8:	2c00      	cmp	r4, #0
10000fba:	d018      	beq.n	10000fee <alarm_pool_alarm_callback+0x96>
10000fbc:	683b      	ldr	r3, [r7, #0]
10000fbe:	7b1b      	ldrb	r3, [r3, #12]
10000fc0:	429c      	cmp	r4, r3
10000fc2:	d814      	bhi.n	10000fee <alarm_pool_alarm_callback+0x96>
10000fc4:	1e63      	subs	r3, r4, #1
10000fc6:	68fa      	ldr	r2, [r7, #12]
10000fc8:	5cd3      	ldrb	r3, [r2, r3]
10000fca:	9308      	str	r3, [sp, #32]
10000fcc:	021b      	lsls	r3, r3, #8
10000fce:	4318      	orrs	r0, r3
10000fd0:	6138      	str	r0, [r7, #16]
10000fd2:	2000      	movs	r0, #0
10000fd4:	e015      	b.n	10001002 <alarm_pool_alarm_callback+0xaa>
10000fd6:	4ba2      	ldr	r3, [pc, #648]	; (10001260 <alarm_pool_alarm_callback+0x308>)
10000fd8:	4aa2      	ldr	r2, [pc, #648]	; (10001264 <alarm_pool_alarm_callback+0x30c>)
10000fda:	218e      	movs	r1, #142	; 0x8e
10000fdc:	489f      	ldr	r0, [pc, #636]	; (1000125c <alarm_pool_alarm_callback+0x304>)
10000fde:	f001 fa53 	bl	10002488 <__assert_func>
10000fe2:	4ba1      	ldr	r3, [pc, #644]	; (10001268 <alarm_pool_alarm_callback+0x310>)
10000fe4:	4a9f      	ldr	r2, [pc, #636]	; (10001264 <alarm_pool_alarm_callback+0x30c>)
10000fe6:	2192      	movs	r1, #146	; 0x92
10000fe8:	489c      	ldr	r0, [pc, #624]	; (1000125c <alarm_pool_alarm_callback+0x304>)
10000fea:	f001 fa4d 	bl	10002488 <__assert_func>
10000fee:	4b99      	ldr	r3, [pc, #612]	; (10001254 <alarm_pool_alarm_callback+0x2fc>)
10000ff0:	4a9e      	ldr	r2, [pc, #632]	; (1000126c <alarm_pool_alarm_callback+0x314>)
10000ff2:	2141      	movs	r1, #65	; 0x41
10000ff4:	4899      	ldr	r0, [pc, #612]	; (1000125c <alarm_pool_alarm_callback+0x304>)
10000ff6:	f001 fa47 	bl	10002488 <__assert_func>
10000ffa:	2300      	movs	r3, #0
10000ffc:	469a      	mov	sl, r3
10000ffe:	4698      	mov	r8, r3
10001000:	2000      	movs	r0, #0
10001002:	687b      	ldr	r3, [r7, #4]
10001004:	f3bf 8f5f 	dmb	sy
10001008:	2200      	movs	r2, #0
1000100a:	601a      	str	r2, [r3, #0]
1000100c:	f386 8810 	msr	PRIMASK, r6
10001010:	4643      	mov	r3, r8
10001012:	2b00      	cmp	r3, #0
10001014:	d132      	bne.n	1000107c <alarm_pool_alarm_callback+0x124>
10001016:	2800      	cmp	r0, #0
10001018:	d100      	bne.n	1000101c <alarm_pool_alarm_callback+0xc4>
1000101a:	e10c      	b.n	10001236 <alarm_pool_alarm_callback+0x2de>
1000101c:	f000 fc00 	bl	10001820 <time_us_64>
10001020:	0002      	movs	r2, r0
10001022:	1e0b      	subs	r3, r1, #0
10001024:	dba7      	blt.n	10000f76 <alarm_pool_alarm_callback+0x1e>
10001026:	2000      	movs	r0, #0
10001028:	2100      	movs	r1, #0
1000102a:	9006      	str	r0, [sp, #24]
1000102c:	9107      	str	r1, [sp, #28]
1000102e:	6878      	ldr	r0, [r7, #4]
10001030:	f3ef 8610 	mrs	r6, PRIMASK
10001034:	b672      	cpsid	i
10001036:	6801      	ldr	r1, [r0, #0]
10001038:	2900      	cmp	r1, #0
1000103a:	d0fc      	beq.n	10001036 <alarm_pool_alarm_callback+0xde>
1000103c:	f3bf 8f5f 	dmb	sy
10001040:	6839      	ldr	r1, [r7, #0]
10001042:	4688      	mov	r8, r1
10001044:	7b4c      	ldrb	r4, [r1, #13]
10001046:	2c00      	cmp	r4, #0
10001048:	d0d7      	beq.n	10000ffa <alarm_pool_alarm_callback+0xa2>
1000104a:	d09a      	beq.n	10000f82 <alarm_pool_alarm_callback+0x2a>
1000104c:	7b09      	ldrb	r1, [r1, #12]
1000104e:	428c      	cmp	r4, r1
10001050:	d897      	bhi.n	10000f82 <alarm_pool_alarm_callback+0x2a>
10001052:	4987      	ldr	r1, [pc, #540]	; (10001270 <alarm_pool_alarm_callback+0x318>)
10001054:	1865      	adds	r5, r4, r1
10001056:	012d      	lsls	r5, r5, #4
10001058:	68b9      	ldr	r1, [r7, #8]
1000105a:	468c      	mov	ip, r1
1000105c:	4465      	add	r5, ip
1000105e:	6828      	ldr	r0, [r5, #0]
10001060:	6869      	ldr	r1, [r5, #4]
10001062:	1a80      	subs	r0, r0, r2
10001064:	4199      	sbcs	r1, r3
10001066:	2900      	cmp	r1, #0
10001068:	dd91      	ble.n	10000f8e <alarm_pool_alarm_callback+0x36>
1000106a:	682a      	ldr	r2, [r5, #0]
1000106c:	686b      	ldr	r3, [r5, #4]
1000106e:	9809      	ldr	r0, [sp, #36]	; 0x24
10001070:	f000 fc62 	bl	10001938 <hardware_alarm_set_target>
10001074:	2300      	movs	r3, #0
10001076:	469a      	mov	sl, r3
10001078:	4698      	mov	r8, r3
1000107a:	e7c2      	b.n	10001002 <alarm_pool_alarm_callback+0xaa>
1000107c:	9b08      	ldr	r3, [sp, #32]
1000107e:	021b      	lsls	r3, r3, #8
10001080:	4323      	orrs	r3, r4
10001082:	4699      	mov	r9, r3
10001084:	4651      	mov	r1, sl
10001086:	0018      	movs	r0, r3
10001088:	47c0      	blx	r8
1000108a:	0005      	movs	r5, r0
1000108c:	000e      	movs	r6, r1
1000108e:	687a      	ldr	r2, [r7, #4]
10001090:	f3ef 8b10 	mrs	fp, PRIMASK
10001094:	b672      	cpsid	i
10001096:	6813      	ldr	r3, [r2, #0]
10001098:	4259      	negs	r1, r3
1000109a:	414b      	adcs	r3, r1
1000109c:	b2d9      	uxtb	r1, r3
1000109e:	2b00      	cmp	r3, #0
100010a0:	d1f9      	bne.n	10001096 <alarm_pool_alarm_callback+0x13e>
100010a2:	f3bf 8f5f 	dmb	sy
100010a6:	2e00      	cmp	r6, #0
100010a8:	db1e      	blt.n	100010e8 <alarm_pool_alarm_callback+0x190>
100010aa:	2e00      	cmp	r6, #0
100010ac:	dd46      	ble.n	1000113c <alarm_pool_alarm_callback+0x1e4>
100010ae:	693b      	ldr	r3, [r7, #16]
100010b0:	2b00      	cmp	r3, #0
100010b2:	d047      	beq.n	10001144 <alarm_pool_alarm_callback+0x1ec>
100010b4:	454b      	cmp	r3, r9
100010b6:	d16d      	bne.n	10001194 <alarm_pool_alarm_callback+0x23c>
100010b8:	f000 fbb2 	bl	10001820 <time_us_64>
100010bc:	0002      	movs	r2, r0
100010be:	1e0b      	subs	r3, r1, #0
100010c0:	db6e      	blt.n	100011a0 <alarm_pool_alarm_callback+0x248>
100010c2:	1952      	adds	r2, r2, r5
100010c4:	4173      	adcs	r3, r6
100010c6:	2b00      	cmp	r3, #0
100010c8:	db70      	blt.n	100011ac <alarm_pool_alarm_callback+0x254>
100010ca:	2b00      	cmp	r3, #0
100010cc:	db72      	blt.n	100011b4 <alarm_pool_alarm_callback+0x25c>
100010ce:	2100      	movs	r1, #0
100010d0:	9104      	str	r1, [sp, #16]
100010d2:	3101      	adds	r1, #1
100010d4:	9103      	str	r1, [sp, #12]
100010d6:	9402      	str	r4, [sp, #8]
100010d8:	4651      	mov	r1, sl
100010da:	9101      	str	r1, [sp, #4]
100010dc:	4641      	mov	r1, r8
100010de:	9100      	str	r1, [sp, #0]
100010e0:	0038      	movs	r0, r7
100010e2:	f7ff fe7f 	bl	10000de4 <add_alarm_under_lock>
100010e6:	e04c      	b.n	10001182 <alarm_pool_alarm_callback+0x22a>
100010e8:	693b      	ldr	r3, [r7, #16]
100010ea:	2b00      	cmp	r3, #0
100010ec:	d0dd      	beq.n	100010aa <alarm_pool_alarm_callback+0x152>
100010ee:	454b      	cmp	r3, r9
100010f0:	d114      	bne.n	1000111c <alarm_pool_alarm_callback+0x1c4>
100010f2:	9a06      	ldr	r2, [sp, #24]
100010f4:	9b07      	ldr	r3, [sp, #28]
100010f6:	1b52      	subs	r2, r2, r5
100010f8:	41b3      	sbcs	r3, r6
100010fa:	2b00      	cmp	r3, #0
100010fc:	db14      	blt.n	10001128 <alarm_pool_alarm_callback+0x1d0>
100010fe:	2b00      	cmp	r3, #0
10001100:	db16      	blt.n	10001130 <alarm_pool_alarm_callback+0x1d8>
10001102:	2100      	movs	r1, #0
10001104:	9104      	str	r1, [sp, #16]
10001106:	3101      	adds	r1, #1
10001108:	9103      	str	r1, [sp, #12]
1000110a:	9402      	str	r4, [sp, #8]
1000110c:	4651      	mov	r1, sl
1000110e:	9101      	str	r1, [sp, #4]
10001110:	4641      	mov	r1, r8
10001112:	9100      	str	r1, [sp, #0]
10001114:	0038      	movs	r0, r7
10001116:	f7ff fe65 	bl	10000de4 <add_alarm_under_lock>
1000111a:	e032      	b.n	10001182 <alarm_pool_alarm_callback+0x22a>
1000111c:	4b55      	ldr	r3, [pc, #340]	; (10001274 <alarm_pool_alarm_callback+0x31c>)
1000111e:	4a51      	ldr	r2, [pc, #324]	; (10001264 <alarm_pool_alarm_callback+0x30c>)
10001120:	21a1      	movs	r1, #161	; 0xa1
10001122:	484e      	ldr	r0, [pc, #312]	; (1000125c <alarm_pool_alarm_callback+0x304>)
10001124:	f001 f9b0 	bl	10002488 <__assert_func>
10001128:	2201      	movs	r2, #1
1000112a:	4252      	negs	r2, r2
1000112c:	4b52      	ldr	r3, [pc, #328]	; (10001278 <alarm_pool_alarm_callback+0x320>)
1000112e:	e7e6      	b.n	100010fe <alarm_pool_alarm_callback+0x1a6>
10001130:	4b45      	ldr	r3, [pc, #276]	; (10001248 <alarm_pool_alarm_callback+0x2f0>)
10001132:	4a46      	ldr	r2, [pc, #280]	; (1000124c <alarm_pool_alarm_callback+0x2f4>)
10001134:	213f      	movs	r1, #63	; 0x3f
10001136:	4846      	ldr	r0, [pc, #280]	; (10001250 <alarm_pool_alarm_callback+0x2f8>)
10001138:	f001 f9a6 	bl	10002488 <__assert_func>
1000113c:	2e00      	cmp	r6, #0
1000113e:	d101      	bne.n	10001144 <alarm_pool_alarm_callback+0x1ec>
10001140:	2d00      	cmp	r5, #0
10001142:	d1b4      	bne.n	100010ae <alarm_pool_alarm_callback+0x156>
10001144:	683b      	ldr	r3, [r7, #0]
10001146:	2c00      	cmp	r4, #0
10001148:	d050      	beq.n	100011ec <alarm_pool_alarm_callback+0x294>
1000114a:	7b5a      	ldrb	r2, [r3, #13]
1000114c:	4294      	cmp	r4, r2
1000114e:	d137      	bne.n	100011c0 <alarm_pool_alarm_callback+0x268>
10001150:	2101      	movs	r1, #1
10001152:	2900      	cmp	r1, #0
10001154:	d14a      	bne.n	100011ec <alarm_pool_alarm_callback+0x294>
10001156:	7bda      	ldrb	r2, [r3, #15]
10001158:	2a00      	cmp	r2, #0
1000115a:	d14d      	bne.n	100011f8 <alarm_pool_alarm_callback+0x2a0>
1000115c:	7b9a      	ldrb	r2, [r3, #14]
1000115e:	2a00      	cmp	r2, #0
10001160:	d103      	bne.n	1000116a <alarm_pool_alarm_callback+0x212>
10001162:	7bda      	ldrb	r2, [r3, #15]
10001164:	2a00      	cmp	r2, #0
10001166:	d15a      	bne.n	1000121e <alarm_pool_alarm_callback+0x2c6>
10001168:	739c      	strb	r4, [r3, #14]
1000116a:	73dc      	strb	r4, [r3, #15]
1000116c:	2c00      	cmp	r4, #0
1000116e:	d05c      	beq.n	1000122a <alarm_pool_alarm_callback+0x2d2>
10001170:	683b      	ldr	r3, [r7, #0]
10001172:	7b1b      	ldrb	r3, [r3, #12]
10001174:	429c      	cmp	r4, r3
10001176:	d858      	bhi.n	1000122a <alarm_pool_alarm_callback+0x2d2>
10001178:	68fa      	ldr	r2, [r7, #12]
1000117a:	3c01      	subs	r4, #1
1000117c:	5d13      	ldrb	r3, [r2, r4]
1000117e:	3301      	adds	r3, #1
10001180:	5513      	strb	r3, [r2, r4]
10001182:	2300      	movs	r3, #0
10001184:	613b      	str	r3, [r7, #16]
10001186:	687a      	ldr	r2, [r7, #4]
10001188:	f3bf 8f5f 	dmb	sy
1000118c:	6013      	str	r3, [r2, #0]
1000118e:	f38b 8810 	msr	PRIMASK, fp
10001192:	e743      	b.n	1000101c <alarm_pool_alarm_callback+0xc4>
10001194:	4b37      	ldr	r3, [pc, #220]	; (10001274 <alarm_pool_alarm_callback+0x31c>)
10001196:	4a33      	ldr	r2, [pc, #204]	; (10001264 <alarm_pool_alarm_callback+0x30c>)
10001198:	21a4      	movs	r1, #164	; 0xa4
1000119a:	4830      	ldr	r0, [pc, #192]	; (1000125c <alarm_pool_alarm_callback+0x304>)
1000119c:	f001 f974 	bl	10002488 <__assert_func>
100011a0:	4b29      	ldr	r3, [pc, #164]	; (10001248 <alarm_pool_alarm_callback+0x2f0>)
100011a2:	4a2a      	ldr	r2, [pc, #168]	; (1000124c <alarm_pool_alarm_callback+0x2f4>)
100011a4:	213f      	movs	r1, #63	; 0x3f
100011a6:	482a      	ldr	r0, [pc, #168]	; (10001250 <alarm_pool_alarm_callback+0x2f8>)
100011a8:	f001 f96e 	bl	10002488 <__assert_func>
100011ac:	2201      	movs	r2, #1
100011ae:	4252      	negs	r2, r2
100011b0:	4b31      	ldr	r3, [pc, #196]	; (10001278 <alarm_pool_alarm_callback+0x320>)
100011b2:	e78a      	b.n	100010ca <alarm_pool_alarm_callback+0x172>
100011b4:	4b24      	ldr	r3, [pc, #144]	; (10001248 <alarm_pool_alarm_callback+0x2f0>)
100011b6:	4a25      	ldr	r2, [pc, #148]	; (1000124c <alarm_pool_alarm_callback+0x2f4>)
100011b8:	213f      	movs	r1, #63	; 0x3f
100011ba:	4825      	ldr	r0, [pc, #148]	; (10001250 <alarm_pool_alarm_callback+0x2f8>)
100011bc:	f001 f964 	bl	10002488 <__assert_func>
100011c0:	2c00      	cmp	r4, #0
100011c2:	d00d      	beq.n	100011e0 <alarm_pool_alarm_callback+0x288>
100011c4:	7b1a      	ldrb	r2, [r3, #12]
100011c6:	4294      	cmp	r4, r2
100011c8:	d80a      	bhi.n	100011e0 <alarm_pool_alarm_callback+0x288>
100011ca:	0062      	lsls	r2, r4, #1
100011cc:	1912      	adds	r2, r2, r4
100011ce:	3a03      	subs	r2, #3
100011d0:	6818      	ldr	r0, [r3, #0]
100011d2:	4684      	mov	ip, r0
100011d4:	4462      	add	r2, ip
100011d6:	7892      	ldrb	r2, [r2, #2]
100011d8:	2a00      	cmp	r2, #0
100011da:	d0ba      	beq.n	10001152 <alarm_pool_alarm_callback+0x1fa>
100011dc:	2101      	movs	r1, #1
100011de:	e7b8      	b.n	10001152 <alarm_pool_alarm_callback+0x1fa>
100011e0:	4b26      	ldr	r3, [pc, #152]	; (1000127c <alarm_pool_alarm_callback+0x324>)
100011e2:	4a27      	ldr	r2, [pc, #156]	; (10001280 <alarm_pool_alarm_callback+0x328>)
100011e4:	2168      	movs	r1, #104	; 0x68
100011e6:	4827      	ldr	r0, [pc, #156]	; (10001284 <alarm_pool_alarm_callback+0x32c>)
100011e8:	f001 f94e 	bl	10002488 <__assert_func>
100011ec:	4b26      	ldr	r3, [pc, #152]	; (10001288 <alarm_pool_alarm_callback+0x330>)
100011ee:	4a27      	ldr	r2, [pc, #156]	; (1000128c <alarm_pool_alarm_callback+0x334>)
100011f0:	21f6      	movs	r1, #246	; 0xf6
100011f2:	4824      	ldr	r0, [pc, #144]	; (10001284 <alarm_pool_alarm_callback+0x32c>)
100011f4:	f001 f948 	bl	10002488 <__assert_func>
100011f8:	2a00      	cmp	r2, #0
100011fa:	d00a      	beq.n	10001212 <alarm_pool_alarm_callback+0x2ba>
100011fc:	7b19      	ldrb	r1, [r3, #12]
100011fe:	428a      	cmp	r2, r1
10001200:	d807      	bhi.n	10001212 <alarm_pool_alarm_callback+0x2ba>
10001202:	0051      	lsls	r1, r2, #1
10001204:	188a      	adds	r2, r1, r2
10001206:	3a03      	subs	r2, #3
10001208:	6819      	ldr	r1, [r3, #0]
1000120a:	468c      	mov	ip, r1
1000120c:	4462      	add	r2, ip
1000120e:	7054      	strb	r4, [r2, #1]
10001210:	e7a4      	b.n	1000115c <alarm_pool_alarm_callback+0x204>
10001212:	4b1a      	ldr	r3, [pc, #104]	; (1000127c <alarm_pool_alarm_callback+0x324>)
10001214:	4a1a      	ldr	r2, [pc, #104]	; (10001280 <alarm_pool_alarm_callback+0x328>)
10001216:	2168      	movs	r1, #104	; 0x68
10001218:	481a      	ldr	r0, [pc, #104]	; (10001284 <alarm_pool_alarm_callback+0x32c>)
1000121a:	f001 f935 	bl	10002488 <__assert_func>
1000121e:	4b1c      	ldr	r3, [pc, #112]	; (10001290 <alarm_pool_alarm_callback+0x338>)
10001220:	4a1a      	ldr	r2, [pc, #104]	; (1000128c <alarm_pool_alarm_callback+0x334>)
10001222:	21fb      	movs	r1, #251	; 0xfb
10001224:	4817      	ldr	r0, [pc, #92]	; (10001284 <alarm_pool_alarm_callback+0x32c>)
10001226:	f001 f92f 	bl	10002488 <__assert_func>
1000122a:	4b0a      	ldr	r3, [pc, #40]	; (10001254 <alarm_pool_alarm_callback+0x2fc>)
1000122c:	4a0f      	ldr	r2, [pc, #60]	; (1000126c <alarm_pool_alarm_callback+0x314>)
1000122e:	2141      	movs	r1, #65	; 0x41
10001230:	480a      	ldr	r0, [pc, #40]	; (1000125c <alarm_pool_alarm_callback+0x304>)
10001232:	f001 f929 	bl	10002488 <__assert_func>
10001236:	b00b      	add	sp, #44	; 0x2c
10001238:	bcf0      	pop	{r4, r5, r6, r7}
1000123a:	46bb      	mov	fp, r7
1000123c:	46b2      	mov	sl, r6
1000123e:	46a9      	mov	r9, r5
10001240:	46a0      	mov	r8, r4
10001242:	bdf0      	pop	{r4, r5, r6, r7, pc}
10001244:	20001800 	.word	0x20001800
10001248:	10006fa0 	.word	0x10006fa0
1000124c:	10007348 	.word	0x10007348
10001250:	10006fbc 	.word	0x10006fbc
10001254:	100070fc 	.word	0x100070fc
10001258:	1000737c 	.word	0x1000737c
1000125c:	100070a8 	.word	0x100070a8
10001260:	100071fc 	.word	0x100071fc
10001264:	10007360 	.word	0x10007360
10001268:	10007214 	.word	0x10007214
1000126c:	100073a0 	.word	0x100073a0
10001270:	0fffffff 	.word	0x0fffffff
10001274:	10007220 	.word	0x10007220
10001278:	7fffffff 	.word	0x7fffffff
1000127c:	10007120 	.word	0x10007120
10001280:	100073e8 	.word	0x100073e8
10001284:	1000713c 	.word	0x1000713c
10001288:	1000725c 	.word	0x1000725c
1000128c:	100073b4 	.word	0x100073b4
10001290:	10007280 	.word	0x10007280

10001294 <alarm_pool_init_default>:
10001294:	b510      	push	{r4, lr}
10001296:	4b0c      	ldr	r3, [pc, #48]	; (100012c8 <alarm_pool_init_default+0x34>)
10001298:	685b      	ldr	r3, [r3, #4]
1000129a:	2b00      	cmp	r3, #0
1000129c:	d004      	beq.n	100012a8 <alarm_pool_init_default+0x14>
1000129e:	210a      	movs	r1, #10
100012a0:	480a      	ldr	r0, [pc, #40]	; (100012cc <alarm_pool_init_default+0x38>)
100012a2:	f7ff fc7f 	bl	10000ba4 <lock_init>
100012a6:	bd10      	pop	{r4, pc}
100012a8:	4c07      	ldr	r4, [pc, #28]	; (100012c8 <alarm_pool_init_default+0x34>)
100012aa:	0023      	movs	r3, r4
100012ac:	4a08      	ldr	r2, [pc, #32]	; (100012d0 <alarm_pool_init_default+0x3c>)
100012ae:	2110      	movs	r1, #16
100012b0:	6820      	ldr	r0, [r4, #0]
100012b2:	f000 fc7f 	bl	10001bb4 <ph_post_alloc_init>
100012b6:	2003      	movs	r0, #3
100012b8:	f000 faa6 	bl	10001808 <hardware_alarm_claim>
100012bc:	2103      	movs	r1, #3
100012be:	0020      	movs	r0, r4
100012c0:	f7ff fca8 	bl	10000c14 <alarm_pool_post_alloc_init>
100012c4:	e7eb      	b.n	1000129e <alarm_pool_init_default+0xa>
100012c6:	46c0      	nop			; (mov r8, r8)
100012c8:	20000bfc 	.word	0x20000bfc
100012cc:	20001a1c 	.word	0x20001a1c
100012d0:	10000c85 	.word	0x10000c85

100012d4 <alarm_pool_get_default>:
100012d4:	b510      	push	{r4, lr}
100012d6:	4b06      	ldr	r3, [pc, #24]	; (100012f0 <alarm_pool_get_default+0x1c>)
100012d8:	685b      	ldr	r3, [r3, #4]
100012da:	2b00      	cmp	r3, #0
100012dc:	d001      	beq.n	100012e2 <alarm_pool_get_default+0xe>
100012de:	4804      	ldr	r0, [pc, #16]	; (100012f0 <alarm_pool_get_default+0x1c>)
100012e0:	bd10      	pop	{r4, pc}
100012e2:	4b04      	ldr	r3, [pc, #16]	; (100012f4 <alarm_pool_get_default+0x20>)
100012e4:	4a04      	ldr	r2, [pc, #16]	; (100012f8 <alarm_pool_get_default+0x24>)
100012e6:	215e      	movs	r1, #94	; 0x5e
100012e8:	4804      	ldr	r0, [pc, #16]	; (100012fc <alarm_pool_get_default+0x28>)
100012ea:	f001 f8cd 	bl	10002488 <__assert_func>
100012ee:	46c0      	nop			; (mov r8, r8)
100012f0:	20000bfc 	.word	0x20000bfc
100012f4:	10007294 	.word	0x10007294
100012f8:	10007388 	.word	0x10007388
100012fc:	100070a8 	.word	0x100070a8

10001300 <alarm_pool_add_alarm_at>:
10001300:	b5f0      	push	{r4, r5, r6, r7, lr}
10001302:	46de      	mov	lr, fp
10001304:	4657      	mov	r7, sl
10001306:	464e      	mov	r6, r9
10001308:	4645      	mov	r5, r8
1000130a:	b5e0      	push	{r5, r6, r7, lr}
1000130c:	b08b      	sub	sp, #44	; 0x2c
1000130e:	4680      	mov	r8, r0
10001310:	0016      	movs	r6, r2
10001312:	001f      	movs	r7, r3
10001314:	9b14      	ldr	r3, [sp, #80]	; 0x50
10001316:	469a      	mov	sl, r3
10001318:	9b15      	ldr	r3, [sp, #84]	; 0x54
1000131a:	4699      	mov	r9, r3
1000131c:	ab16      	add	r3, sp, #88	; 0x58
1000131e:	781b      	ldrb	r3, [r3, #0]
10001320:	469b      	mov	fp, r3
10001322:	231f      	movs	r3, #31
10001324:	aa02      	add	r2, sp, #8
10001326:	4694      	mov	ip, r2
10001328:	4463      	add	r3, ip
1000132a:	2200      	movs	r2, #0
1000132c:	701a      	strb	r2, [r3, #0]
1000132e:	e02b      	b.n	10001388 <alarm_pool_add_alarm_at+0x88>
10001330:	2800      	cmp	r0, #0
10001332:	d009      	beq.n	10001348 <alarm_pool_add_alarm_at+0x48>
10001334:	4642      	mov	r2, r8
10001336:	6812      	ldr	r2, [r2, #0]
10001338:	7b12      	ldrb	r2, [r2, #12]
1000133a:	4290      	cmp	r0, r2
1000133c:	d804      	bhi.n	10001348 <alarm_pool_add_alarm_at+0x48>
1000133e:	1e42      	subs	r2, r0, #1
10001340:	4641      	mov	r1, r8
10001342:	68c9      	ldr	r1, [r1, #12]
10001344:	5c8a      	ldrb	r2, [r1, r2]
10001346:	e041      	b.n	100013cc <alarm_pool_add_alarm_at+0xcc>
10001348:	4b40      	ldr	r3, [pc, #256]	; (1000144c <alarm_pool_add_alarm_at+0x14c>)
1000134a:	4a41      	ldr	r2, [pc, #260]	; (10001450 <alarm_pool_add_alarm_at+0x150>)
1000134c:	2141      	movs	r1, #65	; 0x41
1000134e:	4841      	ldr	r0, [pc, #260]	; (10001454 <alarm_pool_add_alarm_at+0x154>)
10001350:	f001 f89a 	bl	10002488 <__assert_func>
10001354:	9807      	ldr	r0, [sp, #28]
10001356:	e04c      	b.n	100013f2 <alarm_pool_add_alarm_at+0xf2>
10001358:	1b36      	subs	r6, r6, r4
1000135a:	41af      	sbcs	r7, r5
1000135c:	2f00      	cmp	r7, #0
1000135e:	db07      	blt.n	10001370 <alarm_pool_add_alarm_at+0x70>
10001360:	2f00      	cmp	r7, #0
10001362:	da11      	bge.n	10001388 <alarm_pool_add_alarm_at+0x88>
10001364:	4b3c      	ldr	r3, [pc, #240]	; (10001458 <alarm_pool_add_alarm_at+0x158>)
10001366:	4a3d      	ldr	r2, [pc, #244]	; (1000145c <alarm_pool_add_alarm_at+0x15c>)
10001368:	213f      	movs	r1, #63	; 0x3f
1000136a:	483d      	ldr	r0, [pc, #244]	; (10001460 <alarm_pool_add_alarm_at+0x160>)
1000136c:	f001 f88c 	bl	10002488 <__assert_func>
10001370:	2601      	movs	r6, #1
10001372:	4276      	negs	r6, r6
10001374:	4f3b      	ldr	r7, [pc, #236]	; (10001464 <alarm_pool_add_alarm_at+0x164>)
10001376:	e7f3      	b.n	10001360 <alarm_pool_add_alarm_at+0x60>
10001378:	4b37      	ldr	r3, [pc, #220]	; (10001458 <alarm_pool_add_alarm_at+0x158>)
1000137a:	4a38      	ldr	r2, [pc, #224]	; (1000145c <alarm_pool_add_alarm_at+0x15c>)
1000137c:	213f      	movs	r1, #63	; 0x3f
1000137e:	4838      	ldr	r0, [pc, #224]	; (10001460 <alarm_pool_add_alarm_at+0x160>)
10001380:	f001 f882 	bl	10002488 <__assert_func>
10001384:	2f00      	cmp	r7, #0
10001386:	db4f      	blt.n	10001428 <alarm_pool_add_alarm_at+0x128>
10001388:	4643      	mov	r3, r8
1000138a:	685a      	ldr	r2, [r3, #4]
1000138c:	f3ef 8410 	mrs	r4, PRIMASK
10001390:	b672      	cpsid	i
10001392:	6813      	ldr	r3, [r2, #0]
10001394:	4259      	negs	r1, r3
10001396:	414b      	adcs	r3, r1
10001398:	b2d9      	uxtb	r1, r3
1000139a:	9107      	str	r1, [sp, #28]
1000139c:	2b00      	cmp	r3, #0
1000139e:	d1f8      	bne.n	10001392 <alarm_pool_add_alarm_at+0x92>
100013a0:	f3bf 8f5f 	dmb	sy
100013a4:	331f      	adds	r3, #31
100013a6:	aa02      	add	r2, sp, #8
100013a8:	4694      	mov	ip, r2
100013aa:	4463      	add	r3, ip
100013ac:	9304      	str	r3, [sp, #16]
100013ae:	2300      	movs	r3, #0
100013b0:	9303      	str	r3, [sp, #12]
100013b2:	9302      	str	r3, [sp, #8]
100013b4:	464b      	mov	r3, r9
100013b6:	9301      	str	r3, [sp, #4]
100013b8:	4653      	mov	r3, sl
100013ba:	9300      	str	r3, [sp, #0]
100013bc:	0032      	movs	r2, r6
100013be:	003b      	movs	r3, r7
100013c0:	4640      	mov	r0, r8
100013c2:	f7ff fd0f 	bl	10000de4 <add_alarm_under_lock>
100013c6:	1e03      	subs	r3, r0, #0
100013c8:	d1b2      	bne.n	10001330 <alarm_pool_add_alarm_at+0x30>
100013ca:	0002      	movs	r2, r0
100013cc:	4641      	mov	r1, r8
100013ce:	6849      	ldr	r1, [r1, #4]
100013d0:	f3bf 8f5f 	dmb	sy
100013d4:	2500      	movs	r5, #0
100013d6:	600d      	str	r5, [r1, #0]
100013d8:	f384 8810 	msr	PRIMASK, r4
100013dc:	2b00      	cmp	r3, #0
100013de:	d029      	beq.n	10001434 <alarm_pool_add_alarm_at+0x134>
100013e0:	231f      	movs	r3, #31
100013e2:	a902      	add	r1, sp, #8
100013e4:	468c      	mov	ip, r1
100013e6:	4463      	add	r3, ip
100013e8:	781b      	ldrb	r3, [r3, #0]
100013ea:	2b00      	cmp	r3, #0
100013ec:	d1b2      	bne.n	10001354 <alarm_pool_add_alarm_at+0x54>
100013ee:	0212      	lsls	r2, r2, #8
100013f0:	4310      	orrs	r0, r2
100013f2:	2b00      	cmp	r3, #0
100013f4:	d020      	beq.n	10001438 <alarm_pool_add_alarm_at+0x138>
100013f6:	465b      	mov	r3, fp
100013f8:	2b00      	cmp	r3, #0
100013fa:	d01d      	beq.n	10001438 <alarm_pool_add_alarm_at+0x138>
100013fc:	4649      	mov	r1, r9
100013fe:	47d0      	blx	sl
10001400:	0004      	movs	r4, r0
10001402:	000d      	movs	r5, r1
10001404:	0003      	movs	r3, r0
10001406:	430b      	orrs	r3, r1
10001408:	d01d      	beq.n	10001446 <alarm_pool_add_alarm_at+0x146>
1000140a:	2900      	cmp	r1, #0
1000140c:	dba4      	blt.n	10001358 <alarm_pool_add_alarm_at+0x58>
1000140e:	f000 fa07 	bl	10001820 <time_us_64>
10001412:	0006      	movs	r6, r0
10001414:	1e0f      	subs	r7, r1, #0
10001416:	dbaf      	blt.n	10001378 <alarm_pool_add_alarm_at+0x78>
10001418:	1936      	adds	r6, r6, r4
1000141a:	416f      	adcs	r7, r5
1000141c:	2f00      	cmp	r7, #0
1000141e:	dab1      	bge.n	10001384 <alarm_pool_add_alarm_at+0x84>
10001420:	2601      	movs	r6, #1
10001422:	4276      	negs	r6, r6
10001424:	4f0f      	ldr	r7, [pc, #60]	; (10001464 <alarm_pool_add_alarm_at+0x164>)
10001426:	e7ad      	b.n	10001384 <alarm_pool_add_alarm_at+0x84>
10001428:	4b0b      	ldr	r3, [pc, #44]	; (10001458 <alarm_pool_add_alarm_at+0x158>)
1000142a:	4a0c      	ldr	r2, [pc, #48]	; (1000145c <alarm_pool_add_alarm_at+0x15c>)
1000142c:	213f      	movs	r1, #63	; 0x3f
1000142e:	480c      	ldr	r0, [pc, #48]	; (10001460 <alarm_pool_add_alarm_at+0x160>)
10001430:	f001 f82a 	bl	10002488 <__assert_func>
10001434:	2001      	movs	r0, #1
10001436:	4240      	negs	r0, r0
10001438:	b00b      	add	sp, #44	; 0x2c
1000143a:	bcf0      	pop	{r4, r5, r6, r7}
1000143c:	46bb      	mov	fp, r7
1000143e:	46b2      	mov	sl, r6
10001440:	46a9      	mov	r9, r5
10001442:	46a0      	mov	r8, r4
10001444:	bdf0      	pop	{r4, r5, r6, r7, pc}
10001446:	9807      	ldr	r0, [sp, #28]
10001448:	e7f6      	b.n	10001438 <alarm_pool_add_alarm_at+0x138>
1000144a:	46c0      	nop			; (mov r8, r8)
1000144c:	100070fc 	.word	0x100070fc
10001450:	100073a0 	.word	0x100073a0
10001454:	100070a8 	.word	0x100070a8
10001458:	10006fa0 	.word	0x10006fa0
1000145c:	10007348 	.word	0x10007348
10001460:	10006fbc 	.word	0x10006fbc
10001464:	7fffffff 	.word	0x7fffffff

10001468 <alarm_pool_cancel_alarm>:
10001468:	b5f8      	push	{r3, r4, r5, r6, r7, lr}
1000146a:	0004      	movs	r4, r0
1000146c:	2900      	cmp	r1, #0
1000146e:	d100      	bne.n	10001472 <alarm_pool_cancel_alarm+0xa>
10001470:	e062      	b.n	10001538 <alarm_pool_cancel_alarm+0xd0>
10001472:	6842      	ldr	r2, [r0, #4]
10001474:	f3ef 8510 	mrs	r5, PRIMASK
10001478:	b672      	cpsid	i
1000147a:	6813      	ldr	r3, [r2, #0]
1000147c:	4258      	negs	r0, r3
1000147e:	4143      	adcs	r3, r0
10001480:	b2d8      	uxtb	r0, r3
10001482:	2b00      	cmp	r3, #0
10001484:	d1f9      	bne.n	1000147a <alarm_pool_cancel_alarm+0x12>
10001486:	f3bf 8f5f 	dmb	sy
1000148a:	b2cb      	uxtb	r3, r1
1000148c:	6822      	ldr	r2, [r4, #0]
1000148e:	7b56      	ldrb	r6, [r2, #13]
10001490:	42b3      	cmp	r3, r6
10001492:	d11b      	bne.n	100014cc <alarm_pool_cancel_alarm+0x64>
10001494:	2001      	movs	r0, #1
10001496:	2800      	cmp	r0, #0
10001498:	d048      	beq.n	1000152c <alarm_pool_cancel_alarm+0xc4>
1000149a:	6920      	ldr	r0, [r4, #16]
1000149c:	4288      	cmp	r0, r1
1000149e:	d02b      	beq.n	100014f8 <alarm_pool_cancel_alarm+0x90>
100014a0:	0a09      	lsrs	r1, r1, #8
100014a2:	b2c9      	uxtb	r1, r1
100014a4:	2b00      	cmp	r3, #0
100014a6:	d02e      	beq.n	10001506 <alarm_pool_cancel_alarm+0x9e>
100014a8:	6820      	ldr	r0, [r4, #0]
100014aa:	7b00      	ldrb	r0, [r0, #12]
100014ac:	4283      	cmp	r3, r0
100014ae:	d82a      	bhi.n	10001506 <alarm_pool_cancel_alarm+0x9e>
100014b0:	1e58      	subs	r0, r3, #1
100014b2:	68e6      	ldr	r6, [r4, #12]
100014b4:	5c30      	ldrb	r0, [r6, r0]
100014b6:	4288      	cmp	r0, r1
100014b8:	d02b      	beq.n	10001512 <alarm_pool_cancel_alarm+0xaa>
100014ba:	2000      	movs	r0, #0
100014bc:	6863      	ldr	r3, [r4, #4]
100014be:	f3bf 8f5f 	dmb	sy
100014c2:	2200      	movs	r2, #0
100014c4:	601a      	str	r2, [r3, #0]
100014c6:	f385 8810 	msr	PRIMASK, r5
100014ca:	bdf8      	pop	{r3, r4, r5, r6, r7, pc}
100014cc:	2b00      	cmp	r3, #0
100014ce:	d00d      	beq.n	100014ec <alarm_pool_cancel_alarm+0x84>
100014d0:	7b16      	ldrb	r6, [r2, #12]
100014d2:	42b3      	cmp	r3, r6
100014d4:	d80a      	bhi.n	100014ec <alarm_pool_cancel_alarm+0x84>
100014d6:	005e      	lsls	r6, r3, #1
100014d8:	18f6      	adds	r6, r6, r3
100014da:	3e03      	subs	r6, #3
100014dc:	6817      	ldr	r7, [r2, #0]
100014de:	46bc      	mov	ip, r7
100014e0:	4466      	add	r6, ip
100014e2:	78b6      	ldrb	r6, [r6, #2]
100014e4:	2e00      	cmp	r6, #0
100014e6:	d0d6      	beq.n	10001496 <alarm_pool_cancel_alarm+0x2e>
100014e8:	2001      	movs	r0, #1
100014ea:	e7d4      	b.n	10001496 <alarm_pool_cancel_alarm+0x2e>
100014ec:	4b13      	ldr	r3, [pc, #76]	; (1000153c <alarm_pool_cancel_alarm+0xd4>)
100014ee:	4a14      	ldr	r2, [pc, #80]	; (10001540 <alarm_pool_cancel_alarm+0xd8>)
100014f0:	2168      	movs	r1, #104	; 0x68
100014f2:	4814      	ldr	r0, [pc, #80]	; (10001544 <alarm_pool_cancel_alarm+0xdc>)
100014f4:	f000 ffc8 	bl	10002488 <__assert_func>
100014f8:	212c      	movs	r1, #44	; 0x2c
100014fa:	4b13      	ldr	r3, [pc, #76]	; (10001548 <alarm_pool_cancel_alarm+0xe0>)
100014fc:	4a13      	ldr	r2, [pc, #76]	; (1000154c <alarm_pool_cancel_alarm+0xe4>)
100014fe:	31ff      	adds	r1, #255	; 0xff
10001500:	4813      	ldr	r0, [pc, #76]	; (10001550 <alarm_pool_cancel_alarm+0xe8>)
10001502:	f000 ffc1 	bl	10002488 <__assert_func>
10001506:	4b13      	ldr	r3, [pc, #76]	; (10001554 <alarm_pool_cancel_alarm+0xec>)
10001508:	4a13      	ldr	r2, [pc, #76]	; (10001558 <alarm_pool_cancel_alarm+0xf0>)
1000150a:	2141      	movs	r1, #65	; 0x41
1000150c:	4810      	ldr	r0, [pc, #64]	; (10001550 <alarm_pool_cancel_alarm+0xe8>)
1000150e:	f000 ffbb 	bl	10002488 <__assert_func>
10001512:	0019      	movs	r1, r3
10001514:	0010      	movs	r0, r2
10001516:	f000 fc47 	bl	10001da8 <ph_remove_and_free_node>
1000151a:	2800      	cmp	r0, #0
1000151c:	d1ce      	bne.n	100014bc <alarm_pool_cancel_alarm+0x54>
1000151e:	2199      	movs	r1, #153	; 0x99
10001520:	4b0e      	ldr	r3, [pc, #56]	; (1000155c <alarm_pool_cancel_alarm+0xf4>)
10001522:	4a0a      	ldr	r2, [pc, #40]	; (1000154c <alarm_pool_cancel_alarm+0xe4>)
10001524:	0049      	lsls	r1, r1, #1
10001526:	480a      	ldr	r0, [pc, #40]	; (10001550 <alarm_pool_cancel_alarm+0xe8>)
10001528:	f000 ffae 	bl	10002488 <__assert_func>
1000152c:	6923      	ldr	r3, [r4, #16]
1000152e:	428b      	cmp	r3, r1
10001530:	d1c4      	bne.n	100014bc <alarm_pool_cancel_alarm+0x54>
10001532:	2300      	movs	r3, #0
10001534:	6123      	str	r3, [r4, #16]
10001536:	e7c1      	b.n	100014bc <alarm_pool_cancel_alarm+0x54>
10001538:	2000      	movs	r0, #0
1000153a:	e7c6      	b.n	100014ca <alarm_pool_cancel_alarm+0x62>
1000153c:	10007120 	.word	0x10007120
10001540:	100073e8 	.word	0x100073e8
10001544:	1000713c 	.word	0x1000713c
10001548:	100072b8 	.word	0x100072b8
1000154c:	10007330 	.word	0x10007330
10001550:	100070a8 	.word	0x100070a8
10001554:	100070fc 	.word	0x100070fc
10001558:	100073a0 	.word	0x100073a0
1000155c:	100072dc 	.word	0x100072dc

10001560 <alarm_pool_core_num>:
10001560:	7d40      	ldrb	r0, [r0, #21]
10001562:	4770      	bx	lr

10001564 <sleep_until>:
10001564:	b5f0      	push	{r4, r5, r6, r7, lr}
10001566:	b087      	sub	sp, #28
10001568:	0006      	movs	r6, r0
1000156a:	000f      	movs	r7, r1
1000156c:	f3ef 8305 	mrs	r3, IPSR
10001570:	2b00      	cmp	r3, #0
10001572:	d11f      	bne.n	100015b4 <sleep_until+0x50>
10001574:	2406      	movs	r4, #6
10001576:	4264      	negs	r4, r4
10001578:	17e5      	asrs	r5, r4, #31
1000157a:	19a4      	adds	r4, r4, r6
1000157c:	417d      	adcs	r5, r7
1000157e:	428d      	cmp	r5, r1
10001580:	d802      	bhi.n	10001588 <sleep_until+0x24>
10001582:	d103      	bne.n	1000158c <sleep_until+0x28>
10001584:	4284      	cmp	r4, r0
10001586:	d901      	bls.n	1000158c <sleep_until+0x28>
10001588:	2400      	movs	r4, #0
1000158a:	2500      	movs	r5, #0
1000158c:	2d00      	cmp	r5, #0
1000158e:	db14      	blt.n	100015ba <sleep_until+0x56>
10001590:	9404      	str	r4, [sp, #16]
10001592:	9505      	str	r5, [sp, #20]
10001594:	f000 f944 	bl	10001820 <time_us_64>
10001598:	0002      	movs	r2, r0
1000159a:	1e0b      	subs	r3, r1, #0
1000159c:	db13      	blt.n	100015c6 <sleep_until+0x62>
1000159e:	1aa4      	subs	r4, r4, r2
100015a0:	419d      	sbcs	r5, r3
100015a2:	2d00      	cmp	r5, #0
100015a4:	dc17      	bgt.n	100015d6 <sleep_until+0x72>
100015a6:	d014      	beq.n	100015d2 <sleep_until+0x6e>
100015a8:	0030      	movs	r0, r6
100015aa:	0039      	movs	r1, r7
100015ac:	f000 f944 	bl	10001838 <busy_wait_until>
100015b0:	b007      	add	sp, #28
100015b2:	bdf0      	pop	{r4, r5, r6, r7, pc}
100015b4:	4823      	ldr	r0, [pc, #140]	; (10001644 <sleep_until+0xe0>)
100015b6:	f001 f801 	bl	100025bc <panic>
100015ba:	4b23      	ldr	r3, [pc, #140]	; (10001648 <sleep_until+0xe4>)
100015bc:	4a23      	ldr	r2, [pc, #140]	; (1000164c <sleep_until+0xe8>)
100015be:	213f      	movs	r1, #63	; 0x3f
100015c0:	4823      	ldr	r0, [pc, #140]	; (10001650 <sleep_until+0xec>)
100015c2:	f000 ff61 	bl	10002488 <__assert_func>
100015c6:	4b20      	ldr	r3, [pc, #128]	; (10001648 <sleep_until+0xe4>)
100015c8:	4a20      	ldr	r2, [pc, #128]	; (1000164c <sleep_until+0xe8>)
100015ca:	213f      	movs	r1, #63	; 0x3f
100015cc:	4820      	ldr	r0, [pc, #128]	; (10001650 <sleep_until+0xec>)
100015ce:	f000 ff5b 	bl	10002488 <__assert_func>
100015d2:	2c00      	cmp	r4, #0
100015d4:	d0e8      	beq.n	100015a8 <sleep_until+0x44>
100015d6:	f7ff fe7d 	bl	100012d4 <alarm_pool_get_default>
100015da:	2300      	movs	r3, #0
100015dc:	9302      	str	r3, [sp, #8]
100015de:	9301      	str	r3, [sp, #4]
100015e0:	4b1c      	ldr	r3, [pc, #112]	; (10001654 <sleep_until+0xf0>)
100015e2:	9300      	str	r3, [sp, #0]
100015e4:	9a04      	ldr	r2, [sp, #16]
100015e6:	9b05      	ldr	r3, [sp, #20]
100015e8:	f7ff fe8a 	bl	10001300 <alarm_pool_add_alarm_at>
100015ec:	2800      	cmp	r0, #0
100015ee:	da18      	bge.n	10001622 <sleep_until+0xbe>
100015f0:	e7da      	b.n	100015a8 <sleep_until+0x44>
100015f2:	2300      	movs	r3, #0
100015f4:	e000      	b.n	100015f8 <sleep_until+0x94>
100015f6:	2300      	movs	r3, #0
100015f8:	2b00      	cmp	r3, #0
100015fa:	d1d5      	bne.n	100015a8 <sleep_until+0x44>
100015fc:	4b16      	ldr	r3, [pc, #88]	; (10001658 <sleep_until+0xf4>)
100015fe:	681a      	ldr	r2, [r3, #0]
10001600:	f3ef 8110 	mrs	r1, PRIMASK
10001604:	b672      	cpsid	i
10001606:	6813      	ldr	r3, [r2, #0]
10001608:	2b00      	cmp	r3, #0
1000160a:	d0fc      	beq.n	10001606 <sleep_until+0xa2>
1000160c:	f3bf 8f5f 	dmb	sy
10001610:	4b11      	ldr	r3, [pc, #68]	; (10001658 <sleep_until+0xf4>)
10001612:	681b      	ldr	r3, [r3, #0]
10001614:	f3bf 8f5f 	dmb	sy
10001618:	2200      	movs	r2, #0
1000161a:	601a      	str	r2, [r3, #0]
1000161c:	f381 8810 	msr	PRIMASK, r1
10001620:	bf20      	wfe
10001622:	9904      	ldr	r1, [sp, #16]
10001624:	9a05      	ldr	r2, [sp, #20]
10001626:	4b0d      	ldr	r3, [pc, #52]	; (1000165c <sleep_until+0xf8>)
10001628:	6a5b      	ldr	r3, [r3, #36]	; 0x24
1000162a:	429a      	cmp	r2, r3
1000162c:	d8e3      	bhi.n	100015f6 <sleep_until+0x92>
1000162e:	480b      	ldr	r0, [pc, #44]	; (1000165c <sleep_until+0xf8>)
10001630:	6a80      	ldr	r0, [r0, #40]	; 0x28
10001632:	4288      	cmp	r0, r1
10001634:	d203      	bcs.n	1000163e <sleep_until+0xda>
10001636:	429a      	cmp	r2, r3
10001638:	d0db      	beq.n	100015f2 <sleep_until+0x8e>
1000163a:	2301      	movs	r3, #1
1000163c:	e7dc      	b.n	100015f8 <sleep_until+0x94>
1000163e:	2301      	movs	r3, #1
10001640:	e7da      	b.n	100015f8 <sleep_until+0x94>
10001642:	46c0      	nop			; (mov r8, r8)
10001644:	100072e0 	.word	0x100072e0
10001648:	10006fa0 	.word	0x10006fa0
1000164c:	10007348 	.word	0x10007348
10001650:	10006fbc 	.word	0x10006fbc
10001654:	10000c55 	.word	0x10000c55
10001658:	20001a1c 	.word	0x20001a1c
1000165c:	40054000 	.word	0x40054000

10001660 <sleep_us>:
10001660:	b570      	push	{r4, r5, r6, lr}
10001662:	0004      	movs	r4, r0
10001664:	000d      	movs	r5, r1
10001666:	f000 f8db 	bl	10001820 <time_us_64>
1000166a:	0002      	movs	r2, r0
1000166c:	1e0b      	subs	r3, r1, #0
1000166e:	db0a      	blt.n	10001686 <sleep_us+0x26>
10001670:	0020      	movs	r0, r4
10001672:	0029      	movs	r1, r5
10001674:	1880      	adds	r0, r0, r2
10001676:	4159      	adcs	r1, r3
10001678:	2900      	cmp	r1, #0
1000167a:	db0a      	blt.n	10001692 <sleep_us+0x32>
1000167c:	2900      	cmp	r1, #0
1000167e:	db0c      	blt.n	1000169a <sleep_us+0x3a>
10001680:	f7ff ff70 	bl	10001564 <sleep_until>
10001684:	bd70      	pop	{r4, r5, r6, pc}
10001686:	4b08      	ldr	r3, [pc, #32]	; (100016a8 <sleep_us+0x48>)
10001688:	4a08      	ldr	r2, [pc, #32]	; (100016ac <sleep_us+0x4c>)
1000168a:	213f      	movs	r1, #63	; 0x3f
1000168c:	4808      	ldr	r0, [pc, #32]	; (100016b0 <sleep_us+0x50>)
1000168e:	f000 fefb 	bl	10002488 <__assert_func>
10001692:	2001      	movs	r0, #1
10001694:	4240      	negs	r0, r0
10001696:	4907      	ldr	r1, [pc, #28]	; (100016b4 <sleep_us+0x54>)
10001698:	e7f0      	b.n	1000167c <sleep_us+0x1c>
1000169a:	4b03      	ldr	r3, [pc, #12]	; (100016a8 <sleep_us+0x48>)
1000169c:	4a03      	ldr	r2, [pc, #12]	; (100016ac <sleep_us+0x4c>)
1000169e:	213f      	movs	r1, #63	; 0x3f
100016a0:	4803      	ldr	r0, [pc, #12]	; (100016b0 <sleep_us+0x50>)
100016a2:	f000 fef1 	bl	10002488 <__assert_func>
100016a6:	46c0      	nop			; (mov r8, r8)
100016a8:	10006fa0 	.word	0x10006fa0
100016ac:	10007348 	.word	0x10007348
100016b0:	10006fbc 	.word	0x10006fbc
100016b4:	7fffffff 	.word	0x7fffffff

100016b8 <sleep_ms>:
100016b8:	b510      	push	{r4, lr}
100016ba:	22fa      	movs	r2, #250	; 0xfa
100016bc:	0092      	lsls	r2, r2, #2
100016be:	2300      	movs	r3, #0
100016c0:	2100      	movs	r1, #0
100016c2:	f002 fc25 	bl	10003f10 <__wrap___aeabi_lmul>
100016c6:	f7ff ffcb 	bl	10001660 <sleep_us>
100016ca:	bd10      	pop	{r4, pc}

100016cc <best_effort_wfe_or_timeout>:
100016cc:	b570      	push	{r4, r5, r6, lr}
100016ce:	b084      	sub	sp, #16
100016d0:	0005      	movs	r5, r0
100016d2:	000c      	movs	r4, r1
100016d4:	f3ef 8305 	mrs	r3, IPSR
100016d8:	2b00      	cmp	r3, #0
100016da:	d11e      	bne.n	1000171a <best_effort_wfe_or_timeout+0x4e>
100016dc:	f7ff fdfa 	bl	100012d4 <alarm_pool_get_default>
100016e0:	2300      	movs	r3, #0
100016e2:	9302      	str	r3, [sp, #8]
100016e4:	9301      	str	r3, [sp, #4]
100016e6:	4b22      	ldr	r3, [pc, #136]	; (10001770 <best_effort_wfe_or_timeout+0xa4>)
100016e8:	9300      	str	r3, [sp, #0]
100016ea:	002a      	movs	r2, r5
100016ec:	0023      	movs	r3, r4
100016ee:	f7ff fe07 	bl	10001300 <alarm_pool_add_alarm_at>
100016f2:	1e06      	subs	r6, r0, #0
100016f4:	dd23      	ble.n	1000173e <best_effort_wfe_or_timeout+0x72>
100016f6:	bf20      	wfe
100016f8:	f7ff fdec 	bl	100012d4 <alarm_pool_get_default>
100016fc:	0031      	movs	r1, r6
100016fe:	f7ff feb3 	bl	10001468 <alarm_pool_cancel_alarm>
10001702:	4b1c      	ldr	r3, [pc, #112]	; (10001774 <best_effort_wfe_or_timeout+0xa8>)
10001704:	6a5b      	ldr	r3, [r3, #36]	; 0x24
10001706:	429c      	cmp	r4, r3
10001708:	d82d      	bhi.n	10001766 <best_effort_wfe_or_timeout+0x9a>
1000170a:	4a1a      	ldr	r2, [pc, #104]	; (10001774 <best_effort_wfe_or_timeout+0xa8>)
1000170c:	6a92      	ldr	r2, [r2, #40]	; 0x28
1000170e:	42aa      	cmp	r2, r5
10001710:	d22c      	bcs.n	1000176c <best_effort_wfe_or_timeout+0xa0>
10001712:	429c      	cmp	r4, r3
10001714:	d025      	beq.n	10001762 <best_effort_wfe_or_timeout+0x96>
10001716:	2001      	movs	r0, #1
10001718:	e026      	b.n	10001768 <best_effort_wfe_or_timeout+0x9c>
1000171a:	4b16      	ldr	r3, [pc, #88]	; (10001774 <best_effort_wfe_or_timeout+0xa8>)
1000171c:	6a5b      	ldr	r3, [r3, #36]	; 0x24
1000171e:	4299      	cmp	r1, r3
10001720:	d809      	bhi.n	10001736 <best_effort_wfe_or_timeout+0x6a>
10001722:	4a14      	ldr	r2, [pc, #80]	; (10001774 <best_effort_wfe_or_timeout+0xa8>)
10001724:	6a92      	ldr	r2, [r2, #40]	; 0x28
10001726:	4282      	cmp	r2, r0
10001728:	d207      	bcs.n	1000173a <best_effort_wfe_or_timeout+0x6e>
1000172a:	4299      	cmp	r1, r3
1000172c:	d001      	beq.n	10001732 <best_effort_wfe_or_timeout+0x66>
1000172e:	2001      	movs	r0, #1
10001730:	e01a      	b.n	10001768 <best_effort_wfe_or_timeout+0x9c>
10001732:	2000      	movs	r0, #0
10001734:	e018      	b.n	10001768 <best_effort_wfe_or_timeout+0x9c>
10001736:	2000      	movs	r0, #0
10001738:	e016      	b.n	10001768 <best_effort_wfe_or_timeout+0x9c>
1000173a:	2001      	movs	r0, #1
1000173c:	e014      	b.n	10001768 <best_effort_wfe_or_timeout+0x9c>
1000173e:	4b0d      	ldr	r3, [pc, #52]	; (10001774 <best_effort_wfe_or_timeout+0xa8>)
10001740:	6a5b      	ldr	r3, [r3, #36]	; 0x24
10001742:	429c      	cmp	r4, r3
10001744:	d809      	bhi.n	1000175a <best_effort_wfe_or_timeout+0x8e>
10001746:	4a0b      	ldr	r2, [pc, #44]	; (10001774 <best_effort_wfe_or_timeout+0xa8>)
10001748:	6a92      	ldr	r2, [r2, #40]	; 0x28
1000174a:	42aa      	cmp	r2, r5
1000174c:	d207      	bcs.n	1000175e <best_effort_wfe_or_timeout+0x92>
1000174e:	429c      	cmp	r4, r3
10001750:	d001      	beq.n	10001756 <best_effort_wfe_or_timeout+0x8a>
10001752:	2001      	movs	r0, #1
10001754:	e008      	b.n	10001768 <best_effort_wfe_or_timeout+0x9c>
10001756:	2000      	movs	r0, #0
10001758:	e006      	b.n	10001768 <best_effort_wfe_or_timeout+0x9c>
1000175a:	2000      	movs	r0, #0
1000175c:	e004      	b.n	10001768 <best_effort_wfe_or_timeout+0x9c>
1000175e:	2001      	movs	r0, #1
10001760:	e002      	b.n	10001768 <best_effort_wfe_or_timeout+0x9c>
10001762:	2000      	movs	r0, #0
10001764:	e000      	b.n	10001768 <best_effort_wfe_or_timeout+0x9c>
10001766:	2000      	movs	r0, #0
10001768:	b004      	add	sp, #16
1000176a:	bd70      	pop	{r4, r5, r6, pc}
1000176c:	2001      	movs	r0, #1
1000176e:	e7fb      	b.n	10001768 <best_effort_wfe_or_timeout+0x9c>
10001770:	10000c55 	.word	0x10000c55
10001774:	40054000 	.word	0x40054000

10001778 <hardware_alarm_irq_handler>:
10001778:	b570      	push	{r4, r5, r6, lr}
1000177a:	f3ef 8005 	mrs	r0, IPSR
1000177e:	3810      	subs	r0, #16
10001780:	f3ef 8c10 	mrs	ip, PRIMASK
10001784:	b672      	cpsid	i
10001786:	4b1a      	ldr	r3, [pc, #104]	; (100017f0 <hardware_alarm_irq_handler+0x78>)
10001788:	681b      	ldr	r3, [r3, #0]
1000178a:	2b00      	cmp	r3, #0
1000178c:	d0fb      	beq.n	10001786 <hardware_alarm_irq_handler+0xe>
1000178e:	f3bf 8f5f 	dmb	sy
10001792:	2201      	movs	r2, #1
10001794:	0013      	movs	r3, r2
10001796:	4083      	lsls	r3, r0
10001798:	4916      	ldr	r1, [pc, #88]	; (100017f4 <hardware_alarm_irq_handler+0x7c>)
1000179a:	634b      	str	r3, [r1, #52]	; 0x34
1000179c:	4916      	ldr	r1, [pc, #88]	; (100017f8 <hardware_alarm_irq_handler+0x80>)
1000179e:	600b      	str	r3, [r1, #0]
100017a0:	4916      	ldr	r1, [pc, #88]	; (100017fc <hardware_alarm_irq_handler+0x84>)
100017a2:	7809      	ldrb	r1, [r1, #0]
100017a4:	000c      	movs	r4, r1
100017a6:	40c4      	lsrs	r4, r0
100017a8:	4222      	tst	r2, r4
100017aa:	d014      	beq.n	100017d6 <hardware_alarm_irq_handler+0x5e>
100017ac:	4a11      	ldr	r2, [pc, #68]	; (100017f4 <hardware_alarm_irq_handler+0x7c>)
100017ae:	6a54      	ldr	r4, [r2, #36]	; 0x24
100017b0:	0082      	lsls	r2, r0, #2
100017b2:	4d13      	ldr	r5, [pc, #76]	; (10001800 <hardware_alarm_irq_handler+0x88>)
100017b4:	5952      	ldr	r2, [r2, r5]
100017b6:	4294      	cmp	r4, r2
100017b8:	d306      	bcc.n	100017c8 <hardware_alarm_irq_handler+0x50>
100017ba:	0082      	lsls	r2, r0, #2
100017bc:	4c11      	ldr	r4, [pc, #68]	; (10001804 <hardware_alarm_irq_handler+0x8c>)
100017be:	5912      	ldr	r2, [r2, r4]
100017c0:	4399      	bics	r1, r3
100017c2:	4b0e      	ldr	r3, [pc, #56]	; (100017fc <hardware_alarm_irq_handler+0x84>)
100017c4:	7019      	strb	r1, [r3, #0]
100017c6:	e007      	b.n	100017d8 <hardware_alarm_irq_handler+0x60>
100017c8:	4a0a      	ldr	r2, [pc, #40]	; (100017f4 <hardware_alarm_irq_handler+0x7c>)
100017ca:	1d03      	adds	r3, r0, #4
100017cc:	009b      	lsls	r3, r3, #2
100017ce:	5899      	ldr	r1, [r3, r2]
100017d0:	5099      	str	r1, [r3, r2]
100017d2:	2200      	movs	r2, #0
100017d4:	e000      	b.n	100017d8 <hardware_alarm_irq_handler+0x60>
100017d6:	2200      	movs	r2, #0
100017d8:	f3bf 8f5f 	dmb	sy
100017dc:	4b04      	ldr	r3, [pc, #16]	; (100017f0 <hardware_alarm_irq_handler+0x78>)
100017de:	2100      	movs	r1, #0
100017e0:	6019      	str	r1, [r3, #0]
100017e2:	f38c 8810 	msr	PRIMASK, ip
100017e6:	2a00      	cmp	r2, #0
100017e8:	d000      	beq.n	100017ec <hardware_alarm_irq_handler+0x74>
100017ea:	4790      	blx	r2
100017ec:	bd70      	pop	{r4, r5, r6, pc}
100017ee:	46c0      	nop			; (mov r8, r8)
100017f0:	d0000128 	.word	0xd0000128
100017f4:	40054000 	.word	0x40054000
100017f8:	4005703c 	.word	0x4005703c
100017fc:	20001a59 	.word	0x20001a59
10001800:	20001a28 	.word	0x20001a28
10001804:	20001230 	.word	0x20001230

10001808 <hardware_alarm_claim>:
10001808:	b510      	push	{r4, lr}
1000180a:	0001      	movs	r1, r0
1000180c:	4a02      	ldr	r2, [pc, #8]	; (10001818 <hardware_alarm_claim+0x10>)
1000180e:	4803      	ldr	r0, [pc, #12]	; (1000181c <hardware_alarm_claim+0x14>)
10001810:	f7fe fe06 	bl	10000420 <hw_claim_or_assert>
10001814:	bd10      	pop	{r4, pc}
10001816:	46c0      	nop			; (mov r8, r8)
10001818:	1000740c 	.word	0x1000740c
1000181c:	20001a54 	.word	0x20001a54

10001820 <time_us_64>:
10001820:	4b04      	ldr	r3, [pc, #16]	; (10001834 <time_us_64+0x14>)
10001822:	6a5b      	ldr	r3, [r3, #36]	; 0x24
10001824:	4a03      	ldr	r2, [pc, #12]	; (10001834 <time_us_64+0x14>)
10001826:	6a90      	ldr	r0, [r2, #40]	; 0x28
10001828:	0019      	movs	r1, r3
1000182a:	6a53      	ldr	r3, [r2, #36]	; 0x24
1000182c:	4299      	cmp	r1, r3
1000182e:	d1f9      	bne.n	10001824 <time_us_64+0x4>
10001830:	4770      	bx	lr
10001832:	46c0      	nop			; (mov r8, r8)
10001834:	40054000 	.word	0x40054000

10001838 <busy_wait_until>:
10001838:	4b08      	ldr	r3, [pc, #32]	; (1000185c <busy_wait_until+0x24>)
1000183a:	6a5b      	ldr	r3, [r3, #36]	; 0x24
1000183c:	e001      	b.n	10001842 <busy_wait_until+0xa>
1000183e:	4b07      	ldr	r3, [pc, #28]	; (1000185c <busy_wait_until+0x24>)
10001840:	6a5b      	ldr	r3, [r3, #36]	; 0x24
10001842:	428b      	cmp	r3, r1
10001844:	d3fb      	bcc.n	1000183e <busy_wait_until+0x6>
10001846:	e001      	b.n	1000184c <busy_wait_until+0x14>
10001848:	4b04      	ldr	r3, [pc, #16]	; (1000185c <busy_wait_until+0x24>)
1000184a:	6a5b      	ldr	r3, [r3, #36]	; 0x24
1000184c:	428b      	cmp	r3, r1
1000184e:	d103      	bne.n	10001858 <busy_wait_until+0x20>
10001850:	4b02      	ldr	r3, [pc, #8]	; (1000185c <busy_wait_until+0x24>)
10001852:	6a9b      	ldr	r3, [r3, #40]	; 0x28
10001854:	4283      	cmp	r3, r0
10001856:	d3f7      	bcc.n	10001848 <busy_wait_until+0x10>
10001858:	4770      	bx	lr
1000185a:	46c0      	nop			; (mov r8, r8)
1000185c:	40054000 	.word	0x40054000

10001860 <busy_wait_us>:
10001860:	b570      	push	{r4, r5, r6, lr}
10001862:	0004      	movs	r4, r0
10001864:	000d      	movs	r5, r1
10001866:	f7ff ffdb 	bl	10001820 <time_us_64>
1000186a:	0002      	movs	r2, r0
1000186c:	000b      	movs	r3, r1
1000186e:	0020      	movs	r0, r4
10001870:	0029      	movs	r1, r5
10001872:	1880      	adds	r0, r0, r2
10001874:	4159      	adcs	r1, r3
10001876:	428b      	cmp	r3, r1
10001878:	d802      	bhi.n	10001880 <busy_wait_us+0x20>
1000187a:	d104      	bne.n	10001886 <busy_wait_us+0x26>
1000187c:	4282      	cmp	r2, r0
1000187e:	d902      	bls.n	10001886 <busy_wait_us+0x26>
10001880:	2001      	movs	r0, #1
10001882:	4240      	negs	r0, r0
10001884:	17c1      	asrs	r1, r0, #31
10001886:	2900      	cmp	r1, #0
10001888:	db02      	blt.n	10001890 <busy_wait_us+0x30>
1000188a:	f7ff ffd5 	bl	10001838 <busy_wait_until>
1000188e:	bd70      	pop	{r4, r5, r6, pc}
10001890:	4b02      	ldr	r3, [pc, #8]	; (1000189c <busy_wait_us+0x3c>)
10001892:	4a03      	ldr	r2, [pc, #12]	; (100018a0 <busy_wait_us+0x40>)
10001894:	213f      	movs	r1, #63	; 0x3f
10001896:	4803      	ldr	r0, [pc, #12]	; (100018a4 <busy_wait_us+0x44>)
10001898:	f000 fdf6 	bl	10002488 <__assert_func>
1000189c:	10006fa0 	.word	0x10006fa0
100018a0:	100074d0 	.word	0x100074d0
100018a4:	10006fbc 	.word	0x10006fbc

100018a8 <hardware_alarm_set_callback>:
100018a8:	b570      	push	{r4, r5, r6, lr}
100018aa:	0004      	movs	r4, r0
100018ac:	000d      	movs	r5, r1
100018ae:	f3ef 8610 	mrs	r6, PRIMASK
100018b2:	b672      	cpsid	i
100018b4:	4b1b      	ldr	r3, [pc, #108]	; (10001924 <hardware_alarm_set_callback+0x7c>)
100018b6:	681b      	ldr	r3, [r3, #0]
100018b8:	2b00      	cmp	r3, #0
100018ba:	d0fb      	beq.n	100018b4 <hardware_alarm_set_callback+0xc>
100018bc:	f3bf 8f5f 	dmb	sy
100018c0:	2d00      	cmp	r5, #0
100018c2:	d01c      	beq.n	100018fe <hardware_alarm_set_callback+0x56>
100018c4:	0020      	movs	r0, r4
100018c6:	f7fe fe9f 	bl	10000608 <irq_get_vtable_handler>
100018ca:	4b17      	ldr	r3, [pc, #92]	; (10001928 <hardware_alarm_set_callback+0x80>)
100018cc:	4283      	cmp	r3, r0
100018ce:	d00b      	beq.n	100018e8 <hardware_alarm_set_callback+0x40>
100018d0:	0019      	movs	r1, r3
100018d2:	0020      	movs	r0, r4
100018d4:	f7fe feb2 	bl	1000063c <irq_set_exclusive_handler>
100018d8:	2101      	movs	r1, #1
100018da:	0020      	movs	r0, r4
100018dc:	f7fe fe84 	bl	100005e8 <irq_set_enabled>
100018e0:	2301      	movs	r3, #1
100018e2:	40a3      	lsls	r3, r4
100018e4:	4a11      	ldr	r2, [pc, #68]	; (1000192c <hardware_alarm_set_callback+0x84>)
100018e6:	6013      	str	r3, [r2, #0]
100018e8:	00a4      	lsls	r4, r4, #2
100018ea:	4b11      	ldr	r3, [pc, #68]	; (10001930 <hardware_alarm_set_callback+0x88>)
100018ec:	50e5      	str	r5, [r4, r3]
100018ee:	f3bf 8f5f 	dmb	sy
100018f2:	4b0c      	ldr	r3, [pc, #48]	; (10001924 <hardware_alarm_set_callback+0x7c>)
100018f4:	2200      	movs	r2, #0
100018f6:	601a      	str	r2, [r3, #0]
100018f8:	f386 8810 	msr	PRIMASK, r6
100018fc:	bd70      	pop	{r4, r5, r6, pc}
100018fe:	00a2      	lsls	r2, r4, #2
10001900:	4b0b      	ldr	r3, [pc, #44]	; (10001930 <hardware_alarm_set_callback+0x88>)
10001902:	2100      	movs	r1, #0
10001904:	50d1      	str	r1, [r2, r3]
10001906:	2201      	movs	r2, #1
10001908:	40a2      	lsls	r2, r4
1000190a:	490a      	ldr	r1, [pc, #40]	; (10001934 <hardware_alarm_set_callback+0x8c>)
1000190c:	780b      	ldrb	r3, [r1, #0]
1000190e:	4393      	bics	r3, r2
10001910:	700b      	strb	r3, [r1, #0]
10001912:	4905      	ldr	r1, [pc, #20]	; (10001928 <hardware_alarm_set_callback+0x80>)
10001914:	0020      	movs	r0, r4
10001916:	f7fe ffd5 	bl	100008c4 <irq_remove_handler>
1000191a:	2100      	movs	r1, #0
1000191c:	0020      	movs	r0, r4
1000191e:	f7fe fe63 	bl	100005e8 <irq_set_enabled>
10001922:	e7e4      	b.n	100018ee <hardware_alarm_set_callback+0x46>
10001924:	d0000128 	.word	0xd0000128
10001928:	10001779 	.word	0x10001779
1000192c:	40056038 	.word	0x40056038
10001930:	20001230 	.word	0x20001230
10001934:	20001a59 	.word	0x20001a59

10001938 <hardware_alarm_set_target>:
10001938:	b5f0      	push	{r4, r5, r6, r7, lr}
1000193a:	46de      	mov	lr, fp
1000193c:	b500      	push	{lr}
1000193e:	b084      	sub	sp, #16
10001940:	0004      	movs	r4, r0
10001942:	0015      	movs	r5, r2
10001944:	9201      	str	r2, [sp, #4]
10001946:	001e      	movs	r6, r3
10001948:	9302      	str	r3, [sp, #8]
1000194a:	f7ff ff69 	bl	10001820 <time_us_64>
1000194e:	9503      	str	r5, [sp, #12]
10001950:	428e      	cmp	r6, r1
10001952:	d802      	bhi.n	1000195a <hardware_alarm_set_target+0x22>
10001954:	d14e      	bne.n	100019f4 <hardware_alarm_set_target+0xbc>
10001956:	4285      	cmp	r5, r0
10001958:	d94c      	bls.n	100019f4 <hardware_alarm_set_target+0xbc>
1000195a:	f3ef 8b10 	mrs	fp, PRIMASK
1000195e:	b672      	cpsid	i
10001960:	4b27      	ldr	r3, [pc, #156]	; (10001a00 <hardware_alarm_set_target+0xc8>)
10001962:	681b      	ldr	r3, [r3, #0]
10001964:	2b00      	cmp	r3, #0
10001966:	d0fb      	beq.n	10001960 <hardware_alarm_set_target+0x28>
10001968:	f3bf 8f5f 	dmb	sy
1000196c:	4a25      	ldr	r2, [pc, #148]	; (10001a04 <hardware_alarm_set_target+0xcc>)
1000196e:	7817      	ldrb	r7, [r2, #0]
10001970:	2501      	movs	r5, #1
10001972:	40a5      	lsls	r5, r4
10001974:	b2eb      	uxtb	r3, r5
10001976:	433b      	orrs	r3, r7
10001978:	7013      	strb	r3, [r2, #0]
1000197a:	4b23      	ldr	r3, [pc, #140]	; (10001a08 <hardware_alarm_set_target+0xd0>)
1000197c:	635d      	str	r5, [r3, #52]	; 0x34
1000197e:	1d22      	adds	r2, r4, #4
10001980:	0092      	lsls	r2, r2, #2
10001982:	9901      	ldr	r1, [sp, #4]
10001984:	50d1      	str	r1, [r2, r3]
10001986:	00a2      	lsls	r2, r4, #2
10001988:	4920      	ldr	r1, [pc, #128]	; (10001a0c <hardware_alarm_set_target+0xd4>)
1000198a:	9802      	ldr	r0, [sp, #8]
1000198c:	5050      	str	r0, [r2, r1]
1000198e:	6a1b      	ldr	r3, [r3, #32]
10001990:	422b      	tst	r3, r5
10001992:	d112      	bne.n	100019ba <hardware_alarm_set_target+0x82>
10001994:	4b1c      	ldr	r3, [pc, #112]	; (10001a08 <hardware_alarm_set_target+0xd0>)
10001996:	6c1b      	ldr	r3, [r3, #64]	; 0x40
10001998:	422b      	tst	r3, r5
1000199a:	d008      	beq.n	100019ae <hardware_alarm_set_target+0x76>
1000199c:	2000      	movs	r0, #0
1000199e:	f3bf 8f5f 	dmb	sy
100019a2:	4b17      	ldr	r3, [pc, #92]	; (10001a00 <hardware_alarm_set_target+0xc8>)
100019a4:	2200      	movs	r2, #0
100019a6:	601a      	str	r2, [r3, #0]
100019a8:	f38b 8810 	msr	PRIMASK, fp
100019ac:	e023      	b.n	100019f6 <hardware_alarm_set_target+0xbe>
100019ae:	4b18      	ldr	r3, [pc, #96]	; (10001a10 <hardware_alarm_set_target+0xd8>)
100019b0:	4a18      	ldr	r2, [pc, #96]	; (10001a14 <hardware_alarm_set_target+0xdc>)
100019b2:	21c5      	movs	r1, #197	; 0xc5
100019b4:	4818      	ldr	r0, [pc, #96]	; (10001a18 <hardware_alarm_set_target+0xe0>)
100019b6:	f000 fd67 	bl	10002488 <__assert_func>
100019ba:	f7ff ff31 	bl	10001820 <time_us_64>
100019be:	428e      	cmp	r6, r1
100019c0:	d814      	bhi.n	100019ec <hardware_alarm_set_target+0xb4>
100019c2:	d102      	bne.n	100019ca <hardware_alarm_set_target+0x92>
100019c4:	9b03      	ldr	r3, [sp, #12]
100019c6:	4283      	cmp	r3, r0
100019c8:	d810      	bhi.n	100019ec <hardware_alarm_set_target+0xb4>
100019ca:	4b0e      	ldr	r3, [pc, #56]	; (10001a04 <hardware_alarm_set_target+0xcc>)
100019cc:	781b      	ldrb	r3, [r3, #0]
100019ce:	42bb      	cmp	r3, r7
100019d0:	d00e      	beq.n	100019f0 <hardware_alarm_set_target+0xb8>
100019d2:	4b0d      	ldr	r3, [pc, #52]	; (10001a08 <hardware_alarm_set_target+0xd0>)
100019d4:	621d      	str	r5, [r3, #32]
100019d6:	635d      	str	r5, [r3, #52]	; 0x34
100019d8:	201f      	movs	r0, #31
100019da:	4004      	ands	r4, r0
100019dc:	2301      	movs	r3, #1
100019de:	40a3      	lsls	r3, r4
100019e0:	4a0e      	ldr	r2, [pc, #56]	; (10001a1c <hardware_alarm_set_target+0xe4>)
100019e2:	6013      	str	r3, [r2, #0]
100019e4:	4b07      	ldr	r3, [pc, #28]	; (10001a04 <hardware_alarm_set_target+0xcc>)
100019e6:	701f      	strb	r7, [r3, #0]
100019e8:	381e      	subs	r0, #30
100019ea:	e7d8      	b.n	1000199e <hardware_alarm_set_target+0x66>
100019ec:	2000      	movs	r0, #0
100019ee:	e7d6      	b.n	1000199e <hardware_alarm_set_target+0x66>
100019f0:	2001      	movs	r0, #1
100019f2:	e7d4      	b.n	1000199e <hardware_alarm_set_target+0x66>
100019f4:	2001      	movs	r0, #1
100019f6:	b004      	add	sp, #16
100019f8:	bc80      	pop	{r7}
100019fa:	46bb      	mov	fp, r7
100019fc:	bdf0      	pop	{r4, r5, r6, r7, pc}
100019fe:	46c0      	nop			; (mov r8, r8)
10001a00:	d0000128 	.word	0xd0000128
10001a04:	20001a59 	.word	0x20001a59
10001a08:	40054000 	.word	0x40054000
10001a0c:	20001a28 	.word	0x20001a28
10001a10:	10007430 	.word	0x10007430
10001a14:	100074b4 	.word	0x100074b4
10001a18:	10007454 	.word	0x10007454
10001a1c:	e000e280 	.word	0xe000e280

10001a20 <hardware_alarm_cancel>:
10001a20:	f3ef 8c10 	mrs	ip, PRIMASK
10001a24:	b672      	cpsid	i
10001a26:	4b0b      	ldr	r3, [pc, #44]	; (10001a54 <hardware_alarm_cancel+0x34>)
10001a28:	681b      	ldr	r3, [r3, #0]
10001a2a:	2b00      	cmp	r3, #0
10001a2c:	d0fb      	beq.n	10001a26 <hardware_alarm_cancel+0x6>
10001a2e:	f3bf 8f5f 	dmb	sy
10001a32:	2301      	movs	r3, #1
10001a34:	4083      	lsls	r3, r0
10001a36:	4a08      	ldr	r2, [pc, #32]	; (10001a58 <hardware_alarm_cancel+0x38>)
10001a38:	6213      	str	r3, [r2, #32]
10001a3a:	4908      	ldr	r1, [pc, #32]	; (10001a5c <hardware_alarm_cancel+0x3c>)
10001a3c:	780a      	ldrb	r2, [r1, #0]
10001a3e:	439a      	bics	r2, r3
10001a40:	700a      	strb	r2, [r1, #0]
10001a42:	f3bf 8f5f 	dmb	sy
10001a46:	4b03      	ldr	r3, [pc, #12]	; (10001a54 <hardware_alarm_cancel+0x34>)
10001a48:	2200      	movs	r2, #0
10001a4a:	601a      	str	r2, [r3, #0]
10001a4c:	f38c 8810 	msr	PRIMASK, ip
10001a50:	4770      	bx	lr
10001a52:	46c0      	nop			; (mov r8, r8)
10001a54:	d0000128 	.word	0xd0000128
10001a58:	40054000 	.word	0x40054000
10001a5c:	20001a59 	.word	0x20001a59

10001a60 <ph_add_child_node>:
10001a60:	b510      	push	{r4, lr}
10001a62:	2900      	cmp	r1, #0
10001a64:	d01e      	beq.n	10001aa4 <ph_add_child_node+0x44>
10001a66:	7b03      	ldrb	r3, [r0, #12]
10001a68:	4299      	cmp	r1, r3
10001a6a:	d81b      	bhi.n	10001aa4 <ph_add_child_node+0x44>
10001a6c:	004b      	lsls	r3, r1, #1
10001a6e:	185b      	adds	r3, r3, r1
10001a70:	3b03      	subs	r3, #3
10001a72:	6804      	ldr	r4, [r0, #0]
10001a74:	46a4      	mov	ip, r4
10001a76:	4463      	add	r3, ip
10001a78:	2900      	cmp	r1, #0
10001a7a:	d019      	beq.n	10001ab0 <ph_add_child_node+0x50>
10001a7c:	2a00      	cmp	r2, #0
10001a7e:	d01d      	beq.n	10001abc <ph_add_child_node+0x5c>
10001a80:	4291      	cmp	r1, r2
10001a82:	d021      	beq.n	10001ac8 <ph_add_child_node+0x68>
10001a84:	2a00      	cmp	r2, #0
10001a86:	d025      	beq.n	10001ad4 <ph_add_child_node+0x74>
10001a88:	7b04      	ldrb	r4, [r0, #12]
10001a8a:	42a2      	cmp	r2, r4
10001a8c:	d822      	bhi.n	10001ad4 <ph_add_child_node+0x74>
10001a8e:	6804      	ldr	r4, [r0, #0]
10001a90:	0050      	lsls	r0, r2, #1
10001a92:	1880      	adds	r0, r0, r2
10001a94:	3803      	subs	r0, #3
10001a96:	1820      	adds	r0, r4, r0
10001a98:	7081      	strb	r1, [r0, #2]
10001a9a:	7819      	ldrb	r1, [r3, #0]
10001a9c:	2900      	cmp	r1, #0
10001a9e:	d11f      	bne.n	10001ae0 <ph_add_child_node+0x80>
10001aa0:	701a      	strb	r2, [r3, #0]
10001aa2:	bd10      	pop	{r4, pc}
10001aa4:	4b10      	ldr	r3, [pc, #64]	; (10001ae8 <ph_add_child_node+0x88>)
10001aa6:	4a11      	ldr	r2, [pc, #68]	; (10001aec <ph_add_child_node+0x8c>)
10001aa8:	2168      	movs	r1, #104	; 0x68
10001aaa:	4811      	ldr	r0, [pc, #68]	; (10001af0 <ph_add_child_node+0x90>)
10001aac:	f000 fcec 	bl	10002488 <__assert_func>
10001ab0:	4b10      	ldr	r3, [pc, #64]	; (10001af4 <ph_add_child_node+0x94>)
10001ab2:	4a11      	ldr	r2, [pc, #68]	; (10001af8 <ph_add_child_node+0x98>)
10001ab4:	316f      	adds	r1, #111	; 0x6f
10001ab6:	480e      	ldr	r0, [pc, #56]	; (10001af0 <ph_add_child_node+0x90>)
10001ab8:	f000 fce6 	bl	10002488 <__assert_func>
10001abc:	4b0f      	ldr	r3, [pc, #60]	; (10001afc <ph_add_child_node+0x9c>)
10001abe:	4a0e      	ldr	r2, [pc, #56]	; (10001af8 <ph_add_child_node+0x98>)
10001ac0:	2170      	movs	r1, #112	; 0x70
10001ac2:	480b      	ldr	r0, [pc, #44]	; (10001af0 <ph_add_child_node+0x90>)
10001ac4:	f000 fce0 	bl	10002488 <__assert_func>
10001ac8:	4b0d      	ldr	r3, [pc, #52]	; (10001b00 <ph_add_child_node+0xa0>)
10001aca:	4a0b      	ldr	r2, [pc, #44]	; (10001af8 <ph_add_child_node+0x98>)
10001acc:	2171      	movs	r1, #113	; 0x71
10001ace:	4808      	ldr	r0, [pc, #32]	; (10001af0 <ph_add_child_node+0x90>)
10001ad0:	f000 fcda 	bl	10002488 <__assert_func>
10001ad4:	4b04      	ldr	r3, [pc, #16]	; (10001ae8 <ph_add_child_node+0x88>)
10001ad6:	4a05      	ldr	r2, [pc, #20]	; (10001aec <ph_add_child_node+0x8c>)
10001ad8:	2168      	movs	r1, #104	; 0x68
10001ada:	4805      	ldr	r0, [pc, #20]	; (10001af0 <ph_add_child_node+0x90>)
10001adc:	f000 fcd4 	bl	10002488 <__assert_func>
10001ae0:	7041      	strb	r1, [r0, #1]
10001ae2:	701a      	strb	r2, [r3, #0]
10001ae4:	e7dd      	b.n	10001aa2 <ph_add_child_node+0x42>
10001ae6:	46c0      	nop			; (mov r8, r8)
10001ae8:	10007120 	.word	0x10007120
10001aec:	100075f0 	.word	0x100075f0
10001af0:	1000713c 	.word	0x1000713c
10001af4:	100071a4 	.word	0x100071a4
10001af8:	100075dc 	.word	0x100075dc
10001afc:	100071b0 	.word	0x100071b0
10001b00:	100071bc 	.word	0x100071bc

10001b04 <ph_merge_nodes>:
10001b04:	b570      	push	{r4, r5, r6, lr}
10001b06:	0006      	movs	r6, r0
10001b08:	000d      	movs	r5, r1
10001b0a:	0014      	movs	r4, r2
10001b0c:	2900      	cmp	r1, #0
10001b0e:	d014      	beq.n	10001b3a <ph_merge_nodes+0x36>
10001b10:	2a00      	cmp	r2, #0
10001b12:	d014      	beq.n	10001b3e <ph_merge_nodes+0x3a>
10001b14:	6880      	ldr	r0, [r0, #8]
10001b16:	6873      	ldr	r3, [r6, #4]
10001b18:	4798      	blx	r3
10001b1a:	2800      	cmp	r0, #0
10001b1c:	d006      	beq.n	10001b2c <ph_merge_nodes+0x28>
10001b1e:	0022      	movs	r2, r4
10001b20:	0029      	movs	r1, r5
10001b22:	0030      	movs	r0, r6
10001b24:	f7ff ff9c 	bl	10001a60 <ph_add_child_node>
10001b28:	0028      	movs	r0, r5
10001b2a:	e007      	b.n	10001b3c <ph_merge_nodes+0x38>
10001b2c:	002a      	movs	r2, r5
10001b2e:	0021      	movs	r1, r4
10001b30:	0030      	movs	r0, r6
10001b32:	f7ff ff95 	bl	10001a60 <ph_add_child_node>
10001b36:	0020      	movs	r0, r4
10001b38:	e000      	b.n	10001b3c <ph_merge_nodes+0x38>
10001b3a:	0010      	movs	r0, r2
10001b3c:	bd70      	pop	{r4, r5, r6, pc}
10001b3e:	0008      	movs	r0, r1
10001b40:	e7fc      	b.n	10001b3c <ph_merge_nodes+0x38>
	...

10001b44 <ph_clear>:
10001b44:	b510      	push	{r4, lr}
10001b46:	2300      	movs	r3, #0
10001b48:	7343      	strb	r3, [r0, #13]
10001b4a:	3301      	adds	r3, #1
10001b4c:	7383      	strb	r3, [r0, #14]
10001b4e:	7b03      	ldrb	r3, [r0, #12]
10001b50:	73c3      	strb	r3, [r0, #15]
10001b52:	2301      	movs	r3, #1
10001b54:	7b02      	ldrb	r2, [r0, #12]
10001b56:	429a      	cmp	r2, r3
10001b58:	d914      	bls.n	10001b84 <ph_clear+0x40>
10001b5a:	2b00      	cmp	r3, #0
10001b5c:	d00c      	beq.n	10001b78 <ph_clear+0x34>
10001b5e:	7b02      	ldrb	r2, [r0, #12]
10001b60:	4293      	cmp	r3, r2
10001b62:	d809      	bhi.n	10001b78 <ph_clear+0x34>
10001b64:	005a      	lsls	r2, r3, #1
10001b66:	18d2      	adds	r2, r2, r3
10001b68:	3a03      	subs	r2, #3
10001b6a:	6801      	ldr	r1, [r0, #0]
10001b6c:	468c      	mov	ip, r1
10001b6e:	4462      	add	r2, ip
10001b70:	3301      	adds	r3, #1
10001b72:	b2db      	uxtb	r3, r3
10001b74:	7053      	strb	r3, [r2, #1]
10001b76:	e7ed      	b.n	10001b54 <ph_clear+0x10>
10001b78:	4b0b      	ldr	r3, [pc, #44]	; (10001ba8 <ph_clear+0x64>)
10001b7a:	4a0c      	ldr	r2, [pc, #48]	; (10001bac <ph_clear+0x68>)
10001b7c:	2168      	movs	r1, #104	; 0x68
10001b7e:	480c      	ldr	r0, [pc, #48]	; (10001bb0 <ph_clear+0x6c>)
10001b80:	f000 fc82 	bl	10002488 <__assert_func>
10001b84:	2a00      	cmp	r2, #0
10001b86:	d009      	beq.n	10001b9c <ph_clear+0x58>
10001b88:	4292      	cmp	r2, r2
10001b8a:	d807      	bhi.n	10001b9c <ph_clear+0x58>
10001b8c:	6801      	ldr	r1, [r0, #0]
10001b8e:	0053      	lsls	r3, r2, #1
10001b90:	189a      	adds	r2, r3, r2
10001b92:	3a03      	subs	r2, #3
10001b94:	188a      	adds	r2, r1, r2
10001b96:	2300      	movs	r3, #0
10001b98:	7053      	strb	r3, [r2, #1]
10001b9a:	bd10      	pop	{r4, pc}
10001b9c:	4b02      	ldr	r3, [pc, #8]	; (10001ba8 <ph_clear+0x64>)
10001b9e:	4a03      	ldr	r2, [pc, #12]	; (10001bac <ph_clear+0x68>)
10001ba0:	2168      	movs	r1, #104	; 0x68
10001ba2:	4803      	ldr	r0, [pc, #12]	; (10001bb0 <ph_clear+0x6c>)
10001ba4:	f000 fc70 	bl	10002488 <__assert_func>
10001ba8:	10007120 	.word	0x10007120
10001bac:	100075f0 	.word	0x100075f0
10001bb0:	1000713c 	.word	0x1000713c

10001bb4 <ph_post_alloc_init>:
10001bb4:	b510      	push	{r4, lr}
10001bb6:	7301      	strb	r1, [r0, #12]
10001bb8:	6042      	str	r2, [r0, #4]
10001bba:	6083      	str	r3, [r0, #8]
10001bbc:	f7ff ffc2 	bl	10001b44 <ph_clear>
10001bc0:	bd10      	pop	{r4, pc}
	...

10001bc4 <ph_merge_two_pass>:
10001bc4:	b570      	push	{r4, r5, r6, lr}
10001bc6:	0004      	movs	r4, r0
10001bc8:	1e08      	subs	r0, r1, #0
10001bca:	d100      	bne.n	10001bce <ph_merge_two_pass+0xa>
10001bcc:	bd70      	pop	{r4, r5, r6, pc}
10001bce:	2900      	cmp	r1, #0
10001bd0:	d034      	beq.n	10001c3c <ph_merge_two_pass+0x78>
10001bd2:	7b23      	ldrb	r3, [r4, #12]
10001bd4:	4299      	cmp	r1, r3
10001bd6:	d831      	bhi.n	10001c3c <ph_merge_two_pass+0x78>
10001bd8:	004b      	lsls	r3, r1, #1
10001bda:	185b      	adds	r3, r3, r1
10001bdc:	3b03      	subs	r3, #3
10001bde:	6822      	ldr	r2, [r4, #0]
10001be0:	4694      	mov	ip, r2
10001be2:	4463      	add	r3, ip
10001be4:	785a      	ldrb	r2, [r3, #1]
10001be6:	2a00      	cmp	r2, #0
10001be8:	d0f0      	beq.n	10001bcc <ph_merge_two_pass+0x8>
10001bea:	d02d      	beq.n	10001c48 <ph_merge_two_pass+0x84>
10001bec:	7b23      	ldrb	r3, [r4, #12]
10001bee:	429a      	cmp	r2, r3
10001bf0:	d82a      	bhi.n	10001c48 <ph_merge_two_pass+0x84>
10001bf2:	0053      	lsls	r3, r2, #1
10001bf4:	189b      	adds	r3, r3, r2
10001bf6:	3b03      	subs	r3, #3
10001bf8:	6821      	ldr	r1, [r4, #0]
10001bfa:	468c      	mov	ip, r1
10001bfc:	4463      	add	r3, ip
10001bfe:	785d      	ldrb	r5, [r3, #1]
10001c00:	2100      	movs	r1, #0
10001c02:	7059      	strb	r1, [r3, #1]
10001c04:	2800      	cmp	r0, #0
10001c06:	d025      	beq.n	10001c54 <ph_merge_two_pass+0x90>
10001c08:	7b23      	ldrb	r3, [r4, #12]
10001c0a:	4298      	cmp	r0, r3
10001c0c:	d822      	bhi.n	10001c54 <ph_merge_two_pass+0x90>
10001c0e:	0043      	lsls	r3, r0, #1
10001c10:	181b      	adds	r3, r3, r0
10001c12:	3b03      	subs	r3, #3
10001c14:	6821      	ldr	r1, [r4, #0]
10001c16:	468c      	mov	ip, r1
10001c18:	4463      	add	r3, ip
10001c1a:	2100      	movs	r1, #0
10001c1c:	7059      	strb	r1, [r3, #1]
10001c1e:	0001      	movs	r1, r0
10001c20:	0020      	movs	r0, r4
10001c22:	f7ff ff6f 	bl	10001b04 <ph_merge_nodes>
10001c26:	0006      	movs	r6, r0
10001c28:	0029      	movs	r1, r5
10001c2a:	0020      	movs	r0, r4
10001c2c:	f7ff ffca 	bl	10001bc4 <ph_merge_two_pass>
10001c30:	0002      	movs	r2, r0
10001c32:	0031      	movs	r1, r6
10001c34:	0020      	movs	r0, r4
10001c36:	f7ff ff65 	bl	10001b04 <ph_merge_nodes>
10001c3a:	e7c7      	b.n	10001bcc <ph_merge_two_pass+0x8>
10001c3c:	4b08      	ldr	r3, [pc, #32]	; (10001c60 <ph_merge_two_pass+0x9c>)
10001c3e:	4a09      	ldr	r2, [pc, #36]	; (10001c64 <ph_merge_two_pass+0xa0>)
10001c40:	2168      	movs	r1, #104	; 0x68
10001c42:	4809      	ldr	r0, [pc, #36]	; (10001c68 <ph_merge_two_pass+0xa4>)
10001c44:	f000 fc20 	bl	10002488 <__assert_func>
10001c48:	4b05      	ldr	r3, [pc, #20]	; (10001c60 <ph_merge_two_pass+0x9c>)
10001c4a:	4a06      	ldr	r2, [pc, #24]	; (10001c64 <ph_merge_two_pass+0xa0>)
10001c4c:	2168      	movs	r1, #104	; 0x68
10001c4e:	4806      	ldr	r0, [pc, #24]	; (10001c68 <ph_merge_two_pass+0xa4>)
10001c50:	f000 fc1a 	bl	10002488 <__assert_func>
10001c54:	4b02      	ldr	r3, [pc, #8]	; (10001c60 <ph_merge_two_pass+0x9c>)
10001c56:	4a03      	ldr	r2, [pc, #12]	; (10001c64 <ph_merge_two_pass+0xa0>)
10001c58:	2168      	movs	r1, #104	; 0x68
10001c5a:	4803      	ldr	r0, [pc, #12]	; (10001c68 <ph_merge_two_pass+0xa4>)
10001c5c:	f000 fc14 	bl	10002488 <__assert_func>
10001c60:	10007120 	.word	0x10007120
10001c64:	100075f0 	.word	0x100075f0
10001c68:	1000713c 	.word	0x1000713c

10001c6c <ph_remove_any_head>:
10001c6c:	b570      	push	{r4, r5, r6, lr}
10001c6e:	0005      	movs	r5, r0
10001c70:	000c      	movs	r4, r1
10001c72:	0016      	movs	r6, r2
10001c74:	2900      	cmp	r1, #0
10001c76:	d02f      	beq.n	10001cd8 <ph_remove_any_head+0x6c>
10001c78:	d034      	beq.n	10001ce4 <ph_remove_any_head+0x78>
10001c7a:	7b03      	ldrb	r3, [r0, #12]
10001c7c:	4299      	cmp	r1, r3
10001c7e:	d831      	bhi.n	10001ce4 <ph_remove_any_head+0x78>
10001c80:	004b      	lsls	r3, r1, #1
10001c82:	185b      	adds	r3, r3, r1
10001c84:	3b03      	subs	r3, #3
10001c86:	6802      	ldr	r2, [r0, #0]
10001c88:	4694      	mov	ip, r2
10001c8a:	4463      	add	r3, ip
10001c8c:	785a      	ldrb	r2, [r3, #1]
10001c8e:	2a00      	cmp	r2, #0
10001c90:	d12e      	bne.n	10001cf0 <ph_remove_any_head+0x84>
10001c92:	789a      	ldrb	r2, [r3, #2]
10001c94:	2a00      	cmp	r2, #0
10001c96:	d131      	bne.n	10001cfc <ph_remove_any_head+0x90>
10001c98:	7819      	ldrb	r1, [r3, #0]
10001c9a:	f7ff ff93 	bl	10001bc4 <ph_merge_two_pass>
10001c9e:	0003      	movs	r3, r0
10001ca0:	2e00      	cmp	r6, #0
10001ca2:	d00a      	beq.n	10001cba <ph_remove_any_head+0x4e>
10001ca4:	7bea      	ldrb	r2, [r5, #15]
10001ca6:	2a00      	cmp	r2, #0
10001ca8:	d12e      	bne.n	10001d08 <ph_remove_any_head+0x9c>
10001caa:	7baa      	ldrb	r2, [r5, #14]
10001cac:	2a00      	cmp	r2, #0
10001cae:	d103      	bne.n	10001cb8 <ph_remove_any_head+0x4c>
10001cb0:	7bea      	ldrb	r2, [r5, #15]
10001cb2:	2a00      	cmp	r2, #0
10001cb4:	d13b      	bne.n	10001d2e <ph_remove_any_head+0xc2>
10001cb6:	73ac      	strb	r4, [r5, #14]
10001cb8:	73ec      	strb	r4, [r5, #15]
10001cba:	2b00      	cmp	r3, #0
10001cbc:	d13d      	bne.n	10001d3a <ph_remove_any_head+0xce>
10001cbe:	2c00      	cmp	r4, #0
10001cc0:	d04f      	beq.n	10001d62 <ph_remove_any_head+0xf6>
10001cc2:	7b2b      	ldrb	r3, [r5, #12]
10001cc4:	429c      	cmp	r4, r3
10001cc6:	d84c      	bhi.n	10001d62 <ph_remove_any_head+0xf6>
10001cc8:	682b      	ldr	r3, [r5, #0]
10001cca:	0061      	lsls	r1, r4, #1
10001ccc:	190c      	adds	r4, r1, r4
10001cce:	3c03      	subs	r4, #3
10001cd0:	191c      	adds	r4, r3, r4
10001cd2:	2300      	movs	r3, #0
10001cd4:	7063      	strb	r3, [r4, #1]
10001cd6:	bd70      	pop	{r4, r5, r6, pc}
10001cd8:	4b25      	ldr	r3, [pc, #148]	; (10001d70 <ph_remove_any_head+0x104>)
10001cda:	4a26      	ldr	r2, [pc, #152]	; (10001d74 <ph_remove_any_head+0x108>)
10001cdc:	2138      	movs	r1, #56	; 0x38
10001cde:	4826      	ldr	r0, [pc, #152]	; (10001d78 <ph_remove_any_head+0x10c>)
10001ce0:	f000 fbd2 	bl	10002488 <__assert_func>
10001ce4:	4b25      	ldr	r3, [pc, #148]	; (10001d7c <ph_remove_any_head+0x110>)
10001ce6:	4a26      	ldr	r2, [pc, #152]	; (10001d80 <ph_remove_any_head+0x114>)
10001ce8:	2168      	movs	r1, #104	; 0x68
10001cea:	4826      	ldr	r0, [pc, #152]	; (10001d84 <ph_remove_any_head+0x118>)
10001cec:	f000 fbcc 	bl	10002488 <__assert_func>
10001cf0:	4b25      	ldr	r3, [pc, #148]	; (10001d88 <ph_remove_any_head+0x11c>)
10001cf2:	4a20      	ldr	r2, [pc, #128]	; (10001d74 <ph_remove_any_head+0x108>)
10001cf4:	213a      	movs	r1, #58	; 0x3a
10001cf6:	4820      	ldr	r0, [pc, #128]	; (10001d78 <ph_remove_any_head+0x10c>)
10001cf8:	f000 fbc6 	bl	10002488 <__assert_func>
10001cfc:	4b23      	ldr	r3, [pc, #140]	; (10001d8c <ph_remove_any_head+0x120>)
10001cfe:	4a1d      	ldr	r2, [pc, #116]	; (10001d74 <ph_remove_any_head+0x108>)
10001d00:	213b      	movs	r1, #59	; 0x3b
10001d02:	481d      	ldr	r0, [pc, #116]	; (10001d78 <ph_remove_any_head+0x10c>)
10001d04:	f000 fbc0 	bl	10002488 <__assert_func>
10001d08:	2a00      	cmp	r2, #0
10001d0a:	d00a      	beq.n	10001d22 <ph_remove_any_head+0xb6>
10001d0c:	7b29      	ldrb	r1, [r5, #12]
10001d0e:	428a      	cmp	r2, r1
10001d10:	d807      	bhi.n	10001d22 <ph_remove_any_head+0xb6>
10001d12:	0051      	lsls	r1, r2, #1
10001d14:	188a      	adds	r2, r1, r2
10001d16:	3a03      	subs	r2, #3
10001d18:	6829      	ldr	r1, [r5, #0]
10001d1a:	468c      	mov	ip, r1
10001d1c:	4462      	add	r2, ip
10001d1e:	7054      	strb	r4, [r2, #1]
10001d20:	e7c3      	b.n	10001caa <ph_remove_any_head+0x3e>
10001d22:	4b16      	ldr	r3, [pc, #88]	; (10001d7c <ph_remove_any_head+0x110>)
10001d24:	4a16      	ldr	r2, [pc, #88]	; (10001d80 <ph_remove_any_head+0x114>)
10001d26:	2168      	movs	r1, #104	; 0x68
10001d28:	4816      	ldr	r0, [pc, #88]	; (10001d84 <ph_remove_any_head+0x118>)
10001d2a:	f000 fbad 	bl	10002488 <__assert_func>
10001d2e:	4b18      	ldr	r3, [pc, #96]	; (10001d90 <ph_remove_any_head+0x124>)
10001d30:	4a10      	ldr	r2, [pc, #64]	; (10001d74 <ph_remove_any_head+0x108>)
10001d32:	2142      	movs	r1, #66	; 0x42
10001d34:	4810      	ldr	r0, [pc, #64]	; (10001d78 <ph_remove_any_head+0x10c>)
10001d36:	f000 fba7 	bl	10002488 <__assert_func>
10001d3a:	2b00      	cmp	r3, #0
10001d3c:	d00b      	beq.n	10001d56 <ph_remove_any_head+0xea>
10001d3e:	7b2a      	ldrb	r2, [r5, #12]
10001d40:	4293      	cmp	r3, r2
10001d42:	d808      	bhi.n	10001d56 <ph_remove_any_head+0xea>
10001d44:	0043      	lsls	r3, r0, #1
10001d46:	181b      	adds	r3, r3, r0
10001d48:	3b03      	subs	r3, #3
10001d4a:	682a      	ldr	r2, [r5, #0]
10001d4c:	4694      	mov	ip, r2
10001d4e:	4463      	add	r3, ip
10001d50:	2200      	movs	r2, #0
10001d52:	709a      	strb	r2, [r3, #2]
10001d54:	e7b3      	b.n	10001cbe <ph_remove_any_head+0x52>
10001d56:	4b09      	ldr	r3, [pc, #36]	; (10001d7c <ph_remove_any_head+0x110>)
10001d58:	4a09      	ldr	r2, [pc, #36]	; (10001d80 <ph_remove_any_head+0x114>)
10001d5a:	2168      	movs	r1, #104	; 0x68
10001d5c:	4809      	ldr	r0, [pc, #36]	; (10001d84 <ph_remove_any_head+0x118>)
10001d5e:	f000 fb93 	bl	10002488 <__assert_func>
10001d62:	4b06      	ldr	r3, [pc, #24]	; (10001d7c <ph_remove_any_head+0x110>)
10001d64:	4a06      	ldr	r2, [pc, #24]	; (10001d80 <ph_remove_any_head+0x114>)
10001d66:	2168      	movs	r1, #104	; 0x68
10001d68:	4806      	ldr	r0, [pc, #24]	; (10001d84 <ph_remove_any_head+0x118>)
10001d6a:	f000 fb8d 	bl	10002488 <__assert_func>
10001d6e:	46c0      	nop			; (mov r8, r8)
10001d70:	100074e8 	.word	0x100074e8
10001d74:	100075c8 	.word	0x100075c8
10001d78:	100074f0 	.word	0x100074f0
10001d7c:	10007120 	.word	0x10007120
10001d80:	100075f0 	.word	0x100075f0
10001d84:	1000713c 	.word	0x1000713c
10001d88:	10007544 	.word	0x10007544
10001d8c:	1000756c 	.word	0x1000756c
10001d90:	10007280 	.word	0x10007280

10001d94 <ph_remove_head>:
10001d94:	b570      	push	{r4, r5, r6, lr}
10001d96:	0004      	movs	r4, r0
10001d98:	000a      	movs	r2, r1
10001d9a:	7b45      	ldrb	r5, [r0, #13]
10001d9c:	0029      	movs	r1, r5
10001d9e:	f7ff ff65 	bl	10001c6c <ph_remove_any_head>
10001da2:	7360      	strb	r0, [r4, #13]
10001da4:	0028      	movs	r0, r5
10001da6:	bd70      	pop	{r4, r5, r6, pc}

10001da8 <ph_remove_and_free_node>:
10001da8:	b570      	push	{r4, r5, r6, lr}
10001daa:	0004      	movs	r4, r0
10001dac:	2900      	cmp	r1, #0
10001dae:	d067      	beq.n	10001e80 <ph_remove_and_free_node+0xd8>
10001db0:	7b43      	ldrb	r3, [r0, #13]
10001db2:	428b      	cmp	r3, r1
10001db4:	d00e      	beq.n	10001dd4 <ph_remove_and_free_node+0x2c>
10001db6:	2900      	cmp	r1, #0
10001db8:	d011      	beq.n	10001dde <ph_remove_and_free_node+0x36>
10001dba:	7b03      	ldrb	r3, [r0, #12]
10001dbc:	4299      	cmp	r1, r3
10001dbe:	d80e      	bhi.n	10001dde <ph_remove_and_free_node+0x36>
10001dc0:	004b      	lsls	r3, r1, #1
10001dc2:	185b      	adds	r3, r3, r1
10001dc4:	3b03      	subs	r3, #3
10001dc6:	6802      	ldr	r2, [r0, #0]
10001dc8:	18d0      	adds	r0, r2, r3
10001dca:	7883      	ldrb	r3, [r0, #2]
10001dcc:	2b00      	cmp	r3, #0
10001dce:	d10c      	bne.n	10001dea <ph_remove_and_free_node+0x42>
10001dd0:	2000      	movs	r0, #0
10001dd2:	e056      	b.n	10001e82 <ph_remove_and_free_node+0xda>
10001dd4:	2101      	movs	r1, #1
10001dd6:	f7ff ffdd 	bl	10001d94 <ph_remove_head>
10001dda:	2001      	movs	r0, #1
10001ddc:	e051      	b.n	10001e82 <ph_remove_and_free_node+0xda>
10001dde:	4b29      	ldr	r3, [pc, #164]	; (10001e84 <ph_remove_and_free_node+0xdc>)
10001de0:	4a29      	ldr	r2, [pc, #164]	; (10001e88 <ph_remove_and_free_node+0xe0>)
10001de2:	2168      	movs	r1, #104	; 0x68
10001de4:	4829      	ldr	r0, [pc, #164]	; (10001e8c <ph_remove_and_free_node+0xe4>)
10001de6:	f000 fb4f 	bl	10002488 <__assert_func>
10001dea:	2b00      	cmp	r3, #0
10001dec:	d020      	beq.n	10001e30 <ph_remove_and_free_node+0x88>
10001dee:	7b22      	ldrb	r2, [r4, #12]
10001df0:	4293      	cmp	r3, r2
10001df2:	d81d      	bhi.n	10001e30 <ph_remove_and_free_node+0x88>
10001df4:	005a      	lsls	r2, r3, #1
10001df6:	18d3      	adds	r3, r2, r3
10001df8:	3b03      	subs	r3, #3
10001dfa:	6822      	ldr	r2, [r4, #0]
10001dfc:	18d2      	adds	r2, r2, r3
10001dfe:	6825      	ldr	r5, [r4, #0]
10001e00:	5ceb      	ldrb	r3, [r5, r3]
10001e02:	428b      	cmp	r3, r1
10001e04:	d01a      	beq.n	10001e3c <ph_remove_and_free_node+0x94>
10001e06:	2b00      	cmp	r3, #0
10001e08:	d01b      	beq.n	10001e42 <ph_remove_and_free_node+0x9a>
10001e0a:	7b22      	ldrb	r2, [r4, #12]
10001e0c:	4293      	cmp	r3, r2
10001e0e:	d818      	bhi.n	10001e42 <ph_remove_and_free_node+0x9a>
10001e10:	005a      	lsls	r2, r3, #1
10001e12:	18d3      	adds	r3, r2, r3
10001e14:	3b03      	subs	r3, #3
10001e16:	6822      	ldr	r2, [r4, #0]
10001e18:	18d2      	adds	r2, r2, r3
10001e1a:	7853      	ldrb	r3, [r2, #1]
10001e1c:	428b      	cmp	r3, r1
10001e1e:	d016      	beq.n	10001e4e <ph_remove_and_free_node+0xa6>
10001e20:	2b00      	cmp	r3, #0
10001e22:	d1f0      	bne.n	10001e06 <ph_remove_and_free_node+0x5e>
10001e24:	4b1a      	ldr	r3, [pc, #104]	; (10001e90 <ph_remove_and_free_node+0xe8>)
10001e26:	4a1b      	ldr	r2, [pc, #108]	; (10001e94 <ph_remove_and_free_node+0xec>)
10001e28:	216b      	movs	r1, #107	; 0x6b
10001e2a:	481b      	ldr	r0, [pc, #108]	; (10001e98 <ph_remove_and_free_node+0xf0>)
10001e2c:	f000 fb2c 	bl	10002488 <__assert_func>
10001e30:	4b14      	ldr	r3, [pc, #80]	; (10001e84 <ph_remove_and_free_node+0xdc>)
10001e32:	4a15      	ldr	r2, [pc, #84]	; (10001e88 <ph_remove_and_free_node+0xe0>)
10001e34:	2168      	movs	r1, #104	; 0x68
10001e36:	4815      	ldr	r0, [pc, #84]	; (10001e8c <ph_remove_and_free_node+0xe4>)
10001e38:	f000 fb26 	bl	10002488 <__assert_func>
10001e3c:	7843      	ldrb	r3, [r0, #1]
10001e3e:	7013      	strb	r3, [r2, #0]
10001e40:	e007      	b.n	10001e52 <ph_remove_and_free_node+0xaa>
10001e42:	4b10      	ldr	r3, [pc, #64]	; (10001e84 <ph_remove_and_free_node+0xdc>)
10001e44:	4a10      	ldr	r2, [pc, #64]	; (10001e88 <ph_remove_and_free_node+0xe0>)
10001e46:	2168      	movs	r1, #104	; 0x68
10001e48:	4810      	ldr	r0, [pc, #64]	; (10001e8c <ph_remove_and_free_node+0xe4>)
10001e4a:	f000 fb1d 	bl	10002488 <__assert_func>
10001e4e:	7843      	ldrb	r3, [r0, #1]
10001e50:	7053      	strb	r3, [r2, #1]
10001e52:	2300      	movs	r3, #0
10001e54:	7083      	strb	r3, [r0, #2]
10001e56:	7043      	strb	r3, [r0, #1]
10001e58:	2201      	movs	r2, #1
10001e5a:	0020      	movs	r0, r4
10001e5c:	f7ff ff06 	bl	10001c6c <ph_remove_any_head>
10001e60:	0002      	movs	r2, r0
10001e62:	7b61      	ldrb	r1, [r4, #13]
10001e64:	4281      	cmp	r1, r0
10001e66:	d005      	beq.n	10001e74 <ph_remove_and_free_node+0xcc>
10001e68:	0020      	movs	r0, r4
10001e6a:	f7ff fe4b 	bl	10001b04 <ph_merge_nodes>
10001e6e:	7360      	strb	r0, [r4, #13]
10001e70:	2001      	movs	r0, #1
10001e72:	e006      	b.n	10001e82 <ph_remove_and_free_node+0xda>
10001e74:	4b09      	ldr	r3, [pc, #36]	; (10001e9c <ph_remove_and_free_node+0xf4>)
10001e76:	4a07      	ldr	r2, [pc, #28]	; (10001e94 <ph_remove_and_free_node+0xec>)
10001e78:	2171      	movs	r1, #113	; 0x71
10001e7a:	4807      	ldr	r0, [pc, #28]	; (10001e98 <ph_remove_and_free_node+0xf0>)
10001e7c:	f000 fb04 	bl	10002488 <__assert_func>
10001e80:	2000      	movs	r0, #0
10001e82:	bd70      	pop	{r4, r5, r6, pc}
10001e84:	10007120 	.word	0x10007120
10001e88:	100075f0 	.word	0x100075f0
10001e8c:	1000713c 	.word	0x1000713c
10001e90:	10006e74 	.word	0x10006e74
10001e94:	100075b0 	.word	0x100075b0
10001e98:	100074f0 	.word	0x100074f0
10001e9c:	10007590 	.word	0x10007590

10001ea0 <uart_disable_before_lcr_write>:
10001ea0:	b570      	push	{r4, r5, r6, lr}
10001ea2:	6b04      	ldr	r4, [r0, #48]	; 0x30
10001ea4:	07e3      	lsls	r3, r4, #31
10001ea6:	d401      	bmi.n	10001eac <uart_disable_before_lcr_write+0xc>
10001ea8:	0020      	movs	r0, r4
10001eaa:	bd70      	pop	{r4, r5, r6, pc}
10001eac:	0002      	movs	r2, r0
10001eae:	3230      	adds	r2, #48	; 0x30
10001eb0:	23c0      	movs	r3, #192	; 0xc0
10001eb2:	019b      	lsls	r3, r3, #6
10001eb4:	4313      	orrs	r3, r2
10001eb6:	4a0a      	ldr	r2, [pc, #40]	; (10001ee0 <uart_disable_before_lcr_write+0x40>)
10001eb8:	601a      	str	r2, [r3, #0]
10001eba:	6a45      	ldr	r5, [r0, #36]	; 0x24
10001ebc:	6a82      	ldr	r2, [r0, #40]	; 0x28
10001ebe:	01ad      	lsls	r5, r5, #6
10001ec0:	18ad      	adds	r5, r5, r2
10001ec2:	02ad      	lsls	r5, r5, #10
10001ec4:	2006      	movs	r0, #6
10001ec6:	f000 f9bd 	bl	10002244 <clock_get_hz>
10001eca:	4906      	ldr	r1, [pc, #24]	; (10001ee4 <uart_disable_before_lcr_write+0x44>)
10001ecc:	f001 fc8a 	bl	100037e4 <__wrap___aeabi_uidiv>
10001ed0:	0001      	movs	r1, r0
10001ed2:	0028      	movs	r0, r5
10001ed4:	f001 fc86 	bl	100037e4 <__wrap___aeabi_uidiv>
10001ed8:	2100      	movs	r1, #0
10001eda:	f7ff fcc1 	bl	10001860 <busy_wait_us>
10001ede:	e7e3      	b.n	10001ea8 <uart_disable_before_lcr_write+0x8>
10001ee0:	00000301 	.word	0x00000301
10001ee4:	00000e4e 	.word	0x00000e4e

10001ee8 <uart_write_lcr_bits_masked>:
10001ee8:	b570      	push	{r4, r5, r6, lr}
10001eea:	0004      	movs	r4, r0
10001eec:	000e      	movs	r6, r1
10001eee:	0015      	movs	r5, r2
10001ef0:	f7ff ffd6 	bl	10001ea0 <uart_disable_before_lcr_write>
10001ef4:	0022      	movs	r2, r4
10001ef6:	322c      	adds	r2, #44	; 0x2c
10001ef8:	6ae1      	ldr	r1, [r4, #44]	; 0x2c
10001efa:	404e      	eors	r6, r1
10001efc:	4035      	ands	r5, r6
10001efe:	2380      	movs	r3, #128	; 0x80
10001f00:	015b      	lsls	r3, r3, #5
10001f02:	4313      	orrs	r3, r2
10001f04:	601d      	str	r5, [r3, #0]
10001f06:	6320      	str	r0, [r4, #48]	; 0x30
10001f08:	bd70      	pop	{r4, r5, r6, pc}
	...

10001f0c <uart_set_baudrate>:
10001f0c:	b570      	push	{r4, r5, r6, lr}
10001f0e:	0005      	movs	r5, r0
10001f10:	000c      	movs	r4, r1
10001f12:	2006      	movs	r0, #6
10001f14:	f000 f996 	bl	10002244 <clock_get_hz>
10001f18:	00c0      	lsls	r0, r0, #3
10001f1a:	0021      	movs	r1, r4
10001f1c:	f001 fc62 	bl	100037e4 <__wrap___aeabi_uidiv>
10001f20:	09c6      	lsrs	r6, r0, #7
10001f22:	d008      	beq.n	10001f36 <uart_set_baudrate+0x2a>
10001f24:	4b0e      	ldr	r3, [pc, #56]	; (10001f60 <uart_set_baudrate+0x54>)
10001f26:	429e      	cmp	r6, r3
10001f28:	d816      	bhi.n	10001f58 <uart_set_baudrate+0x4c>
10001f2a:	237f      	movs	r3, #127	; 0x7f
10001f2c:	4018      	ands	r0, r3
10001f2e:	3001      	adds	r0, #1
10001f30:	0034      	movs	r4, r6
10001f32:	0846      	lsrs	r6, r0, #1
10001f34:	e000      	b.n	10001f38 <uart_set_baudrate+0x2c>
10001f36:	2401      	movs	r4, #1
10001f38:	626c      	str	r4, [r5, #36]	; 0x24
10001f3a:	62ae      	str	r6, [r5, #40]	; 0x28
10001f3c:	2200      	movs	r2, #0
10001f3e:	2100      	movs	r1, #0
10001f40:	0028      	movs	r0, r5
10001f42:	f7ff ffd1 	bl	10001ee8 <uart_write_lcr_bits_masked>
10001f46:	2006      	movs	r0, #6
10001f48:	f000 f97c 	bl	10002244 <clock_get_hz>
10001f4c:	0080      	lsls	r0, r0, #2
10001f4e:	01a1      	lsls	r1, r4, #6
10001f50:	1989      	adds	r1, r1, r6
10001f52:	f001 fc47 	bl	100037e4 <__wrap___aeabi_uidiv>
10001f56:	bd70      	pop	{r4, r5, r6, pc}
10001f58:	2600      	movs	r6, #0
10001f5a:	4c02      	ldr	r4, [pc, #8]	; (10001f64 <uart_set_baudrate+0x58>)
10001f5c:	e7ec      	b.n	10001f38 <uart_set_baudrate+0x2c>
10001f5e:	46c0      	nop			; (mov r8, r8)
10001f60:	0000fffe 	.word	0x0000fffe
10001f64:	0000ffff 	.word	0x0000ffff

10001f68 <uart_set_format>:
10001f68:	b510      	push	{r4, lr}
10001f6a:	3905      	subs	r1, #5
10001f6c:	0149      	lsls	r1, r1, #5
10001f6e:	3a01      	subs	r2, #1
10001f70:	00d2      	lsls	r2, r2, #3
10001f72:	4311      	orrs	r1, r2
10001f74:	2b00      	cmp	r3, #0
10001f76:	d009      	beq.n	10001f8c <uart_set_format+0x24>
10001f78:	2202      	movs	r2, #2
10001f7a:	430a      	orrs	r2, r1
10001f7c:	2b01      	cmp	r3, #1
10001f7e:	d007      	beq.n	10001f90 <uart_set_format+0x28>
10001f80:	2100      	movs	r1, #0
10001f82:	4311      	orrs	r1, r2
10001f84:	226e      	movs	r2, #110	; 0x6e
10001f86:	f7ff ffaf 	bl	10001ee8 <uart_write_lcr_bits_masked>
10001f8a:	bd10      	pop	{r4, pc}
10001f8c:	2200      	movs	r2, #0
10001f8e:	e7f4      	b.n	10001f7a <uart_set_format+0x12>
10001f90:	2104      	movs	r1, #4
10001f92:	e7f6      	b.n	10001f82 <uart_set_format+0x1a>

10001f94 <uart_set_translate_crlf>:
10001f94:	2900      	cmp	r1, #0
10001f96:	d009      	beq.n	10001fac <uart_set_translate_crlf+0x18>
10001f98:	220a      	movs	r2, #10
10001f9a:	4b06      	ldr	r3, [pc, #24]	; (10001fb4 <uart_set_translate_crlf+0x20>)
10001f9c:	469c      	mov	ip, r3
10001f9e:	4460      	add	r0, ip
10001fa0:	4243      	negs	r3, r0
10001fa2:	4158      	adcs	r0, r3
10001fa4:	0040      	lsls	r0, r0, #1
10001fa6:	4b04      	ldr	r3, [pc, #16]	; (10001fb8 <uart_set_translate_crlf+0x24>)
10001fa8:	52c2      	strh	r2, [r0, r3]
10001faa:	4770      	bx	lr
10001fac:	2280      	movs	r2, #128	; 0x80
10001fae:	0052      	lsls	r2, r2, #1
10001fb0:	e7f3      	b.n	10001f9a <uart_set_translate_crlf+0x6>
10001fb2:	46c0      	nop			; (mov r8, r8)
10001fb4:	bffc8000 	.word	0xbffc8000
10001fb8:	20001a38 	.word	0x20001a38

10001fbc <uart_init>:
10001fbc:	b570      	push	{r4, r5, r6, lr}
10001fbe:	0005      	movs	r5, r0
10001fc0:	000c      	movs	r4, r1
10001fc2:	2006      	movs	r0, #6
10001fc4:	f000 f93e 	bl	10002244 <clock_get_hz>
10001fc8:	1e06      	subs	r6, r0, #0
10001fca:	d027      	beq.n	1000201c <uart_init+0x60>
10001fcc:	4b16      	ldr	r3, [pc, #88]	; (10002028 <uart_init+0x6c>)
10001fce:	429d      	cmp	r5, r3
10001fd0:	d026      	beq.n	10002020 <uart_init+0x64>
10001fd2:	2280      	movs	r2, #128	; 0x80
10001fd4:	03d2      	lsls	r2, r2, #15
10001fd6:	4b15      	ldr	r3, [pc, #84]	; (1000202c <uart_init+0x70>)
10001fd8:	601a      	str	r2, [r3, #0]
10001fda:	4b15      	ldr	r3, [pc, #84]	; (10002030 <uart_init+0x74>)
10001fdc:	601a      	str	r2, [r3, #0]
10001fde:	4b15      	ldr	r3, [pc, #84]	; (10002034 <uart_init+0x78>)
10001fe0:	689b      	ldr	r3, [r3, #8]
10001fe2:	0011      	movs	r1, r2
10001fe4:	4399      	bics	r1, r3
10001fe6:	d1fa      	bne.n	10001fde <uart_init+0x22>
10001fe8:	2100      	movs	r1, #0
10001fea:	0028      	movs	r0, r5
10001fec:	f7ff ffd2 	bl	10001f94 <uart_set_translate_crlf>
10001ff0:	0021      	movs	r1, r4
10001ff2:	0028      	movs	r0, r5
10001ff4:	f7ff ff8a 	bl	10001f0c <uart_set_baudrate>
10001ff8:	0006      	movs	r6, r0
10001ffa:	2300      	movs	r3, #0
10001ffc:	2201      	movs	r2, #1
10001ffe:	2108      	movs	r1, #8
10002000:	0028      	movs	r0, r5
10002002:	f7ff ffb1 	bl	10001f68 <uart_set_format>
10002006:	002a      	movs	r2, r5
10002008:	322c      	adds	r2, #44	; 0x2c
1000200a:	2380      	movs	r3, #128	; 0x80
1000200c:	019b      	lsls	r3, r3, #6
1000200e:	4313      	orrs	r3, r2
10002010:	2210      	movs	r2, #16
10002012:	601a      	str	r2, [r3, #0]
10002014:	4b08      	ldr	r3, [pc, #32]	; (10002038 <uart_init+0x7c>)
10002016:	632b      	str	r3, [r5, #48]	; 0x30
10002018:	2303      	movs	r3, #3
1000201a:	64ab      	str	r3, [r5, #72]	; 0x48
1000201c:	0030      	movs	r0, r6
1000201e:	bd70      	pop	{r4, r5, r6, pc}
10002020:	2280      	movs	r2, #128	; 0x80
10002022:	0412      	lsls	r2, r2, #16
10002024:	e7d7      	b.n	10001fd6 <uart_init+0x1a>
10002026:	46c0      	nop			; (mov r8, r8)
10002028:	40038000 	.word	0x40038000
1000202c:	4000e000 	.word	0x4000e000
10002030:	4000f000 	.word	0x4000f000
10002034:	4000c000 	.word	0x4000c000
10002038:	00000301 	.word	0x00000301

1000203c <clock_configure>:
1000203c:	b5f8      	push	{r3, r4, r5, r6, r7, lr}
1000203e:	46de      	mov	lr, fp
10002040:	4657      	mov	r7, sl
10002042:	464e      	mov	r6, r9
10002044:	4645      	mov	r5, r8
10002046:	b5e0      	push	{r5, r6, r7, lr}
10002048:	0005      	movs	r5, r0
1000204a:	000f      	movs	r7, r1
1000204c:	4692      	mov	sl, r2
1000204e:	9a0a      	ldr	r2, [sp, #40]	; 0x28
10002050:	4293      	cmp	r3, r2
10002052:	d350      	bcc.n	100020f6 <clock_configure+0xba>
10002054:	0e1a      	lsrs	r2, r3, #24
10002056:	4691      	mov	r9, r2
10002058:	021e      	lsls	r6, r3, #8
1000205a:	9a0a      	ldr	r2, [sp, #40]	; 0x28
1000205c:	2300      	movs	r3, #0
1000205e:	0030      	movs	r0, r6
10002060:	4649      	mov	r1, r9
10002062:	f001 fbfd 	bl	10003860 <__wrap___aeabi_uldivmod>
10002066:	4680      	mov	r8, r0
10002068:	006c      	lsls	r4, r5, #1
1000206a:	1964      	adds	r4, r4, r5
1000206c:	00a4      	lsls	r4, r4, #2
1000206e:	4b30      	ldr	r3, [pc, #192]	; (10002130 <clock_configure+0xf4>)
10002070:	469c      	mov	ip, r3
10002072:	4464      	add	r4, ip
10002074:	6863      	ldr	r3, [r4, #4]
10002076:	4283      	cmp	r3, r0
10002078:	d200      	bcs.n	1000207c <clock_configure+0x40>
1000207a:	6060      	str	r0, [r4, #4]
1000207c:	1f2b      	subs	r3, r5, #4
1000207e:	b2db      	uxtb	r3, r3
10002080:	469b      	mov	fp, r3
10002082:	2b01      	cmp	r3, #1
10002084:	d93d      	bls.n	10002102 <clock_configure+0xc6>
10002086:	23c0      	movs	r3, #192	; 0xc0
10002088:	019b      	lsls	r3, r3, #6
1000208a:	4323      	orrs	r3, r4
1000208c:	2280      	movs	r2, #128	; 0x80
1000208e:	0112      	lsls	r2, r2, #4
10002090:	601a      	str	r2, [r3, #0]
10002092:	00ab      	lsls	r3, r5, #2
10002094:	4a27      	ldr	r2, [pc, #156]	; (10002134 <clock_configure+0xf8>)
10002096:	5899      	ldr	r1, [r3, r2]
10002098:	2900      	cmp	r1, #0
1000209a:	d007      	beq.n	100020ac <clock_configure+0x70>
1000209c:	6950      	ldr	r0, [r2, #20]
1000209e:	f001 fba1 	bl	100037e4 <__wrap___aeabi_uidiv>
100020a2:	1c43      	adds	r3, r0, #1
100020a4:	0058      	lsls	r0, r3, #1
100020a6:	18c0      	adds	r0, r0, r3
100020a8:	3803      	subs	r0, #3
100020aa:	d2fd      	bcs.n	100020a8 <clock_configure+0x6c>
100020ac:	4653      	mov	r3, sl
100020ae:	015a      	lsls	r2, r3, #5
100020b0:	6823      	ldr	r3, [r4, #0]
100020b2:	405a      	eors	r2, r3
100020b4:	23e0      	movs	r3, #224	; 0xe0
100020b6:	401a      	ands	r2, r3
100020b8:	2380      	movs	r3, #128	; 0x80
100020ba:	015b      	lsls	r3, r3, #5
100020bc:	4323      	orrs	r3, r4
100020be:	601a      	str	r2, [r3, #0]
100020c0:	465a      	mov	r2, fp
100020c2:	2a01      	cmp	r2, #1
100020c4:	d928      	bls.n	10002118 <clock_configure+0xdc>
100020c6:	2380      	movs	r3, #128	; 0x80
100020c8:	019b      	lsls	r3, r3, #6
100020ca:	4323      	orrs	r3, r4
100020cc:	2280      	movs	r2, #128	; 0x80
100020ce:	0112      	lsls	r2, r2, #4
100020d0:	601a      	str	r2, [r3, #0]
100020d2:	4643      	mov	r3, r8
100020d4:	6063      	str	r3, [r4, #4]
100020d6:	4642      	mov	r2, r8
100020d8:	2300      	movs	r3, #0
100020da:	0030      	movs	r0, r6
100020dc:	4649      	mov	r1, r9
100020de:	f001 fbbf 	bl	10003860 <__wrap___aeabi_uldivmod>
100020e2:	00ad      	lsls	r5, r5, #2
100020e4:	4b13      	ldr	r3, [pc, #76]	; (10002134 <clock_configure+0xf8>)
100020e6:	5158      	str	r0, [r3, r5]
100020e8:	2001      	movs	r0, #1
100020ea:	bcf0      	pop	{r4, r5, r6, r7}
100020ec:	46bb      	mov	fp, r7
100020ee:	46b2      	mov	sl, r6
100020f0:	46a9      	mov	r9, r5
100020f2:	46a0      	mov	r8, r4
100020f4:	bdf8      	pop	{r3, r4, r5, r6, r7, pc}
100020f6:	4b10      	ldr	r3, [pc, #64]	; (10002138 <clock_configure+0xfc>)
100020f8:	4a10      	ldr	r2, [pc, #64]	; (1000213c <clock_configure+0x100>)
100020fa:	2133      	movs	r1, #51	; 0x33
100020fc:	4810      	ldr	r0, [pc, #64]	; (10002140 <clock_configure+0x104>)
100020fe:	f000 f9c3 	bl	10002488 <__assert_func>
10002102:	2f01      	cmp	r7, #1
10002104:	d1bf      	bne.n	10002086 <clock_configure+0x4a>
10002106:	23c0      	movs	r3, #192	; 0xc0
10002108:	019b      	lsls	r3, r3, #6
1000210a:	4323      	orrs	r3, r4
1000210c:	2203      	movs	r2, #3
1000210e:	601a      	str	r2, [r3, #0]
10002110:	68a3      	ldr	r3, [r4, #8]
10002112:	07db      	lsls	r3, r3, #31
10002114:	d5fc      	bpl.n	10002110 <clock_configure+0xd4>
10002116:	e7c9      	b.n	100020ac <clock_configure+0x70>
10002118:	6821      	ldr	r1, [r4, #0]
1000211a:	4079      	eors	r1, r7
1000211c:	2203      	movs	r2, #3
1000211e:	400a      	ands	r2, r1
10002120:	601a      	str	r2, [r3, #0]
10002122:	68a2      	ldr	r2, [r4, #8]
10002124:	2301      	movs	r3, #1
10002126:	40bb      	lsls	r3, r7
10002128:	4213      	tst	r3, r2
1000212a:	d0fa      	beq.n	10002122 <clock_configure+0xe6>
1000212c:	e7cb      	b.n	100020c6 <clock_configure+0x8a>
1000212e:	46c0      	nop			; (mov r8, r8)
10002130:	40008000 	.word	0x40008000
10002134:	20001354 	.word	0x20001354
10002138:	100075fc 	.word	0x100075fc
1000213c:	10007670 	.word	0x10007670
10002140:	10007610 	.word	0x10007610

10002144 <clocks_init>:
10002144:	b530      	push	{r4, r5, lr}
10002146:	b083      	sub	sp, #12
10002148:	200c      	movs	r0, #12
1000214a:	f000 f911 	bl	10002370 <watchdog_start_tick>
1000214e:	f7fe f947 	bl	100003e0 <running_on_fpga>
10002152:	2800      	cmp	r0, #0
10002154:	d00d      	beq.n	10002172 <clocks_init+0x2e>
10002156:	2300      	movs	r3, #0
10002158:	e004      	b.n	10002164 <clocks_init+0x20>
1000215a:	0099      	lsls	r1, r3, #2
1000215c:	4a2d      	ldr	r2, [pc, #180]	; (10002214 <clocks_init+0xd0>)
1000215e:	482e      	ldr	r0, [pc, #184]	; (10002218 <clocks_init+0xd4>)
10002160:	5088      	str	r0, [r1, r2]
10002162:	3301      	adds	r3, #1
10002164:	2b09      	cmp	r3, #9
10002166:	d9f8      	bls.n	1000215a <clocks_init+0x16>
10002168:	4b2a      	ldr	r3, [pc, #168]	; (10002214 <clocks_init+0xd0>)
1000216a:	4a2c      	ldr	r2, [pc, #176]	; (1000221c <clocks_init+0xd8>)
1000216c:	625a      	str	r2, [r3, #36]	; 0x24
1000216e:	b003      	add	sp, #12
10002170:	bd30      	pop	{r4, r5, pc}
10002172:	4b2b      	ldr	r3, [pc, #172]	; (10002220 <clocks_init+0xdc>)
10002174:	2200      	movs	r2, #0
10002176:	679a      	str	r2, [r3, #120]	; 0x78
10002178:	f000 f96c 	bl	10002454 <xosc_init>
1000217c:	4b29      	ldr	r3, [pc, #164]	; (10002224 <clocks_init+0xe0>)
1000217e:	2201      	movs	r2, #1
10002180:	601a      	str	r2, [r3, #0]
10002182:	4b27      	ldr	r3, [pc, #156]	; (10002220 <clocks_init+0xdc>)
10002184:	6c5b      	ldr	r3, [r3, #68]	; 0x44
10002186:	2b01      	cmp	r3, #1
10002188:	d1fb      	bne.n	10002182 <clocks_init+0x3e>
1000218a:	4b27      	ldr	r3, [pc, #156]	; (10002228 <clocks_init+0xe4>)
1000218c:	2203      	movs	r2, #3
1000218e:	601a      	str	r2, [r3, #0]
10002190:	4b23      	ldr	r3, [pc, #140]	; (10002220 <clocks_init+0xdc>)
10002192:	6b9b      	ldr	r3, [r3, #56]	; 0x38
10002194:	2b01      	cmp	r3, #1
10002196:	d1fb      	bne.n	10002190 <clocks_init+0x4c>
10002198:	3301      	adds	r3, #1
1000219a:	9300      	str	r3, [sp, #0]
1000219c:	3304      	adds	r3, #4
1000219e:	4a23      	ldr	r2, [pc, #140]	; (1000222c <clocks_init+0xe8>)
100021a0:	2101      	movs	r1, #1
100021a2:	4823      	ldr	r0, [pc, #140]	; (10002230 <clocks_init+0xec>)
100021a4:	f000 f854 	bl	10002250 <pll_init>
100021a8:	2305      	movs	r3, #5
100021aa:	9300      	str	r3, [sp, #0]
100021ac:	4a21      	ldr	r2, [pc, #132]	; (10002234 <clocks_init+0xf0>)
100021ae:	2101      	movs	r1, #1
100021b0:	4821      	ldr	r0, [pc, #132]	; (10002238 <clocks_init+0xf4>)
100021b2:	f000 f84d 	bl	10002250 <pll_init>
100021b6:	4b21      	ldr	r3, [pc, #132]	; (1000223c <clocks_init+0xf8>)
100021b8:	9300      	str	r3, [sp, #0]
100021ba:	2200      	movs	r2, #0
100021bc:	2102      	movs	r1, #2
100021be:	2004      	movs	r0, #4
100021c0:	f7ff ff3c 	bl	1000203c <clock_configure>
100021c4:	4d1e      	ldr	r5, [pc, #120]	; (10002240 <clocks_init+0xfc>)
100021c6:	9500      	str	r5, [sp, #0]
100021c8:	002b      	movs	r3, r5
100021ca:	2200      	movs	r2, #0
100021cc:	2101      	movs	r1, #1
100021ce:	2005      	movs	r0, #5
100021d0:	f7ff ff34 	bl	1000203c <clock_configure>
100021d4:	4c10      	ldr	r4, [pc, #64]	; (10002218 <clocks_init+0xd4>)
100021d6:	9400      	str	r4, [sp, #0]
100021d8:	0023      	movs	r3, r4
100021da:	2200      	movs	r2, #0
100021dc:	2100      	movs	r1, #0
100021de:	2007      	movs	r0, #7
100021e0:	f7ff ff2c 	bl	1000203c <clock_configure>
100021e4:	9400      	str	r4, [sp, #0]
100021e6:	0023      	movs	r3, r4
100021e8:	2200      	movs	r2, #0
100021ea:	2100      	movs	r1, #0
100021ec:	2008      	movs	r0, #8
100021ee:	f7ff ff25 	bl	1000203c <clock_configure>
100021f2:	4b0a      	ldr	r3, [pc, #40]	; (1000221c <clocks_init+0xd8>)
100021f4:	9300      	str	r3, [sp, #0]
100021f6:	0023      	movs	r3, r4
100021f8:	2200      	movs	r2, #0
100021fa:	2100      	movs	r1, #0
100021fc:	2009      	movs	r0, #9
100021fe:	f7ff ff1d 	bl	1000203c <clock_configure>
10002202:	9500      	str	r5, [sp, #0]
10002204:	002b      	movs	r3, r5
10002206:	2200      	movs	r2, #0
10002208:	2100      	movs	r1, #0
1000220a:	2006      	movs	r0, #6
1000220c:	f7ff ff16 	bl	1000203c <clock_configure>
10002210:	e7ad      	b.n	1000216e <clocks_init+0x2a>
10002212:	46c0      	nop			; (mov r8, r8)
10002214:	20001354 	.word	0x20001354
10002218:	02dc6c00 	.word	0x02dc6c00
1000221c:	0000b71b 	.word	0x0000b71b
10002220:	40008000 	.word	0x40008000
10002224:	4000b03c 	.word	0x4000b03c
10002228:	4000b030 	.word	0x4000b030
1000222c:	59682f00 	.word	0x59682f00
10002230:	40028000 	.word	0x40028000
10002234:	47868c00 	.word	0x47868c00
10002238:	4002c000 	.word	0x4002c000
1000223c:	00b71b00 	.word	0x00b71b00
10002240:	07735940 	.word	0x07735940

10002244 <clock_get_hz>:
10002244:	0080      	lsls	r0, r0, #2
10002246:	4b01      	ldr	r3, [pc, #4]	; (1000224c <clock_get_hz+0x8>)
10002248:	58c0      	ldr	r0, [r0, r3]
1000224a:	4770      	bx	lr
1000224c:	20001354 	.word	0x20001354

10002250 <pll_init>:
10002250:	b5f0      	push	{r4, r5, r6, r7, lr}
10002252:	46c6      	mov	lr, r8
10002254:	b500      	push	{lr}
10002256:	0004      	movs	r4, r0
10002258:	000e      	movs	r6, r1
1000225a:	0017      	movs	r7, r2
1000225c:	001d      	movs	r5, r3
1000225e:	4837      	ldr	r0, [pc, #220]	; (1000233c <pll_init+0xec>)
10002260:	f001 fac0 	bl	100037e4 <__wrap___aeabi_uidiv>
10002264:	4680      	mov	r8, r0
10002266:	4b36      	ldr	r3, [pc, #216]	; (10002340 <pll_init+0xf0>)
10002268:	18fa      	adds	r2, r7, r3
1000226a:	4b36      	ldr	r3, [pc, #216]	; (10002344 <pll_init+0xf4>)
1000226c:	429a      	cmp	r2, r3
1000226e:	d839      	bhi.n	100022e4 <pll_init+0x94>
10002270:	0001      	movs	r1, r0
10002272:	0038      	movs	r0, r7
10002274:	f001 fab6 	bl	100037e4 <__wrap___aeabi_uidiv>
10002278:	0002      	movs	r2, r0
1000227a:	3a10      	subs	r2, #16
1000227c:	2398      	movs	r3, #152	; 0x98
1000227e:	005b      	lsls	r3, r3, #1
10002280:	429a      	cmp	r2, r3
10002282:	d835      	bhi.n	100022f0 <pll_init+0xa0>
10002284:	1e6b      	subs	r3, r5, #1
10002286:	2b06      	cmp	r3, #6
10002288:	d838      	bhi.n	100022fc <pll_init+0xac>
1000228a:	9b06      	ldr	r3, [sp, #24]
1000228c:	3b01      	subs	r3, #1
1000228e:	2b06      	cmp	r3, #6
10002290:	d834      	bhi.n	100022fc <pll_init+0xac>
10002292:	093f      	lsrs	r7, r7, #4
10002294:	4547      	cmp	r7, r8
10002296:	d337      	bcc.n	10002308 <pll_init+0xb8>
10002298:	042d      	lsls	r5, r5, #16
1000229a:	9b06      	ldr	r3, [sp, #24]
1000229c:	031a      	lsls	r2, r3, #12
1000229e:	4315      	orrs	r5, r2
100022a0:	6823      	ldr	r3, [r4, #0]
100022a2:	2b00      	cmp	r3, #0
100022a4:	db36      	blt.n	10002314 <pll_init+0xc4>
100022a6:	4b28      	ldr	r3, [pc, #160]	; (10002348 <pll_init+0xf8>)
100022a8:	429c      	cmp	r4, r3
100022aa:	d044      	beq.n	10002336 <pll_init+0xe6>
100022ac:	2280      	movs	r2, #128	; 0x80
100022ae:	0152      	lsls	r2, r2, #5
100022b0:	4b26      	ldr	r3, [pc, #152]	; (1000234c <pll_init+0xfc>)
100022b2:	601a      	str	r2, [r3, #0]
100022b4:	4b26      	ldr	r3, [pc, #152]	; (10002350 <pll_init+0x100>)
100022b6:	601a      	str	r2, [r3, #0]
100022b8:	4b26      	ldr	r3, [pc, #152]	; (10002354 <pll_init+0x104>)
100022ba:	689b      	ldr	r3, [r3, #8]
100022bc:	0011      	movs	r1, r2
100022be:	4399      	bics	r1, r3
100022c0:	d1fa      	bne.n	100022b8 <pll_init+0x68>
100022c2:	6026      	str	r6, [r4, #0]
100022c4:	60a0      	str	r0, [r4, #8]
100022c6:	1d23      	adds	r3, r4, #4
100022c8:	22c0      	movs	r2, #192	; 0xc0
100022ca:	0192      	lsls	r2, r2, #6
100022cc:	431a      	orrs	r2, r3
100022ce:	2321      	movs	r3, #33	; 0x21
100022d0:	6013      	str	r3, [r2, #0]
100022d2:	6823      	ldr	r3, [r4, #0]
100022d4:	2b00      	cmp	r3, #0
100022d6:	dafc      	bge.n	100022d2 <pll_init+0x82>
100022d8:	60e5      	str	r5, [r4, #12]
100022da:	2308      	movs	r3, #8
100022dc:	6013      	str	r3, [r2, #0]
100022de:	bc80      	pop	{r7}
100022e0:	46b8      	mov	r8, r7
100022e2:	bdf0      	pop	{r4, r5, r6, r7, pc}
100022e4:	4b1c      	ldr	r3, [pc, #112]	; (10002358 <pll_init+0x108>)
100022e6:	4a1d      	ldr	r2, [pc, #116]	; (1000235c <pll_init+0x10c>)
100022e8:	2111      	movs	r1, #17
100022ea:	481d      	ldr	r0, [pc, #116]	; (10002360 <pll_init+0x110>)
100022ec:	f000 f8cc 	bl	10002488 <__assert_func>
100022f0:	4b1c      	ldr	r3, [pc, #112]	; (10002364 <pll_init+0x114>)
100022f2:	4a1a      	ldr	r2, [pc, #104]	; (1000235c <pll_init+0x10c>)
100022f4:	2119      	movs	r1, #25
100022f6:	481a      	ldr	r0, [pc, #104]	; (10002360 <pll_init+0x110>)
100022f8:	f000 f8c6 	bl	10002488 <__assert_func>
100022fc:	4b1a      	ldr	r3, [pc, #104]	; (10002368 <pll_init+0x118>)
100022fe:	4a17      	ldr	r2, [pc, #92]	; (1000235c <pll_init+0x10c>)
10002300:	211c      	movs	r1, #28
10002302:	4817      	ldr	r0, [pc, #92]	; (10002360 <pll_init+0x110>)
10002304:	f000 f8c0 	bl	10002488 <__assert_func>
10002308:	4b18      	ldr	r3, [pc, #96]	; (1000236c <pll_init+0x11c>)
1000230a:	4a14      	ldr	r2, [pc, #80]	; (1000235c <pll_init+0x10c>)
1000230c:	2123      	movs	r1, #35	; 0x23
1000230e:	4814      	ldr	r0, [pc, #80]	; (10002360 <pll_init+0x110>)
10002310:	f000 f8ba 	bl	10002488 <__assert_func>
10002314:	6822      	ldr	r2, [r4, #0]
10002316:	233f      	movs	r3, #63	; 0x3f
10002318:	4013      	ands	r3, r2
1000231a:	42b3      	cmp	r3, r6
1000231c:	d1c3      	bne.n	100022a6 <pll_init+0x56>
1000231e:	68a3      	ldr	r3, [r4, #8]
10002320:	051b      	lsls	r3, r3, #20
10002322:	0d1b      	lsrs	r3, r3, #20
10002324:	4283      	cmp	r3, r0
10002326:	d1be      	bne.n	100022a6 <pll_init+0x56>
10002328:	68e3      	ldr	r3, [r4, #12]
1000232a:	22ee      	movs	r2, #238	; 0xee
1000232c:	02d2      	lsls	r2, r2, #11
1000232e:	4013      	ands	r3, r2
10002330:	42ab      	cmp	r3, r5
10002332:	d1b8      	bne.n	100022a6 <pll_init+0x56>
10002334:	e7d3      	b.n	100022de <pll_init+0x8e>
10002336:	2280      	movs	r2, #128	; 0x80
10002338:	0192      	lsls	r2, r2, #6
1000233a:	e7b9      	b.n	100022b0 <pll_init+0x60>
1000233c:	00b71b00 	.word	0x00b71b00
10002340:	d34be880 	.word	0xd34be880
10002344:	32a9f880 	.word	0x32a9f880
10002348:	4002c000 	.word	0x4002c000
1000234c:	4000e000 	.word	0x4000e000
10002350:	4000f000 	.word	0x4000f000
10002354:	4000c000 	.word	0x4000c000
10002358:	10007680 	.word	0x10007680
1000235c:	100077c0 	.word	0x100077c0
10002360:	100076e0 	.word	0x100076e0
10002364:	1000773c 	.word	0x1000773c
10002368:	10007758 	.word	0x10007758
1000236c:	100077a4 	.word	0x100077a4

10002370 <watchdog_start_tick>:
10002370:	2380      	movs	r3, #128	; 0x80
10002372:	009b      	lsls	r3, r3, #2
10002374:	4303      	orrs	r3, r0
10002376:	4a01      	ldr	r2, [pc, #4]	; (1000237c <watchdog_start_tick+0xc>)
10002378:	62d3      	str	r3, [r2, #44]	; 0x2c
1000237a:	4770      	bx	lr
1000237c:	40058000 	.word	0x40058000

10002380 <watchdog_update>:
10002380:	4b02      	ldr	r3, [pc, #8]	; (1000238c <watchdog_update+0xc>)
10002382:	681a      	ldr	r2, [r3, #0]
10002384:	4b02      	ldr	r3, [pc, #8]	; (10002390 <watchdog_update+0x10>)
10002386:	605a      	str	r2, [r3, #4]
10002388:	4770      	bx	lr
1000238a:	46c0      	nop			; (mov r8, r8)
1000238c:	200017f0 	.word	0x200017f0
10002390:	40058000 	.word	0x40058000

10002394 <_watchdog_enable>:
10002394:	b510      	push	{r4, lr}
10002396:	0002      	movs	r2, r0
10002398:	4b16      	ldr	r3, [pc, #88]	; (100023f4 <_watchdog_enable+0x60>)
1000239a:	2080      	movs	r0, #128	; 0x80
1000239c:	05c0      	lsls	r0, r0, #23
1000239e:	6018      	str	r0, [r3, #0]
100023a0:	4b15      	ldr	r3, [pc, #84]	; (100023f8 <_watchdog_enable+0x64>)
100023a2:	4816      	ldr	r0, [pc, #88]	; (100023fc <_watchdog_enable+0x68>)
100023a4:	6018      	str	r0, [r3, #0]
100023a6:	2900      	cmp	r1, #0
100023a8:	d00a      	beq.n	100023c0 <_watchdog_enable+0x2c>
100023aa:	4b15      	ldr	r3, [pc, #84]	; (10002400 <_watchdog_enable+0x6c>)
100023ac:	21e0      	movs	r1, #224	; 0xe0
100023ae:	04c9      	lsls	r1, r1, #19
100023b0:	6019      	str	r1, [r3, #0]
100023b2:	2a00      	cmp	r2, #0
100023b4:	d109      	bne.n	100023ca <_watchdog_enable+0x36>
100023b6:	4b12      	ldr	r3, [pc, #72]	; (10002400 <_watchdog_enable+0x6c>)
100023b8:	2280      	movs	r2, #128	; 0x80
100023ba:	0612      	lsls	r2, r2, #24
100023bc:	601a      	str	r2, [r3, #0]
100023be:	bd10      	pop	{r4, pc}
100023c0:	4b0c      	ldr	r3, [pc, #48]	; (100023f4 <_watchdog_enable+0x60>)
100023c2:	21e0      	movs	r1, #224	; 0xe0
100023c4:	04c9      	lsls	r1, r1, #19
100023c6:	6019      	str	r1, [r3, #0]
100023c8:	e7f3      	b.n	100023b2 <_watchdog_enable+0x1e>
100023ca:	0153      	lsls	r3, r2, #5
100023cc:	1a9b      	subs	r3, r3, r2
100023ce:	0098      	lsls	r0, r3, #2
100023d0:	1880      	adds	r0, r0, r2
100023d2:	0100      	lsls	r0, r0, #4
100023d4:	4b0b      	ldr	r3, [pc, #44]	; (10002404 <_watchdog_enable+0x70>)
100023d6:	6018      	str	r0, [r3, #0]
100023d8:	2380      	movs	r3, #128	; 0x80
100023da:	045b      	lsls	r3, r3, #17
100023dc:	4298      	cmp	r0, r3
100023de:	d302      	bcc.n	100023e6 <_watchdog_enable+0x52>
100023e0:	4b08      	ldr	r3, [pc, #32]	; (10002404 <_watchdog_enable+0x70>)
100023e2:	4a09      	ldr	r2, [pc, #36]	; (10002408 <_watchdog_enable+0x74>)
100023e4:	601a      	str	r2, [r3, #0]
100023e6:	f7ff ffcb 	bl	10002380 <watchdog_update>
100023ea:	4b05      	ldr	r3, [pc, #20]	; (10002400 <_watchdog_enable+0x6c>)
100023ec:	2280      	movs	r2, #128	; 0x80
100023ee:	05d2      	lsls	r2, r2, #23
100023f0:	601a      	str	r2, [r3, #0]
100023f2:	e7e4      	b.n	100023be <_watchdog_enable+0x2a>
100023f4:	4005b000 	.word	0x4005b000
100023f8:	40012008 	.word	0x40012008
100023fc:	0001fffc 	.word	0x0001fffc
10002400:	4005a000 	.word	0x4005a000
10002404:	200017f0 	.word	0x200017f0
10002408:	00ffffff 	.word	0x00ffffff

1000240c <watchdog_reboot>:
1000240c:	b510      	push	{r4, lr}
1000240e:	0003      	movs	r3, r0
10002410:	0010      	movs	r0, r2
10002412:	4a0c      	ldr	r2, [pc, #48]	; (10002444 <watchdog_reboot+0x38>)
10002414:	2480      	movs	r4, #128	; 0x80
10002416:	05e4      	lsls	r4, r4, #23
10002418:	6014      	str	r4, [r2, #0]
1000241a:	2b00      	cmp	r3, #0
1000241c:	d00d      	beq.n	1000243a <watchdog_reboot+0x2e>
1000241e:	2201      	movs	r2, #1
10002420:	4313      	orrs	r3, r2
10002422:	4a09      	ldr	r2, [pc, #36]	; (10002448 <watchdog_reboot+0x3c>)
10002424:	4c09      	ldr	r4, [pc, #36]	; (1000244c <watchdog_reboot+0x40>)
10002426:	61d4      	str	r4, [r2, #28]
10002428:	4c09      	ldr	r4, [pc, #36]	; (10002450 <watchdog_reboot+0x44>)
1000242a:	405c      	eors	r4, r3
1000242c:	6214      	str	r4, [r2, #32]
1000242e:	6251      	str	r1, [r2, #36]	; 0x24
10002430:	6293      	str	r3, [r2, #40]	; 0x28
10002432:	2100      	movs	r1, #0
10002434:	f7ff ffae 	bl	10002394 <_watchdog_enable>
10002438:	bd10      	pop	{r4, pc}
1000243a:	4b03      	ldr	r3, [pc, #12]	; (10002448 <watchdog_reboot+0x3c>)
1000243c:	2200      	movs	r2, #0
1000243e:	61da      	str	r2, [r3, #28]
10002440:	e7f7      	b.n	10002432 <watchdog_reboot+0x26>
10002442:	46c0      	nop			; (mov r8, r8)
10002444:	4005b000 	.word	0x4005b000
10002448:	40058000 	.word	0x40058000
1000244c:	b007c0d3 	.word	0xb007c0d3
10002450:	4ff83f2d 	.word	0x4ff83f2d

10002454 <xosc_init>:
10002454:	4b06      	ldr	r3, [pc, #24]	; (10002470 <xosc_init+0x1c>)
10002456:	22aa      	movs	r2, #170	; 0xaa
10002458:	0112      	lsls	r2, r2, #4
1000245a:	601a      	str	r2, [r3, #0]
1000245c:	222f      	movs	r2, #47	; 0x2f
1000245e:	60da      	str	r2, [r3, #12]
10002460:	4b04      	ldr	r3, [pc, #16]	; (10002474 <xosc_init+0x20>)
10002462:	4a05      	ldr	r2, [pc, #20]	; (10002478 <xosc_init+0x24>)
10002464:	601a      	str	r2, [r3, #0]
10002466:	4b02      	ldr	r3, [pc, #8]	; (10002470 <xosc_init+0x1c>)
10002468:	685b      	ldr	r3, [r3, #4]
1000246a:	2b00      	cmp	r3, #0
1000246c:	dafb      	bge.n	10002466 <xosc_init+0x12>
1000246e:	4770      	bx	lr
10002470:	40024000 	.word	0x40024000
10002474:	40026000 	.word	0x40026000
10002478:	00fab000 	.word	0x00fab000

1000247c <_exit>:
1000247c:	be00      	bkpt	0x0000
1000247e:	e7fd      	b.n	1000247c <_exit>

10002480 <exit>:
10002480:	b510      	push	{r4, lr}
10002482:	f7ff fffb 	bl	1000247c <_exit>
	...

10002488 <__assert_func>:
10002488:	b510      	push	{r4, lr}
1000248a:	b082      	sub	sp, #8
1000248c:	000c      	movs	r4, r1
1000248e:	0019      	movs	r1, r3
10002490:	2a00      	cmp	r2, #0
10002492:	d00c      	beq.n	100024ae <__assert_func+0x26>
10002494:	4b08      	ldr	r3, [pc, #32]	; (100024b8 <__assert_func+0x30>)
10002496:	2a00      	cmp	r2, #0
10002498:	d00b      	beq.n	100024b2 <__assert_func+0x2a>
1000249a:	9201      	str	r2, [sp, #4]
1000249c:	9300      	str	r3, [sp, #0]
1000249e:	0023      	movs	r3, r4
100024a0:	0002      	movs	r2, r0
100024a2:	4806      	ldr	r0, [pc, #24]	; (100024bc <__assert_func+0x34>)
100024a4:	f001 fefe 	bl	100042a4 <__wrap_printf>
100024a8:	2001      	movs	r0, #1
100024aa:	f7ff ffe7 	bl	1000247c <_exit>
100024ae:	4b04      	ldr	r3, [pc, #16]	; (100024c0 <__assert_func+0x38>)
100024b0:	e7f1      	b.n	10002496 <__assert_func+0xe>
100024b2:	4a03      	ldr	r2, [pc, #12]	; (100024c0 <__assert_func+0x38>)
100024b4:	e7f1      	b.n	1000249a <__assert_func+0x12>
100024b6:	46c0      	nop			; (mov r8, r8)
100024b8:	100077cc 	.word	0x100077cc
100024bc:	100077dc 	.word	0x100077dc
100024c0:	100077d8 	.word	0x100077d8

100024c4 <runtime_init>:
100024c4:	b570      	push	{r4, r5, r6, lr}
100024c6:	4b2b      	ldr	r3, [pc, #172]	; (10002574 <runtime_init+0xb0>)
100024c8:	4a2b      	ldr	r2, [pc, #172]	; (10002578 <runtime_init+0xb4>)
100024ca:	601a      	str	r2, [r3, #0]
100024cc:	4b2b      	ldr	r3, [pc, #172]	; (1000257c <runtime_init+0xb8>)
100024ce:	4a2c      	ldr	r2, [pc, #176]	; (10002580 <runtime_init+0xbc>)
100024d0:	601a      	str	r2, [r3, #0]
100024d2:	4b2c      	ldr	r3, [pc, #176]	; (10002584 <runtime_init+0xc0>)
100024d4:	689a      	ldr	r2, [r3, #8]
100024d6:	4b2a      	ldr	r3, [pc, #168]	; (10002580 <runtime_init+0xbc>)
100024d8:	4393      	bics	r3, r2
100024da:	d1fa      	bne.n	100024d2 <runtime_init+0xe>
100024dc:	4c2a      	ldr	r4, [pc, #168]	; (10002588 <runtime_init+0xc4>)
100024de:	e001      	b.n	100024e4 <runtime_init+0x20>
100024e0:	cc08      	ldmia	r4!, {r3}
100024e2:	4798      	blx	r3
100024e4:	4b29      	ldr	r3, [pc, #164]	; (1000258c <runtime_init+0xc8>)
100024e6:	429c      	cmp	r4, r3
100024e8:	d3fa      	bcc.n	100024e0 <runtime_init+0x1c>
100024ea:	f7ff fe2b 	bl	10002144 <clocks_init>
100024ee:	4b23      	ldr	r3, [pc, #140]	; (1000257c <runtime_init+0xb8>)
100024f0:	4a27      	ldr	r2, [pc, #156]	; (10002590 <runtime_init+0xcc>)
100024f2:	601a      	str	r2, [r3, #0]
100024f4:	4b23      	ldr	r3, [pc, #140]	; (10002584 <runtime_init+0xc0>)
100024f6:	689b      	ldr	r3, [r3, #8]
100024f8:	43db      	mvns	r3, r3
100024fa:	01db      	lsls	r3, r3, #7
100024fc:	d1fa      	bne.n	100024f4 <runtime_init+0x30>
100024fe:	4b25      	ldr	r3, [pc, #148]	; (10002594 <runtime_init+0xd0>)
10002500:	2240      	movs	r2, #64	; 0x40
10002502:	679a      	str	r2, [r3, #120]	; 0x78
10002504:	675a      	str	r2, [r3, #116]	; 0x74
10002506:	671a      	str	r2, [r3, #112]	; 0x70
10002508:	66da      	str	r2, [r3, #108]	; 0x6c
1000250a:	4c23      	ldr	r4, [pc, #140]	; (10002598 <runtime_init+0xd4>)
1000250c:	e009      	b.n	10002522 <runtime_init+0x5e>
1000250e:	4b23      	ldr	r3, [pc, #140]	; (1000259c <runtime_init+0xd8>)
10002510:	4a23      	ldr	r2, [pc, #140]	; (100025a0 <runtime_init+0xdc>)
10002512:	2187      	movs	r1, #135	; 0x87
10002514:	4823      	ldr	r0, [pc, #140]	; (100025a4 <runtime_init+0xe0>)
10002516:	f7ff ffb7 	bl	10002488 <__assert_func>
1000251a:	0020      	movs	r0, r4
1000251c:	f7fe fb4a 	bl	10000bb4 <mutex_init>
10002520:	3408      	adds	r4, #8
10002522:	4b21      	ldr	r3, [pc, #132]	; (100025a8 <runtime_init+0xe4>)
10002524:	429c      	cmp	r4, r3
10002526:	d209      	bcs.n	1000253c <runtime_init+0x78>
10002528:	6823      	ldr	r3, [r4, #0]
1000252a:	2b00      	cmp	r3, #0
1000252c:	d0f5      	beq.n	1000251a <runtime_init+0x56>
1000252e:	2b01      	cmp	r3, #1
10002530:	d1ed      	bne.n	1000250e <runtime_init+0x4a>
10002532:	0020      	movs	r0, r4
10002534:	f7fe fb4b 	bl	10000bce <recursive_mutex_init>
10002538:	3408      	adds	r4, #8
1000253a:	e7f2      	b.n	10002522 <runtime_init+0x5e>
1000253c:	4c1b      	ldr	r4, [pc, #108]	; (100025ac <runtime_init+0xe8>)
1000253e:	68a1      	ldr	r1, [r4, #8]
10002540:	4d1b      	ldr	r5, [pc, #108]	; (100025b0 <runtime_init+0xec>)
10002542:	22c0      	movs	r2, #192	; 0xc0
10002544:	0028      	movs	r0, r5
10002546:	f001 fd55 	bl	10003ff4 <__wrap___aeabi_memcpy>
1000254a:	60a5      	str	r5, [r4, #8]
1000254c:	f3ef 8305 	mrs	r3, IPSR
10002550:	2b00      	cmp	r3, #0
10002552:	d000      	beq.n	10002556 <runtime_init+0x92>
10002554:	be00      	bkpt	0x0000
10002556:	f7fd ffa5 	bl	100004a4 <spin_locks_reset>
1000255a:	f7fe fb01 	bl	10000b60 <irq_init_priorities>
1000255e:	f7fe fe99 	bl	10001294 <alarm_pool_init_default>
10002562:	4c14      	ldr	r4, [pc, #80]	; (100025b4 <runtime_init+0xf0>)
10002564:	e001      	b.n	1000256a <runtime_init+0xa6>
10002566:	cc08      	ldmia	r4!, {r3}
10002568:	4798      	blx	r3
1000256a:	4b13      	ldr	r3, [pc, #76]	; (100025b8 <runtime_init+0xf4>)
1000256c:	429c      	cmp	r4, r3
1000256e:	d3fa      	bcc.n	10002566 <runtime_init+0xa2>
10002570:	bd70      	pop	{r4, r5, r6, pc}
10002572:	46c0      	nop			; (mov r8, r8)
10002574:	4000e000 	.word	0x4000e000
10002578:	fefbcdbf 	.word	0xfefbcdbf
1000257c:	4000f000 	.word	0x4000f000
10002580:	003c7ffe 	.word	0x003c7ffe
10002584:	4000c000 	.word	0x4000c000
10002588:	20000cb0 	.word	0x20000cb0
1000258c:	20000cc0 	.word	0x20000cc0
10002590:	01ffffff 	.word	0x01ffffff
10002594:	4001f000 	.word	0x4001f000
10002598:	20000ca8 	.word	0x20000ca8
1000259c:	1000780c 	.word	0x1000780c
100025a0:	1000789c 	.word	0x1000789c
100025a4:	1000782c 	.word	0x1000782c
100025a8:	20000cb0 	.word	0x20000cb0
100025ac:	e000ed00 	.word	0xe000ed00
100025b0:	20000000 	.word	0x20000000
100025b4:	20000cc0 	.word	0x20000cc0
100025b8:	20000cc8 	.word	0x20000cc8

100025bc <panic>:
100025bc:	b40f      	push	{r0, r1, r2, r3}
100025be:	b500      	push	{lr}
100025c0:	b083      	sub	sp, #12
100025c2:	4808      	ldr	r0, [pc, #32]	; (100025e4 <panic+0x28>)
100025c4:	f001 fe3e 	bl	10004244 <__wrap_puts>
100025c8:	9b04      	ldr	r3, [sp, #16]
100025ca:	2b00      	cmp	r3, #0
100025cc:	d007      	beq.n	100025de <panic+0x22>
100025ce:	a905      	add	r1, sp, #20
100025d0:	9101      	str	r1, [sp, #4]
100025d2:	0018      	movs	r0, r3
100025d4:	f001 fe46 	bl	10004264 <__wrap_vprintf>
100025d8:	4803      	ldr	r0, [pc, #12]	; (100025e8 <panic+0x2c>)
100025da:	f001 fe33 	bl	10004244 <__wrap_puts>
100025de:	2001      	movs	r0, #1
100025e0:	f7ff ff4c 	bl	1000247c <_exit>
100025e4:	1000788c 	.word	0x1000788c
100025e8:	10006c34 	.word	0x10006c34

100025ec <_out_null>:
100025ec:	4770      	bx	lr

100025ee <_out_fct>:
100025ee:	b510      	push	{r4, lr}
100025f0:	2800      	cmp	r0, #0
100025f2:	d002      	beq.n	100025fa <_out_fct+0xc>
100025f4:	680b      	ldr	r3, [r1, #0]
100025f6:	6849      	ldr	r1, [r1, #4]
100025f8:	4798      	blx	r3
100025fa:	bd10      	pop	{r4, pc}

100025fc <_atoi>:
100025fc:	0001      	movs	r1, r0
100025fe:	2000      	movs	r0, #0
10002600:	e007      	b.n	10002612 <_atoi+0x16>
10002602:	0083      	lsls	r3, r0, #2
10002604:	181b      	adds	r3, r3, r0
10002606:	005b      	lsls	r3, r3, #1
10002608:	1c50      	adds	r0, r2, #1
1000260a:	6008      	str	r0, [r1, #0]
1000260c:	7810      	ldrb	r0, [r2, #0]
1000260e:	18c0      	adds	r0, r0, r3
10002610:	3830      	subs	r0, #48	; 0x30
10002612:	680a      	ldr	r2, [r1, #0]
10002614:	7813      	ldrb	r3, [r2, #0]
10002616:	3b30      	subs	r3, #48	; 0x30
10002618:	b2db      	uxtb	r3, r3
1000261a:	2b09      	cmp	r3, #9
1000261c:	d9f1      	bls.n	10002602 <_atoi+0x6>
1000261e:	4770      	bx	lr

10002620 <_out_rev>:
10002620:	b5f0      	push	{r4, r5, r6, r7, lr}
10002622:	46de      	mov	lr, fp
10002624:	4657      	mov	r7, sl
10002626:	464e      	mov	r6, r9
10002628:	4645      	mov	r5, r8
1000262a:	b5e0      	push	{r5, r6, r7, lr}
1000262c:	b083      	sub	sp, #12
1000262e:	4693      	mov	fp, r2
10002630:	001f      	movs	r7, r3
10002632:	9b0c      	ldr	r3, [sp, #48]	; 0x30
10002634:	469a      	mov	sl, r3
10002636:	9c0d      	ldr	r4, [sp, #52]	; 0x34
10002638:	9b0e      	ldr	r3, [sp, #56]	; 0x38
1000263a:	4699      	mov	r9, r3
1000263c:	9b0f      	ldr	r3, [sp, #60]	; 0x3c
1000263e:	079b      	lsls	r3, r3, #30
10002640:	d003      	beq.n	1000264a <_out_rev+0x2a>
10002642:	46b8      	mov	r8, r7
10002644:	000f      	movs	r7, r1
10002646:	0006      	movs	r6, r0
10002648:	e022      	b.n	10002690 <_out_rev+0x70>
1000264a:	9201      	str	r2, [sp, #4]
1000264c:	46a3      	mov	fp, r4
1000264e:	4688      	mov	r8, r1
10002650:	464e      	mov	r6, r9
10002652:	46b9      	mov	r9, r7
10002654:	0007      	movs	r7, r0
10002656:	42b4      	cmp	r4, r6
10002658:	d207      	bcs.n	1000266a <_out_rev+0x4a>
1000265a:	1c55      	adds	r5, r2, #1
1000265c:	464b      	mov	r3, r9
1000265e:	4641      	mov	r1, r8
10002660:	2020      	movs	r0, #32
10002662:	47b8      	blx	r7
10002664:	3401      	adds	r4, #1
10002666:	002a      	movs	r2, r5
10002668:	e7f5      	b.n	10002656 <_out_rev+0x36>
1000266a:	003d      	movs	r5, r7
1000266c:	464f      	mov	r7, r9
1000266e:	465c      	mov	r4, fp
10002670:	9b01      	ldr	r3, [sp, #4]
10002672:	469b      	mov	fp, r3
10002674:	46b1      	mov	r9, r6
10002676:	4646      	mov	r6, r8
10002678:	46b8      	mov	r8, r7
1000267a:	0037      	movs	r7, r6
1000267c:	002e      	movs	r6, r5
1000267e:	e007      	b.n	10002690 <_out_rev+0x70>
10002680:	3c01      	subs	r4, #1
10002682:	1c55      	adds	r5, r2, #1
10002684:	4653      	mov	r3, sl
10002686:	5d18      	ldrb	r0, [r3, r4]
10002688:	4643      	mov	r3, r8
1000268a:	0039      	movs	r1, r7
1000268c:	47b0      	blx	r6
1000268e:	002a      	movs	r2, r5
10002690:	2c00      	cmp	r4, #0
10002692:	d1f5      	bne.n	10002680 <_out_rev+0x60>
10002694:	0035      	movs	r5, r6
10002696:	003e      	movs	r6, r7
10002698:	4647      	mov	r7, r8
1000269a:	9b0f      	ldr	r3, [sp, #60]	; 0x3c
1000269c:	079b      	lsls	r3, r3, #30
1000269e:	d407      	bmi.n	100026b0 <_out_rev+0x90>
100026a0:	0010      	movs	r0, r2
100026a2:	b003      	add	sp, #12
100026a4:	bcf0      	pop	{r4, r5, r6, r7}
100026a6:	46bb      	mov	fp, r7
100026a8:	46b2      	mov	sl, r6
100026aa:	46a9      	mov	r9, r5
100026ac:	46a0      	mov	r8, r4
100026ae:	bdf0      	pop	{r4, r5, r6, r7, pc}
100026b0:	46b0      	mov	r8, r6
100026b2:	464e      	mov	r6, r9
100026b4:	46b9      	mov	r9, r7
100026b6:	002f      	movs	r7, r5
100026b8:	465d      	mov	r5, fp
100026ba:	1b53      	subs	r3, r2, r5
100026bc:	42b3      	cmp	r3, r6
100026be:	d2ef      	bcs.n	100026a0 <_out_rev+0x80>
100026c0:	1c54      	adds	r4, r2, #1
100026c2:	464b      	mov	r3, r9
100026c4:	4641      	mov	r1, r8
100026c6:	2020      	movs	r0, #32
100026c8:	47b8      	blx	r7
100026ca:	0022      	movs	r2, r4
100026cc:	e7f5      	b.n	100026ba <_out_rev+0x9a>

100026ce <_ntoa_format>:
100026ce:	b5f0      	push	{r4, r5, r6, r7, lr}
100026d0:	46ce      	mov	lr, r9
100026d2:	4647      	mov	r7, r8
100026d4:	b580      	push	{r7, lr}
100026d6:	b085      	sub	sp, #20
100026d8:	4694      	mov	ip, r2
100026da:	4698      	mov	r8, r3
100026dc:	9d0c      	ldr	r5, [sp, #48]	; 0x30
100026de:	9c0d      	ldr	r4, [sp, #52]	; 0x34
100026e0:	ab0e      	add	r3, sp, #56	; 0x38
100026e2:	781b      	ldrb	r3, [r3, #0]
100026e4:	4699      	mov	r9, r3
100026e6:	9a10      	ldr	r2, [sp, #64]	; 0x40
100026e8:	9b11      	ldr	r3, [sp, #68]	; 0x44
100026ea:	9e12      	ldr	r6, [sp, #72]	; 0x48
100026ec:	07b7      	lsls	r7, r6, #30
100026ee:	d41c      	bmi.n	1000272a <_ntoa_format+0x5c>
100026f0:	2b00      	cmp	r3, #0
100026f2:	d00c      	beq.n	1000270e <_ntoa_format+0x40>
100026f4:	07f7      	lsls	r7, r6, #31
100026f6:	d50a      	bpl.n	1000270e <_ntoa_format+0x40>
100026f8:	464f      	mov	r7, r9
100026fa:	2f00      	cmp	r7, #0
100026fc:	d102      	bne.n	10002704 <_ntoa_format+0x36>
100026fe:	370c      	adds	r7, #12
10002700:	4237      	tst	r7, r6
10002702:	d004      	beq.n	1000270e <_ntoa_format+0x40>
10002704:	3b01      	subs	r3, #1
10002706:	e002      	b.n	1000270e <_ntoa_format+0x40>
10002708:	2730      	movs	r7, #48	; 0x30
1000270a:	552f      	strb	r7, [r5, r4]
1000270c:	3401      	adds	r4, #1
1000270e:	4294      	cmp	r4, r2
10002710:	d201      	bcs.n	10002716 <_ntoa_format+0x48>
10002712:	2c1f      	cmp	r4, #31
10002714:	d9f8      	bls.n	10002708 <_ntoa_format+0x3a>
10002716:	07f7      	lsls	r7, r6, #31
10002718:	d507      	bpl.n	1000272a <_ntoa_format+0x5c>
1000271a:	429c      	cmp	r4, r3
1000271c:	d205      	bcs.n	1000272a <_ntoa_format+0x5c>
1000271e:	2c1f      	cmp	r4, #31
10002720:	d803      	bhi.n	1000272a <_ntoa_format+0x5c>
10002722:	2730      	movs	r7, #48	; 0x30
10002724:	552f      	strb	r7, [r5, r4]
10002726:	3401      	adds	r4, #1
10002728:	e7f5      	b.n	10002716 <_ntoa_format+0x48>
1000272a:	06f7      	lsls	r7, r6, #27
1000272c:	d515      	bpl.n	1000275a <_ntoa_format+0x8c>
1000272e:	0577      	lsls	r7, r6, #21
10002730:	d405      	bmi.n	1000273e <_ntoa_format+0x70>
10002732:	2c00      	cmp	r4, #0
10002734:	d003      	beq.n	1000273e <_ntoa_format+0x70>
10002736:	4294      	cmp	r4, r2
10002738:	d024      	beq.n	10002784 <_ntoa_format+0xb6>
1000273a:	429c      	cmp	r4, r3
1000273c:	d022      	beq.n	10002784 <_ntoa_format+0xb6>
1000273e:	9a0f      	ldr	r2, [sp, #60]	; 0x3c
10002740:	2a10      	cmp	r2, #16
10002742:	d02b      	beq.n	1000279c <_ntoa_format+0xce>
10002744:	9a0f      	ldr	r2, [sp, #60]	; 0x3c
10002746:	2a10      	cmp	r2, #16
10002748:	d030      	beq.n	100027ac <_ntoa_format+0xde>
1000274a:	9a0f      	ldr	r2, [sp, #60]	; 0x3c
1000274c:	2a02      	cmp	r2, #2
1000274e:	d035      	beq.n	100027bc <_ntoa_format+0xee>
10002750:	2c1f      	cmp	r4, #31
10002752:	d802      	bhi.n	1000275a <_ntoa_format+0x8c>
10002754:	2230      	movs	r2, #48	; 0x30
10002756:	552a      	strb	r2, [r5, r4]
10002758:	3401      	adds	r4, #1
1000275a:	2c1f      	cmp	r4, #31
1000275c:	d805      	bhi.n	1000276a <_ntoa_format+0x9c>
1000275e:	464a      	mov	r2, r9
10002760:	2a00      	cmp	r2, #0
10002762:	d031      	beq.n	100027c8 <_ntoa_format+0xfa>
10002764:	222d      	movs	r2, #45	; 0x2d
10002766:	552a      	strb	r2, [r5, r4]
10002768:	3401      	adds	r4, #1
1000276a:	9603      	str	r6, [sp, #12]
1000276c:	9302      	str	r3, [sp, #8]
1000276e:	9401      	str	r4, [sp, #4]
10002770:	9500      	str	r5, [sp, #0]
10002772:	4643      	mov	r3, r8
10002774:	4662      	mov	r2, ip
10002776:	f7ff ff53 	bl	10002620 <_out_rev>
1000277a:	b005      	add	sp, #20
1000277c:	bcc0      	pop	{r6, r7}
1000277e:	46b9      	mov	r9, r7
10002780:	46b0      	mov	r8, r6
10002782:	bdf0      	pop	{r4, r5, r6, r7, pc}
10002784:	1e62      	subs	r2, r4, #1
10002786:	2c01      	cmp	r4, #1
10002788:	d006      	beq.n	10002798 <_ntoa_format+0xca>
1000278a:	9f0f      	ldr	r7, [sp, #60]	; 0x3c
1000278c:	2f10      	cmp	r7, #16
1000278e:	d001      	beq.n	10002794 <_ntoa_format+0xc6>
10002790:	0014      	movs	r4, r2
10002792:	e7d4      	b.n	1000273e <_ntoa_format+0x70>
10002794:	3c02      	subs	r4, #2
10002796:	e7d2      	b.n	1000273e <_ntoa_format+0x70>
10002798:	0014      	movs	r4, r2
1000279a:	e7d0      	b.n	1000273e <_ntoa_format+0x70>
1000279c:	06b2      	lsls	r2, r6, #26
1000279e:	d4d1      	bmi.n	10002744 <_ntoa_format+0x76>
100027a0:	2c1f      	cmp	r4, #31
100027a2:	d8cf      	bhi.n	10002744 <_ntoa_format+0x76>
100027a4:	2278      	movs	r2, #120	; 0x78
100027a6:	552a      	strb	r2, [r5, r4]
100027a8:	3401      	adds	r4, #1
100027aa:	e7d1      	b.n	10002750 <_ntoa_format+0x82>
100027ac:	06b2      	lsls	r2, r6, #26
100027ae:	d5cc      	bpl.n	1000274a <_ntoa_format+0x7c>
100027b0:	2c1f      	cmp	r4, #31
100027b2:	d8ca      	bhi.n	1000274a <_ntoa_format+0x7c>
100027b4:	2258      	movs	r2, #88	; 0x58
100027b6:	552a      	strb	r2, [r5, r4]
100027b8:	3401      	adds	r4, #1
100027ba:	e7c9      	b.n	10002750 <_ntoa_format+0x82>
100027bc:	2c1f      	cmp	r4, #31
100027be:	d8c7      	bhi.n	10002750 <_ntoa_format+0x82>
100027c0:	3260      	adds	r2, #96	; 0x60
100027c2:	552a      	strb	r2, [r5, r4]
100027c4:	3401      	adds	r4, #1
100027c6:	e7c3      	b.n	10002750 <_ntoa_format+0x82>
100027c8:	0772      	lsls	r2, r6, #29
100027ca:	d503      	bpl.n	100027d4 <_ntoa_format+0x106>
100027cc:	222b      	movs	r2, #43	; 0x2b
100027ce:	552a      	strb	r2, [r5, r4]
100027d0:	3401      	adds	r4, #1
100027d2:	e7ca      	b.n	1000276a <_ntoa_format+0x9c>
100027d4:	0732      	lsls	r2, r6, #28
100027d6:	d5c8      	bpl.n	1000276a <_ntoa_format+0x9c>
100027d8:	2220      	movs	r2, #32
100027da:	552a      	strb	r2, [r5, r4]
100027dc:	3401      	adds	r4, #1
100027de:	e7c4      	b.n	1000276a <_ntoa_format+0x9c>

100027e0 <_ntoa_long>:
100027e0:	b5f0      	push	{r4, r5, r6, r7, lr}
100027e2:	46de      	mov	lr, fp
100027e4:	4657      	mov	r7, sl
100027e6:	464e      	mov	r6, r9
100027e8:	4645      	mov	r5, r8
100027ea:	b5e0      	push	{r5, r6, r7, lr}
100027ec:	b093      	sub	sp, #76	; 0x4c
100027ee:	4681      	mov	r9, r0
100027f0:	468a      	mov	sl, r1
100027f2:	9208      	str	r2, [sp, #32]
100027f4:	9309      	str	r3, [sp, #36]	; 0x24
100027f6:	ab1c      	add	r3, sp, #112	; 0x70
100027f8:	cb10      	ldmia	r3!, {r4}
100027fa:	781b      	ldrb	r3, [r3, #0]
100027fc:	469b      	mov	fp, r3
100027fe:	9d1e      	ldr	r5, [sp, #120]	; 0x78
10002800:	9b21      	ldr	r3, [sp, #132]	; 0x84
10002802:	4698      	mov	r8, r3
10002804:	2c00      	cmp	r4, #0
10002806:	d103      	bne.n	10002810 <_ntoa_long+0x30>
10002808:	2310      	movs	r3, #16
1000280a:	4642      	mov	r2, r8
1000280c:	439a      	bics	r2, r3
1000280e:	4690      	mov	r8, r2
10002810:	2380      	movs	r3, #128	; 0x80
10002812:	00db      	lsls	r3, r3, #3
10002814:	4646      	mov	r6, r8
10002816:	401e      	ands	r6, r3
10002818:	4642      	mov	r2, r8
1000281a:	421a      	tst	r2, r3
1000281c:	d012      	beq.n	10002844 <_ntoa_long+0x64>
1000281e:	2c00      	cmp	r4, #0
10002820:	d022      	beq.n	10002868 <_ntoa_long+0x88>
10002822:	2600      	movs	r6, #0
10002824:	e00e      	b.n	10002844 <_ntoa_long+0x64>
10002826:	3330      	adds	r3, #48	; 0x30
10002828:	b2d9      	uxtb	r1, r3
1000282a:	1c77      	adds	r7, r6, #1
1000282c:	ab0a      	add	r3, sp, #40	; 0x28
1000282e:	5599      	strb	r1, [r3, r6]
10002830:	0029      	movs	r1, r5
10002832:	0020      	movs	r0, r4
10002834:	f000 ffd6 	bl	100037e4 <__wrap___aeabi_uidiv>
10002838:	42ac      	cmp	r4, r5
1000283a:	d316      	bcc.n	1000286a <_ntoa_long+0x8a>
1000283c:	2f1f      	cmp	r7, #31
1000283e:	d814      	bhi.n	1000286a <_ntoa_long+0x8a>
10002840:	003e      	movs	r6, r7
10002842:	0004      	movs	r4, r0
10002844:	0029      	movs	r1, r5
10002846:	0020      	movs	r0, r4
10002848:	f000 ffcc 	bl	100037e4 <__wrap___aeabi_uidiv>
1000284c:	b2cb      	uxtb	r3, r1
1000284e:	2b09      	cmp	r3, #9
10002850:	d9e9      	bls.n	10002826 <_ntoa_long+0x46>
10002852:	4642      	mov	r2, r8
10002854:	0692      	lsls	r2, r2, #26
10002856:	d505      	bpl.n	10002864 <_ntoa_long+0x84>
10002858:	2141      	movs	r1, #65	; 0x41
1000285a:	18c9      	adds	r1, r1, r3
1000285c:	b2c9      	uxtb	r1, r1
1000285e:	390a      	subs	r1, #10
10002860:	b2c9      	uxtb	r1, r1
10002862:	e7e2      	b.n	1000282a <_ntoa_long+0x4a>
10002864:	2161      	movs	r1, #97	; 0x61
10002866:	e7f8      	b.n	1000285a <_ntoa_long+0x7a>
10002868:	0027      	movs	r7, r4
1000286a:	4643      	mov	r3, r8
1000286c:	9306      	str	r3, [sp, #24]
1000286e:	9b20      	ldr	r3, [sp, #128]	; 0x80
10002870:	9305      	str	r3, [sp, #20]
10002872:	9b1f      	ldr	r3, [sp, #124]	; 0x7c
10002874:	9304      	str	r3, [sp, #16]
10002876:	9503      	str	r5, [sp, #12]
10002878:	465b      	mov	r3, fp
1000287a:	9302      	str	r3, [sp, #8]
1000287c:	9701      	str	r7, [sp, #4]
1000287e:	ab0a      	add	r3, sp, #40	; 0x28
10002880:	9300      	str	r3, [sp, #0]
10002882:	9b09      	ldr	r3, [sp, #36]	; 0x24
10002884:	9a08      	ldr	r2, [sp, #32]
10002886:	4651      	mov	r1, sl
10002888:	4648      	mov	r0, r9
1000288a:	f7ff ff20 	bl	100026ce <_ntoa_format>
1000288e:	b013      	add	sp, #76	; 0x4c
10002890:	bcf0      	pop	{r4, r5, r6, r7}
10002892:	46bb      	mov	fp, r7
10002894:	46b2      	mov	sl, r6
10002896:	46a9      	mov	r9, r5
10002898:	46a0      	mov	r8, r4
1000289a:	bdf0      	pop	{r4, r5, r6, r7, pc}

1000289c <_ntoa_long_long>:
1000289c:	b5f0      	push	{r4, r5, r6, r7, lr}
1000289e:	46de      	mov	lr, fp
100028a0:	4657      	mov	r7, sl
100028a2:	464e      	mov	r6, r9
100028a4:	4645      	mov	r5, r8
100028a6:	b5e0      	push	{r5, r6, r7, lr}
100028a8:	b095      	sub	sp, #84	; 0x54
100028aa:	9008      	str	r0, [sp, #32]
100028ac:	9109      	str	r1, [sp, #36]	; 0x24
100028ae:	920a      	str	r2, [sp, #40]	; 0x28
100028b0:	930b      	str	r3, [sp, #44]	; 0x2c
100028b2:	9e1e      	ldr	r6, [sp, #120]	; 0x78
100028b4:	9c1f      	ldr	r4, [sp, #124]	; 0x7c
100028b6:	ab20      	add	r3, sp, #128	; 0x80
100028b8:	781b      	ldrb	r3, [r3, #0]
100028ba:	469b      	mov	fp, r3
100028bc:	9b22      	ldr	r3, [sp, #136]	; 0x88
100028be:	4699      	mov	r9, r3
100028c0:	9d23      	ldr	r5, [sp, #140]	; 0x8c
100028c2:	9b26      	ldr	r3, [sp, #152]	; 0x98
100028c4:	469a      	mov	sl, r3
100028c6:	0033      	movs	r3, r6
100028c8:	4323      	orrs	r3, r4
100028ca:	d103      	bne.n	100028d4 <_ntoa_long_long+0x38>
100028cc:	3310      	adds	r3, #16
100028ce:	4652      	mov	r2, sl
100028d0:	439a      	bics	r2, r3
100028d2:	4692      	mov	sl, r2
100028d4:	2380      	movs	r3, #128	; 0x80
100028d6:	00db      	lsls	r3, r3, #3
100028d8:	4657      	mov	r7, sl
100028da:	401f      	ands	r7, r3
100028dc:	4652      	mov	r2, sl
100028de:	421a      	tst	r2, r3
100028e0:	d019      	beq.n	10002916 <_ntoa_long_long+0x7a>
100028e2:	0033      	movs	r3, r6
100028e4:	4323      	orrs	r3, r4
100028e6:	d02d      	beq.n	10002944 <_ntoa_long_long+0xa8>
100028e8:	2700      	movs	r7, #0
100028ea:	e014      	b.n	10002916 <_ntoa_long_long+0x7a>
100028ec:	3330      	adds	r3, #48	; 0x30
100028ee:	b2da      	uxtb	r2, r3
100028f0:	1c7b      	adds	r3, r7, #1
100028f2:	4698      	mov	r8, r3
100028f4:	ab0c      	add	r3, sp, #48	; 0x30
100028f6:	55da      	strb	r2, [r3, r7]
100028f8:	464a      	mov	r2, r9
100028fa:	002b      	movs	r3, r5
100028fc:	0030      	movs	r0, r6
100028fe:	0021      	movs	r1, r4
10002900:	f000 ffae 	bl	10003860 <__wrap___aeabi_uldivmod>
10002904:	42a5      	cmp	r5, r4
10002906:	d81f      	bhi.n	10002948 <_ntoa_long_long+0xac>
10002908:	d019      	beq.n	1000293e <_ntoa_long_long+0xa2>
1000290a:	4643      	mov	r3, r8
1000290c:	2b1f      	cmp	r3, #31
1000290e:	d81b      	bhi.n	10002948 <_ntoa_long_long+0xac>
10002910:	4647      	mov	r7, r8
10002912:	0006      	movs	r6, r0
10002914:	000c      	movs	r4, r1
10002916:	464a      	mov	r2, r9
10002918:	002b      	movs	r3, r5
1000291a:	0030      	movs	r0, r6
1000291c:	0021      	movs	r1, r4
1000291e:	f000 ff9f 	bl	10003860 <__wrap___aeabi_uldivmod>
10002922:	b2d3      	uxtb	r3, r2
10002924:	2b09      	cmp	r3, #9
10002926:	d9e1      	bls.n	100028ec <_ntoa_long_long+0x50>
10002928:	4652      	mov	r2, sl
1000292a:	0692      	lsls	r2, r2, #26
1000292c:	d505      	bpl.n	1000293a <_ntoa_long_long+0x9e>
1000292e:	2241      	movs	r2, #65	; 0x41
10002930:	18d2      	adds	r2, r2, r3
10002932:	b2d2      	uxtb	r2, r2
10002934:	3a0a      	subs	r2, #10
10002936:	b2d2      	uxtb	r2, r2
10002938:	e7da      	b.n	100028f0 <_ntoa_long_long+0x54>
1000293a:	2261      	movs	r2, #97	; 0x61
1000293c:	e7f8      	b.n	10002930 <_ntoa_long_long+0x94>
1000293e:	45b1      	cmp	r9, r6
10002940:	d9e3      	bls.n	1000290a <_ntoa_long_long+0x6e>
10002942:	e001      	b.n	10002948 <_ntoa_long_long+0xac>
10002944:	2300      	movs	r3, #0
10002946:	4698      	mov	r8, r3
10002948:	4653      	mov	r3, sl
1000294a:	9306      	str	r3, [sp, #24]
1000294c:	9b25      	ldr	r3, [sp, #148]	; 0x94
1000294e:	9305      	str	r3, [sp, #20]
10002950:	9b24      	ldr	r3, [sp, #144]	; 0x90
10002952:	9304      	str	r3, [sp, #16]
10002954:	464b      	mov	r3, r9
10002956:	9303      	str	r3, [sp, #12]
10002958:	465b      	mov	r3, fp
1000295a:	9302      	str	r3, [sp, #8]
1000295c:	4643      	mov	r3, r8
1000295e:	9301      	str	r3, [sp, #4]
10002960:	ab0c      	add	r3, sp, #48	; 0x30
10002962:	9300      	str	r3, [sp, #0]
10002964:	9b0b      	ldr	r3, [sp, #44]	; 0x2c
10002966:	9a0a      	ldr	r2, [sp, #40]	; 0x28
10002968:	9909      	ldr	r1, [sp, #36]	; 0x24
1000296a:	9808      	ldr	r0, [sp, #32]
1000296c:	f7ff feaf 	bl	100026ce <_ntoa_format>
10002970:	b015      	add	sp, #84	; 0x54
10002972:	bcf0      	pop	{r4, r5, r6, r7}
10002974:	46bb      	mov	fp, r7
10002976:	46b2      	mov	sl, r6
10002978:	46a9      	mov	r9, r5
1000297a:	46a0      	mov	r8, r4
1000297c:	bdf0      	pop	{r4, r5, r6, r7, pc}
	...

10002980 <_etoa>:
10002980:	b5f0      	push	{r4, r5, r6, r7, lr}
10002982:	46de      	mov	lr, fp
10002984:	4657      	mov	r7, sl
10002986:	464e      	mov	r6, r9
10002988:	4645      	mov	r5, r8
1000298a:	b5e0      	push	{r5, r6, r7, lr}
1000298c:	b091      	sub	sp, #68	; 0x44
1000298e:	4683      	mov	fp, r0
10002990:	468a      	mov	sl, r1
10002992:	920c      	str	r2, [sp, #48]	; 0x30
10002994:	4698      	mov	r8, r3
10002996:	9c1a      	ldr	r4, [sp, #104]	; 0x68
10002998:	9408      	str	r4, [sp, #32]
1000299a:	9d1b      	ldr	r5, [sp, #108]	; 0x6c
1000299c:	9509      	str	r5, [sp, #36]	; 0x24
1000299e:	0022      	movs	r2, r4
100029a0:	002b      	movs	r3, r5
100029a2:	0020      	movs	r0, r4
100029a4:	0029      	movs	r1, r5
100029a6:	f001 f9d6 	bl	10003d56 <__wrap___aeabi_dcmpun>
100029aa:	2800      	cmp	r0, #0
100029ac:	d000      	beq.n	100029b0 <_etoa+0x30>
100029ae:	e0e5      	b.n	10002b7c <_etoa+0x1fc>
100029b0:	2201      	movs	r2, #1
100029b2:	4252      	negs	r2, r2
100029b4:	4bd7      	ldr	r3, [pc, #860]	; (10002d14 <_etoa+0x394>)
100029b6:	0020      	movs	r0, r4
100029b8:	0029      	movs	r1, r5
100029ba:	f001 f9c7 	bl	10003d4c <__wrap___aeabi_dcmpgt>
100029be:	2800      	cmp	r0, #0
100029c0:	d000      	beq.n	100029c4 <_etoa+0x44>
100029c2:	e0db      	b.n	10002b7c <_etoa+0x1fc>
100029c4:	2201      	movs	r2, #1
100029c6:	4252      	negs	r2, r2
100029c8:	4bd3      	ldr	r3, [pc, #844]	; (10002d18 <_etoa+0x398>)
100029ca:	0020      	movs	r0, r4
100029cc:	0029      	movs	r1, r5
100029ce:	f001 f9a7 	bl	10003d20 <__wrap___aeabi_dcmplt>
100029d2:	2800      	cmp	r0, #0
100029d4:	d000      	beq.n	100029d8 <_etoa+0x58>
100029d6:	e0d1      	b.n	10002b7c <_etoa+0x1fc>
100029d8:	2200      	movs	r2, #0
100029da:	2300      	movs	r3, #0
100029dc:	9e08      	ldr	r6, [sp, #32]
100029de:	0030      	movs	r0, r6
100029e0:	9d09      	ldr	r5, [sp, #36]	; 0x24
100029e2:	0029      	movs	r1, r5
100029e4:	f001 f99c 	bl	10003d20 <__wrap___aeabi_dcmplt>
100029e8:	2800      	cmp	r0, #0
100029ea:	d000      	beq.n	100029ee <_etoa+0x6e>
100029ec:	e0dd      	b.n	10002baa <_etoa+0x22a>
100029ee:	9808      	ldr	r0, [sp, #32]
100029f0:	9909      	ldr	r1, [sp, #36]	; 0x24
100029f2:	9006      	str	r0, [sp, #24]
100029f4:	9107      	str	r1, [sp, #28]
100029f6:	2380      	movs	r3, #128	; 0x80
100029f8:	00db      	lsls	r3, r3, #3
100029fa:	9a1e      	ldr	r2, [sp, #120]	; 0x78
100029fc:	401a      	ands	r2, r3
100029fe:	920d      	str	r2, [sp, #52]	; 0x34
10002a00:	9a1e      	ldr	r2, [sp, #120]	; 0x78
10002a02:	421a      	tst	r2, r3
10002a04:	d101      	bne.n	10002a0a <_etoa+0x8a>
10002a06:	2306      	movs	r3, #6
10002a08:	931c      	str	r3, [sp, #112]	; 0x70
10002a0a:	9806      	ldr	r0, [sp, #24]
10002a0c:	9907      	ldr	r1, [sp, #28]
10002a0e:	0004      	movs	r4, r0
10002a10:	000d      	movs	r5, r1
10002a12:	000a      	movs	r2, r1
10002a14:	0006      	movs	r6, r0
10002a16:	4302      	orrs	r2, r0
10002a18:	d100      	bne.n	10002a1c <_etoa+0x9c>
10002a1a:	e0d1      	b.n	10002bc0 <_etoa+0x240>
10002a1c:	0d08      	lsrs	r0, r1, #20
10002a1e:	0540      	lsls	r0, r0, #21
10002a20:	0d40      	lsrs	r0, r0, #21
10002a22:	4cbe      	ldr	r4, [pc, #760]	; (10002d1c <_etoa+0x39c>)
10002a24:	46a4      	mov	ip, r4
10002a26:	4460      	add	r0, ip
10002a28:	030a      	lsls	r2, r1, #12
10002a2a:	0b12      	lsrs	r2, r2, #12
10002a2c:	4bbc      	ldr	r3, [pc, #752]	; (10002d20 <_etoa+0x3a0>)
10002a2e:	4313      	orrs	r3, r2
10002a30:	001f      	movs	r7, r3
10002a32:	f001 f9a3 	bl	10003d7c <__wrap___aeabi_i2d>
10002a36:	4abb      	ldr	r2, [pc, #748]	; (10002d24 <_etoa+0x3a4>)
10002a38:	4bbb      	ldr	r3, [pc, #748]	; (10002d28 <_etoa+0x3a8>)
10002a3a:	f001 f932 	bl	10003ca2 <__wrap___aeabi_dmul>
10002a3e:	4abb      	ldr	r2, [pc, #748]	; (10002d2c <_etoa+0x3ac>)
10002a40:	4bbb      	ldr	r3, [pc, #748]	; (10002d30 <_etoa+0x3b0>)
10002a42:	f001 f90f 	bl	10003c64 <__wrap___aeabi_dadd>
10002a46:	0004      	movs	r4, r0
10002a48:	000d      	movs	r5, r1
10002a4a:	2200      	movs	r2, #0
10002a4c:	4bb9      	ldr	r3, [pc, #740]	; (10002d34 <_etoa+0x3b4>)
10002a4e:	0030      	movs	r0, r6
10002a50:	0039      	movs	r1, r7
10002a52:	f001 f902 	bl	10003c5a <__wrap___aeabi_dsub>
10002a56:	4ab8      	ldr	r2, [pc, #736]	; (10002d38 <_etoa+0x3b8>)
10002a58:	4bb8      	ldr	r3, [pc, #736]	; (10002d3c <_etoa+0x3bc>)
10002a5a:	f001 f922 	bl	10003ca2 <__wrap___aeabi_dmul>
10002a5e:	0002      	movs	r2, r0
10002a60:	000b      	movs	r3, r1
10002a62:	0020      	movs	r0, r4
10002a64:	0029      	movs	r1, r5
10002a66:	f001 f8fd 	bl	10003c64 <__wrap___aeabi_dadd>
10002a6a:	f001 f99f 	bl	10003dac <__wrap___aeabi_d2iz>
10002a6e:	4681      	mov	r9, r0
10002a70:	f001 f984 	bl	10003d7c <__wrap___aeabi_i2d>
10002a74:	0004      	movs	r4, r0
10002a76:	000d      	movs	r5, r1
10002a78:	4ab1      	ldr	r2, [pc, #708]	; (10002d40 <_etoa+0x3c0>)
10002a7a:	4bb2      	ldr	r3, [pc, #712]	; (10002d44 <_etoa+0x3c4>)
10002a7c:	f001 f911 	bl	10003ca2 <__wrap___aeabi_dmul>
10002a80:	2200      	movs	r2, #0
10002a82:	4bb1      	ldr	r3, [pc, #708]	; (10002d48 <_etoa+0x3c8>)
10002a84:	f001 f8ee 	bl	10003c64 <__wrap___aeabi_dadd>
10002a88:	f001 f990 	bl	10003dac <__wrap___aeabi_d2iz>
10002a8c:	0006      	movs	r6, r0
10002a8e:	4aaf      	ldr	r2, [pc, #700]	; (10002d4c <_etoa+0x3cc>)
10002a90:	4baf      	ldr	r3, [pc, #700]	; (10002d50 <_etoa+0x3d0>)
10002a92:	0020      	movs	r0, r4
10002a94:	0029      	movs	r1, r5
10002a96:	f001 f904 	bl	10003ca2 <__wrap___aeabi_dmul>
10002a9a:	0004      	movs	r4, r0
10002a9c:	000d      	movs	r5, r1
10002a9e:	0030      	movs	r0, r6
10002aa0:	f001 f96c 	bl	10003d7c <__wrap___aeabi_i2d>
10002aa4:	4aab      	ldr	r2, [pc, #684]	; (10002d54 <_etoa+0x3d4>)
10002aa6:	4bac      	ldr	r3, [pc, #688]	; (10002d58 <_etoa+0x3d8>)
10002aa8:	f001 f8fb 	bl	10003ca2 <__wrap___aeabi_dmul>
10002aac:	0002      	movs	r2, r0
10002aae:	000b      	movs	r3, r1
10002ab0:	0020      	movs	r0, r4
10002ab2:	0029      	movs	r1, r5
10002ab4:	f001 f8d1 	bl	10003c5a <__wrap___aeabi_dsub>
10002ab8:	0004      	movs	r4, r0
10002aba:	000d      	movs	r5, r1
10002abc:	0002      	movs	r2, r0
10002abe:	000b      	movs	r3, r1
10002ac0:	f001 f8ef 	bl	10003ca2 <__wrap___aeabi_dmul>
10002ac4:	900a      	str	r0, [sp, #40]	; 0x28
10002ac6:	910b      	str	r1, [sp, #44]	; 0x2c
10002ac8:	4ba4      	ldr	r3, [pc, #656]	; (10002d5c <_etoa+0x3dc>)
10002aca:	18f3      	adds	r3, r6, r3
10002acc:	2600      	movs	r6, #0
10002ace:	051f      	lsls	r7, r3, #20
10002ad0:	0022      	movs	r2, r4
10002ad2:	002b      	movs	r3, r5
10002ad4:	0020      	movs	r0, r4
10002ad6:	0029      	movs	r1, r5
10002ad8:	f001 f8c4 	bl	10003c64 <__wrap___aeabi_dadd>
10002adc:	900e      	str	r0, [sp, #56]	; 0x38
10002ade:	910f      	str	r1, [sp, #60]	; 0x3c
10002ae0:	0022      	movs	r2, r4
10002ae2:	002b      	movs	r3, r5
10002ae4:	2000      	movs	r0, #0
10002ae6:	2180      	movs	r1, #128	; 0x80
10002ae8:	05c9      	lsls	r1, r1, #23
10002aea:	f001 f8b6 	bl	10003c5a <__wrap___aeabi_dsub>
10002aee:	0004      	movs	r4, r0
10002af0:	000d      	movs	r5, r1
10002af2:	2200      	movs	r2, #0
10002af4:	4b9a      	ldr	r3, [pc, #616]	; (10002d60 <_etoa+0x3e0>)
10002af6:	980a      	ldr	r0, [sp, #40]	; 0x28
10002af8:	990b      	ldr	r1, [sp, #44]	; 0x2c
10002afa:	f001 f8b8 	bl	10003c6e <__wrap___aeabi_ddiv>
10002afe:	2200      	movs	r2, #0
10002b00:	4b98      	ldr	r3, [pc, #608]	; (10002d64 <_etoa+0x3e4>)
10002b02:	f001 f8af 	bl	10003c64 <__wrap___aeabi_dadd>
10002b06:	0002      	movs	r2, r0
10002b08:	000b      	movs	r3, r1
10002b0a:	980a      	ldr	r0, [sp, #40]	; 0x28
10002b0c:	990b      	ldr	r1, [sp, #44]	; 0x2c
10002b0e:	f001 f8ae 	bl	10003c6e <__wrap___aeabi_ddiv>
10002b12:	2200      	movs	r2, #0
10002b14:	4b94      	ldr	r3, [pc, #592]	; (10002d68 <_etoa+0x3e8>)
10002b16:	f001 f8a5 	bl	10003c64 <__wrap___aeabi_dadd>
10002b1a:	0002      	movs	r2, r0
10002b1c:	000b      	movs	r3, r1
10002b1e:	980a      	ldr	r0, [sp, #40]	; 0x28
10002b20:	990b      	ldr	r1, [sp, #44]	; 0x2c
10002b22:	f001 f8a4 	bl	10003c6e <__wrap___aeabi_ddiv>
10002b26:	0002      	movs	r2, r0
10002b28:	000b      	movs	r3, r1
10002b2a:	0020      	movs	r0, r4
10002b2c:	0029      	movs	r1, r5
10002b2e:	f001 f899 	bl	10003c64 <__wrap___aeabi_dadd>
10002b32:	0002      	movs	r2, r0
10002b34:	000b      	movs	r3, r1
10002b36:	980e      	ldr	r0, [sp, #56]	; 0x38
10002b38:	990f      	ldr	r1, [sp, #60]	; 0x3c
10002b3a:	f001 f898 	bl	10003c6e <__wrap___aeabi_ddiv>
10002b3e:	2200      	movs	r2, #0
10002b40:	4b77      	ldr	r3, [pc, #476]	; (10002d20 <_etoa+0x3a0>)
10002b42:	f001 f88f 	bl	10003c64 <__wrap___aeabi_dadd>
10002b46:	0032      	movs	r2, r6
10002b48:	003b      	movs	r3, r7
10002b4a:	f001 f8aa 	bl	10003ca2 <__wrap___aeabi_dmul>
10002b4e:	0006      	movs	r6, r0
10002b50:	000f      	movs	r7, r1
10002b52:	0004      	movs	r4, r0
10002b54:	000d      	movs	r5, r1
10002b56:	9a06      	ldr	r2, [sp, #24]
10002b58:	9b07      	ldr	r3, [sp, #28]
10002b5a:	f001 f8f7 	bl	10003d4c <__wrap___aeabi_dcmpgt>
10002b5e:	2800      	cmp	r0, #0
10002b60:	d030      	beq.n	10002bc4 <_etoa+0x244>
10002b62:	2301      	movs	r3, #1
10002b64:	425b      	negs	r3, r3
10002b66:	469c      	mov	ip, r3
10002b68:	44e1      	add	r9, ip
10002b6a:	2200      	movs	r2, #0
10002b6c:	4b7d      	ldr	r3, [pc, #500]	; (10002d64 <_etoa+0x3e4>)
10002b6e:	0030      	movs	r0, r6
10002b70:	0039      	movs	r1, r7
10002b72:	f001 f87c 	bl	10003c6e <__wrap___aeabi_ddiv>
10002b76:	0004      	movs	r4, r0
10002b78:	000d      	movs	r5, r1
10002b7a:	e023      	b.n	10002bc4 <_etoa+0x244>
10002b7c:	9b1e      	ldr	r3, [sp, #120]	; 0x78
10002b7e:	9304      	str	r3, [sp, #16]
10002b80:	9b1d      	ldr	r3, [sp, #116]	; 0x74
10002b82:	9303      	str	r3, [sp, #12]
10002b84:	9b1c      	ldr	r3, [sp, #112]	; 0x70
10002b86:	9302      	str	r3, [sp, #8]
10002b88:	9a08      	ldr	r2, [sp, #32]
10002b8a:	9b09      	ldr	r3, [sp, #36]	; 0x24
10002b8c:	9200      	str	r2, [sp, #0]
10002b8e:	9301      	str	r3, [sp, #4]
10002b90:	4643      	mov	r3, r8
10002b92:	9a0c      	ldr	r2, [sp, #48]	; 0x30
10002b94:	4651      	mov	r1, sl
10002b96:	4658      	mov	r0, fp
10002b98:	f000 f8fc 	bl	10002d94 <_ftoa>
10002b9c:	b011      	add	sp, #68	; 0x44
10002b9e:	bcf0      	pop	{r4, r5, r6, r7}
10002ba0:	46bb      	mov	fp, r7
10002ba2:	46b2      	mov	sl, r6
10002ba4:	46a9      	mov	r9, r5
10002ba6:	46a0      	mov	r8, r4
10002ba8:	bdf0      	pop	{r4, r5, r6, r7, pc}
10002baa:	2300      	movs	r3, #0
10002bac:	2400      	movs	r4, #0
10002bae:	9306      	str	r3, [sp, #24]
10002bb0:	9407      	str	r4, [sp, #28]
10002bb2:	9606      	str	r6, [sp, #24]
10002bb4:	2380      	movs	r3, #128	; 0x80
10002bb6:	061b      	lsls	r3, r3, #24
10002bb8:	469c      	mov	ip, r3
10002bba:	4465      	add	r5, ip
10002bbc:	9507      	str	r5, [sp, #28]
10002bbe:	e71a      	b.n	100029f6 <_etoa+0x76>
10002bc0:	2300      	movs	r3, #0
10002bc2:	4699      	mov	r9, r3
10002bc4:	464b      	mov	r3, r9
10002bc6:	3363      	adds	r3, #99	; 0x63
10002bc8:	2bc6      	cmp	r3, #198	; 0xc6
10002bca:	d81e      	bhi.n	10002c0a <_etoa+0x28a>
10002bcc:	2604      	movs	r6, #4
10002bce:	9b1e      	ldr	r3, [sp, #120]	; 0x78
10002bd0:	051b      	lsls	r3, r3, #20
10002bd2:	d526      	bpl.n	10002c22 <_etoa+0x2a2>
10002bd4:	002b      	movs	r3, r5
10002bd6:	4323      	orrs	r3, r4
10002bd8:	d00f      	beq.n	10002bfa <_etoa+0x27a>
10002bda:	4a64      	ldr	r2, [pc, #400]	; (10002d6c <_etoa+0x3ec>)
10002bdc:	4b64      	ldr	r3, [pc, #400]	; (10002d70 <_etoa+0x3f0>)
10002bde:	9806      	ldr	r0, [sp, #24]
10002be0:	9907      	ldr	r1, [sp, #28]
10002be2:	f001 f8ab 	bl	10003d3c <__wrap___aeabi_dcmpge>
10002be6:	2800      	cmp	r0, #0
10002be8:	d079      	beq.n	10002cde <_etoa+0x35e>
10002bea:	2200      	movs	r2, #0
10002bec:	4b61      	ldr	r3, [pc, #388]	; (10002d74 <_etoa+0x3f4>)
10002bee:	9806      	ldr	r0, [sp, #24]
10002bf0:	9907      	ldr	r1, [sp, #28]
10002bf2:	f001 f895 	bl	10003d20 <__wrap___aeabi_dcmplt>
10002bf6:	2800      	cmp	r0, #0
10002bf8:	d071      	beq.n	10002cde <_etoa+0x35e>
10002bfa:	9b1c      	ldr	r3, [sp, #112]	; 0x70
10002bfc:	454b      	cmp	r3, r9
10002bfe:	dd06      	ble.n	10002c0e <_etoa+0x28e>
10002c00:	464a      	mov	r2, r9
10002c02:	1a98      	subs	r0, r3, r2
10002c04:	1e43      	subs	r3, r0, #1
10002c06:	931c      	str	r3, [sp, #112]	; 0x70
10002c08:	e003      	b.n	10002c12 <_etoa+0x292>
10002c0a:	2605      	movs	r6, #5
10002c0c:	e7df      	b.n	10002bce <_etoa+0x24e>
10002c0e:	2300      	movs	r3, #0
10002c10:	931c      	str	r3, [sp, #112]	; 0x70
10002c12:	2380      	movs	r3, #128	; 0x80
10002c14:	00db      	lsls	r3, r3, #3
10002c16:	9a1e      	ldr	r2, [sp, #120]	; 0x78
10002c18:	431a      	orrs	r2, r3
10002c1a:	921e      	str	r2, [sp, #120]	; 0x78
10002c1c:	2600      	movs	r6, #0
10002c1e:	2300      	movs	r3, #0
10002c20:	4699      	mov	r9, r3
10002c22:	9b1d      	ldr	r3, [sp, #116]	; 0x74
10002c24:	429e      	cmp	r6, r3
10002c26:	d264      	bcs.n	10002cf2 <_etoa+0x372>
10002c28:	1b9f      	subs	r7, r3, r6
10002c2a:	2302      	movs	r3, #2
10002c2c:	9a1e      	ldr	r2, [sp, #120]	; 0x78
10002c2e:	401a      	ands	r2, r3
10002c30:	920a      	str	r2, [sp, #40]	; 0x28
10002c32:	9a1e      	ldr	r2, [sp, #120]	; 0x78
10002c34:	4213      	tst	r3, r2
10002c36:	d002      	beq.n	10002c3e <_etoa+0x2be>
10002c38:	2e00      	cmp	r6, #0
10002c3a:	d000      	beq.n	10002c3e <_etoa+0x2be>
10002c3c:	2700      	movs	r7, #0
10002c3e:	464b      	mov	r3, r9
10002c40:	2b00      	cmp	r3, #0
10002c42:	d007      	beq.n	10002c54 <_etoa+0x2d4>
10002c44:	0022      	movs	r2, r4
10002c46:	002b      	movs	r3, r5
10002c48:	9806      	ldr	r0, [sp, #24]
10002c4a:	9907      	ldr	r1, [sp, #28]
10002c4c:	f001 f80f 	bl	10003c6e <__wrap___aeabi_ddiv>
10002c50:	9006      	str	r0, [sp, #24]
10002c52:	9107      	str	r1, [sp, #28]
10002c54:	2200      	movs	r2, #0
10002c56:	2300      	movs	r3, #0
10002c58:	9808      	ldr	r0, [sp, #32]
10002c5a:	9909      	ldr	r1, [sp, #36]	; 0x24
10002c5c:	f001 f860 	bl	10003d20 <__wrap___aeabi_dcmplt>
10002c60:	2800      	cmp	r0, #0
10002c62:	d148      	bne.n	10002cf6 <_etoa+0x376>
10002c64:	4b44      	ldr	r3, [pc, #272]	; (10002d78 <_etoa+0x3f8>)
10002c66:	9a1e      	ldr	r2, [sp, #120]	; 0x78
10002c68:	4013      	ands	r3, r2
10002c6a:	9304      	str	r3, [sp, #16]
10002c6c:	9703      	str	r7, [sp, #12]
10002c6e:	9b1c      	ldr	r3, [sp, #112]	; 0x70
10002c70:	9302      	str	r3, [sp, #8]
10002c72:	9b06      	ldr	r3, [sp, #24]
10002c74:	9c07      	ldr	r4, [sp, #28]
10002c76:	9300      	str	r3, [sp, #0]
10002c78:	9401      	str	r4, [sp, #4]
10002c7a:	4643      	mov	r3, r8
10002c7c:	9a0c      	ldr	r2, [sp, #48]	; 0x30
10002c7e:	4651      	mov	r1, sl
10002c80:	4658      	mov	r0, fp
10002c82:	f000 f887 	bl	10002d94 <_ftoa>
10002c86:	2e00      	cmp	r6, #0
10002c88:	d100      	bne.n	10002c8c <_etoa+0x30c>
10002c8a:	e787      	b.n	10002b9c <_etoa+0x21c>
10002c8c:	9b1e      	ldr	r3, [sp, #120]	; 0x78
10002c8e:	069b      	lsls	r3, r3, #26
10002c90:	d53d      	bpl.n	10002d0e <_etoa+0x38e>
10002c92:	2545      	movs	r5, #69	; 0x45
10002c94:	1c44      	adds	r4, r0, #1
10002c96:	4643      	mov	r3, r8
10002c98:	0002      	movs	r2, r0
10002c9a:	4651      	mov	r1, sl
10002c9c:	0028      	movs	r0, r5
10002c9e:	47d8      	blx	fp
10002ca0:	464b      	mov	r3, r9
10002ca2:	17da      	asrs	r2, r3, #31
10002ca4:	189b      	adds	r3, r3, r2
10002ca6:	4053      	eors	r3, r2
10002ca8:	2205      	movs	r2, #5
10002caa:	9205      	str	r2, [sp, #20]
10002cac:	3e01      	subs	r6, #1
10002cae:	9604      	str	r6, [sp, #16]
10002cb0:	2200      	movs	r2, #0
10002cb2:	9203      	str	r2, [sp, #12]
10002cb4:	320a      	adds	r2, #10
10002cb6:	9202      	str	r2, [sp, #8]
10002cb8:	464a      	mov	r2, r9
10002cba:	0fd0      	lsrs	r0, r2, #31
10002cbc:	9001      	str	r0, [sp, #4]
10002cbe:	9300      	str	r3, [sp, #0]
10002cc0:	4643      	mov	r3, r8
10002cc2:	0022      	movs	r2, r4
10002cc4:	4651      	mov	r1, sl
10002cc6:	4658      	mov	r0, fp
10002cc8:	f7ff fd8a 	bl	100027e0 <_ntoa_long>
10002ccc:	9b0a      	ldr	r3, [sp, #40]	; 0x28
10002cce:	2b00      	cmp	r3, #0
10002cd0:	d100      	bne.n	10002cd4 <_etoa+0x354>
10002cd2:	e763      	b.n	10002b9c <_etoa+0x21c>
10002cd4:	0002      	movs	r2, r0
10002cd6:	465f      	mov	r7, fp
10002cd8:	9e0c      	ldr	r6, [sp, #48]	; 0x30
10002cda:	9d1d      	ldr	r5, [sp, #116]	; 0x74
10002cdc:	e054      	b.n	10002d88 <_etoa+0x408>
10002cde:	9b1c      	ldr	r3, [sp, #112]	; 0x70
10002ce0:	2b00      	cmp	r3, #0
10002ce2:	d09e      	beq.n	10002c22 <_etoa+0x2a2>
10002ce4:	9b0d      	ldr	r3, [sp, #52]	; 0x34
10002ce6:	2b00      	cmp	r3, #0
10002ce8:	d09b      	beq.n	10002c22 <_etoa+0x2a2>
10002cea:	9b1c      	ldr	r3, [sp, #112]	; 0x70
10002cec:	3b01      	subs	r3, #1
10002cee:	931c      	str	r3, [sp, #112]	; 0x70
10002cf0:	e797      	b.n	10002c22 <_etoa+0x2a2>
10002cf2:	2700      	movs	r7, #0
10002cf4:	e799      	b.n	10002c2a <_etoa+0x2aa>
10002cf6:	9c06      	ldr	r4, [sp, #24]
10002cf8:	9d07      	ldr	r5, [sp, #28]
10002cfa:	0022      	movs	r2, r4
10002cfc:	0029      	movs	r1, r5
10002cfe:	2080      	movs	r0, #128	; 0x80
10002d00:	0600      	lsls	r0, r0, #24
10002d02:	4684      	mov	ip, r0
10002d04:	4461      	add	r1, ip
10002d06:	000b      	movs	r3, r1
10002d08:	9206      	str	r2, [sp, #24]
10002d0a:	9307      	str	r3, [sp, #28]
10002d0c:	e7aa      	b.n	10002c64 <_etoa+0x2e4>
10002d0e:	2565      	movs	r5, #101	; 0x65
10002d10:	e7c0      	b.n	10002c94 <_etoa+0x314>
10002d12:	46c0      	nop			; (mov r8, r8)
10002d14:	7fefffff 	.word	0x7fefffff
10002d18:	ffefffff 	.word	0xffefffff
10002d1c:	fffffc01 	.word	0xfffffc01
10002d20:	3ff00000 	.word	0x3ff00000
10002d24:	509f79fb 	.word	0x509f79fb
10002d28:	3fd34413 	.word	0x3fd34413
10002d2c:	8b60c8b3 	.word	0x8b60c8b3
10002d30:	3fc68a28 	.word	0x3fc68a28
10002d34:	3ff80000 	.word	0x3ff80000
10002d38:	636f4361 	.word	0x636f4361
10002d3c:	3fd287a7 	.word	0x3fd287a7
10002d40:	0979a371 	.word	0x0979a371
10002d44:	400a934f 	.word	0x400a934f
10002d48:	3fe00000 	.word	0x3fe00000
10002d4c:	bbb55516 	.word	0xbbb55516
10002d50:	40026bb1 	.word	0x40026bb1
10002d54:	fefa39ef 	.word	0xfefa39ef
10002d58:	3fe62e42 	.word	0x3fe62e42
10002d5c:	000003ff 	.word	0x000003ff
10002d60:	402c0000 	.word	0x402c0000
10002d64:	40240000 	.word	0x40240000
10002d68:	40180000 	.word	0x40180000
10002d6c:	eb1c432d 	.word	0xeb1c432d
10002d70:	3f1a36e2 	.word	0x3f1a36e2
10002d74:	412e8480 	.word	0x412e8480
10002d78:	fffff7ff 	.word	0xfffff7ff
10002d7c:	1c54      	adds	r4, r2, #1
10002d7e:	4643      	mov	r3, r8
10002d80:	4651      	mov	r1, sl
10002d82:	2020      	movs	r0, #32
10002d84:	47b8      	blx	r7
10002d86:	0022      	movs	r2, r4
10002d88:	1b93      	subs	r3, r2, r6
10002d8a:	42ab      	cmp	r3, r5
10002d8c:	d3f6      	bcc.n	10002d7c <_etoa+0x3fc>
10002d8e:	0010      	movs	r0, r2
10002d90:	e704      	b.n	10002b9c <_etoa+0x21c>
10002d92:	46c0      	nop			; (mov r8, r8)

10002d94 <_ftoa>:
10002d94:	b5f0      	push	{r4, r5, r6, r7, lr}
10002d96:	46de      	mov	lr, fp
10002d98:	4657      	mov	r7, sl
10002d9a:	464e      	mov	r6, r9
10002d9c:	4645      	mov	r5, r8
10002d9e:	b5e0      	push	{r5, r6, r7, lr}
10002da0:	b095      	sub	sp, #84	; 0x54
10002da2:	9006      	str	r0, [sp, #24]
10002da4:	9107      	str	r1, [sp, #28]
10002da6:	4693      	mov	fp, r2
10002da8:	4699      	mov	r9, r3
10002daa:	9f20      	ldr	r7, [sp, #128]	; 0x80
10002dac:	9a1e      	ldr	r2, [sp, #120]	; 0x78
10002dae:	9b1f      	ldr	r3, [sp, #124]	; 0x7c
10002db0:	0010      	movs	r0, r2
10002db2:	0019      	movs	r1, r3
10002db4:	f000 ffcf 	bl	10003d56 <__wrap___aeabi_dcmpun>
10002db8:	2800      	cmp	r0, #0
10002dba:	d131      	bne.n	10002e20 <_ftoa+0x8c>
10002dbc:	2201      	movs	r2, #1
10002dbe:	4252      	negs	r2, r2
10002dc0:	4bbf      	ldr	r3, [pc, #764]	; (100030c0 <_ftoa+0x32c>)
10002dc2:	981e      	ldr	r0, [sp, #120]	; 0x78
10002dc4:	991f      	ldr	r1, [sp, #124]	; 0x7c
10002dc6:	f000 ffab 	bl	10003d20 <__wrap___aeabi_dcmplt>
10002dca:	2800      	cmp	r0, #0
10002dcc:	d137      	bne.n	10002e3e <_ftoa+0xaa>
10002dce:	2201      	movs	r2, #1
10002dd0:	4252      	negs	r2, r2
10002dd2:	4bbc      	ldr	r3, [pc, #752]	; (100030c4 <_ftoa+0x330>)
10002dd4:	981e      	ldr	r0, [sp, #120]	; 0x78
10002dd6:	991f      	ldr	r1, [sp, #124]	; 0x7c
10002dd8:	f000 ffb8 	bl	10003d4c <__wrap___aeabi_dcmpgt>
10002ddc:	2800      	cmp	r0, #0
10002dde:	d13d      	bne.n	10002e5c <_ftoa+0xc8>
10002de0:	2200      	movs	r2, #0
10002de2:	4bb9      	ldr	r3, [pc, #740]	; (100030c8 <_ftoa+0x334>)
10002de4:	981e      	ldr	r0, [sp, #120]	; 0x78
10002de6:	991f      	ldr	r1, [sp, #124]	; 0x7c
10002de8:	f000 ffb0 	bl	10003d4c <__wrap___aeabi_dcmpgt>
10002dec:	2800      	cmp	r0, #0
10002dee:	d150      	bne.n	10002e92 <_ftoa+0xfe>
10002df0:	2200      	movs	r2, #0
10002df2:	4bb6      	ldr	r3, [pc, #728]	; (100030cc <_ftoa+0x338>)
10002df4:	981e      	ldr	r0, [sp, #120]	; 0x78
10002df6:	991f      	ldr	r1, [sp, #124]	; 0x7c
10002df8:	f000 ff92 	bl	10003d20 <__wrap___aeabi_dcmplt>
10002dfc:	2800      	cmp	r0, #0
10002dfe:	d148      	bne.n	10002e92 <_ftoa+0xfe>
10002e00:	2200      	movs	r2, #0
10002e02:	2300      	movs	r3, #0
10002e04:	981e      	ldr	r0, [sp, #120]	; 0x78
10002e06:	991f      	ldr	r1, [sp, #124]	; 0x7c
10002e08:	f000 ff8a 	bl	10003d20 <__wrap___aeabi_dcmplt>
10002e0c:	2800      	cmp	r0, #0
10002e0e:	d150      	bne.n	10002eb2 <_ftoa+0x11e>
10002e10:	2300      	movs	r3, #0
10002e12:	4698      	mov	r8, r3
10002e14:	9b22      	ldr	r3, [sp, #136]	; 0x88
10002e16:	055b      	lsls	r3, r3, #21
10002e18:	d400      	bmi.n	10002e1c <_ftoa+0x88>
10002e1a:	e0b6      	b.n	10002f8a <_ftoa+0x1f6>
10002e1c:	2400      	movs	r4, #0
10002e1e:	e058      	b.n	10002ed2 <_ftoa+0x13e>
10002e20:	9b22      	ldr	r3, [sp, #136]	; 0x88
10002e22:	9303      	str	r3, [sp, #12]
10002e24:	9b21      	ldr	r3, [sp, #132]	; 0x84
10002e26:	9302      	str	r3, [sp, #8]
10002e28:	2303      	movs	r3, #3
10002e2a:	9301      	str	r3, [sp, #4]
10002e2c:	4ba8      	ldr	r3, [pc, #672]	; (100030d0 <_ftoa+0x33c>)
10002e2e:	9300      	str	r3, [sp, #0]
10002e30:	464b      	mov	r3, r9
10002e32:	465a      	mov	r2, fp
10002e34:	9907      	ldr	r1, [sp, #28]
10002e36:	9806      	ldr	r0, [sp, #24]
10002e38:	f7ff fbf2 	bl	10002620 <_out_rev>
10002e3c:	e10e      	b.n	1000305c <_ftoa+0x2c8>
10002e3e:	9b22      	ldr	r3, [sp, #136]	; 0x88
10002e40:	9303      	str	r3, [sp, #12]
10002e42:	9b21      	ldr	r3, [sp, #132]	; 0x84
10002e44:	9302      	str	r3, [sp, #8]
10002e46:	2304      	movs	r3, #4
10002e48:	9301      	str	r3, [sp, #4]
10002e4a:	4ba2      	ldr	r3, [pc, #648]	; (100030d4 <_ftoa+0x340>)
10002e4c:	9300      	str	r3, [sp, #0]
10002e4e:	464b      	mov	r3, r9
10002e50:	465a      	mov	r2, fp
10002e52:	9907      	ldr	r1, [sp, #28]
10002e54:	9806      	ldr	r0, [sp, #24]
10002e56:	f7ff fbe3 	bl	10002620 <_out_rev>
10002e5a:	e0ff      	b.n	1000305c <_ftoa+0x2c8>
10002e5c:	2304      	movs	r3, #4
10002e5e:	9a22      	ldr	r2, [sp, #136]	; 0x88
10002e60:	401a      	ands	r2, r3
10002e62:	9922      	ldr	r1, [sp, #136]	; 0x88
10002e64:	420b      	tst	r3, r1
10002e66:	d010      	beq.n	10002e8a <_ftoa+0xf6>
10002e68:	4b9b      	ldr	r3, [pc, #620]	; (100030d8 <_ftoa+0x344>)
10002e6a:	2a00      	cmp	r2, #0
10002e6c:	d00f      	beq.n	10002e8e <_ftoa+0xfa>
10002e6e:	2204      	movs	r2, #4
10002e70:	9922      	ldr	r1, [sp, #136]	; 0x88
10002e72:	9103      	str	r1, [sp, #12]
10002e74:	9921      	ldr	r1, [sp, #132]	; 0x84
10002e76:	9102      	str	r1, [sp, #8]
10002e78:	9201      	str	r2, [sp, #4]
10002e7a:	9300      	str	r3, [sp, #0]
10002e7c:	464b      	mov	r3, r9
10002e7e:	465a      	mov	r2, fp
10002e80:	9907      	ldr	r1, [sp, #28]
10002e82:	9806      	ldr	r0, [sp, #24]
10002e84:	f7ff fbcc 	bl	10002620 <_out_rev>
10002e88:	e0e8      	b.n	1000305c <_ftoa+0x2c8>
10002e8a:	4b94      	ldr	r3, [pc, #592]	; (100030dc <_ftoa+0x348>)
10002e8c:	e7ed      	b.n	10002e6a <_ftoa+0xd6>
10002e8e:	2203      	movs	r2, #3
10002e90:	e7ee      	b.n	10002e70 <_ftoa+0xdc>
10002e92:	9b22      	ldr	r3, [sp, #136]	; 0x88
10002e94:	9304      	str	r3, [sp, #16]
10002e96:	9b21      	ldr	r3, [sp, #132]	; 0x84
10002e98:	9303      	str	r3, [sp, #12]
10002e9a:	9702      	str	r7, [sp, #8]
10002e9c:	9b1e      	ldr	r3, [sp, #120]	; 0x78
10002e9e:	9c1f      	ldr	r4, [sp, #124]	; 0x7c
10002ea0:	9300      	str	r3, [sp, #0]
10002ea2:	9401      	str	r4, [sp, #4]
10002ea4:	464b      	mov	r3, r9
10002ea6:	465a      	mov	r2, fp
10002ea8:	9907      	ldr	r1, [sp, #28]
10002eaa:	9806      	ldr	r0, [sp, #24]
10002eac:	f7ff fd68 	bl	10002980 <_etoa>
10002eb0:	e0d4      	b.n	1000305c <_ftoa+0x2c8>
10002eb2:	9a1e      	ldr	r2, [sp, #120]	; 0x78
10002eb4:	9b1f      	ldr	r3, [sp, #124]	; 0x7c
10002eb6:	2000      	movs	r0, #0
10002eb8:	2100      	movs	r1, #0
10002eba:	f000 fece 	bl	10003c5a <__wrap___aeabi_dsub>
10002ebe:	901e      	str	r0, [sp, #120]	; 0x78
10002ec0:	911f      	str	r1, [sp, #124]	; 0x7c
10002ec2:	2301      	movs	r3, #1
10002ec4:	4698      	mov	r8, r3
10002ec6:	e7a5      	b.n	10002e14 <_ftoa+0x80>
10002ec8:	ab0c      	add	r3, sp, #48	; 0x30
10002eca:	2230      	movs	r2, #48	; 0x30
10002ecc:	551a      	strb	r2, [r3, r4]
10002ece:	3f01      	subs	r7, #1
10002ed0:	3401      	adds	r4, #1
10002ed2:	2c1f      	cmp	r4, #31
10002ed4:	d801      	bhi.n	10002eda <_ftoa+0x146>
10002ed6:	2f09      	cmp	r7, #9
10002ed8:	d8f6      	bhi.n	10002ec8 <_ftoa+0x134>
10002eda:	981e      	ldr	r0, [sp, #120]	; 0x78
10002edc:	991f      	ldr	r1, [sp, #124]	; 0x7c
10002ede:	f000 ff65 	bl	10003dac <__wrap___aeabi_d2iz>
10002ee2:	0005      	movs	r5, r0
10002ee4:	f000 ff4a 	bl	10003d7c <__wrap___aeabi_i2d>
10002ee8:	0002      	movs	r2, r0
10002eea:	000b      	movs	r3, r1
10002eec:	981e      	ldr	r0, [sp, #120]	; 0x78
10002eee:	991f      	ldr	r1, [sp, #124]	; 0x7c
10002ef0:	f000 feb3 	bl	10003c5a <__wrap___aeabi_dsub>
10002ef4:	00fa      	lsls	r2, r7, #3
10002ef6:	4b7a      	ldr	r3, [pc, #488]	; (100030e0 <_ftoa+0x34c>)
10002ef8:	189b      	adds	r3, r3, r2
10002efa:	681a      	ldr	r2, [r3, #0]
10002efc:	685b      	ldr	r3, [r3, #4]
10002efe:	920a      	str	r2, [sp, #40]	; 0x28
10002f00:	930b      	str	r3, [sp, #44]	; 0x2c
10002f02:	f000 fece 	bl	10003ca2 <__wrap___aeabi_dmul>
10002f06:	9008      	str	r0, [sp, #32]
10002f08:	9109      	str	r1, [sp, #36]	; 0x24
10002f0a:	f000 ff73 	bl	10003df4 <__wrap___aeabi_d2uiz>
10002f0e:	0006      	movs	r6, r0
10002f10:	f000 ff30 	bl	10003d74 <__wrap___aeabi_ui2d>
10002f14:	0002      	movs	r2, r0
10002f16:	000b      	movs	r3, r1
10002f18:	9808      	ldr	r0, [sp, #32]
10002f1a:	9909      	ldr	r1, [sp, #36]	; 0x24
10002f1c:	f000 fe9d 	bl	10003c5a <__wrap___aeabi_dsub>
10002f20:	9008      	str	r0, [sp, #32]
10002f22:	9109      	str	r1, [sp, #36]	; 0x24
10002f24:	2200      	movs	r2, #0
10002f26:	4b6f      	ldr	r3, [pc, #444]	; (100030e4 <_ftoa+0x350>)
10002f28:	f000 ff10 	bl	10003d4c <__wrap___aeabi_dcmpgt>
10002f2c:	2800      	cmp	r0, #0
10002f2e:	d02e      	beq.n	10002f8e <_ftoa+0x1fa>
10002f30:	3601      	adds	r6, #1
10002f32:	0030      	movs	r0, r6
10002f34:	f000 ff1e 	bl	10003d74 <__wrap___aeabi_ui2d>
10002f38:	0002      	movs	r2, r0
10002f3a:	000b      	movs	r3, r1
10002f3c:	980a      	ldr	r0, [sp, #40]	; 0x28
10002f3e:	990b      	ldr	r1, [sp, #44]	; 0x2c
10002f40:	f000 fef4 	bl	10003d2c <__wrap___aeabi_dcmple>
10002f44:	2800      	cmp	r0, #0
10002f46:	d001      	beq.n	10002f4c <_ftoa+0x1b8>
10002f48:	3501      	adds	r5, #1
10002f4a:	2600      	movs	r6, #0
10002f4c:	2f00      	cmp	r7, #0
10002f4e:	d12c      	bne.n	10002faa <_ftoa+0x216>
10002f50:	0028      	movs	r0, r5
10002f52:	f000 ff13 	bl	10003d7c <__wrap___aeabi_i2d>
10002f56:	0002      	movs	r2, r0
10002f58:	000b      	movs	r3, r1
10002f5a:	981e      	ldr	r0, [sp, #120]	; 0x78
10002f5c:	991f      	ldr	r1, [sp, #124]	; 0x7c
10002f5e:	f000 fe7c 	bl	10003c5a <__wrap___aeabi_dsub>
10002f62:	0006      	movs	r6, r0
10002f64:	000f      	movs	r7, r1
10002f66:	2200      	movs	r2, #0
10002f68:	4b5e      	ldr	r3, [pc, #376]	; (100030e4 <_ftoa+0x350>)
10002f6a:	f000 fed9 	bl	10003d20 <__wrap___aeabi_dcmplt>
10002f6e:	2800      	cmp	r0, #0
10002f70:	d146      	bne.n	10003000 <_ftoa+0x26c>
10002f72:	2200      	movs	r2, #0
10002f74:	4b5b      	ldr	r3, [pc, #364]	; (100030e4 <_ftoa+0x350>)
10002f76:	0030      	movs	r0, r6
10002f78:	0039      	movs	r1, r7
10002f7a:	f000 fee7 	bl	10003d4c <__wrap___aeabi_dcmpgt>
10002f7e:	2800      	cmp	r0, #0
10002f80:	d13e      	bne.n	10003000 <_ftoa+0x26c>
10002f82:	07eb      	lsls	r3, r5, #31
10002f84:	d53c      	bpl.n	10003000 <_ftoa+0x26c>
10002f86:	3501      	adds	r5, #1
10002f88:	e03a      	b.n	10003000 <_ftoa+0x26c>
10002f8a:	2706      	movs	r7, #6
10002f8c:	e746      	b.n	10002e1c <_ftoa+0x88>
10002f8e:	2200      	movs	r2, #0
10002f90:	4b54      	ldr	r3, [pc, #336]	; (100030e4 <_ftoa+0x350>)
10002f92:	9808      	ldr	r0, [sp, #32]
10002f94:	9909      	ldr	r1, [sp, #36]	; 0x24
10002f96:	f000 fec3 	bl	10003d20 <__wrap___aeabi_dcmplt>
10002f9a:	2800      	cmp	r0, #0
10002f9c:	d1d6      	bne.n	10002f4c <_ftoa+0x1b8>
10002f9e:	2e00      	cmp	r6, #0
10002fa0:	d001      	beq.n	10002fa6 <_ftoa+0x212>
10002fa2:	07f3      	lsls	r3, r6, #31
10002fa4:	d5d2      	bpl.n	10002f4c <_ftoa+0x1b8>
10002fa6:	3601      	adds	r6, #1
10002fa8:	e7d0      	b.n	10002f4c <_ftoa+0x1b8>
10002faa:	46aa      	mov	sl, r5
10002fac:	2c1f      	cmp	r4, #31
10002fae:	d811      	bhi.n	10002fd4 <_ftoa+0x240>
10002fb0:	3f01      	subs	r7, #1
10002fb2:	210a      	movs	r1, #10
10002fb4:	0030      	movs	r0, r6
10002fb6:	f000 fc15 	bl	100037e4 <__wrap___aeabi_uidiv>
10002fba:	1c65      	adds	r5, r4, #1
10002fbc:	3130      	adds	r1, #48	; 0x30
10002fbe:	ab0c      	add	r3, sp, #48	; 0x30
10002fc0:	5519      	strb	r1, [r3, r4]
10002fc2:	210a      	movs	r1, #10
10002fc4:	0030      	movs	r0, r6
10002fc6:	f000 fc0d 	bl	100037e4 <__wrap___aeabi_uidiv>
10002fca:	2e09      	cmp	r6, #9
10002fcc:	d90e      	bls.n	10002fec <_ftoa+0x258>
10002fce:	0006      	movs	r6, r0
10002fd0:	002c      	movs	r4, r5
10002fd2:	e7eb      	b.n	10002fac <_ftoa+0x218>
10002fd4:	4655      	mov	r5, sl
10002fd6:	2c1f      	cmp	r4, #31
10002fd8:	d80c      	bhi.n	10002ff4 <_ftoa+0x260>
10002fda:	1e7b      	subs	r3, r7, #1
10002fdc:	2f00      	cmp	r7, #0
10002fde:	d009      	beq.n	10002ff4 <_ftoa+0x260>
10002fe0:	aa0c      	add	r2, sp, #48	; 0x30
10002fe2:	2130      	movs	r1, #48	; 0x30
10002fe4:	5511      	strb	r1, [r2, r4]
10002fe6:	001f      	movs	r7, r3
10002fe8:	3401      	adds	r4, #1
10002fea:	e7f4      	b.n	10002fd6 <_ftoa+0x242>
10002fec:	002b      	movs	r3, r5
10002fee:	4655      	mov	r5, sl
10002ff0:	001c      	movs	r4, r3
10002ff2:	e7f0      	b.n	10002fd6 <_ftoa+0x242>
10002ff4:	2c1f      	cmp	r4, #31
10002ff6:	d803      	bhi.n	10003000 <_ftoa+0x26c>
10002ff8:	ab0c      	add	r3, sp, #48	; 0x30
10002ffa:	222e      	movs	r2, #46	; 0x2e
10002ffc:	551a      	strb	r2, [r3, r4]
10002ffe:	3401      	adds	r4, #1
10003000:	2c1f      	cmp	r4, #31
10003002:	d810      	bhi.n	10003026 <_ftoa+0x292>
10003004:	210a      	movs	r1, #10
10003006:	0028      	movs	r0, r5
10003008:	f000 fbc4 	bl	10003794 <__wrap___aeabi_idiv>
1000300c:	1c66      	adds	r6, r4, #1
1000300e:	3130      	adds	r1, #48	; 0x30
10003010:	ab0c      	add	r3, sp, #48	; 0x30
10003012:	5519      	strb	r1, [r3, r4]
10003014:	210a      	movs	r1, #10
10003016:	0028      	movs	r0, r5
10003018:	f000 fbbc 	bl	10003794 <__wrap___aeabi_idiv>
1000301c:	1e05      	subs	r5, r0, #0
1000301e:	d001      	beq.n	10003024 <_ftoa+0x290>
10003020:	0034      	movs	r4, r6
10003022:	e7ed      	b.n	10003000 <_ftoa+0x26c>
10003024:	0034      	movs	r4, r6
10003026:	2303      	movs	r3, #3
10003028:	9a22      	ldr	r2, [sp, #136]	; 0x88
1000302a:	4013      	ands	r3, r2
1000302c:	2b01      	cmp	r3, #1
1000302e:	d01c      	beq.n	1000306a <_ftoa+0x2d6>
10003030:	2c1f      	cmp	r4, #31
10003032:	d806      	bhi.n	10003042 <_ftoa+0x2ae>
10003034:	4643      	mov	r3, r8
10003036:	2b00      	cmp	r3, #0
10003038:	d032      	beq.n	100030a0 <_ftoa+0x30c>
1000303a:	ab0c      	add	r3, sp, #48	; 0x30
1000303c:	222d      	movs	r2, #45	; 0x2d
1000303e:	551a      	strb	r2, [r3, r4]
10003040:	3401      	adds	r4, #1
10003042:	9b22      	ldr	r3, [sp, #136]	; 0x88
10003044:	9303      	str	r3, [sp, #12]
10003046:	9b21      	ldr	r3, [sp, #132]	; 0x84
10003048:	9302      	str	r3, [sp, #8]
1000304a:	9401      	str	r4, [sp, #4]
1000304c:	ab0c      	add	r3, sp, #48	; 0x30
1000304e:	9300      	str	r3, [sp, #0]
10003050:	464b      	mov	r3, r9
10003052:	465a      	mov	r2, fp
10003054:	9907      	ldr	r1, [sp, #28]
10003056:	9806      	ldr	r0, [sp, #24]
10003058:	f7ff fae2 	bl	10002620 <_out_rev>
1000305c:	b015      	add	sp, #84	; 0x54
1000305e:	bcf0      	pop	{r4, r5, r6, r7}
10003060:	46bb      	mov	fp, r7
10003062:	46b2      	mov	sl, r6
10003064:	46a9      	mov	r9, r5
10003066:	46a0      	mov	r8, r4
10003068:	bdf0      	pop	{r4, r5, r6, r7, pc}
1000306a:	9b21      	ldr	r3, [sp, #132]	; 0x84
1000306c:	2b00      	cmp	r3, #0
1000306e:	d013      	beq.n	10003098 <_ftoa+0x304>
10003070:	4643      	mov	r3, r8
10003072:	2b00      	cmp	r3, #0
10003074:	d102      	bne.n	1000307c <_ftoa+0x2e8>
10003076:	330c      	adds	r3, #12
10003078:	4213      	tst	r3, r2
1000307a:	d00f      	beq.n	1000309c <_ftoa+0x308>
1000307c:	9b21      	ldr	r3, [sp, #132]	; 0x84
1000307e:	3b01      	subs	r3, #1
10003080:	9321      	str	r3, [sp, #132]	; 0x84
10003082:	0019      	movs	r1, r3
10003084:	e003      	b.n	1000308e <_ftoa+0x2fa>
10003086:	ab0c      	add	r3, sp, #48	; 0x30
10003088:	2230      	movs	r2, #48	; 0x30
1000308a:	551a      	strb	r2, [r3, r4]
1000308c:	3401      	adds	r4, #1
1000308e:	428c      	cmp	r4, r1
10003090:	d2ce      	bcs.n	10003030 <_ftoa+0x29c>
10003092:	2c1f      	cmp	r4, #31
10003094:	d9f7      	bls.n	10003086 <_ftoa+0x2f2>
10003096:	e7cb      	b.n	10003030 <_ftoa+0x29c>
10003098:	9921      	ldr	r1, [sp, #132]	; 0x84
1000309a:	e7f8      	b.n	1000308e <_ftoa+0x2fa>
1000309c:	9921      	ldr	r1, [sp, #132]	; 0x84
1000309e:	e7f6      	b.n	1000308e <_ftoa+0x2fa>
100030a0:	9b22      	ldr	r3, [sp, #136]	; 0x88
100030a2:	075b      	lsls	r3, r3, #29
100030a4:	d504      	bpl.n	100030b0 <_ftoa+0x31c>
100030a6:	ab0c      	add	r3, sp, #48	; 0x30
100030a8:	222b      	movs	r2, #43	; 0x2b
100030aa:	551a      	strb	r2, [r3, r4]
100030ac:	3401      	adds	r4, #1
100030ae:	e7c8      	b.n	10003042 <_ftoa+0x2ae>
100030b0:	9b22      	ldr	r3, [sp, #136]	; 0x88
100030b2:	071b      	lsls	r3, r3, #28
100030b4:	d5c5      	bpl.n	10003042 <_ftoa+0x2ae>
100030b6:	ab0c      	add	r3, sp, #48	; 0x30
100030b8:	2220      	movs	r2, #32
100030ba:	551a      	strb	r2, [r3, r4]
100030bc:	3401      	adds	r4, #1
100030be:	e7c0      	b.n	10003042 <_ftoa+0x2ae>
100030c0:	ffefffff 	.word	0xffefffff
100030c4:	7fefffff 	.word	0x7fefffff
100030c8:	41cdcd65 	.word	0x41cdcd65
100030cc:	c1cdcd65 	.word	0xc1cdcd65
100030d0:	100078b8 	.word	0x100078b8
100030d4:	100078bc 	.word	0x100078bc
100030d8:	100078b0 	.word	0x100078b0
100030dc:	100078ac 	.word	0x100078ac
100030e0:	10007aa8 	.word	0x10007aa8
100030e4:	3fe00000 	.word	0x3fe00000

100030e8 <_vsnprintf>:
100030e8:	b5f0      	push	{r4, r5, r6, r7, lr}
100030ea:	46de      	mov	lr, fp
100030ec:	4657      	mov	r7, sl
100030ee:	464e      	mov	r6, r9
100030f0:	4645      	mov	r5, r8
100030f2:	b5e0      	push	{r5, r6, r7, lr}
100030f4:	b093      	sub	sp, #76	; 0x4c
100030f6:	4682      	mov	sl, r0
100030f8:	468b      	mov	fp, r1
100030fa:	4690      	mov	r8, r2
100030fc:	9311      	str	r3, [sp, #68]	; 0x44
100030fe:	2900      	cmp	r1, #0
10003100:	d100      	bne.n	10003104 <_vsnprintf+0x1c>
10003102:	e2eb      	b.n	100036dc <_vsnprintf+0x5f4>
10003104:	2700      	movs	r7, #0
10003106:	4655      	mov	r5, sl
10003108:	9b11      	ldr	r3, [sp, #68]	; 0x44
1000310a:	7818      	ldrb	r0, [r3, #0]
1000310c:	2800      	cmp	r0, #0
1000310e:	d100      	bne.n	10003112 <_vsnprintf+0x2a>
10003110:	e2e7      	b.n	100036e2 <_vsnprintf+0x5fa>
10003112:	2825      	cmp	r0, #37	; 0x25
10003114:	d009      	beq.n	1000312a <_vsnprintf+0x42>
10003116:	1c7c      	adds	r4, r7, #1
10003118:	4643      	mov	r3, r8
1000311a:	003a      	movs	r2, r7
1000311c:	4659      	mov	r1, fp
1000311e:	47a8      	blx	r5
10003120:	9b11      	ldr	r3, [sp, #68]	; 0x44
10003122:	3301      	adds	r3, #1
10003124:	9311      	str	r3, [sp, #68]	; 0x44
10003126:	0027      	movs	r7, r4
10003128:	e7ee      	b.n	10003108 <_vsnprintf+0x20>
1000312a:	3301      	adds	r3, #1
1000312c:	9311      	str	r3, [sp, #68]	; 0x44
1000312e:	2400      	movs	r4, #0
10003130:	9a11      	ldr	r2, [sp, #68]	; 0x44
10003132:	7811      	ldrb	r1, [r2, #0]
10003134:	000b      	movs	r3, r1
10003136:	3b20      	subs	r3, #32
10003138:	b2d8      	uxtb	r0, r3
1000313a:	2810      	cmp	r0, #16
1000313c:	d803      	bhi.n	10003146 <_vsnprintf+0x5e>
1000313e:	0083      	lsls	r3, r0, #2
10003140:	48d0      	ldr	r0, [pc, #832]	; (10003484 <_vsnprintf+0x39c>)
10003142:	58c3      	ldr	r3, [r0, r3]
10003144:	469f      	mov	pc, r3
10003146:	000b      	movs	r3, r1
10003148:	3b30      	subs	r3, #48	; 0x30
1000314a:	b2db      	uxtb	r3, r3
1000314c:	2b09      	cmp	r3, #9
1000314e:	d92c      	bls.n	100031aa <_vsnprintf+0xc2>
10003150:	292a      	cmp	r1, #42	; 0x2a
10003152:	d02f      	beq.n	100031b4 <_vsnprintf+0xcc>
10003154:	2300      	movs	r3, #0
10003156:	930a      	str	r3, [sp, #40]	; 0x28
10003158:	9b11      	ldr	r3, [sp, #68]	; 0x44
1000315a:	781a      	ldrb	r2, [r3, #0]
1000315c:	2a2e      	cmp	r2, #46	; 0x2e
1000315e:	d039      	beq.n	100031d4 <_vsnprintf+0xec>
10003160:	2300      	movs	r3, #0
10003162:	469a      	mov	sl, r3
10003164:	9a11      	ldr	r2, [sp, #68]	; 0x44
10003166:	7813      	ldrb	r3, [r2, #0]
10003168:	3b68      	subs	r3, #104	; 0x68
1000316a:	b2d9      	uxtb	r1, r3
1000316c:	2912      	cmp	r1, #18
1000316e:	d876      	bhi.n	1000325e <_vsnprintf+0x176>
10003170:	008b      	lsls	r3, r1, #2
10003172:	49c5      	ldr	r1, [pc, #788]	; (10003488 <_vsnprintf+0x3a0>)
10003174:	58cb      	ldr	r3, [r1, r3]
10003176:	469f      	mov	pc, r3
10003178:	2301      	movs	r3, #1
1000317a:	431c      	orrs	r4, r3
1000317c:	3201      	adds	r2, #1
1000317e:	9211      	str	r2, [sp, #68]	; 0x44
10003180:	e7d6      	b.n	10003130 <_vsnprintf+0x48>
10003182:	2302      	movs	r3, #2
10003184:	431c      	orrs	r4, r3
10003186:	3201      	adds	r2, #1
10003188:	9211      	str	r2, [sp, #68]	; 0x44
1000318a:	e7d1      	b.n	10003130 <_vsnprintf+0x48>
1000318c:	2304      	movs	r3, #4
1000318e:	431c      	orrs	r4, r3
10003190:	3201      	adds	r2, #1
10003192:	9211      	str	r2, [sp, #68]	; 0x44
10003194:	e7cc      	b.n	10003130 <_vsnprintf+0x48>
10003196:	2308      	movs	r3, #8
10003198:	431c      	orrs	r4, r3
1000319a:	3201      	adds	r2, #1
1000319c:	9211      	str	r2, [sp, #68]	; 0x44
1000319e:	e7c7      	b.n	10003130 <_vsnprintf+0x48>
100031a0:	2310      	movs	r3, #16
100031a2:	431c      	orrs	r4, r3
100031a4:	3201      	adds	r2, #1
100031a6:	9211      	str	r2, [sp, #68]	; 0x44
100031a8:	e7c2      	b.n	10003130 <_vsnprintf+0x48>
100031aa:	a811      	add	r0, sp, #68	; 0x44
100031ac:	f7ff fa26 	bl	100025fc <_atoi>
100031b0:	900a      	str	r0, [sp, #40]	; 0x28
100031b2:	e7d1      	b.n	10003158 <_vsnprintf+0x70>
100031b4:	9b1c      	ldr	r3, [sp, #112]	; 0x70
100031b6:	1d1a      	adds	r2, r3, #4
100031b8:	921c      	str	r2, [sp, #112]	; 0x70
100031ba:	6818      	ldr	r0, [r3, #0]
100031bc:	2800      	cmp	r0, #0
100031be:	db04      	blt.n	100031ca <_vsnprintf+0xe2>
100031c0:	900a      	str	r0, [sp, #40]	; 0x28
100031c2:	9b11      	ldr	r3, [sp, #68]	; 0x44
100031c4:	3301      	adds	r3, #1
100031c6:	9311      	str	r3, [sp, #68]	; 0x44
100031c8:	e7c6      	b.n	10003158 <_vsnprintf+0x70>
100031ca:	2302      	movs	r3, #2
100031cc:	431c      	orrs	r4, r3
100031ce:	4243      	negs	r3, r0
100031d0:	930a      	str	r3, [sp, #40]	; 0x28
100031d2:	e7f6      	b.n	100031c2 <_vsnprintf+0xda>
100031d4:	2280      	movs	r2, #128	; 0x80
100031d6:	00d2      	lsls	r2, r2, #3
100031d8:	4314      	orrs	r4, r2
100031da:	1c5a      	adds	r2, r3, #1
100031dc:	9211      	str	r2, [sp, #68]	; 0x44
100031de:	785a      	ldrb	r2, [r3, #1]
100031e0:	0013      	movs	r3, r2
100031e2:	3b30      	subs	r3, #48	; 0x30
100031e4:	b2db      	uxtb	r3, r3
100031e6:	2b09      	cmp	r3, #9
100031e8:	d904      	bls.n	100031f4 <_vsnprintf+0x10c>
100031ea:	2a2a      	cmp	r2, #42	; 0x2a
100031ec:	d007      	beq.n	100031fe <_vsnprintf+0x116>
100031ee:	2300      	movs	r3, #0
100031f0:	469a      	mov	sl, r3
100031f2:	e7b7      	b.n	10003164 <_vsnprintf+0x7c>
100031f4:	a811      	add	r0, sp, #68	; 0x44
100031f6:	f7ff fa01 	bl	100025fc <_atoi>
100031fa:	4682      	mov	sl, r0
100031fc:	e7b2      	b.n	10003164 <_vsnprintf+0x7c>
100031fe:	9b1c      	ldr	r3, [sp, #112]	; 0x70
10003200:	1d1a      	adds	r2, r3, #4
10003202:	921c      	str	r2, [sp, #112]	; 0x70
10003204:	6818      	ldr	r0, [r3, #0]
10003206:	2800      	cmp	r0, #0
10003208:	db04      	blt.n	10003214 <_vsnprintf+0x12c>
1000320a:	4682      	mov	sl, r0
1000320c:	9b11      	ldr	r3, [sp, #68]	; 0x44
1000320e:	3301      	adds	r3, #1
10003210:	9311      	str	r3, [sp, #68]	; 0x44
10003212:	e7a7      	b.n	10003164 <_vsnprintf+0x7c>
10003214:	2000      	movs	r0, #0
10003216:	e7f8      	b.n	1000320a <_vsnprintf+0x122>
10003218:	2380      	movs	r3, #128	; 0x80
1000321a:	005b      	lsls	r3, r3, #1
1000321c:	4323      	orrs	r3, r4
1000321e:	1c51      	adds	r1, r2, #1
10003220:	9111      	str	r1, [sp, #68]	; 0x44
10003222:	7852      	ldrb	r2, [r2, #1]
10003224:	2a6c      	cmp	r2, #108	; 0x6c
10003226:	d001      	beq.n	1000322c <_vsnprintf+0x144>
10003228:	001c      	movs	r4, r3
1000322a:	e018      	b.n	1000325e <_vsnprintf+0x176>
1000322c:	23c0      	movs	r3, #192	; 0xc0
1000322e:	009b      	lsls	r3, r3, #2
10003230:	431c      	orrs	r4, r3
10003232:	3101      	adds	r1, #1
10003234:	9111      	str	r1, [sp, #68]	; 0x44
10003236:	e012      	b.n	1000325e <_vsnprintf+0x176>
10003238:	2380      	movs	r3, #128	; 0x80
1000323a:	4323      	orrs	r3, r4
1000323c:	1c51      	adds	r1, r2, #1
1000323e:	9111      	str	r1, [sp, #68]	; 0x44
10003240:	7852      	ldrb	r2, [r2, #1]
10003242:	2a68      	cmp	r2, #104	; 0x68
10003244:	d001      	beq.n	1000324a <_vsnprintf+0x162>
10003246:	001c      	movs	r4, r3
10003248:	e009      	b.n	1000325e <_vsnprintf+0x176>
1000324a:	23c0      	movs	r3, #192	; 0xc0
1000324c:	431c      	orrs	r4, r3
1000324e:	3101      	adds	r1, #1
10003250:	9111      	str	r1, [sp, #68]	; 0x44
10003252:	e004      	b.n	1000325e <_vsnprintf+0x176>
10003254:	2380      	movs	r3, #128	; 0x80
10003256:	005b      	lsls	r3, r3, #1
10003258:	431c      	orrs	r4, r3
1000325a:	3201      	adds	r2, #1
1000325c:	9211      	str	r2, [sp, #68]	; 0x44
1000325e:	9b11      	ldr	r3, [sp, #68]	; 0x44
10003260:	7818      	ldrb	r0, [r3, #0]
10003262:	0003      	movs	r3, r0
10003264:	3b25      	subs	r3, #37	; 0x25
10003266:	b2da      	uxtb	r2, r3
10003268:	2a53      	cmp	r2, #83	; 0x53
1000326a:	d900      	bls.n	1000326e <_vsnprintf+0x186>
1000326c:	e22c      	b.n	100036c8 <_vsnprintf+0x5e0>
1000326e:	0093      	lsls	r3, r2, #2
10003270:	4a86      	ldr	r2, [pc, #536]	; (1000348c <_vsnprintf+0x3a4>)
10003272:	58d3      	ldr	r3, [r2, r3]
10003274:	469f      	mov	pc, r3
10003276:	2380      	movs	r3, #128	; 0x80
10003278:	009b      	lsls	r3, r3, #2
1000327a:	431c      	orrs	r4, r3
1000327c:	3201      	adds	r2, #1
1000327e:	9211      	str	r2, [sp, #68]	; 0x44
10003280:	e7ed      	b.n	1000325e <_vsnprintf+0x176>
10003282:	2380      	movs	r3, #128	; 0x80
10003284:	005b      	lsls	r3, r3, #1
10003286:	431c      	orrs	r4, r3
10003288:	3201      	adds	r2, #1
1000328a:	9211      	str	r2, [sp, #68]	; 0x44
1000328c:	e7e7      	b.n	1000325e <_vsnprintf+0x176>
1000328e:	2878      	cmp	r0, #120	; 0x78
10003290:	d009      	beq.n	100032a6 <_vsnprintf+0x1be>
10003292:	2858      	cmp	r0, #88	; 0x58
10003294:	d038      	beq.n	10003308 <_vsnprintf+0x220>
10003296:	286f      	cmp	r0, #111	; 0x6f
10003298:	d038      	beq.n	1000330c <_vsnprintf+0x224>
1000329a:	2862      	cmp	r0, #98	; 0x62
1000329c:	d038      	beq.n	10003310 <_vsnprintf+0x228>
1000329e:	2310      	movs	r3, #16
100032a0:	439c      	bics	r4, r3
100032a2:	260a      	movs	r6, #10
100032a4:	e000      	b.n	100032a8 <_vsnprintf+0x1c0>
100032a6:	2610      	movs	r6, #16
100032a8:	2858      	cmp	r0, #88	; 0x58
100032aa:	d033      	beq.n	10003314 <_vsnprintf+0x22c>
100032ac:	2869      	cmp	r0, #105	; 0x69
100032ae:	d003      	beq.n	100032b8 <_vsnprintf+0x1d0>
100032b0:	2864      	cmp	r0, #100	; 0x64
100032b2:	d001      	beq.n	100032b8 <_vsnprintf+0x1d0>
100032b4:	220c      	movs	r2, #12
100032b6:	4394      	bics	r4, r2
100032b8:	0563      	lsls	r3, r4, #21
100032ba:	d501      	bpl.n	100032c0 <_vsnprintf+0x1d8>
100032bc:	2201      	movs	r2, #1
100032be:	4394      	bics	r4, r2
100032c0:	2869      	cmp	r0, #105	; 0x69
100032c2:	d02a      	beq.n	1000331a <_vsnprintf+0x232>
100032c4:	2864      	cmp	r0, #100	; 0x64
100032c6:	d028      	beq.n	1000331a <_vsnprintf+0x232>
100032c8:	05a3      	lsls	r3, r4, #22
100032ca:	d500      	bpl.n	100032ce <_vsnprintf+0x1e6>
100032cc:	e09f      	b.n	1000340e <_vsnprintf+0x326>
100032ce:	05e3      	lsls	r3, r4, #23
100032d0:	d500      	bpl.n	100032d4 <_vsnprintf+0x1ec>
100032d2:	e0b8      	b.n	10003446 <_vsnprintf+0x35e>
100032d4:	0663      	lsls	r3, r4, #25
100032d6:	d400      	bmi.n	100032da <_vsnprintf+0x1f2>
100032d8:	e0ca      	b.n	10003470 <_vsnprintf+0x388>
100032da:	9a1c      	ldr	r2, [sp, #112]	; 0x70
100032dc:	1d11      	adds	r1, r2, #4
100032de:	911c      	str	r1, [sp, #112]	; 0x70
100032e0:	6811      	ldr	r1, [r2, #0]
100032e2:	22ff      	movs	r2, #255	; 0xff
100032e4:	400a      	ands	r2, r1
100032e6:	9405      	str	r4, [sp, #20]
100032e8:	9b0a      	ldr	r3, [sp, #40]	; 0x28
100032ea:	9304      	str	r3, [sp, #16]
100032ec:	4653      	mov	r3, sl
100032ee:	9303      	str	r3, [sp, #12]
100032f0:	9602      	str	r6, [sp, #8]
100032f2:	2300      	movs	r3, #0
100032f4:	9301      	str	r3, [sp, #4]
100032f6:	9200      	str	r2, [sp, #0]
100032f8:	4643      	mov	r3, r8
100032fa:	003a      	movs	r2, r7
100032fc:	4659      	mov	r1, fp
100032fe:	0028      	movs	r0, r5
10003300:	f7ff fa6e 	bl	100027e0 <_ntoa_long>
10003304:	0007      	movs	r7, r0
10003306:	e027      	b.n	10003358 <_vsnprintf+0x270>
10003308:	2610      	movs	r6, #16
1000330a:	e7cd      	b.n	100032a8 <_vsnprintf+0x1c0>
1000330c:	2608      	movs	r6, #8
1000330e:	e7cb      	b.n	100032a8 <_vsnprintf+0x1c0>
10003310:	2602      	movs	r6, #2
10003312:	e7c9      	b.n	100032a8 <_vsnprintf+0x1c0>
10003314:	2220      	movs	r2, #32
10003316:	4314      	orrs	r4, r2
10003318:	e7c8      	b.n	100032ac <_vsnprintf+0x1c4>
1000331a:	05a3      	lsls	r3, r4, #22
1000331c:	d420      	bmi.n	10003360 <_vsnprintf+0x278>
1000331e:	05e3      	lsls	r3, r4, #23
10003320:	d450      	bmi.n	100033c4 <_vsnprintf+0x2dc>
10003322:	0663      	lsls	r3, r4, #25
10003324:	d566      	bpl.n	100033f4 <_vsnprintf+0x30c>
10003326:	9a1c      	ldr	r2, [sp, #112]	; 0x70
10003328:	1d11      	adds	r1, r2, #4
1000332a:	911c      	str	r1, [sp, #112]	; 0x70
1000332c:	6811      	ldr	r1, [r2, #0]
1000332e:	22ff      	movs	r2, #255	; 0xff
10003330:	400a      	ands	r2, r1
10003332:	17d3      	asrs	r3, r2, #31
10003334:	18d1      	adds	r1, r2, r3
10003336:	4059      	eors	r1, r3
10003338:	9405      	str	r4, [sp, #20]
1000333a:	9b0a      	ldr	r3, [sp, #40]	; 0x28
1000333c:	9304      	str	r3, [sp, #16]
1000333e:	4653      	mov	r3, sl
10003340:	9303      	str	r3, [sp, #12]
10003342:	9602      	str	r6, [sp, #8]
10003344:	0fd2      	lsrs	r2, r2, #31
10003346:	9201      	str	r2, [sp, #4]
10003348:	9100      	str	r1, [sp, #0]
1000334a:	4643      	mov	r3, r8
1000334c:	003a      	movs	r2, r7
1000334e:	4659      	mov	r1, fp
10003350:	0028      	movs	r0, r5
10003352:	f7ff fa45 	bl	100027e0 <_ntoa_long>
10003356:	0007      	movs	r7, r0
10003358:	9b11      	ldr	r3, [sp, #68]	; 0x44
1000335a:	3301      	adds	r3, #1
1000335c:	9311      	str	r3, [sp, #68]	; 0x44
1000335e:	e6d3      	b.n	10003108 <_vsnprintf+0x20>
10003360:	9b1c      	ldr	r3, [sp, #112]	; 0x70
10003362:	1dda      	adds	r2, r3, #7
10003364:	2107      	movs	r1, #7
10003366:	438a      	bics	r2, r1
10003368:	0011      	movs	r1, r2
1000336a:	3108      	adds	r1, #8
1000336c:	911c      	str	r1, [sp, #112]	; 0x70
1000336e:	6811      	ldr	r1, [r2, #0]
10003370:	6853      	ldr	r3, [r2, #4]
10003372:	469c      	mov	ip, r3
10003374:	17db      	asrs	r3, r3, #31
10003376:	930c      	str	r3, [sp, #48]	; 0x30
10003378:	930d      	str	r3, [sp, #52]	; 0x34
1000337a:	9a0c      	ldr	r2, [sp, #48]	; 0x30
1000337c:	9b0d      	ldr	r3, [sp, #52]	; 0x34
1000337e:	0010      	movs	r0, r2
10003380:	4048      	eors	r0, r1
10003382:	900e      	str	r0, [sp, #56]	; 0x38
10003384:	4662      	mov	r2, ip
10003386:	4053      	eors	r3, r2
10003388:	930f      	str	r3, [sp, #60]	; 0x3c
1000338a:	980e      	ldr	r0, [sp, #56]	; 0x38
1000338c:	990f      	ldr	r1, [sp, #60]	; 0x3c
1000338e:	9a0c      	ldr	r2, [sp, #48]	; 0x30
10003390:	9b0d      	ldr	r3, [sp, #52]	; 0x34
10003392:	1a80      	subs	r0, r0, r2
10003394:	4199      	sbcs	r1, r3
10003396:	900e      	str	r0, [sp, #56]	; 0x38
10003398:	910f      	str	r1, [sp, #60]	; 0x3c
1000339a:	9408      	str	r4, [sp, #32]
1000339c:	9b0a      	ldr	r3, [sp, #40]	; 0x28
1000339e:	9307      	str	r3, [sp, #28]
100033a0:	4653      	mov	r3, sl
100033a2:	9306      	str	r3, [sp, #24]
100033a4:	9604      	str	r6, [sp, #16]
100033a6:	2300      	movs	r3, #0
100033a8:	9305      	str	r3, [sp, #20]
100033aa:	4663      	mov	r3, ip
100033ac:	0fda      	lsrs	r2, r3, #31
100033ae:	9202      	str	r2, [sp, #8]
100033b0:	9000      	str	r0, [sp, #0]
100033b2:	9101      	str	r1, [sp, #4]
100033b4:	4643      	mov	r3, r8
100033b6:	003a      	movs	r2, r7
100033b8:	4659      	mov	r1, fp
100033ba:	0028      	movs	r0, r5
100033bc:	f7ff fa6e 	bl	1000289c <_ntoa_long_long>
100033c0:	0007      	movs	r7, r0
100033c2:	e7c9      	b.n	10003358 <_vsnprintf+0x270>
100033c4:	9a1c      	ldr	r2, [sp, #112]	; 0x70
100033c6:	1d11      	adds	r1, r2, #4
100033c8:	911c      	str	r1, [sp, #112]	; 0x70
100033ca:	6812      	ldr	r2, [r2, #0]
100033cc:	17d3      	asrs	r3, r2, #31
100033ce:	18d1      	adds	r1, r2, r3
100033d0:	4059      	eors	r1, r3
100033d2:	9405      	str	r4, [sp, #20]
100033d4:	9b0a      	ldr	r3, [sp, #40]	; 0x28
100033d6:	9304      	str	r3, [sp, #16]
100033d8:	4653      	mov	r3, sl
100033da:	9303      	str	r3, [sp, #12]
100033dc:	9602      	str	r6, [sp, #8]
100033de:	0fd2      	lsrs	r2, r2, #31
100033e0:	9201      	str	r2, [sp, #4]
100033e2:	9100      	str	r1, [sp, #0]
100033e4:	4643      	mov	r3, r8
100033e6:	003a      	movs	r2, r7
100033e8:	4659      	mov	r1, fp
100033ea:	0028      	movs	r0, r5
100033ec:	f7ff f9f8 	bl	100027e0 <_ntoa_long>
100033f0:	0007      	movs	r7, r0
100033f2:	e7b1      	b.n	10003358 <_vsnprintf+0x270>
100033f4:	0623      	lsls	r3, r4, #24
100033f6:	d505      	bpl.n	10003404 <_vsnprintf+0x31c>
100033f8:	9a1c      	ldr	r2, [sp, #112]	; 0x70
100033fa:	1d11      	adds	r1, r2, #4
100033fc:	911c      	str	r1, [sp, #112]	; 0x70
100033fe:	2300      	movs	r3, #0
10003400:	5ed2      	ldrsh	r2, [r2, r3]
10003402:	e796      	b.n	10003332 <_vsnprintf+0x24a>
10003404:	9a1c      	ldr	r2, [sp, #112]	; 0x70
10003406:	1d11      	adds	r1, r2, #4
10003408:	911c      	str	r1, [sp, #112]	; 0x70
1000340a:	6812      	ldr	r2, [r2, #0]
1000340c:	e791      	b.n	10003332 <_vsnprintf+0x24a>
1000340e:	9b1c      	ldr	r3, [sp, #112]	; 0x70
10003410:	1dda      	adds	r2, r3, #7
10003412:	2107      	movs	r1, #7
10003414:	438a      	bics	r2, r1
10003416:	0011      	movs	r1, r2
10003418:	3108      	adds	r1, #8
1000341a:	911c      	str	r1, [sp, #112]	; 0x70
1000341c:	9408      	str	r4, [sp, #32]
1000341e:	9b0a      	ldr	r3, [sp, #40]	; 0x28
10003420:	9307      	str	r3, [sp, #28]
10003422:	4653      	mov	r3, sl
10003424:	9306      	str	r3, [sp, #24]
10003426:	9604      	str	r6, [sp, #16]
10003428:	2300      	movs	r3, #0
1000342a:	9305      	str	r3, [sp, #20]
1000342c:	9302      	str	r3, [sp, #8]
1000342e:	6813      	ldr	r3, [r2, #0]
10003430:	6854      	ldr	r4, [r2, #4]
10003432:	9300      	str	r3, [sp, #0]
10003434:	9401      	str	r4, [sp, #4]
10003436:	4643      	mov	r3, r8
10003438:	003a      	movs	r2, r7
1000343a:	4659      	mov	r1, fp
1000343c:	0028      	movs	r0, r5
1000343e:	f7ff fa2d 	bl	1000289c <_ntoa_long_long>
10003442:	0007      	movs	r7, r0
10003444:	e788      	b.n	10003358 <_vsnprintf+0x270>
10003446:	9a1c      	ldr	r2, [sp, #112]	; 0x70
10003448:	1d11      	adds	r1, r2, #4
1000344a:	911c      	str	r1, [sp, #112]	; 0x70
1000344c:	9405      	str	r4, [sp, #20]
1000344e:	9b0a      	ldr	r3, [sp, #40]	; 0x28
10003450:	9304      	str	r3, [sp, #16]
10003452:	4653      	mov	r3, sl
10003454:	9303      	str	r3, [sp, #12]
10003456:	9602      	str	r6, [sp, #8]
10003458:	2300      	movs	r3, #0
1000345a:	9301      	str	r3, [sp, #4]
1000345c:	6813      	ldr	r3, [r2, #0]
1000345e:	9300      	str	r3, [sp, #0]
10003460:	4643      	mov	r3, r8
10003462:	003a      	movs	r2, r7
10003464:	4659      	mov	r1, fp
10003466:	0028      	movs	r0, r5
10003468:	f7ff f9ba 	bl	100027e0 <_ntoa_long>
1000346c:	0007      	movs	r7, r0
1000346e:	e773      	b.n	10003358 <_vsnprintf+0x270>
10003470:	0623      	lsls	r3, r4, #24
10003472:	d50d      	bpl.n	10003490 <_vsnprintf+0x3a8>
10003474:	9a1c      	ldr	r2, [sp, #112]	; 0x70
10003476:	1d11      	adds	r1, r2, #4
10003478:	911c      	str	r1, [sp, #112]	; 0x70
1000347a:	6812      	ldr	r2, [r2, #0]
1000347c:	0412      	lsls	r2, r2, #16
1000347e:	0c12      	lsrs	r2, r2, #16
10003480:	e731      	b.n	100032e6 <_vsnprintf+0x1fe>
10003482:	46c0      	nop			; (mov r8, r8)
10003484:	100078c4 	.word	0x100078c4
10003488:	10007908 	.word	0x10007908
1000348c:	10007954 	.word	0x10007954
10003490:	9a1c      	ldr	r2, [sp, #112]	; 0x70
10003492:	1d11      	adds	r1, r2, #4
10003494:	911c      	str	r1, [sp, #112]	; 0x70
10003496:	6812      	ldr	r2, [r2, #0]
10003498:	e725      	b.n	100032e6 <_vsnprintf+0x1fe>
1000349a:	2846      	cmp	r0, #70	; 0x46
1000349c:	d01a      	beq.n	100034d4 <_vsnprintf+0x3ec>
1000349e:	9b1c      	ldr	r3, [sp, #112]	; 0x70
100034a0:	3307      	adds	r3, #7
100034a2:	2207      	movs	r2, #7
100034a4:	4393      	bics	r3, r2
100034a6:	001a      	movs	r2, r3
100034a8:	3208      	adds	r2, #8
100034aa:	921c      	str	r2, [sp, #112]	; 0x70
100034ac:	9404      	str	r4, [sp, #16]
100034ae:	9a0a      	ldr	r2, [sp, #40]	; 0x28
100034b0:	9203      	str	r2, [sp, #12]
100034b2:	4652      	mov	r2, sl
100034b4:	9202      	str	r2, [sp, #8]
100034b6:	685c      	ldr	r4, [r3, #4]
100034b8:	681b      	ldr	r3, [r3, #0]
100034ba:	9300      	str	r3, [sp, #0]
100034bc:	9401      	str	r4, [sp, #4]
100034be:	4643      	mov	r3, r8
100034c0:	003a      	movs	r2, r7
100034c2:	4659      	mov	r1, fp
100034c4:	0028      	movs	r0, r5
100034c6:	f7ff fc65 	bl	10002d94 <_ftoa>
100034ca:	0007      	movs	r7, r0
100034cc:	9b11      	ldr	r3, [sp, #68]	; 0x44
100034ce:	3301      	adds	r3, #1
100034d0:	9311      	str	r3, [sp, #68]	; 0x44
100034d2:	e619      	b.n	10003108 <_vsnprintf+0x20>
100034d4:	2320      	movs	r3, #32
100034d6:	431c      	orrs	r4, r3
100034d8:	e7e1      	b.n	1000349e <_vsnprintf+0x3b6>
100034da:	2867      	cmp	r0, #103	; 0x67
100034dc:	d001      	beq.n	100034e2 <_vsnprintf+0x3fa>
100034de:	2847      	cmp	r0, #71	; 0x47
100034e0:	d102      	bne.n	100034e8 <_vsnprintf+0x400>
100034e2:	2380      	movs	r3, #128	; 0x80
100034e4:	011b      	lsls	r3, r3, #4
100034e6:	431c      	orrs	r4, r3
100034e8:	2845      	cmp	r0, #69	; 0x45
100034ea:	d001      	beq.n	100034f0 <_vsnprintf+0x408>
100034ec:	2847      	cmp	r0, #71	; 0x47
100034ee:	d101      	bne.n	100034f4 <_vsnprintf+0x40c>
100034f0:	2320      	movs	r3, #32
100034f2:	431c      	orrs	r4, r3
100034f4:	9b1c      	ldr	r3, [sp, #112]	; 0x70
100034f6:	3307      	adds	r3, #7
100034f8:	2207      	movs	r2, #7
100034fa:	4393      	bics	r3, r2
100034fc:	001a      	movs	r2, r3
100034fe:	3208      	adds	r2, #8
10003500:	921c      	str	r2, [sp, #112]	; 0x70
10003502:	9404      	str	r4, [sp, #16]
10003504:	9a0a      	ldr	r2, [sp, #40]	; 0x28
10003506:	9203      	str	r2, [sp, #12]
10003508:	4652      	mov	r2, sl
1000350a:	9202      	str	r2, [sp, #8]
1000350c:	685c      	ldr	r4, [r3, #4]
1000350e:	681b      	ldr	r3, [r3, #0]
10003510:	9300      	str	r3, [sp, #0]
10003512:	9401      	str	r4, [sp, #4]
10003514:	4643      	mov	r3, r8
10003516:	003a      	movs	r2, r7
10003518:	4659      	mov	r1, fp
1000351a:	0028      	movs	r0, r5
1000351c:	f7ff fa30 	bl	10002980 <_etoa>
10003520:	0007      	movs	r7, r0
10003522:	9b11      	ldr	r3, [sp, #68]	; 0x44
10003524:	3301      	adds	r3, #1
10003526:	9311      	str	r3, [sp, #68]	; 0x44
10003528:	e5ee      	b.n	10003108 <_vsnprintf+0x20>
1000352a:	2302      	movs	r3, #2
1000352c:	001a      	movs	r2, r3
1000352e:	4022      	ands	r2, r4
10003530:	4692      	mov	sl, r2
10003532:	4223      	tst	r3, r4
10003534:	d01f      	beq.n	10003576 <_vsnprintf+0x48e>
10003536:	2401      	movs	r4, #1
10003538:	9b1c      	ldr	r3, [sp, #112]	; 0x70
1000353a:	1d1a      	adds	r2, r3, #4
1000353c:	921c      	str	r2, [sp, #112]	; 0x70
1000353e:	1c7a      	adds	r2, r7, #1
10003540:	4691      	mov	r9, r2
10003542:	7818      	ldrb	r0, [r3, #0]
10003544:	4643      	mov	r3, r8
10003546:	003a      	movs	r2, r7
10003548:	4659      	mov	r1, fp
1000354a:	47a8      	blx	r5
1000354c:	4653      	mov	r3, sl
1000354e:	2b00      	cmp	r3, #0
10003550:	d116      	bne.n	10003580 <_vsnprintf+0x498>
10003552:	9b11      	ldr	r3, [sp, #68]	; 0x44
10003554:	3301      	adds	r3, #1
10003556:	9311      	str	r3, [sp, #68]	; 0x44
10003558:	464f      	mov	r7, r9
1000355a:	e5d5      	b.n	10003108 <_vsnprintf+0x20>
1000355c:	1c56      	adds	r6, r2, #1
1000355e:	4643      	mov	r3, r8
10003560:	4659      	mov	r1, fp
10003562:	2020      	movs	r0, #32
10003564:	47b8      	blx	r7
10003566:	0023      	movs	r3, r4
10003568:	0032      	movs	r2, r6
1000356a:	1c5c      	adds	r4, r3, #1
1000356c:	429d      	cmp	r5, r3
1000356e:	d8f5      	bhi.n	1000355c <_vsnprintf+0x474>
10003570:	003d      	movs	r5, r7
10003572:	0017      	movs	r7, r2
10003574:	e7e0      	b.n	10003538 <_vsnprintf+0x450>
10003576:	2301      	movs	r3, #1
10003578:	003a      	movs	r2, r7
1000357a:	002f      	movs	r7, r5
1000357c:	9d0a      	ldr	r5, [sp, #40]	; 0x28
1000357e:	e7f4      	b.n	1000356a <_vsnprintf+0x482>
10003580:	464a      	mov	r2, r9
10003582:	46a9      	mov	r9, r5
10003584:	9d0a      	ldr	r5, [sp, #40]	; 0x28
10003586:	e006      	b.n	10003596 <_vsnprintf+0x4ae>
10003588:	1c57      	adds	r7, r2, #1
1000358a:	4643      	mov	r3, r8
1000358c:	4659      	mov	r1, fp
1000358e:	2020      	movs	r0, #32
10003590:	47c8      	blx	r9
10003592:	0034      	movs	r4, r6
10003594:	003a      	movs	r2, r7
10003596:	1c66      	adds	r6, r4, #1
10003598:	42a5      	cmp	r5, r4
1000359a:	d8f5      	bhi.n	10003588 <_vsnprintf+0x4a0>
1000359c:	464d      	mov	r5, r9
1000359e:	4691      	mov	r9, r2
100035a0:	e7d7      	b.n	10003552 <_vsnprintf+0x46a>
100035a2:	9b1c      	ldr	r3, [sp, #112]	; 0x70
100035a4:	1d1a      	adds	r2, r3, #4
100035a6:	921c      	str	r2, [sp, #112]	; 0x70
100035a8:	681b      	ldr	r3, [r3, #0]
100035aa:	4699      	mov	r9, r3
100035ac:	4653      	mov	r3, sl
100035ae:	2b00      	cmp	r3, #0
100035b0:	d100      	bne.n	100035b4 <_vsnprintf+0x4cc>
100035b2:	3b01      	subs	r3, #1
100035b4:	464e      	mov	r6, r9
100035b6:	e001      	b.n	100035bc <_vsnprintf+0x4d4>
100035b8:	3601      	adds	r6, #1
100035ba:	0013      	movs	r3, r2
100035bc:	7832      	ldrb	r2, [r6, #0]
100035be:	2a00      	cmp	r2, #0
100035c0:	d002      	beq.n	100035c8 <_vsnprintf+0x4e0>
100035c2:	1e5a      	subs	r2, r3, #1
100035c4:	2b00      	cmp	r3, #0
100035c6:	d1f7      	bne.n	100035b8 <_vsnprintf+0x4d0>
100035c8:	464b      	mov	r3, r9
100035ca:	1af2      	subs	r2, r6, r3
100035cc:	9210      	str	r2, [sp, #64]	; 0x40
100035ce:	2380      	movs	r3, #128	; 0x80
100035d0:	00db      	lsls	r3, r3, #3
100035d2:	0026      	movs	r6, r4
100035d4:	401e      	ands	r6, r3
100035d6:	421c      	tst	r4, r3
100035d8:	d003      	beq.n	100035e2 <_vsnprintf+0x4fa>
100035da:	4552      	cmp	r2, sl
100035dc:	d901      	bls.n	100035e2 <_vsnprintf+0x4fa>
100035de:	4653      	mov	r3, sl
100035e0:	9310      	str	r3, [sp, #64]	; 0x40
100035e2:	2302      	movs	r3, #2
100035e4:	001a      	movs	r2, r3
100035e6:	4022      	ands	r2, r4
100035e8:	920b      	str	r2, [sp, #44]	; 0x2c
100035ea:	4223      	tst	r3, r4
100035ec:	d005      	beq.n	100035fa <_vsnprintf+0x512>
100035ee:	003a      	movs	r2, r7
100035f0:	0037      	movs	r7, r6
100035f2:	464c      	mov	r4, r9
100035f4:	46a9      	mov	r9, r5
100035f6:	4655      	mov	r5, sl
100035f8:	e020      	b.n	1000363c <_vsnprintf+0x554>
100035fa:	003a      	movs	r2, r7
100035fc:	9b10      	ldr	r3, [sp, #64]	; 0x40
100035fe:	465f      	mov	r7, fp
10003600:	46b3      	mov	fp, r6
10003602:	002e      	movs	r6, r5
10003604:	e006      	b.n	10003614 <_vsnprintf+0x52c>
10003606:	1c55      	adds	r5, r2, #1
10003608:	4643      	mov	r3, r8
1000360a:	0039      	movs	r1, r7
1000360c:	2020      	movs	r0, #32
1000360e:	47b0      	blx	r6
10003610:	0023      	movs	r3, r4
10003612:	002a      	movs	r2, r5
10003614:	1c5c      	adds	r4, r3, #1
10003616:	990a      	ldr	r1, [sp, #40]	; 0x28
10003618:	4299      	cmp	r1, r3
1000361a:	d8f4      	bhi.n	10003606 <_vsnprintf+0x51e>
1000361c:	0035      	movs	r5, r6
1000361e:	465e      	mov	r6, fp
10003620:	46bb      	mov	fp, r7
10003622:	9410      	str	r4, [sp, #64]	; 0x40
10003624:	0037      	movs	r7, r6
10003626:	464c      	mov	r4, r9
10003628:	46a9      	mov	r9, r5
1000362a:	4655      	mov	r5, sl
1000362c:	e006      	b.n	1000363c <_vsnprintf+0x554>
1000362e:	001d      	movs	r5, r3
10003630:	3401      	adds	r4, #1
10003632:	1c56      	adds	r6, r2, #1
10003634:	4643      	mov	r3, r8
10003636:	4659      	mov	r1, fp
10003638:	47c8      	blx	r9
1000363a:	0032      	movs	r2, r6
1000363c:	7820      	ldrb	r0, [r4, #0]
1000363e:	2800      	cmp	r0, #0
10003640:	d004      	beq.n	1000364c <_vsnprintf+0x564>
10003642:	2f00      	cmp	r7, #0
10003644:	d0f4      	beq.n	10003630 <_vsnprintf+0x548>
10003646:	1e6b      	subs	r3, r5, #1
10003648:	2d00      	cmp	r5, #0
1000364a:	d1f0      	bne.n	1000362e <_vsnprintf+0x546>
1000364c:	0017      	movs	r7, r2
1000364e:	464d      	mov	r5, r9
10003650:	9b0b      	ldr	r3, [sp, #44]	; 0x2c
10003652:	2b00      	cmp	r3, #0
10003654:	d103      	bne.n	1000365e <_vsnprintf+0x576>
10003656:	9b11      	ldr	r3, [sp, #68]	; 0x44
10003658:	3301      	adds	r3, #1
1000365a:	9311      	str	r3, [sp, #68]	; 0x44
1000365c:	e554      	b.n	10003108 <_vsnprintf+0x20>
1000365e:	9f0a      	ldr	r7, [sp, #40]	; 0x28
10003660:	9b10      	ldr	r3, [sp, #64]	; 0x40
10003662:	e006      	b.n	10003672 <_vsnprintf+0x58a>
10003664:	1c56      	adds	r6, r2, #1
10003666:	4643      	mov	r3, r8
10003668:	4659      	mov	r1, fp
1000366a:	2020      	movs	r0, #32
1000366c:	47a8      	blx	r5
1000366e:	0023      	movs	r3, r4
10003670:	0032      	movs	r2, r6
10003672:	1c5c      	adds	r4, r3, #1
10003674:	429f      	cmp	r7, r3
10003676:	d8f5      	bhi.n	10003664 <_vsnprintf+0x57c>
10003678:	0017      	movs	r7, r2
1000367a:	e7ec      	b.n	10003656 <_vsnprintf+0x56e>
1000367c:	2321      	movs	r3, #33	; 0x21
1000367e:	431c      	orrs	r4, r3
10003680:	9b1c      	ldr	r3, [sp, #112]	; 0x70
10003682:	1d1a      	adds	r2, r3, #4
10003684:	921c      	str	r2, [sp, #112]	; 0x70
10003686:	681b      	ldr	r3, [r3, #0]
10003688:	9300      	str	r3, [sp, #0]
1000368a:	9405      	str	r4, [sp, #20]
1000368c:	2308      	movs	r3, #8
1000368e:	9304      	str	r3, [sp, #16]
10003690:	4653      	mov	r3, sl
10003692:	9303      	str	r3, [sp, #12]
10003694:	2310      	movs	r3, #16
10003696:	9302      	str	r3, [sp, #8]
10003698:	2300      	movs	r3, #0
1000369a:	9301      	str	r3, [sp, #4]
1000369c:	4643      	mov	r3, r8
1000369e:	003a      	movs	r2, r7
100036a0:	4659      	mov	r1, fp
100036a2:	0028      	movs	r0, r5
100036a4:	f7ff f89c 	bl	100027e0 <_ntoa_long>
100036a8:	0007      	movs	r7, r0
100036aa:	9b11      	ldr	r3, [sp, #68]	; 0x44
100036ac:	3301      	adds	r3, #1
100036ae:	9311      	str	r3, [sp, #68]	; 0x44
100036b0:	e52a      	b.n	10003108 <_vsnprintf+0x20>
100036b2:	1c7c      	adds	r4, r7, #1
100036b4:	4643      	mov	r3, r8
100036b6:	003a      	movs	r2, r7
100036b8:	4659      	mov	r1, fp
100036ba:	2025      	movs	r0, #37	; 0x25
100036bc:	47a8      	blx	r5
100036be:	9b11      	ldr	r3, [sp, #68]	; 0x44
100036c0:	3301      	adds	r3, #1
100036c2:	9311      	str	r3, [sp, #68]	; 0x44
100036c4:	0027      	movs	r7, r4
100036c6:	e51f      	b.n	10003108 <_vsnprintf+0x20>
100036c8:	1c7c      	adds	r4, r7, #1
100036ca:	4643      	mov	r3, r8
100036cc:	003a      	movs	r2, r7
100036ce:	4659      	mov	r1, fp
100036d0:	47a8      	blx	r5
100036d2:	9b11      	ldr	r3, [sp, #68]	; 0x44
100036d4:	3301      	adds	r3, #1
100036d6:	9311      	str	r3, [sp, #68]	; 0x44
100036d8:	0027      	movs	r7, r4
100036da:	e515      	b.n	10003108 <_vsnprintf+0x20>
100036dc:	4b0a      	ldr	r3, [pc, #40]	; (10003708 <_vsnprintf+0x620>)
100036de:	469a      	mov	sl, r3
100036e0:	e510      	b.n	10003104 <_vsnprintf+0x1c>
100036e2:	46aa      	mov	sl, r5
100036e4:	4547      	cmp	r7, r8
100036e6:	d302      	bcc.n	100036ee <_vsnprintf+0x606>
100036e8:	4643      	mov	r3, r8
100036ea:	1e5a      	subs	r2, r3, #1
100036ec:	e000      	b.n	100036f0 <_vsnprintf+0x608>
100036ee:	003a      	movs	r2, r7
100036f0:	4643      	mov	r3, r8
100036f2:	4659      	mov	r1, fp
100036f4:	2000      	movs	r0, #0
100036f6:	47d0      	blx	sl
100036f8:	0038      	movs	r0, r7
100036fa:	b013      	add	sp, #76	; 0x4c
100036fc:	bcf0      	pop	{r4, r5, r6, r7}
100036fe:	46bb      	mov	fp, r7
10003700:	46b2      	mov	sl, r6
10003702:	46a9      	mov	r9, r5
10003704:	46a0      	mov	r8, r4
10003706:	bdf0      	pop	{r4, r5, r6, r7, pc}
10003708:	100025ed 	.word	0x100025ed

1000370c <vfctprintf>:
1000370c:	b500      	push	{lr}
1000370e:	b085      	sub	sp, #20
10003710:	9002      	str	r0, [sp, #8]
10003712:	9103      	str	r1, [sp, #12]
10003714:	2101      	movs	r1, #1
10003716:	9300      	str	r3, [sp, #0]
10003718:	0013      	movs	r3, r2
1000371a:	424a      	negs	r2, r1
1000371c:	a902      	add	r1, sp, #8
1000371e:	4802      	ldr	r0, [pc, #8]	; (10003728 <vfctprintf+0x1c>)
10003720:	f7ff fce2 	bl	100030e8 <_vsnprintf>
10003724:	b005      	add	sp, #20
10003726:	bd00      	pop	{pc}
10003728:	100025ef 	.word	0x100025ef

1000372c <__aeabi_bits_init>:
1000372c:	4801      	ldr	r0, [pc, #4]	; (10003734 <__aeabi_bits_init+0x8>)
1000372e:	2104      	movs	r1, #4
10003730:	4b01      	ldr	r3, [pc, #4]	; (10003738 <__aeabi_bits_init+0xc>)
10003732:	4718      	bx	r3
10003734:	20000c30 	.word	0x20000c30
10003738:	1000375d 	.word	0x1000375d

1000373c <rom_func_lookup>:
1000373c:	b510      	push	{r4, lr}
1000373e:	0001      	movs	r1, r0
10003740:	2318      	movs	r3, #24
10003742:	881b      	ldrh	r3, [r3, #0]
10003744:	2214      	movs	r2, #20
10003746:	8810      	ldrh	r0, [r2, #0]
10003748:	4798      	blx	r3
1000374a:	bd10      	pop	{r4, pc}

1000374c <rom_data_lookup>:
1000374c:	b510      	push	{r4, lr}
1000374e:	0001      	movs	r1, r0
10003750:	2318      	movs	r3, #24
10003752:	881b      	ldrh	r3, [r3, #0]
10003754:	2216      	movs	r2, #22
10003756:	8810      	ldrh	r0, [r2, #0]
10003758:	4798      	blx	r3
1000375a:	bd10      	pop	{r4, pc}

1000375c <rom_funcs_lookup>:
1000375c:	b5f0      	push	{r4, r5, r6, r7, lr}
1000375e:	46c6      	mov	lr, r8
10003760:	b500      	push	{lr}
10003762:	0007      	movs	r7, r0
10003764:	000e      	movs	r6, r1
10003766:	2500      	movs	r5, #0
10003768:	2301      	movs	r3, #1
1000376a:	4698      	mov	r8, r3
1000376c:	e000      	b.n	10003770 <rom_funcs_lookup+0x14>
1000376e:	3501      	adds	r5, #1
10003770:	42b5      	cmp	r5, r6
10003772:	d20a      	bcs.n	1000378a <rom_funcs_lookup+0x2e>
10003774:	00ac      	lsls	r4, r5, #2
10003776:	193c      	adds	r4, r7, r4
10003778:	6820      	ldr	r0, [r4, #0]
1000377a:	f7ff ffdf 	bl	1000373c <rom_func_lookup>
1000377e:	6020      	str	r0, [r4, #0]
10003780:	2800      	cmp	r0, #0
10003782:	d1f4      	bne.n	1000376e <rom_funcs_lookup+0x12>
10003784:	2300      	movs	r3, #0
10003786:	4698      	mov	r8, r3
10003788:	e7f1      	b.n	1000376e <rom_funcs_lookup+0x12>
1000378a:	4640      	mov	r0, r8
1000378c:	bc80      	pop	{r7}
1000378e:	46b8      	mov	r8, r7
10003790:	bdf0      	pop	{r4, r5, r6, r7, pc}
	...

10003794 <__wrap___aeabi_idiv>:
10003794:	4a12      	ldr	r2, [pc, #72]	; (100037e0 <divmod_s32s32_savestate+0x18>)
10003796:	6f93      	ldr	r3, [r2, #120]	; 0x78
10003798:	089b      	lsrs	r3, r3, #2
1000379a:	d215      	bcs.n	100037c8 <divmod_s32s32_savestate>

1000379c <divmod_s32s32_unsafe>:
1000379c:	6690      	str	r0, [r2, #104]	; 0x68
1000379e:	66d1      	str	r1, [r2, #108]	; 0x6c
100037a0:	2900      	cmp	r1, #0
100037a2:	d005      	beq.n	100037b0 <divmod_s32s32_unsafe+0x14>
100037a4:	e7ff      	b.n	100037a6 <divmod_s32s32_unsafe+0xa>
100037a6:	e7ff      	b.n	100037a8 <divmod_s32s32_unsafe+0xc>
100037a8:	e7ff      	b.n	100037aa <divmod_s32s32_unsafe+0xe>
100037aa:	6f51      	ldr	r1, [r2, #116]	; 0x74
100037ac:	6f10      	ldr	r0, [r2, #112]	; 0x70
100037ae:	4770      	bx	lr
100037b0:	b504      	push	{r2, lr}
100037b2:	2180      	movs	r1, #128	; 0x80
100037b4:	0609      	lsls	r1, r1, #24
100037b6:	17c2      	asrs	r2, r0, #31
100037b8:	4051      	eors	r1, r2
100037ba:	2800      	cmp	r0, #0
100037bc:	d000      	beq.n	100037c0 <divmod_s32s32_unsafe+0x24>
100037be:	43c8      	mvns	r0, r1
100037c0:	f003 f9de 	bl	10006b80 <____aeabi_idiv0_veneer>
100037c4:	2100      	movs	r1, #0
100037c6:	bd04      	pop	{r2, pc}

100037c8 <divmod_s32s32_savestate>:
100037c8:	b5f0      	push	{r4, r5, r6, r7, lr}
100037ca:	6e14      	ldr	r4, [r2, #96]	; 0x60
100037cc:	6e55      	ldr	r5, [r2, #100]	; 0x64
100037ce:	6f57      	ldr	r7, [r2, #116]	; 0x74
100037d0:	6f16      	ldr	r6, [r2, #112]	; 0x70
100037d2:	f7ff ffe3 	bl	1000379c <divmod_s32s32_unsafe>
100037d6:	6614      	str	r4, [r2, #96]	; 0x60
100037d8:	6655      	str	r5, [r2, #100]	; 0x64
100037da:	6757      	str	r7, [r2, #116]	; 0x74
100037dc:	6716      	str	r6, [r2, #112]	; 0x70
100037de:	bdf0      	pop	{r4, r5, r6, r7, pc}
100037e0:	d0000000 	.word	0xd0000000

100037e4 <__wrap___aeabi_uidiv>:
100037e4:	4a11      	ldr	r2, [pc, #68]	; (1000382c <divmod_u32u32_savestate+0x18>)
100037e6:	6f93      	ldr	r3, [r2, #120]	; 0x78
100037e8:	089b      	lsrs	r3, r3, #2
100037ea:	d213      	bcs.n	10003814 <divmod_u32u32_savestate>

100037ec <divmod_u32u32_unsafe>:
100037ec:	6610      	str	r0, [r2, #96]	; 0x60
100037ee:	6651      	str	r1, [r2, #100]	; 0x64
100037f0:	2900      	cmp	r1, #0
100037f2:	d005      	beq.n	10003800 <divmod_u32u32_unsafe+0x14>
100037f4:	e7ff      	b.n	100037f6 <divmod_u32u32_unsafe+0xa>
100037f6:	e7ff      	b.n	100037f8 <divmod_u32u32_unsafe+0xc>
100037f8:	e7ff      	b.n	100037fa <divmod_u32u32_unsafe+0xe>
100037fa:	6f51      	ldr	r1, [r2, #116]	; 0x74
100037fc:	6f10      	ldr	r0, [r2, #112]	; 0x70
100037fe:	4770      	bx	lr
10003800:	b504      	push	{r2, lr}
10003802:	2800      	cmp	r0, #0
10003804:	d001      	beq.n	1000380a <divmod_u32u32_unsafe+0x1e>
10003806:	2000      	movs	r0, #0
10003808:	43c0      	mvns	r0, r0
1000380a:	f003 f9b9 	bl	10006b80 <____aeabi_idiv0_veneer>
1000380e:	2100      	movs	r1, #0
10003810:	bd04      	pop	{r2, pc}
10003812:	46c0      	nop			; (mov r8, r8)

10003814 <divmod_u32u32_savestate>:
10003814:	b5f0      	push	{r4, r5, r6, r7, lr}
10003816:	6e14      	ldr	r4, [r2, #96]	; 0x60
10003818:	6e55      	ldr	r5, [r2, #100]	; 0x64
1000381a:	6f57      	ldr	r7, [r2, #116]	; 0x74
1000381c:	6f16      	ldr	r6, [r2, #112]	; 0x70
1000381e:	f7ff ffe5 	bl	100037ec <divmod_u32u32_unsafe>
10003822:	6614      	str	r4, [r2, #96]	; 0x60
10003824:	6655      	str	r5, [r2, #100]	; 0x64
10003826:	6757      	str	r7, [r2, #116]	; 0x74
10003828:	6716      	str	r6, [r2, #112]	; 0x70
1000382a:	bdf0      	pop	{r4, r5, r6, r7, pc}
1000382c:	d0000000 	.word	0xd0000000

10003830 <__wrap___aeabi_ldivmod>:
10003830:	4694      	mov	ip, r2
10003832:	4a4a      	ldr	r2, [pc, #296]	; (1000395c <udiv0+0x1a>)
10003834:	6f92      	ldr	r2, [r2, #120]	; 0x78
10003836:	0892      	lsrs	r2, r2, #2
10003838:	4662      	mov	r2, ip
1000383a:	d201      	bcs.n	10003840 <divmod_s64s64_savestate>
1000383c:	e028      	b.n	10003890 <divmod_s64s64_unsafe>
1000383e:	46c0      	nop			; (mov r8, r8)

10003840 <divmod_s64s64_savestate>:
10003840:	b5f0      	push	{r4, r5, r6, r7, lr}
10003842:	4e46      	ldr	r6, [pc, #280]	; (1000395c <udiv0+0x1a>)
10003844:	6e34      	ldr	r4, [r6, #96]	; 0x60
10003846:	6e75      	ldr	r5, [r6, #100]	; 0x64
10003848:	6f77      	ldr	r7, [r6, #116]	; 0x74
1000384a:	6f36      	ldr	r6, [r6, #112]	; 0x70
1000384c:	f000 f820 	bl	10003890 <divmod_s64s64_unsafe>
10003850:	4694      	mov	ip, r2
10003852:	4a42      	ldr	r2, [pc, #264]	; (1000395c <udiv0+0x1a>)
10003854:	6614      	str	r4, [r2, #96]	; 0x60
10003856:	6655      	str	r5, [r2, #100]	; 0x64
10003858:	6757      	str	r7, [r2, #116]	; 0x74
1000385a:	6716      	str	r6, [r2, #112]	; 0x70
1000385c:	4662      	mov	r2, ip
1000385e:	bdf0      	pop	{r4, r5, r6, r7, pc}

10003860 <__wrap___aeabi_uldivmod>:
10003860:	4694      	mov	ip, r2
10003862:	4a3e      	ldr	r2, [pc, #248]	; (1000395c <udiv0+0x1a>)
10003864:	6f92      	ldr	r2, [r2, #120]	; 0x78
10003866:	0892      	lsrs	r2, r2, #2
10003868:	4662      	mov	r2, ip
1000386a:	d201      	bcs.n	10003870 <divmod_u64u64_savestate>
1000386c:	e054      	b.n	10003918 <divmod_u64u64_unsafe>
1000386e:	46c0      	nop			; (mov r8, r8)

10003870 <divmod_u64u64_savestate>:
10003870:	b5f0      	push	{r4, r5, r6, r7, lr}
10003872:	4e3a      	ldr	r6, [pc, #232]	; (1000395c <udiv0+0x1a>)
10003874:	6e34      	ldr	r4, [r6, #96]	; 0x60
10003876:	6e75      	ldr	r5, [r6, #100]	; 0x64
10003878:	6f77      	ldr	r7, [r6, #116]	; 0x74
1000387a:	6f36      	ldr	r6, [r6, #112]	; 0x70
1000387c:	f000 f84c 	bl	10003918 <divmod_u64u64_unsafe>
10003880:	4694      	mov	ip, r2
10003882:	4a36      	ldr	r2, [pc, #216]	; (1000395c <udiv0+0x1a>)
10003884:	6614      	str	r4, [r2, #96]	; 0x60
10003886:	6655      	str	r5, [r2, #100]	; 0x64
10003888:	6757      	str	r7, [r2, #116]	; 0x74
1000388a:	6716      	str	r6, [r2, #112]	; 0x70
1000388c:	4662      	mov	r2, ip
1000388e:	bdf0      	pop	{r4, r5, r6, r7, pc}

10003890 <divmod_s64s64_unsafe>:
10003890:	2b00      	cmp	r3, #0
10003892:	db24      	blt.n	100038de <l42_1+0x26>
10003894:	d011      	beq.n	100038ba <l42_1+0x2>
10003896:	2900      	cmp	r1, #0
10003898:	da3e      	bge.n	10003918 <divmod_u64u64_unsafe>
1000389a:	b500      	push	{lr}
1000389c:	43c9      	mvns	r1, r1
1000389e:	4240      	negs	r0, r0
100038a0:	d100      	bne.n	100038a4 <l40_1>
100038a2:	3101      	adds	r1, #1

100038a4 <l40_1>:
100038a4:	f000 f838 	bl	10003918 <divmod_u64u64_unsafe>
100038a8:	43c9      	mvns	r1, r1
100038aa:	4240      	negs	r0, r0
100038ac:	d100      	bne.n	100038b0 <l41_1>
100038ae:	3101      	adds	r1, #1

100038b0 <l41_1>:
100038b0:	43db      	mvns	r3, r3
100038b2:	4252      	negs	r2, r2
100038b4:	d100      	bne.n	100038b8 <l42_1>
100038b6:	3301      	adds	r3, #1

100038b8 <l42_1>:
100038b8:	bd00      	pop	{pc}
100038ba:	2a00      	cmp	r2, #0
100038bc:	d1eb      	bne.n	10003896 <divmod_s64s64_unsafe+0x6>
100038be:	2800      	cmp	r0, #0
100038c0:	d101      	bne.n	100038c6 <l42_1+0xe>
100038c2:	2900      	cmp	r1, #0
100038c4:	d005      	beq.n	100038d2 <l42_1+0x1a>
100038c6:	2000      	movs	r0, #0
100038c8:	0fc9      	lsrs	r1, r1, #31
100038ca:	07c9      	lsls	r1, r1, #31
100038cc:	d101      	bne.n	100038d2 <l42_1+0x1a>
100038ce:	43c0      	mvns	r0, r0
100038d0:	0841      	lsrs	r1, r0, #1
100038d2:	b500      	push	{lr}
100038d4:	f003 f944 	bl	10006b60 <____aeabi_ldiv0_veneer>
100038d8:	2200      	movs	r2, #0
100038da:	2300      	movs	r3, #0
100038dc:	bd00      	pop	{pc}
100038de:	b500      	push	{lr}
100038e0:	2900      	cmp	r1, #0
100038e2:	db0a      	blt.n	100038fa <l44_1+0x2>
100038e4:	43db      	mvns	r3, r3
100038e6:	4252      	negs	r2, r2
100038e8:	d100      	bne.n	100038ec <l43_1>
100038ea:	3301      	adds	r3, #1

100038ec <l43_1>:
100038ec:	f000 f814 	bl	10003918 <divmod_u64u64_unsafe>
100038f0:	43c9      	mvns	r1, r1
100038f2:	4240      	negs	r0, r0
100038f4:	d100      	bne.n	100038f8 <l44_1>
100038f6:	3101      	adds	r1, #1

100038f8 <l44_1>:
100038f8:	bd00      	pop	{pc}
100038fa:	43c9      	mvns	r1, r1
100038fc:	4240      	negs	r0, r0
100038fe:	d100      	bne.n	10003902 <l45_1>
10003900:	3101      	adds	r1, #1

10003902 <l45_1>:
10003902:	43db      	mvns	r3, r3
10003904:	4252      	negs	r2, r2
10003906:	d100      	bne.n	1000390a <l46_1>
10003908:	3301      	adds	r3, #1

1000390a <l46_1>:
1000390a:	f000 f805 	bl	10003918 <divmod_u64u64_unsafe>
1000390e:	43db      	mvns	r3, r3
10003910:	4252      	negs	r2, r2
10003912:	d100      	bne.n	10003916 <l47_1>
10003914:	3301      	adds	r3, #1

10003916 <l47_1>:
10003916:	bd00      	pop	{pc}

10003918 <divmod_u64u64_unsafe>:
10003918:	2900      	cmp	r1, #0
1000391a:	d123      	bne.n	10003964 <y64>
1000391c:	2b00      	cmp	r3, #0
1000391e:	d118      	bne.n	10003952 <udiv0+0x10>
10003920:	2a00      	cmp	r2, #0
10003922:	d00c      	beq.n	1000393e <divmod_u64u64_unsafe+0x26>
10003924:	46bc      	mov	ip, r7
10003926:	4f0d      	ldr	r7, [pc, #52]	; (1000395c <udiv0+0x1a>)
10003928:	6638      	str	r0, [r7, #96]	; 0x60
1000392a:	667a      	str	r2, [r7, #100]	; 0x64
1000392c:	2100      	movs	r1, #0
1000392e:	2300      	movs	r3, #0
10003930:	e7ff      	b.n	10003932 <divmod_u64u64_unsafe+0x1a>
10003932:	e7ff      	b.n	10003934 <divmod_u64u64_unsafe+0x1c>
10003934:	e7ff      	b.n	10003936 <divmod_u64u64_unsafe+0x1e>
10003936:	6f7a      	ldr	r2, [r7, #116]	; 0x74
10003938:	6f38      	ldr	r0, [r7, #112]	; 0x70
1000393a:	4667      	mov	r7, ip
1000393c:	4770      	bx	lr
1000393e:	2800      	cmp	r0, #0
10003940:	d001      	beq.n	10003946 <udiv0+0x4>

10003942 <udiv0>:
10003942:	4807      	ldr	r0, [pc, #28]	; (10003960 <udiv0+0x1e>)
10003944:	0001      	movs	r1, r0
10003946:	b500      	push	{lr}
10003948:	f003 f90a 	bl	10006b60 <____aeabi_ldiv0_veneer>
1000394c:	2200      	movs	r2, #0
1000394e:	2300      	movs	r3, #0
10003950:	bd00      	pop	{pc}
10003952:	0002      	movs	r2, r0
10003954:	000b      	movs	r3, r1
10003956:	2000      	movs	r0, #0
10003958:	2100      	movs	r1, #0
1000395a:	4770      	bx	lr
1000395c:	d0000000 	.word	0xd0000000
10003960:	ffffffff 	.word	0xffffffff

10003964 <y64>:
10003964:	2b00      	cmp	r3, #0
10003966:	d000      	beq.n	1000396a <y64+0x6>
10003968:	e0bf      	b.n	10003aea <y64_x48>
1000396a:	0c13      	lsrs	r3, r2, #16
1000396c:	d128      	bne.n	100039c0 <y64_x32>
1000396e:	2a00      	cmp	r2, #0
10003970:	d0e7      	beq.n	10003942 <udiv0>
10003972:	b480      	push	{r7}
10003974:	4f11      	ldr	r7, [pc, #68]	; (100039bc <y64+0x58>)
10003976:	6639      	str	r1, [r7, #96]	; 0x60
10003978:	667a      	str	r2, [r7, #100]	; 0x64
1000397a:	e7ff      	b.n	1000397c <y64+0x18>
1000397c:	e7ff      	b.n	1000397e <y64+0x1a>
1000397e:	b430      	push	{r4, r5}
10003980:	0c04      	lsrs	r4, r0, #16
10003982:	6f7b      	ldr	r3, [r7, #116]	; 0x74
10003984:	6f39      	ldr	r1, [r7, #112]	; 0x70
10003986:	041b      	lsls	r3, r3, #16
10003988:	4323      	orrs	r3, r4
1000398a:	663b      	str	r3, [r7, #96]	; 0x60
1000398c:	667a      	str	r2, [r7, #100]	; 0x64
1000398e:	e7ff      	b.n	10003990 <y64+0x2c>
10003990:	e7ff      	b.n	10003992 <y64+0x2e>
10003992:	e7ff      	b.n	10003994 <y64+0x30>
10003994:	46c0      	nop			; (mov r8, r8)
10003996:	b284      	uxth	r4, r0
10003998:	6f7b      	ldr	r3, [r7, #116]	; 0x74
1000399a:	6f3d      	ldr	r5, [r7, #112]	; 0x70
1000399c:	041b      	lsls	r3, r3, #16
1000399e:	4323      	orrs	r3, r4
100039a0:	663b      	str	r3, [r7, #96]	; 0x60
100039a2:	667a      	str	r2, [r7, #100]	; 0x64
100039a4:	e7ff      	b.n	100039a6 <y64+0x42>
100039a6:	e7ff      	b.n	100039a8 <y64+0x44>
100039a8:	46c0      	nop			; (mov r8, r8)
100039aa:	2300      	movs	r3, #0
100039ac:	042c      	lsls	r4, r5, #16
100039ae:	0c2d      	lsrs	r5, r5, #16
100039b0:	6f7a      	ldr	r2, [r7, #116]	; 0x74
100039b2:	6f38      	ldr	r0, [r7, #112]	; 0x70
100039b4:	1900      	adds	r0, r0, r4
100039b6:	4169      	adcs	r1, r5
100039b8:	bcb0      	pop	{r4, r5, r7}
100039ba:	4770      	bx	lr
100039bc:	d0000000 	.word	0xd0000000

100039c0 <y64_x32>:
100039c0:	b5f0      	push	{r4, r5, r6, r7, lr}
100039c2:	4694      	mov	ip, r2
100039c4:	2500      	movs	r5, #0
100039c6:	0e14      	lsrs	r4, r2, #24
100039c8:	d101      	bne.n	100039ce <y64_x32+0xe>
100039ca:	0212      	lsls	r2, r2, #8
100039cc:	3508      	adds	r5, #8
100039ce:	0f14      	lsrs	r4, r2, #28
100039d0:	d101      	bne.n	100039d6 <y64_x32+0x16>
100039d2:	0112      	lsls	r2, r2, #4
100039d4:	3504      	adds	r5, #4
100039d6:	0f94      	lsrs	r4, r2, #30
100039d8:	d101      	bne.n	100039de <y64_x32+0x1e>
100039da:	0092      	lsls	r2, r2, #2
100039dc:	3502      	adds	r5, #2
100039de:	0fd4      	lsrs	r4, r2, #31
100039e0:	d101      	bne.n	100039e6 <y64_x32+0x26>
100039e2:	0052      	lsls	r2, r2, #1
100039e4:	3501      	adds	r5, #1
100039e6:	0bd4      	lsrs	r4, r2, #15
100039e8:	3401      	adds	r4, #1
100039ea:	4f25      	ldr	r7, [pc, #148]	; (10003a80 <y64_x32+0xc0>)
100039ec:	667c      	str	r4, [r7, #100]	; 0x64
100039ee:	4c25      	ldr	r4, [pc, #148]	; (10003a84 <y64_x32+0xc4>)
100039f0:	663c      	str	r4, [r7, #96]	; 0x60
100039f2:	0c0e      	lsrs	r6, r1, #16
100039f4:	b293      	uxth	r3, r2
100039f6:	e7ff      	b.n	100039f8 <y64_x32+0x38>
100039f8:	e7ff      	b.n	100039fa <y64_x32+0x3a>
100039fa:	e7ff      	b.n	100039fc <y64_x32+0x3c>
100039fc:	6f3c      	ldr	r4, [r7, #112]	; 0x70
100039fe:	4366      	muls	r6, r4
10003a00:	0c36      	lsrs	r6, r6, #16
10003a02:	0377      	lsls	r7, r6, #13
10003a04:	46be      	mov	lr, r7
10003a06:	4373      	muls	r3, r6
10003a08:	0bdf      	lsrs	r7, r3, #15
10003a0a:	045b      	lsls	r3, r3, #17
10003a0c:	1ac0      	subs	r0, r0, r3
10003a0e:	41b9      	sbcs	r1, r7
10003a10:	0c13      	lsrs	r3, r2, #16
10003a12:	4373      	muls	r3, r6
10003a14:	18db      	adds	r3, r3, r3
10003a16:	1ac9      	subs	r1, r1, r3
10003a18:	08ce      	lsrs	r6, r1, #3
10003a1a:	4366      	muls	r6, r4
10003a1c:	0c36      	lsrs	r6, r6, #16
10003a1e:	44b6      	add	lr, r6
10003a20:	b293      	uxth	r3, r2
10003a22:	4373      	muls	r3, r6
10003a24:	0f1f      	lsrs	r7, r3, #28
10003a26:	011b      	lsls	r3, r3, #4
10003a28:	1ac0      	subs	r0, r0, r3
10003a2a:	41b9      	sbcs	r1, r7
10003a2c:	0c13      	lsrs	r3, r2, #16
10003a2e:	4373      	muls	r3, r6
10003a30:	0b1f      	lsrs	r7, r3, #12
10003a32:	051b      	lsls	r3, r3, #20
10003a34:	1ac0      	subs	r0, r0, r3
10003a36:	41b9      	sbcs	r1, r7
10003a38:	0d86      	lsrs	r6, r0, #22
10003a3a:	028f      	lsls	r7, r1, #10
10003a3c:	433e      	orrs	r6, r7
10003a3e:	4366      	muls	r6, r4
10003a40:	0c36      	lsrs	r6, r6, #16
10003a42:	2d09      	cmp	r5, #9
10003a44:	db24      	blt.n	10003a90 <last0>
10003a46:	0a52      	lsrs	r2, r2, #9
10003a48:	4372      	muls	r2, r6
10003a4a:	1a80      	subs	r0, r0, r2
10003a4c:	0377      	lsls	r7, r6, #13
10003a4e:	0a46      	lsrs	r6, r0, #9
10003a50:	4366      	muls	r6, r4
10003a52:	0c36      	lsrs	r6, r6, #16
10003a54:	2316      	movs	r3, #22
10003a56:	1b5b      	subs	r3, r3, r5
10003a58:	40de      	lsrs	r6, r3
10003a5a:	40df      	lsrs	r7, r3
10003a5c:	19bf      	adds	r7, r7, r6
10003a5e:	4664      	mov	r4, ip
10003a60:	4366      	muls	r6, r4
10003a62:	1b82      	subs	r2, r0, r6
10003a64:	4670      	mov	r0, lr
10003a66:	3504      	adds	r5, #4
10003a68:	3306      	adds	r3, #6
10003a6a:	0001      	movs	r1, r0
10003a6c:	40d9      	lsrs	r1, r3
10003a6e:	40a8      	lsls	r0, r5
10003a70:	19c0      	adds	r0, r0, r7
10003a72:	d300      	bcc.n	10003a76 <y64_x32+0xb6>
10003a74:	3101      	adds	r1, #1
10003a76:	42a2      	cmp	r2, r4
10003a78:	d206      	bcs.n	10003a88 <y64_x32+0xc8>
10003a7a:	2300      	movs	r3, #0
10003a7c:	bdf0      	pop	{r4, r5, r6, r7, pc}
10003a7e:	0000      	.short	0x0000
10003a80:	d0000000 	.word	0xd0000000
10003a84:	ffffffff 	.word	0xffffffff
10003a88:	1b12      	subs	r2, r2, r4
10003a8a:	3001      	adds	r0, #1
10003a8c:	d3f3      	bcc.n	10003a76 <y64_x32+0xb6>
10003a8e:	e7f1      	b.n	10003a74 <y64_x32+0xb4>

10003a90 <last0>:
10003a90:	2709      	movs	r7, #9
10003a92:	1b7f      	subs	r7, r7, r5
10003a94:	40fe      	lsrs	r6, r7
10003a96:	4664      	mov	r4, ip
10003a98:	b2a2      	uxth	r2, r4
10003a9a:	4372      	muls	r2, r6
10003a9c:	1a80      	subs	r0, r0, r2
10003a9e:	d200      	bcs.n	10003aa2 <last0+0x12>
10003aa0:	3901      	subs	r1, #1
10003aa2:	0c22      	lsrs	r2, r4, #16
10003aa4:	4372      	muls	r2, r6
10003aa6:	0c13      	lsrs	r3, r2, #16
10003aa8:	0412      	lsls	r2, r2, #16
10003aaa:	1a82      	subs	r2, r0, r2
10003aac:	4199      	sbcs	r1, r3
10003aae:	000b      	movs	r3, r1
10003ab0:	4670      	mov	r0, lr
10003ab2:	3504      	adds	r5, #4
10003ab4:	3713      	adds	r7, #19
10003ab6:	0001      	movs	r1, r0
10003ab8:	40f9      	lsrs	r1, r7
10003aba:	40a8      	lsls	r0, r5
10003abc:	1980      	adds	r0, r0, r6
10003abe:	d300      	bcc.n	10003ac2 <last0+0x32>
10003ac0:	3101      	adds	r1, #1
10003ac2:	2b00      	cmp	r3, #0
10003ac4:	d102      	bne.n	10003acc <last0+0x3c>
10003ac6:	42a2      	cmp	r2, r4
10003ac8:	d20a      	bcs.n	10003ae0 <last0+0x50>
10003aca:	bdf0      	pop	{r4, r5, r6, r7, pc}
10003acc:	3001      	adds	r0, #1
10003ace:	d300      	bcc.n	10003ad2 <last0+0x42>
10003ad0:	3101      	adds	r1, #1
10003ad2:	1b12      	subs	r2, r2, r4
10003ad4:	d2fa      	bcs.n	10003acc <last0+0x3c>
10003ad6:	3b01      	subs	r3, #1
10003ad8:	d1f8      	bne.n	10003acc <last0+0x3c>
10003ada:	42a2      	cmp	r2, r4
10003adc:	d200      	bcs.n	10003ae0 <last0+0x50>
10003ade:	bdf0      	pop	{r4, r5, r6, r7, pc}
10003ae0:	3001      	adds	r0, #1
10003ae2:	d300      	bcc.n	10003ae6 <last0+0x56>
10003ae4:	3101      	adds	r1, #1
10003ae6:	1b12      	subs	r2, r2, r4
10003ae8:	e7f7      	b.n	10003ada <last0+0x4a>

10003aea <y64_x48>:
10003aea:	b5f0      	push	{r4, r5, r6, r7, lr}
10003aec:	0c1c      	lsrs	r4, r3, #16
10003aee:	d000      	beq.n	10003af2 <y64_x48+0x8>
10003af0:	e080      	b.n	10003bf4 <y64_x64>
10003af2:	b40c      	push	{r2, r3}
10003af4:	2500      	movs	r5, #0
10003af6:	0a1c      	lsrs	r4, r3, #8
10003af8:	d104      	bne.n	10003b04 <y64_x48+0x1a>
10003afa:	021b      	lsls	r3, r3, #8
10003afc:	0e16      	lsrs	r6, r2, #24
10003afe:	4333      	orrs	r3, r6
10003b00:	0212      	lsls	r2, r2, #8
10003b02:	3508      	adds	r5, #8
10003b04:	0b1c      	lsrs	r4, r3, #12
10003b06:	d104      	bne.n	10003b12 <y64_x48+0x28>
10003b08:	011b      	lsls	r3, r3, #4
10003b0a:	0f16      	lsrs	r6, r2, #28
10003b0c:	4333      	orrs	r3, r6
10003b0e:	0112      	lsls	r2, r2, #4
10003b10:	3504      	adds	r5, #4
10003b12:	0b9c      	lsrs	r4, r3, #14
10003b14:	d104      	bne.n	10003b20 <y64_x48+0x36>
10003b16:	009b      	lsls	r3, r3, #2
10003b18:	0f96      	lsrs	r6, r2, #30
10003b1a:	4333      	orrs	r3, r6
10003b1c:	0092      	lsls	r2, r2, #2
10003b1e:	3502      	adds	r5, #2
10003b20:	0bdc      	lsrs	r4, r3, #15
10003b22:	d102      	bne.n	10003b2a <y64_x48+0x40>
10003b24:	1892      	adds	r2, r2, r2
10003b26:	415b      	adcs	r3, r3
10003b28:	3501      	adds	r5, #1
10003b2a:	001c      	movs	r4, r3
10003b2c:	1897      	adds	r7, r2, r2
10003b2e:	4164      	adcs	r4, r4
10003b30:	3401      	adds	r4, #1
10003b32:	4f46      	ldr	r7, [pc, #280]	; (10003c4c <y64_x64+0x58>)
10003b34:	667c      	str	r4, [r7, #100]	; 0x64
10003b36:	4c46      	ldr	r4, [pc, #280]	; (10003c50 <y64_x64+0x5c>)
10003b38:	663c      	str	r4, [r7, #96]	; 0x60
10003b3a:	0c0e      	lsrs	r6, r1, #16
10003b3c:	e7ff      	b.n	10003b3e <y64_x48+0x54>
10003b3e:	e7ff      	b.n	10003b40 <y64_x48+0x56>
10003b40:	e7ff      	b.n	10003b42 <y64_x48+0x58>
10003b42:	46c0      	nop			; (mov r8, r8)
10003b44:	6f3c      	ldr	r4, [r7, #112]	; 0x70
10003b46:	4366      	muls	r6, r4
10003b48:	0c36      	lsrs	r6, r6, #16
10003b4a:	0377      	lsls	r7, r6, #13
10003b4c:	46be      	mov	lr, r7
10003b4e:	b297      	uxth	r7, r2
10003b50:	4377      	muls	r7, r6
10003b52:	1bc0      	subs	r0, r0, r7
10003b54:	d200      	bcs.n	10003b58 <y64_x48+0x6e>
10003b56:	3901      	subs	r1, #1
10003b58:	1bc0      	subs	r0, r0, r7
10003b5a:	d200      	bcs.n	10003b5e <y64_x48+0x74>
10003b5c:	3901      	subs	r1, #1
10003b5e:	b29f      	uxth	r7, r3
10003b60:	4377      	muls	r7, r6
10003b62:	1bc9      	subs	r1, r1, r7
10003b64:	1bc9      	subs	r1, r1, r7
10003b66:	0c17      	lsrs	r7, r2, #16
10003b68:	4377      	muls	r7, r6
10003b6a:	047e      	lsls	r6, r7, #17
10003b6c:	0bff      	lsrs	r7, r7, #15
10003b6e:	1b80      	subs	r0, r0, r6
10003b70:	41b9      	sbcs	r1, r7
10003b72:	08ce      	lsrs	r6, r1, #3
10003b74:	4366      	muls	r6, r4
10003b76:	0c36      	lsrs	r6, r6, #16
10003b78:	2d0c      	cmp	r5, #12
10003b7a:	db33      	blt.n	10003be4 <last1>
10003b7c:	44b6      	add	lr, r6
10003b7e:	0b12      	lsrs	r2, r2, #12
10003b80:	051f      	lsls	r7, r3, #20
10003b82:	433a      	orrs	r2, r7
10003b84:	0b1b      	lsrs	r3, r3, #12
10003b86:	b297      	uxth	r7, r2
10003b88:	4377      	muls	r7, r6
10003b8a:	1bc0      	subs	r0, r0, r7
10003b8c:	d200      	bcs.n	10003b90 <y64_x48+0xa6>
10003b8e:	3901      	subs	r1, #1
10003b90:	b29f      	uxth	r7, r3
10003b92:	4377      	muls	r7, r6
10003b94:	1bc9      	subs	r1, r1, r7
10003b96:	0c17      	lsrs	r7, r2, #16
10003b98:	4377      	muls	r7, r6
10003b9a:	043e      	lsls	r6, r7, #16
10003b9c:	0c3f      	lsrs	r7, r7, #16
10003b9e:	1b80      	subs	r0, r0, r6
10003ba0:	41b9      	sbcs	r1, r7
10003ba2:	0d86      	lsrs	r6, r0, #22
10003ba4:	028f      	lsls	r7, r1, #10
10003ba6:	433e      	orrs	r6, r7
10003ba8:	4366      	muls	r6, r4
10003baa:	2729      	movs	r7, #41	; 0x29
10003bac:	1b7f      	subs	r7, r7, r5
10003bae:	40fe      	lsrs	r6, r7
10003bb0:	3d0c      	subs	r5, #12
10003bb2:	4677      	mov	r7, lr
10003bb4:	40af      	lsls	r7, r5
10003bb6:	19bf      	adds	r7, r7, r6
10003bb8:	bc30      	pop	{r4, r5}
10003bba:	b2a2      	uxth	r2, r4
10003bbc:	b2ab      	uxth	r3, r5
10003bbe:	4372      	muls	r2, r6
10003bc0:	4373      	muls	r3, r6
10003bc2:	1a80      	subs	r0, r0, r2
10003bc4:	4199      	sbcs	r1, r3
10003bc6:	0c22      	lsrs	r2, r4, #16
10003bc8:	4372      	muls	r2, r6
10003bca:	0c13      	lsrs	r3, r2, #16
10003bcc:	0412      	lsls	r2, r2, #16
10003bce:	1a80      	subs	r0, r0, r2
10003bd0:	4199      	sbcs	r1, r3
10003bd2:	0002      	movs	r2, r0
10003bd4:	000b      	movs	r3, r1
10003bd6:	3701      	adds	r7, #1
10003bd8:	1b00      	subs	r0, r0, r4
10003bda:	41a9      	sbcs	r1, r5
10003bdc:	d2f9      	bcs.n	10003bd2 <y64_x48+0xe8>
10003bde:	1e78      	subs	r0, r7, #1
10003be0:	2100      	movs	r1, #0
10003be2:	bdf0      	pop	{r4, r5, r6, r7, pc}

10003be4 <last1>:
10003be4:	270c      	movs	r7, #12
10003be6:	1b7f      	subs	r7, r7, r5
10003be8:	40fe      	lsrs	r6, r7
10003bea:	4677      	mov	r7, lr
10003bec:	0b7f      	lsrs	r7, r7, #13
10003bee:	40af      	lsls	r7, r5
10003bf0:	19ff      	adds	r7, r7, r7
10003bf2:	e7e0      	b.n	10003bb6 <y64_x48+0xcc>

10003bf4 <y64_x64>:
10003bf4:	2400      	movs	r4, #0
10003bf6:	1c5d      	adds	r5, r3, #1
10003bf8:	d007      	beq.n	10003c0a <y64_x64+0x16>
10003bfa:	4f14      	ldr	r7, [pc, #80]	; (10003c4c <y64_x64+0x58>)
10003bfc:	667d      	str	r5, [r7, #100]	; 0x64
10003bfe:	6639      	str	r1, [r7, #96]	; 0x60
10003c00:	e7ff      	b.n	10003c02 <y64_x64+0xe>
10003c02:	e7ff      	b.n	10003c04 <y64_x64+0x10>
10003c04:	e7ff      	b.n	10003c06 <y64_x64+0x12>
10003c06:	e7ff      	b.n	10003c08 <y64_x64+0x14>
10003c08:	6f3c      	ldr	r4, [r7, #112]	; 0x70
10003c0a:	b295      	uxth	r5, r2
10003c0c:	b29e      	uxth	r6, r3
10003c0e:	4365      	muls	r5, r4
10003c10:	4366      	muls	r6, r4
10003c12:	1b40      	subs	r0, r0, r5
10003c14:	41b1      	sbcs	r1, r6
10003c16:	0c15      	lsrs	r5, r2, #16
10003c18:	0c1e      	lsrs	r6, r3, #16
10003c1a:	4365      	muls	r5, r4
10003c1c:	4366      	muls	r6, r4
10003c1e:	0436      	lsls	r6, r6, #16
10003c20:	0c2f      	lsrs	r7, r5, #16
10003c22:	433e      	orrs	r6, r7
10003c24:	042d      	lsls	r5, r5, #16
10003c26:	1b40      	subs	r0, r0, r5
10003c28:	41b1      	sbcs	r1, r6
10003c2a:	4299      	cmp	r1, r3
10003c2c:	d204      	bcs.n	10003c38 <y64_x64+0x44>
10003c2e:	0002      	movs	r2, r0
10003c30:	000b      	movs	r3, r1
10003c32:	0020      	movs	r0, r4
10003c34:	2100      	movs	r1, #0
10003c36:	bdf0      	pop	{r4, r5, r6, r7, pc}
10003c38:	d101      	bne.n	10003c3e <y64_x64+0x4a>
10003c3a:	4290      	cmp	r0, r2
10003c3c:	d3f7      	bcc.n	10003c2e <y64_x64+0x3a>
10003c3e:	1a80      	subs	r0, r0, r2
10003c40:	4199      	sbcs	r1, r3
10003c42:	3401      	adds	r4, #1
10003c44:	4299      	cmp	r1, r3
10003c46:	d3f2      	bcc.n	10003c2e <y64_x64+0x3a>
10003c48:	e7f6      	b.n	10003c38 <y64_x64+0x44>
10003c4a:	0000      	.short	0x0000
10003c4c:	d0000000 	.word	0xd0000000
10003c50:	ffffffff 	.word	0xffffffff

10003c54 <__wrap___aeabi_drsub>:
10003c54:	4048      	eors	r0, r1
10003c56:	4041      	eors	r1, r0
10003c58:	4048      	eors	r0, r1

10003c5a <__wrap___aeabi_dsub>:
10003c5a:	b418      	push	{r3, r4}
10003c5c:	4b13      	ldr	r3, [pc, #76]	; (10003cac <__wrap___aeabi_dmul+0xa>)
10003c5e:	685b      	ldr	r3, [r3, #4]
10003c60:	9301      	str	r3, [sp, #4]
10003c62:	bd08      	pop	{r3, pc}

10003c64 <__wrap___aeabi_dadd>:
10003c64:	b418      	push	{r3, r4}
10003c66:	4b11      	ldr	r3, [pc, #68]	; (10003cac <__wrap___aeabi_dmul+0xa>)
10003c68:	681b      	ldr	r3, [r3, #0]
10003c6a:	9301      	str	r3, [sp, #4]
10003c6c:	bd08      	pop	{r3, pc}

10003c6e <__wrap___aeabi_ddiv>:
10003c6e:	4694      	mov	ip, r2
10003c70:	4a0f      	ldr	r2, [pc, #60]	; (10003cb0 <__wrap___aeabi_dmul+0xe>)
10003c72:	6f92      	ldr	r2, [r2, #120]	; 0x78
10003c74:	0892      	lsrs	r2, r2, #2
10003c76:	d205      	bcs.n	10003c84 <ddiv_save_state>
10003c78:	4662      	mov	r2, ip

10003c7a <ddiv_shim_call>:
10003c7a:	b418      	push	{r3, r4}
10003c7c:	4b0b      	ldr	r3, [pc, #44]	; (10003cac <__wrap___aeabi_dmul+0xa>)
10003c7e:	68db      	ldr	r3, [r3, #12]
10003c80:	9301      	str	r3, [sp, #4]
10003c82:	bd08      	pop	{r3, pc}

10003c84 <ddiv_save_state>:
10003c84:	4a0a      	ldr	r2, [pc, #40]	; (10003cb0 <__wrap___aeabi_dmul+0xe>)
10003c86:	b5f0      	push	{r4, r5, r6, r7, lr}
10003c88:	6e14      	ldr	r4, [r2, #96]	; 0x60
10003c8a:	6e55      	ldr	r5, [r2, #100]	; 0x64
10003c8c:	6f57      	ldr	r7, [r2, #116]	; 0x74
10003c8e:	6f16      	ldr	r6, [r2, #112]	; 0x70
10003c90:	4662      	mov	r2, ip
10003c92:	f7ff fff2 	bl	10003c7a <ddiv_shim_call>
10003c96:	4a06      	ldr	r2, [pc, #24]	; (10003cb0 <__wrap___aeabi_dmul+0xe>)
10003c98:	6614      	str	r4, [r2, #96]	; 0x60
10003c9a:	6655      	str	r5, [r2, #100]	; 0x64
10003c9c:	6757      	str	r7, [r2, #116]	; 0x74
10003c9e:	6716      	str	r6, [r2, #112]	; 0x70
10003ca0:	bdf0      	pop	{r4, r5, r6, r7, pc}

10003ca2 <__wrap___aeabi_dmul>:
10003ca2:	b418      	push	{r3, r4}
10003ca4:	4b01      	ldr	r3, [pc, #4]	; (10003cac <__wrap___aeabi_dmul+0xa>)
10003ca6:	689b      	ldr	r3, [r3, #8]
10003ca8:	9301      	str	r3, [sp, #4]
10003caa:	bd08      	pop	{r3, pc}
10003cac:	20001818 	.word	0x20001818
10003cb0:	d0000000 	.word	0xd0000000

10003cb4 <__wrap___aeabi_cdrcmple>:
10003cb4:	b5ff      	push	{r0, r1, r2, r3, r4, r5, r6, r7, lr}
10003cb6:	4050      	eors	r0, r2
10003cb8:	4042      	eors	r2, r0
10003cba:	4050      	eors	r0, r2
10003cbc:	4059      	eors	r1, r3
10003cbe:	404b      	eors	r3, r1
10003cc0:	4059      	eors	r1, r3
10003cc2:	e000      	b.n	10003cc6 <__aeabi_dfcmple_guts>

10003cc4 <__wrap___aeabi_cdcmpeq>:
10003cc4:	b5ff      	push	{r0, r1, r2, r3, r4, r5, r6, r7, lr}

10003cc6 <__aeabi_dfcmple_guts>:
10003cc6:	4f15      	ldr	r7, [pc, #84]	; (10003d1c <__aeabi_dfcmple_guts+0x56>)
10003cc8:	004c      	lsls	r4, r1, #1
10003cca:	0d64      	lsrs	r4, r4, #21
10003ccc:	d003      	beq.n	10003cd6 <__aeabi_dfcmple_guts+0x10>
10003cce:	42bc      	cmp	r4, r7
10003cd0:	d104      	bne.n	10003cdc <__aeabi_dfcmple_guts+0x16>
10003cd2:	030c      	lsls	r4, r1, #12
10003cd4:	d814      	bhi.n	10003d00 <__aeabi_dfcmple_guts+0x3a>
10003cd6:	2000      	movs	r0, #0
10003cd8:	0d09      	lsrs	r1, r1, #20
10003cda:	0509      	lsls	r1, r1, #20
10003cdc:	005c      	lsls	r4, r3, #1
10003cde:	0d64      	lsrs	r4, r4, #21
10003ce0:	d003      	beq.n	10003cea <__aeabi_dfcmple_guts+0x24>
10003ce2:	42bc      	cmp	r4, r7
10003ce4:	d104      	bne.n	10003cf0 <__aeabi_dfcmple_guts+0x2a>
10003ce6:	031c      	lsls	r4, r3, #12
10003ce8:	d80a      	bhi.n	10003d00 <__aeabi_dfcmple_guts+0x3a>
10003cea:	2200      	movs	r2, #0
10003cec:	0d1b      	lsrs	r3, r3, #20
10003cee:	051b      	lsls	r3, r3, #20
10003cf0:	2601      	movs	r6, #1
10003cf2:	404b      	eors	r3, r1
10003cf4:	d409      	bmi.n	10003d0a <__aeabi_dfcmple_guts+0x44>
10003cf6:	404b      	eors	r3, r1
10003cf8:	d503      	bpl.n	10003d02 <__aeabi_dfcmple_guts+0x3c>
10003cfa:	428b      	cmp	r3, r1
10003cfc:	d100      	bne.n	10003d00 <__aeabi_dfcmple_guts+0x3a>
10003cfe:	4282      	cmp	r2, r0
10003d00:	bdff      	pop	{r0, r1, r2, r3, r4, r5, r6, r7, pc}
10003d02:	4299      	cmp	r1, r3
10003d04:	d1fc      	bne.n	10003d00 <__aeabi_dfcmple_guts+0x3a>
10003d06:	4290      	cmp	r0, r2
10003d08:	bdff      	pop	{r0, r1, r2, r3, r4, r5, r6, r7, pc}
10003d0a:	430b      	orrs	r3, r1
10003d0c:	18db      	adds	r3, r3, r3
10003d0e:	4303      	orrs	r3, r0
10003d10:	4313      	orrs	r3, r2
10003d12:	d0f5      	beq.n	10003d00 <__aeabi_dfcmple_guts+0x3a>
10003d14:	43c9      	mvns	r1, r1
10003d16:	1849      	adds	r1, r1, r1
10003d18:	bdff      	pop	{r0, r1, r2, r3, r4, r5, r6, r7, pc}
10003d1a:	0000      	.short	0x0000
10003d1c:	000007ff 	.word	0x000007ff

10003d20 <__wrap___aeabi_dcmplt>:
10003d20:	b500      	push	{lr}
10003d22:	f7ff ffcf 	bl	10003cc4 <__wrap___aeabi_cdcmpeq>
10003d26:	4180      	sbcs	r0, r0
10003d28:	bd00      	pop	{pc}
10003d2a:	46c0      	nop			; (mov r8, r8)

10003d2c <__wrap___aeabi_dcmple>:
10003d2c:	b500      	push	{lr}
10003d2e:	f7ff ffc9 	bl	10003cc4 <__wrap___aeabi_cdcmpeq>
10003d32:	d901      	bls.n	10003d38 <__wrap___aeabi_dcmple+0xc>
10003d34:	2000      	movs	r0, #0
10003d36:	bd00      	pop	{pc}
10003d38:	2001      	movs	r0, #1
10003d3a:	bd00      	pop	{pc}

10003d3c <__wrap___aeabi_dcmpge>:
10003d3c:	b500      	push	{lr}
10003d3e:	f7ff ffb9 	bl	10003cb4 <__wrap___aeabi_cdrcmple>
10003d42:	d901      	bls.n	10003d48 <__wrap___aeabi_dcmpge+0xc>
10003d44:	2000      	movs	r0, #0
10003d46:	bd00      	pop	{pc}
10003d48:	2001      	movs	r0, #1
10003d4a:	bd00      	pop	{pc}

10003d4c <__wrap___aeabi_dcmpgt>:
10003d4c:	b500      	push	{lr}
10003d4e:	f7ff ffb1 	bl	10003cb4 <__wrap___aeabi_cdrcmple>
10003d52:	4180      	sbcs	r0, r0
10003d54:	bd00      	pop	{pc}

10003d56 <__wrap___aeabi_dcmpun>:
10003d56:	2001      	movs	r0, #1
10003d58:	0540      	lsls	r0, r0, #21
10003d5a:	004a      	lsls	r2, r1, #1
10003d5c:	1812      	adds	r2, r2, r0
10003d5e:	d804      	bhi.n	10003d6a <__wrap___aeabi_dcmpun+0x14>
10003d60:	005a      	lsls	r2, r3, #1
10003d62:	1812      	adds	r2, r2, r0
10003d64:	d801      	bhi.n	10003d6a <__wrap___aeabi_dcmpun+0x14>
10003d66:	2000      	movs	r0, #0
10003d68:	4770      	bx	lr
10003d6a:	2001      	movs	r0, #1
10003d6c:	4770      	bx	lr
10003d6e:	2000      	movs	r0, #0
10003d70:	4770      	bx	lr
	...

10003d74 <__wrap___aeabi_ui2d>:
10003d74:	2100      	movs	r1, #0
10003d76:	2800      	cmp	r0, #0
10003d78:	d105      	bne.n	10003d86 <__wrap___aeabi_i2d+0xa>
10003d7a:	4770      	bx	lr

10003d7c <__wrap___aeabi_i2d>:
10003d7c:	17c1      	asrs	r1, r0, #31
10003d7e:	4048      	eors	r0, r1
10003d80:	1a40      	subs	r0, r0, r1
10003d82:	d0fa      	beq.n	10003d7a <__wrap___aeabi_ui2d+0x6>
10003d84:	07c9      	lsls	r1, r1, #31
10003d86:	b513      	push	{r0, r1, r4, lr}
10003d88:	4b06      	ldr	r3, [pc, #24]	; (10003da4 <__wrap___aeabi_i2d+0x28>)
10003d8a:	681b      	ldr	r3, [r3, #0]
10003d8c:	4798      	blx	r3
10003d8e:	bc0c      	pop	{r2, r3}
10003d90:	1c44      	adds	r4, r0, #1
10003d92:	40a2      	lsls	r2, r4
10003d94:	0510      	lsls	r0, r2, #20
10003d96:	0b12      	lsrs	r2, r2, #12
10003d98:	4903      	ldr	r1, [pc, #12]	; (10003da8 <__wrap___aeabi_i2d+0x2c>)
10003d9a:	1b09      	subs	r1, r1, r4
10003d9c:	0509      	lsls	r1, r1, #20
10003d9e:	4319      	orrs	r1, r3
10003da0:	4311      	orrs	r1, r2
10003da2:	bd10      	pop	{r4, pc}
10003da4:	20001918 	.word	0x20001918
10003da8:	0000041f 	.word	0x0000041f

10003dac <__wrap___aeabi_d2iz>:
10003dac:	b510      	push	{r4, lr}
10003dae:	004c      	lsls	r4, r1, #1
10003db0:	0d62      	lsrs	r2, r4, #21
10003db2:	2380      	movs	r3, #128	; 0x80
10003db4:	18d2      	adds	r2, r2, r3
10003db6:	00db      	lsls	r3, r3, #3
10003db8:	1ad2      	subs	r2, r2, r3
10003dba:	055b      	lsls	r3, r3, #21
10003dbc:	2a7e      	cmp	r2, #126	; 0x7e
10003dbe:	dd10      	ble.n	10003de2 <__wrap___aeabi_d2iz+0x36>
10003dc0:	3a9e      	subs	r2, #158	; 0x9e
10003dc2:	da13      	bge.n	10003dec <__wrap___aeabi_d2iz+0x40>
10003dc4:	17cc      	asrs	r4, r1, #31
10003dc6:	0309      	lsls	r1, r1, #12
10003dc8:	0849      	lsrs	r1, r1, #1
10003dca:	4319      	orrs	r1, r3
10003dcc:	4252      	negs	r2, r2
10003dce:	40d1      	lsrs	r1, r2
10003dd0:	0064      	lsls	r4, r4, #1
10003dd2:	3401      	adds	r4, #1
10003dd4:	3215      	adds	r2, #21
10003dd6:	2a20      	cmp	r2, #32
10003dd8:	da05      	bge.n	10003de6 <__wrap___aeabi_d2iz+0x3a>
10003dda:	40d0      	lsrs	r0, r2
10003ddc:	4308      	orrs	r0, r1
10003dde:	4360      	muls	r0, r4
10003de0:	bd10      	pop	{r4, pc}
10003de2:	2000      	movs	r0, #0
10003de4:	bd10      	pop	{r4, pc}
10003de6:	4608      	mov	r0, r1
10003de8:	4360      	muls	r0, r4
10003dea:	bd10      	pop	{r4, pc}
10003dec:	0fc8      	lsrs	r0, r1, #31
10003dee:	18c0      	adds	r0, r0, r3
10003df0:	3801      	subs	r0, #1
10003df2:	bd10      	pop	{r4, pc}

10003df4 <__wrap___aeabi_d2uiz>:
10003df4:	b418      	push	{r3, r4}
10003df6:	4b02      	ldr	r3, [pc, #8]	; (10003e00 <__wrap___aeabi_d2uiz+0xc>)
10003df8:	6a5b      	ldr	r3, [r3, #36]	; 0x24
10003dfa:	9301      	str	r3, [sp, #4]
10003dfc:	bd08      	pop	{r3, pc}
10003dfe:	0000      	.short	0x0000
10003e00:	20001818 	.word	0x20001818

10003e04 <missing_double_func_shim>:
10003e04:	b510      	push	{r4, lr}
10003e06:	4801      	ldr	r0, [pc, #4]	; (10003e0c <missing_double_func_shim+0x8>)
10003e08:	f7fe fbd8 	bl	100025bc <panic>
10003e0c:	10007af8 	.word	0x10007af8

10003e10 <__aeabi_double_init>:
10003e10:	b570      	push	{r4, r5, r6, lr}
10003e12:	2313      	movs	r3, #19
10003e14:	781c      	ldrb	r4, [r3, #0]
10003e16:	2c01      	cmp	r4, #1
10003e18:	d014      	beq.n	10003e44 <__aeabi_double_init+0x34>
10003e1a:	2c01      	cmp	r4, #1
10003e1c:	dc14      	bgt.n	10003e48 <__aeabi_double_init+0x38>
10003e1e:	2c02      	cmp	r4, #2
10003e20:	dc02      	bgt.n	10003e28 <__aeabi_double_init+0x18>
10003e22:	4a1f      	ldr	r2, [pc, #124]	; (10003ea0 <__aeabi_double_init+0x90>)
10003e24:	4b1f      	ldr	r3, [pc, #124]	; (10003ea4 <__aeabi_double_init+0x94>)
10003e26:	649a      	str	r2, [r3, #72]	; 0x48
10003e28:	481f      	ldr	r0, [pc, #124]	; (10003ea8 <__aeabi_double_init+0x98>)
10003e2a:	f7ff fc87 	bl	1000373c <rom_func_lookup>
10003e2e:	4b1f      	ldr	r3, [pc, #124]	; (10003eac <__aeabi_double_init+0x9c>)
10003e30:	6018      	str	r0, [r3, #0]
10003e32:	bd70      	pop	{r4, r5, r6, pc}
10003e34:	0099      	lsls	r1, r3, #2
10003e36:	481e      	ldr	r0, [pc, #120]	; (10003eb0 <__aeabi_double_init+0xa0>)
10003e38:	4a1a      	ldr	r2, [pc, #104]	; (10003ea4 <__aeabi_double_init+0x94>)
10003e3a:	5088      	str	r0, [r1, r2]
10003e3c:	3301      	adds	r3, #1
10003e3e:	2b1f      	cmp	r3, #31
10003e40:	d9f8      	bls.n	10003e34 <__aeabi_double_init+0x24>
10003e42:	e7ea      	b.n	10003e1a <__aeabi_double_init+0xa>
10003e44:	2300      	movs	r3, #0
10003e46:	e7fa      	b.n	10003e3e <__aeabi_double_init+0x2e>
10003e48:	481a      	ldr	r0, [pc, #104]	; (10003eb4 <__aeabi_double_init+0xa4>)
10003e4a:	f7ff fc7f 	bl	1000374c <rom_data_lookup>
10003e4e:	0005      	movs	r5, r0
10003e50:	4819      	ldr	r0, [pc, #100]	; (10003eb8 <__aeabi_double_init+0xa8>)
10003e52:	f7ff fc7b 	bl	1000374c <rom_data_lookup>
10003e56:	3802      	subs	r0, #2
10003e58:	7803      	ldrb	r3, [r0, #0]
10003e5a:	009b      	lsls	r3, r3, #2
10003e5c:	2b7f      	cmp	r3, #127	; 0x7f
10003e5e:	dd19      	ble.n	10003e94 <__aeabi_double_init+0x84>
10003e60:	2280      	movs	r2, #128	; 0x80
10003e62:	0029      	movs	r1, r5
10003e64:	480f      	ldr	r0, [pc, #60]	; (10003ea4 <__aeabi_double_init+0x94>)
10003e66:	f000 f8c5 	bl	10003ff4 <__wrap___aeabi_memcpy>
10003e6a:	2c02      	cmp	r4, #2
10003e6c:	d1d7      	bne.n	10003e1e <__aeabi_double_init+0xe>
10003e6e:	4b13      	ldr	r3, [pc, #76]	; (10003ebc <__aeabi_double_init+0xac>)
10003e70:	881a      	ldrh	r2, [r3, #0]
10003e72:	23b5      	movs	r3, #181	; 0xb5
10003e74:	021b      	lsls	r3, r3, #8
10003e76:	429a      	cmp	r2, r3
10003e78:	d109      	bne.n	10003e8e <__aeabi_double_init+0x7e>
10003e7a:	4b11      	ldr	r3, [pc, #68]	; (10003ec0 <__aeabi_double_init+0xb0>)
10003e7c:	881a      	ldrh	r2, [r3, #0]
10003e7e:	4b11      	ldr	r3, [pc, #68]	; (10003ec4 <__aeabi_double_init+0xb4>)
10003e80:	429a      	cmp	r2, r3
10003e82:	d104      	bne.n	10003e8e <__aeabi_double_init+0x7e>
10003e84:	4b10      	ldr	r3, [pc, #64]	; (10003ec8 <__aeabi_double_init+0xb8>)
10003e86:	881a      	ldrh	r2, [r3, #0]
10003e88:	4b10      	ldr	r3, [pc, #64]	; (10003ecc <__aeabi_double_init+0xbc>)
10003e8a:	429a      	cmp	r2, r3
10003e8c:	d0c7      	beq.n	10003e1e <__aeabi_double_init+0xe>
10003e8e:	2000      	movs	r0, #0
10003e90:	f7fe fb94 	bl	100025bc <panic>
10003e94:	4b0e      	ldr	r3, [pc, #56]	; (10003ed0 <__aeabi_double_init+0xc0>)
10003e96:	4a0f      	ldr	r2, [pc, #60]	; (10003ed4 <__aeabi_double_init+0xc4>)
10003e98:	2132      	movs	r1, #50	; 0x32
10003e9a:	480f      	ldr	r0, [pc, #60]	; (10003ed8 <__aeabi_double_init+0xc8>)
10003e9c:	f7fe faf4 	bl	10002488 <__assert_func>
10003ea0:	10003edd 	.word	0x10003edd
10003ea4:	20001818 	.word	0x20001818
10003ea8:	0000334c 	.word	0x0000334c
10003eac:	20001918 	.word	0x20001918
10003eb0:	10003e05 	.word	0x10003e05
10003eb4:	00004453 	.word	0x00004453
10003eb8:	00004653 	.word	0x00004653
10003ebc:	00003854 	.word	0x00003854
10003ec0:	000038d8 	.word	0x000038d8
10003ec4:	00004649 	.word	0x00004649
10003ec8:	0000389c 	.word	0x0000389c
10003ecc:	00004659 	.word	0x00004659
10003ed0:	10007b10 	.word	0x10007b10
10003ed4:	10007bc8 	.word	0x10007bc8
10003ed8:	10007b64 	.word	0x10007b64

10003edc <double_table_shim_on_use_helper>:
10003edc:	b507      	push	{r0, r1, r2, lr}
10003ede:	4660      	mov	r0, ip
10003ee0:	2800      	cmp	r0, #0
10003ee2:	d100      	bne.n	10003ee6 <double_table_shim_on_use_helper+0xa>
10003ee4:	be00      	bkpt	0x0000
10003ee6:	8801      	ldrh	r1, [r0, #0]
10003ee8:	0a0a      	lsrs	r2, r1, #8
10003eea:	3002      	adds	r0, #2
10003eec:	2adf      	cmp	r2, #223	; 0xdf
10003eee:	d1fa      	bne.n	10003ee6 <double_table_shim_on_use_helper+0xa>
10003ef0:	b2c9      	uxtb	r1, r1
10003ef2:	0882      	lsrs	r2, r0, #2
10003ef4:	d304      	bcc.n	10003f00 <double_table_shim_on_use_helper+0x24>
10003ef6:	8802      	ldrh	r2, [r0, #0]
10003ef8:	8840      	ldrh	r0, [r0, #2]
10003efa:	0400      	lsls	r0, r0, #16
10003efc:	4310      	orrs	r0, r2
10003efe:	e000      	b.n	10003f02 <double_table_shim_on_use_helper+0x26>
10003f00:	6800      	ldr	r0, [r0, #0]
10003f02:	4a02      	ldr	r2, [pc, #8]	; (10003f0c <double_table_shim_on_use_helper+0x30>)
10003f04:	5050      	str	r0, [r2, r1]
10003f06:	9003      	str	r0, [sp, #12]
10003f08:	bd07      	pop	{r0, r1, r2, pc}
10003f0a:	0000      	.short	0x0000
10003f0c:	20001818 	.word	0x20001818

10003f10 <__wrap___aeabi_lmul>:
10003f10:	4351      	muls	r1, r2
10003f12:	4343      	muls	r3, r0
10003f14:	18c9      	adds	r1, r1, r3
10003f16:	468c      	mov	ip, r1
10003f18:	0c11      	lsrs	r1, r2, #16
10003f1a:	b283      	uxth	r3, r0
10003f1c:	434b      	muls	r3, r1
10003f1e:	b410      	push	{r4}
10003f20:	0c04      	lsrs	r4, r0, #16
10003f22:	4361      	muls	r1, r4
10003f24:	b292      	uxth	r2, r2
10003f26:	b280      	uxth	r0, r0
10003f28:	4350      	muls	r0, r2
10003f2a:	4362      	muls	r2, r4
10003f2c:	041c      	lsls	r4, r3, #16
10003f2e:	0c1b      	lsrs	r3, r3, #16
10003f30:	1900      	adds	r0, r0, r4
10003f32:	bc10      	pop	{r4}
10003f34:	4159      	adcs	r1, r3
10003f36:	0413      	lsls	r3, r2, #16
10003f38:	0c12      	lsrs	r2, r2, #16
10003f3a:	18c0      	adds	r0, r0, r3
10003f3c:	4151      	adcs	r1, r2
10003f3e:	4461      	add	r1, ip
10003f40:	4770      	bx	lr
	...

10003f44 <missing_float_func_shim>:
10003f44:	b510      	push	{r4, lr}
10003f46:	4801      	ldr	r0, [pc, #4]	; (10003f4c <missing_float_func_shim+0x8>)
10003f48:	f7fe fb38 	bl	100025bc <panic>
10003f4c:	100077d8 	.word	0x100077d8

10003f50 <__aeabi_float_init>:
10003f50:	b570      	push	{r4, r5, r6, lr}
10003f52:	2313      	movs	r3, #19
10003f54:	781e      	ldrb	r6, [r3, #0]
10003f56:	4818      	ldr	r0, [pc, #96]	; (10003fb8 <__aeabi_float_init+0x68>)
10003f58:	f7ff fbf8 	bl	1000374c <rom_data_lookup>
10003f5c:	0005      	movs	r5, r0
10003f5e:	2e01      	cmp	r6, #1
10003f60:	d011      	beq.n	10003f86 <__aeabi_float_init+0x36>
10003f62:	2e01      	cmp	r6, #1
10003f64:	dd09      	ble.n	10003f7a <__aeabi_float_init+0x2a>
10003f66:	1eab      	subs	r3, r5, #2
10003f68:	781b      	ldrb	r3, [r3, #0]
10003f6a:	009b      	lsls	r3, r3, #2
10003f6c:	2b7f      	cmp	r3, #127	; 0x7f
10003f6e:	dd1d      	ble.n	10003fac <__aeabi_float_init+0x5c>
10003f70:	2280      	movs	r2, #128	; 0x80
10003f72:	0029      	movs	r1, r5
10003f74:	4811      	ldr	r0, [pc, #68]	; (10003fbc <__aeabi_float_init+0x6c>)
10003f76:	f000 f83d 	bl	10003ff4 <__wrap___aeabi_memcpy>
10003f7a:	4811      	ldr	r0, [pc, #68]	; (10003fc0 <__aeabi_float_init+0x70>)
10003f7c:	f7ff fbde 	bl	1000373c <rom_func_lookup>
10003f80:	4b10      	ldr	r3, [pc, #64]	; (10003fc4 <__aeabi_float_init+0x74>)
10003f82:	6018      	str	r0, [r3, #0]
10003f84:	bd70      	pop	{r4, r5, r6, pc}
10003f86:	2254      	movs	r2, #84	; 0x54
10003f88:	0001      	movs	r1, r0
10003f8a:	480c      	ldr	r0, [pc, #48]	; (10003fbc <__aeabi_float_init+0x6c>)
10003f8c:	f000 f832 	bl	10003ff4 <__wrap___aeabi_memcpy>
10003f90:	2300      	movs	r3, #0
10003f92:	e000      	b.n	10003f96 <__aeabi_float_init+0x46>
10003f94:	3301      	adds	r3, #1
10003f96:	2b1f      	cmp	r3, #31
10003f98:	d8e3      	bhi.n	10003f62 <__aeabi_float_init+0x12>
10003f9a:	009a      	lsls	r2, r3, #2
10003f9c:	4c07      	ldr	r4, [pc, #28]	; (10003fbc <__aeabi_float_init+0x6c>)
10003f9e:	5912      	ldr	r2, [r2, r4]
10003fa0:	2a00      	cmp	r2, #0
10003fa2:	d1f7      	bne.n	10003f94 <__aeabi_float_init+0x44>
10003fa4:	009a      	lsls	r2, r3, #2
10003fa6:	4808      	ldr	r0, [pc, #32]	; (10003fc8 <__aeabi_float_init+0x78>)
10003fa8:	5110      	str	r0, [r2, r4]
10003faa:	e7f3      	b.n	10003f94 <__aeabi_float_init+0x44>
10003fac:	4b07      	ldr	r3, [pc, #28]	; (10003fcc <__aeabi_float_init+0x7c>)
10003fae:	4a08      	ldr	r2, [pc, #32]	; (10003fd0 <__aeabi_float_init+0x80>)
10003fb0:	2142      	movs	r1, #66	; 0x42
10003fb2:	4808      	ldr	r0, [pc, #32]	; (10003fd4 <__aeabi_float_init+0x84>)
10003fb4:	f7fe fa68 	bl	10002488 <__assert_func>
10003fb8:	00004653 	.word	0x00004653
10003fbc:	2000191c 	.word	0x2000191c
10003fc0:	0000334c 	.word	0x0000334c
10003fc4:	20001918 	.word	0x20001918
10003fc8:	10003f45 	.word	0x10003f45
10003fcc:	10007bdc 	.word	0x10007bdc
10003fd0:	10007c74 	.word	0x10007c74
10003fd4:	10007c10 	.word	0x10007c10

10003fd8 <__aeabi_mem_init>:
10003fd8:	4801      	ldr	r0, [pc, #4]	; (10003fe0 <__aeabi_mem_init+0x8>)
10003fda:	2104      	movs	r1, #4
10003fdc:	4b01      	ldr	r3, [pc, #4]	; (10003fe4 <__aeabi_mem_init+0xc>)
10003fde:	4718      	bx	r3
10003fe0:	20000c40 	.word	0x20000c40
10003fe4:	1000375d 	.word	0x1000375d

10003fe8 <__wrap_memset>:
10003fe8:	4b01      	ldr	r3, [pc, #4]	; (10003ff0 <__wrap_memset+0x8>)
10003fea:	681b      	ldr	r3, [r3, #0]
10003fec:	4718      	bx	r3
10003fee:	0000      	.short	0x0000
10003ff0:	20000c40 	.word	0x20000c40

10003ff4 <__wrap___aeabi_memcpy>:
10003ff4:	4b01      	ldr	r3, [pc, #4]	; (10003ffc <__wrap___aeabi_memcpy+0x8>)
10003ff6:	685b      	ldr	r3, [r3, #4]
10003ff8:	4718      	bx	r3
10003ffa:	0000      	.short	0x0000
10003ffc:	20000c40 	.word	0x20000c40

10004000 <stdio_out_chars_no_crlf>:
10004000:	b510      	push	{r4, lr}
10004002:	0003      	movs	r3, r0
10004004:	0008      	movs	r0, r1
10004006:	0011      	movs	r1, r2
10004008:	681b      	ldr	r3, [r3, #0]
1000400a:	4798      	blx	r3
1000400c:	bd10      	pop	{r4, pc}
	...

10004010 <stdio_out_chars_crlf>:
10004010:	b5f8      	push	{r3, r4, r5, r6, r7, lr}
10004012:	0007      	movs	r7, r0
10004014:	000d      	movs	r5, r1
10004016:	0016      	movs	r6, r2
10004018:	7d43      	ldrb	r3, [r0, #21]
1000401a:	2b00      	cmp	r3, #0
1000401c:	d002      	beq.n	10004024 <stdio_out_chars_crlf+0x14>
1000401e:	2400      	movs	r4, #0
10004020:	2000      	movs	r0, #0
10004022:	e00c      	b.n	1000403e <stdio_out_chars_crlf+0x2e>
10004024:	6803      	ldr	r3, [r0, #0]
10004026:	0011      	movs	r1, r2
10004028:	0028      	movs	r0, r5
1000402a:	4798      	blx	r3
1000402c:	e02d      	b.n	1000408a <stdio_out_chars_crlf+0x7a>
1000402e:	7d3b      	ldrb	r3, [r7, #20]
10004030:	e010      	b.n	10004054 <stdio_out_chars_crlf+0x44>
10004032:	2102      	movs	r1, #2
10004034:	4815      	ldr	r0, [pc, #84]	; (1000408c <stdio_out_chars_crlf+0x7c>)
10004036:	683b      	ldr	r3, [r7, #0]
10004038:	4798      	blx	r3
1000403a:	1c60      	adds	r0, r4, #1
1000403c:	3401      	adds	r4, #1
1000403e:	42b4      	cmp	r4, r6
10004040:	da14      	bge.n	1000406c <stdio_out_chars_crlf+0x5c>
10004042:	2c00      	cmp	r4, #0
10004044:	ddf3      	ble.n	1000402e <stdio_out_chars_crlf+0x1e>
10004046:	192b      	adds	r3, r5, r4
10004048:	3b01      	subs	r3, #1
1000404a:	781b      	ldrb	r3, [r3, #0]
1000404c:	3b0d      	subs	r3, #13
1000404e:	425a      	negs	r2, r3
10004050:	4153      	adcs	r3, r2
10004052:	b2db      	uxtb	r3, r3
10004054:	5d2a      	ldrb	r2, [r5, r4]
10004056:	2a0a      	cmp	r2, #10
10004058:	d1f0      	bne.n	1000403c <stdio_out_chars_crlf+0x2c>
1000405a:	2b00      	cmp	r3, #0
1000405c:	d1ee      	bne.n	1000403c <stdio_out_chars_crlf+0x2c>
1000405e:	42a0      	cmp	r0, r4
10004060:	dae7      	bge.n	10004032 <stdio_out_chars_crlf+0x22>
10004062:	1a21      	subs	r1, r4, r0
10004064:	1828      	adds	r0, r5, r0
10004066:	683b      	ldr	r3, [r7, #0]
10004068:	4798      	blx	r3
1000406a:	e7e2      	b.n	10004032 <stdio_out_chars_crlf+0x22>
1000406c:	42b0      	cmp	r0, r6
1000406e:	da03      	bge.n	10004078 <stdio_out_chars_crlf+0x68>
10004070:	1a31      	subs	r1, r6, r0
10004072:	1828      	adds	r0, r5, r0
10004074:	683b      	ldr	r3, [r7, #0]
10004076:	4798      	blx	r3
10004078:	2e00      	cmp	r6, #0
1000407a:	dd06      	ble.n	1000408a <stdio_out_chars_crlf+0x7a>
1000407c:	19ad      	adds	r5, r5, r6
1000407e:	3d01      	subs	r5, #1
10004080:	782b      	ldrb	r3, [r5, #0]
10004082:	3b0d      	subs	r3, #13
10004084:	425a      	negs	r2, r3
10004086:	4153      	adcs	r3, r2
10004088:	753b      	strb	r3, [r7, #20]
1000408a:	bdf8      	pop	{r3, r4, r5, r6, r7, pc}
1000408c:	10007d54 	.word	0x10007d54

10004090 <stdio_stack_buffer_flush>:
10004090:	b570      	push	{r4, r5, r6, lr}
10004092:	0005      	movs	r5, r0
10004094:	6803      	ldr	r3, [r0, #0]
10004096:	2b00      	cmp	r3, #0
10004098:	d016      	beq.n	100040c8 <stdio_stack_buffer_flush+0x38>
1000409a:	4b0c      	ldr	r3, [pc, #48]	; (100040cc <stdio_stack_buffer_flush+0x3c>)
1000409c:	681c      	ldr	r4, [r3, #0]
1000409e:	e005      	b.n	100040ac <stdio_stack_buffer_flush+0x1c>
100040a0:	0029      	movs	r1, r5
100040a2:	c904      	ldmia	r1!, {r2}
100040a4:	0020      	movs	r0, r4
100040a6:	f7ff ffb3 	bl	10004010 <stdio_out_chars_crlf>
100040aa:	6924      	ldr	r4, [r4, #16]
100040ac:	2c00      	cmp	r4, #0
100040ae:	d009      	beq.n	100040c4 <stdio_stack_buffer_flush+0x34>
100040b0:	6823      	ldr	r3, [r4, #0]
100040b2:	2b00      	cmp	r3, #0
100040b4:	d0f9      	beq.n	100040aa <stdio_stack_buffer_flush+0x1a>
100040b6:	4b06      	ldr	r3, [pc, #24]	; (100040d0 <stdio_stack_buffer_flush+0x40>)
100040b8:	681b      	ldr	r3, [r3, #0]
100040ba:	2b00      	cmp	r3, #0
100040bc:	d0f0      	beq.n	100040a0 <stdio_stack_buffer_flush+0x10>
100040be:	42a3      	cmp	r3, r4
100040c0:	d1f3      	bne.n	100040aa <stdio_stack_buffer_flush+0x1a>
100040c2:	e7ed      	b.n	100040a0 <stdio_stack_buffer_flush+0x10>
100040c4:	2300      	movs	r3, #0
100040c6:	602b      	str	r3, [r5, #0]
100040c8:	bd70      	pop	{r4, r5, r6, pc}
100040ca:	46c0      	nop			; (mov r8, r8)
100040cc:	200013e4 	.word	0x200013e4
100040d0:	200013ec 	.word	0x200013ec

100040d4 <stdio_buffered_printer>:
100040d4:	b570      	push	{r4, r5, r6, lr}
100040d6:	0005      	movs	r5, r0
100040d8:	000c      	movs	r4, r1
100040da:	680b      	ldr	r3, [r1, #0]
100040dc:	2b80      	cmp	r3, #128	; 0x80
100040de:	d005      	beq.n	100040ec <stdio_buffered_printer+0x18>
100040e0:	6821      	ldr	r1, [r4, #0]
100040e2:	1c4b      	adds	r3, r1, #1
100040e4:	6023      	str	r3, [r4, #0]
100040e6:	1864      	adds	r4, r4, r1
100040e8:	7125      	strb	r5, [r4, #4]
100040ea:	bd70      	pop	{r4, r5, r6, pc}
100040ec:	0008      	movs	r0, r1
100040ee:	f7ff ffcf 	bl	10004090 <stdio_stack_buffer_flush>
100040f2:	e7f5      	b.n	100040e0 <stdio_buffered_printer+0xc>

100040f4 <stdout_serialize_begin>:
100040f4:	b510      	push	{r4, lr}
100040f6:	f7fd fb93 	bl	10001820 <time_us_64>
100040fa:	0002      	movs	r2, r0
100040fc:	1e0b      	subs	r3, r1, #0
100040fe:	db0b      	blt.n	10004118 <stdout_serialize_begin+0x24>
10004100:	480d      	ldr	r0, [pc, #52]	; (10004138 <stdout_serialize_begin+0x44>)
10004102:	2100      	movs	r1, #0
10004104:	1812      	adds	r2, r2, r0
10004106:	414b      	adcs	r3, r1
10004108:	2b00      	cmp	r3, #0
1000410a:	db0b      	blt.n	10004124 <stdout_serialize_begin+0x30>
1000410c:	2b00      	cmp	r3, #0
1000410e:	db0d      	blt.n	1000412c <stdout_serialize_begin+0x38>
10004110:	480a      	ldr	r0, [pc, #40]	; (1000413c <stdout_serialize_begin+0x48>)
10004112:	f002 fd55 	bl	10006bc0 <__mutex_try_enter_block_until_veneer>
10004116:	bd10      	pop	{r4, pc}
10004118:	4b09      	ldr	r3, [pc, #36]	; (10004140 <stdout_serialize_begin+0x4c>)
1000411a:	4a0a      	ldr	r2, [pc, #40]	; (10004144 <stdout_serialize_begin+0x50>)
1000411c:	213f      	movs	r1, #63	; 0x3f
1000411e:	480a      	ldr	r0, [pc, #40]	; (10004148 <stdout_serialize_begin+0x54>)
10004120:	f7fe f9b2 	bl	10002488 <__assert_func>
10004124:	2201      	movs	r2, #1
10004126:	4252      	negs	r2, r2
10004128:	4b08      	ldr	r3, [pc, #32]	; (1000414c <stdout_serialize_begin+0x58>)
1000412a:	e7ef      	b.n	1000410c <stdout_serialize_begin+0x18>
1000412c:	4b04      	ldr	r3, [pc, #16]	; (10004140 <stdout_serialize_begin+0x4c>)
1000412e:	4a05      	ldr	r2, [pc, #20]	; (10004144 <stdout_serialize_begin+0x50>)
10004130:	213f      	movs	r1, #63	; 0x3f
10004132:	4805      	ldr	r0, [pc, #20]	; (10004148 <stdout_serialize_begin+0x54>)
10004134:	f7fe f9a8 	bl	10002488 <__assert_func>
10004138:	000f4240 	.word	0x000f4240
1000413c:	20000ca8 	.word	0x20000ca8
10004140:	10006fa0 	.word	0x10006fa0
10004144:	10007d3c 	.word	0x10007d3c
10004148:	10006fbc 	.word	0x10006fbc
1000414c:	7fffffff 	.word	0x7fffffff

10004150 <stdout_serialize_end>:
10004150:	b510      	push	{r4, lr}
10004152:	4802      	ldr	r0, [pc, #8]	; (1000415c <stdout_serialize_end+0xc>)
10004154:	f002 fcfc 	bl	10006b50 <__mutex_exit_veneer>
10004158:	bd10      	pop	{r4, pc}
1000415a:	46c0      	nop			; (mov r8, r8)
1000415c:	20000ca8 	.word	0x20000ca8

10004160 <stdio_put_string>:
10004160:	b5f0      	push	{r4, r5, r6, r7, lr}
10004162:	46ce      	mov	lr, r9
10004164:	4647      	mov	r7, r8
10004166:	b580      	push	{r7, lr}
10004168:	b083      	sub	sp, #12
1000416a:	0006      	movs	r6, r0
1000416c:	000d      	movs	r5, r1
1000416e:	4690      	mov	r8, r2
10004170:	001c      	movs	r4, r3
10004172:	f7ff ffbf 	bl	100040f4 <stdout_serialize_begin>
10004176:	4681      	mov	r9, r0
10004178:	1c6b      	adds	r3, r5, #1
1000417a:	d005      	beq.n	10004188 <stdio_put_string+0x28>
1000417c:	2c00      	cmp	r4, #0
1000417e:	d008      	beq.n	10004192 <stdio_put_string+0x32>
10004180:	4f19      	ldr	r7, [pc, #100]	; (100041e8 <stdio_put_string+0x88>)
10004182:	4b1a      	ldr	r3, [pc, #104]	; (100041ec <stdio_put_string+0x8c>)
10004184:	681c      	ldr	r4, [r3, #0]
10004186:	e007      	b.n	10004198 <stdio_put_string+0x38>
10004188:	0030      	movs	r0, r6
1000418a:	f002 fca7 	bl	10006adc <strlen>
1000418e:	0005      	movs	r5, r0
10004190:	e7f4      	b.n	1000417c <stdio_put_string+0x1c>
10004192:	4f17      	ldr	r7, [pc, #92]	; (100041f0 <stdio_put_string+0x90>)
10004194:	e7f5      	b.n	10004182 <stdio_put_string+0x22>
10004196:	6924      	ldr	r4, [r4, #16]
10004198:	2c00      	cmp	r4, #0
1000419a:	d017      	beq.n	100041cc <stdio_put_string+0x6c>
1000419c:	6823      	ldr	r3, [r4, #0]
1000419e:	2b00      	cmp	r3, #0
100041a0:	d0f9      	beq.n	10004196 <stdio_put_string+0x36>
100041a2:	4b14      	ldr	r3, [pc, #80]	; (100041f4 <stdio_put_string+0x94>)
100041a4:	681b      	ldr	r3, [r3, #0]
100041a6:	2b00      	cmp	r3, #0
100041a8:	d001      	beq.n	100041ae <stdio_put_string+0x4e>
100041aa:	42a3      	cmp	r3, r4
100041ac:	d1f3      	bne.n	10004196 <stdio_put_string+0x36>
100041ae:	002a      	movs	r2, r5
100041b0:	0031      	movs	r1, r6
100041b2:	0020      	movs	r0, r4
100041b4:	47b8      	blx	r7
100041b6:	4643      	mov	r3, r8
100041b8:	2b00      	cmp	r3, #0
100041ba:	d0ec      	beq.n	10004196 <stdio_put_string+0x36>
100041bc:	466b      	mov	r3, sp
100041be:	1dd9      	adds	r1, r3, #7
100041c0:	230a      	movs	r3, #10
100041c2:	700b      	strb	r3, [r1, #0]
100041c4:	2201      	movs	r2, #1
100041c6:	0020      	movs	r0, r4
100041c8:	47b8      	blx	r7
100041ca:	e7e4      	b.n	10004196 <stdio_put_string+0x36>
100041cc:	464b      	mov	r3, r9
100041ce:	2b00      	cmp	r3, #0
100041d0:	d107      	bne.n	100041e2 <stdio_put_string+0x82>
100041d2:	1e6b      	subs	r3, r5, #1
100041d4:	419d      	sbcs	r5, r3
100041d6:	b2e8      	uxtb	r0, r5
100041d8:	b003      	add	sp, #12
100041da:	bcc0      	pop	{r6, r7}
100041dc:	46b9      	mov	r9, r7
100041de:	46b0      	mov	r8, r6
100041e0:	bdf0      	pop	{r4, r5, r6, r7, pc}
100041e2:	f7ff ffb5 	bl	10004150 <stdout_serialize_end>
100041e6:	e7f4      	b.n	100041d2 <stdio_put_string+0x72>
100041e8:	10004001 	.word	0x10004001
100041ec:	200013e4 	.word	0x200013e4
100041f0:	10004011 	.word	0x10004011
100041f4:	200013ec 	.word	0x200013ec

100041f8 <stdio_set_driver_enabled>:
100041f8:	4a09      	ldr	r2, [pc, #36]	; (10004220 <stdio_set_driver_enabled+0x28>)
100041fa:	e001      	b.n	10004200 <stdio_set_driver_enabled+0x8>
100041fc:	3310      	adds	r3, #16
100041fe:	001a      	movs	r2, r3
10004200:	6813      	ldr	r3, [r2, #0]
10004202:	2b00      	cmp	r3, #0
10004204:	d008      	beq.n	10004218 <stdio_set_driver_enabled+0x20>
10004206:	4283      	cmp	r3, r0
10004208:	d1f8      	bne.n	100041fc <stdio_set_driver_enabled+0x4>
1000420a:	2900      	cmp	r1, #0
1000420c:	d107      	bne.n	1000421e <stdio_set_driver_enabled+0x26>
1000420e:	6903      	ldr	r3, [r0, #16]
10004210:	6013      	str	r3, [r2, #0]
10004212:	2300      	movs	r3, #0
10004214:	6103      	str	r3, [r0, #16]
10004216:	e002      	b.n	1000421e <stdio_set_driver_enabled+0x26>
10004218:	2900      	cmp	r1, #0
1000421a:	d000      	beq.n	1000421e <stdio_set_driver_enabled+0x26>
1000421c:	6010      	str	r0, [r2, #0]
1000421e:	4770      	bx	lr
10004220:	200013e4 	.word	0x200013e4

10004224 <stdio_flush>:
10004224:	b510      	push	{r4, lr}
10004226:	4b06      	ldr	r3, [pc, #24]	; (10004240 <stdio_flush+0x1c>)
10004228:	681c      	ldr	r4, [r3, #0]
1000422a:	e001      	b.n	10004230 <stdio_flush+0xc>
1000422c:	4798      	blx	r3
1000422e:	6924      	ldr	r4, [r4, #16]
10004230:	2c00      	cmp	r4, #0
10004232:	d003      	beq.n	1000423c <stdio_flush+0x18>
10004234:	6863      	ldr	r3, [r4, #4]
10004236:	2b00      	cmp	r3, #0
10004238:	d1f8      	bne.n	1000422c <stdio_flush+0x8>
1000423a:	e7f8      	b.n	1000422e <stdio_flush+0xa>
1000423c:	bd10      	pop	{r4, pc}
1000423e:	46c0      	nop			; (mov r8, r8)
10004240:	200013e4 	.word	0x200013e4

10004244 <__wrap_puts>:
10004244:	b570      	push	{r4, r5, r6, lr}
10004246:	0005      	movs	r5, r0
10004248:	f002 fc48 	bl	10006adc <strlen>
1000424c:	0004      	movs	r4, r0
1000424e:	2300      	movs	r3, #0
10004250:	2201      	movs	r2, #1
10004252:	0001      	movs	r1, r0
10004254:	0028      	movs	r0, r5
10004256:	f7ff ff83 	bl	10004160 <stdio_put_string>
1000425a:	f7ff ffe3 	bl	10004224 <stdio_flush>
1000425e:	0020      	movs	r0, r4
10004260:	bd70      	pop	{r4, r5, r6, pc}
	...

10004264 <__wrap_vprintf>:
10004264:	b570      	push	{r4, r5, r6, lr}
10004266:	b0a2      	sub	sp, #136	; 0x88
10004268:	0004      	movs	r4, r0
1000426a:	000e      	movs	r6, r1
1000426c:	f7ff ff42 	bl	100040f4 <stdout_serialize_begin>
10004270:	0005      	movs	r5, r0
10004272:	2300      	movs	r3, #0
10004274:	9301      	str	r3, [sp, #4]
10004276:	0033      	movs	r3, r6
10004278:	0022      	movs	r2, r4
1000427a:	a901      	add	r1, sp, #4
1000427c:	4808      	ldr	r0, [pc, #32]	; (100042a0 <__wrap_vprintf+0x3c>)
1000427e:	f7ff fa45 	bl	1000370c <vfctprintf>
10004282:	0004      	movs	r4, r0
10004284:	a801      	add	r0, sp, #4
10004286:	f7ff ff03 	bl	10004090 <stdio_stack_buffer_flush>
1000428a:	f7ff ffcb 	bl	10004224 <stdio_flush>
1000428e:	2d00      	cmp	r5, #0
10004290:	d102      	bne.n	10004298 <__wrap_vprintf+0x34>
10004292:	0020      	movs	r0, r4
10004294:	b022      	add	sp, #136	; 0x88
10004296:	bd70      	pop	{r4, r5, r6, pc}
10004298:	f7ff ff5a 	bl	10004150 <stdout_serialize_end>
1000429c:	e7f9      	b.n	10004292 <__wrap_vprintf+0x2e>
1000429e:	46c0      	nop			; (mov r8, r8)
100042a0:	100040d5 	.word	0x100040d5

100042a4 <__wrap_printf>:
100042a4:	b40f      	push	{r0, r1, r2, r3}
100042a6:	b500      	push	{lr}
100042a8:	b083      	sub	sp, #12
100042aa:	a904      	add	r1, sp, #16
100042ac:	c901      	ldmia	r1!, {r0}
100042ae:	9101      	str	r1, [sp, #4]
100042b0:	f7ff ffd8 	bl	10004264 <__wrap_vprintf>
100042b4:	b003      	add	sp, #12
100042b6:	bc08      	pop	{r3}
100042b8:	b004      	add	sp, #16
100042ba:	4718      	bx	r3

100042bc <stdio_init_all>:
100042bc:	b510      	push	{r4, lr}
100042be:	f000 f8fb 	bl	100044b8 <stdio_uart_init>
100042c2:	f000 fa43 	bl	1000474c <stdio_usb_init>
100042c6:	2001      	movs	r0, #1
100042c8:	bd10      	pop	{r4, pc}
	...

100042cc <stdio_uart_out_chars>:
100042cc:	b5f0      	push	{r4, r5, r6, r7, lr}
100042ce:	b083      	sub	sp, #12
100042d0:	0005      	movs	r5, r0
100042d2:	000e      	movs	r6, r1
100042d4:	2400      	movs	r4, #0
100042d6:	e00f      	b.n	100042f8 <stdio_uart_out_chars+0x2c>
100042d8:	466b      	mov	r3, sp
100042da:	1dd9      	adds	r1, r3, #7
100042dc:	230d      	movs	r3, #13
100042de:	700b      	strb	r3, [r1, #0]
100042e0:	2000      	movs	r0, #0
100042e2:	2800      	cmp	r0, #0
100042e4:	d116      	bne.n	10004314 <stdio_uart_out_chars+0x48>
100042e6:	6993      	ldr	r3, [r2, #24]
100042e8:	069b      	lsls	r3, r3, #26
100042ea:	d4fc      	bmi.n	100042e6 <stdio_uart_out_chars+0x1a>
100042ec:	780b      	ldrb	r3, [r1, #0]
100042ee:	6013      	str	r3, [r2, #0]
100042f0:	3001      	adds	r0, #1
100042f2:	3101      	adds	r1, #1
100042f4:	e7f5      	b.n	100042e2 <stdio_uart_out_chars+0x16>
100042f6:	3401      	adds	r4, #1
100042f8:	42b4      	cmp	r4, r6
100042fa:	da19      	bge.n	10004330 <stdio_uart_out_chars+0x64>
100042fc:	4b0d      	ldr	r3, [pc, #52]	; (10004334 <stdio_uart_out_chars+0x68>)
100042fe:	681a      	ldr	r2, [r3, #0]
10004300:	5d2f      	ldrb	r7, [r5, r4]
10004302:	4b0d      	ldr	r3, [pc, #52]	; (10004338 <stdio_uart_out_chars+0x6c>)
10004304:	18d3      	adds	r3, r2, r3
10004306:	4259      	negs	r1, r3
10004308:	414b      	adcs	r3, r1
1000430a:	005b      	lsls	r3, r3, #1
1000430c:	490b      	ldr	r1, [pc, #44]	; (1000433c <stdio_uart_out_chars+0x70>)
1000430e:	5e5b      	ldrsh	r3, [r3, r1]
10004310:	42bb      	cmp	r3, r7
10004312:	d0e1      	beq.n	100042d8 <stdio_uart_out_chars+0xc>
10004314:	466b      	mov	r3, sp
10004316:	1dd9      	adds	r1, r3, #7
10004318:	700f      	strb	r7, [r1, #0]
1000431a:	2000      	movs	r0, #0
1000431c:	2800      	cmp	r0, #0
1000431e:	d1ea      	bne.n	100042f6 <stdio_uart_out_chars+0x2a>
10004320:	6993      	ldr	r3, [r2, #24]
10004322:	069b      	lsls	r3, r3, #26
10004324:	d4fc      	bmi.n	10004320 <stdio_uart_out_chars+0x54>
10004326:	780b      	ldrb	r3, [r1, #0]
10004328:	6013      	str	r3, [r2, #0]
1000432a:	3001      	adds	r0, #1
1000432c:	3101      	adds	r1, #1
1000432e:	e7f5      	b.n	1000431c <stdio_uart_out_chars+0x50>
10004330:	b003      	add	sp, #12
10004332:	bdf0      	pop	{r4, r5, r6, r7, pc}
10004334:	20001a3c 	.word	0x20001a3c
10004338:	bffc8000 	.word	0xbffc8000
1000433c:	20001a38 	.word	0x20001a38

10004340 <stdio_uart_in_chars>:
10004340:	b5f0      	push	{r4, r5, r6, r7, lr}
10004342:	b083      	sub	sp, #12
10004344:	0006      	movs	r6, r0
10004346:	000f      	movs	r7, r1
10004348:	2500      	movs	r5, #0
1000434a:	e004      	b.n	10004356 <stdio_uart_in_chars+0x16>
1000434c:	466b      	mov	r3, sp
1000434e:	3307      	adds	r3, #7
10004350:	781b      	ldrb	r3, [r3, #0]
10004352:	702b      	strb	r3, [r5, #0]
10004354:	0025      	movs	r5, r4
10004356:	42bd      	cmp	r5, r7
10004358:	da15      	bge.n	10004386 <stdio_uart_in_chars+0x46>
1000435a:	4b17      	ldr	r3, [pc, #92]	; (100043b8 <stdio_uart_in_chars+0x78>)
1000435c:	681a      	ldr	r2, [r3, #0]
1000435e:	6993      	ldr	r3, [r2, #24]
10004360:	2410      	movs	r4, #16
10004362:	0021      	movs	r1, r4
10004364:	4019      	ands	r1, r3
10004366:	421c      	tst	r4, r3
10004368:	d10d      	bne.n	10004386 <stdio_uart_in_chars+0x46>
1000436a:	1c6c      	adds	r4, r5, #1
1000436c:	1975      	adds	r5, r6, r5
1000436e:	466b      	mov	r3, sp
10004370:	1dd8      	adds	r0, r3, #7
10004372:	2900      	cmp	r1, #0
10004374:	d1ea      	bne.n	1000434c <stdio_uart_in_chars+0xc>
10004376:	6993      	ldr	r3, [r2, #24]
10004378:	06db      	lsls	r3, r3, #27
1000437a:	d4fc      	bmi.n	10004376 <stdio_uart_in_chars+0x36>
1000437c:	6813      	ldr	r3, [r2, #0]
1000437e:	7003      	strb	r3, [r0, #0]
10004380:	3101      	adds	r1, #1
10004382:	3001      	adds	r0, #1
10004384:	e7f5      	b.n	10004372 <stdio_uart_in_chars+0x32>
10004386:	4b0d      	ldr	r3, [pc, #52]	; (100043bc <stdio_uart_in_chars+0x7c>)
10004388:	681b      	ldr	r3, [r3, #0]
1000438a:	2b00      	cmp	r3, #0
1000438c:	d00c      	beq.n	100043a8 <stdio_uart_in_chars+0x68>
1000438e:	4b0a      	ldr	r3, [pc, #40]	; (100043b8 <stdio_uart_in_chars+0x78>)
10004390:	681a      	ldr	r2, [r3, #0]
10004392:	2350      	movs	r3, #80	; 0x50
10004394:	6393      	str	r3, [r2, #56]	; 0x38
10004396:	0011      	movs	r1, r2
10004398:	3134      	adds	r1, #52	; 0x34
1000439a:	6b53      	ldr	r3, [r2, #52]	; 0x34
1000439c:	2238      	movs	r2, #56	; 0x38
1000439e:	401a      	ands	r2, r3
100043a0:	2380      	movs	r3, #128	; 0x80
100043a2:	015b      	lsls	r3, r3, #5
100043a4:	430b      	orrs	r3, r1
100043a6:	601a      	str	r2, [r3, #0]
100043a8:	2d00      	cmp	r5, #0
100043aa:	d002      	beq.n	100043b2 <stdio_uart_in_chars+0x72>
100043ac:	0028      	movs	r0, r5
100043ae:	b003      	add	sp, #12
100043b0:	bdf0      	pop	{r4, r5, r6, r7, pc}
100043b2:	3d03      	subs	r5, #3
100043b4:	e7fa      	b.n	100043ac <stdio_uart_in_chars+0x6c>
100043b6:	46c0      	nop			; (mov r8, r8)
100043b8:	20001a3c 	.word	0x20001a3c
100043bc:	20001340 	.word	0x20001340

100043c0 <on_uart_rx>:
100043c0:	b510      	push	{r4, lr}
100043c2:	4b06      	ldr	r3, [pc, #24]	; (100043dc <on_uart_rx+0x1c>)
100043c4:	681b      	ldr	r3, [r3, #0]
100043c6:	2b00      	cmp	r3, #0
100043c8:	d006      	beq.n	100043d8 <on_uart_rx+0x18>
100043ca:	4a05      	ldr	r2, [pc, #20]	; (100043e0 <on_uart_rx+0x20>)
100043cc:	6812      	ldr	r2, [r2, #0]
100043ce:	2100      	movs	r1, #0
100043d0:	6391      	str	r1, [r2, #56]	; 0x38
100043d2:	4a04      	ldr	r2, [pc, #16]	; (100043e4 <on_uart_rx+0x24>)
100043d4:	6810      	ldr	r0, [r2, #0]
100043d6:	4798      	blx	r3
100043d8:	bd10      	pop	{r4, pc}
100043da:	46c0      	nop			; (mov r8, r8)
100043dc:	20001340 	.word	0x20001340
100043e0:	20001a3c 	.word	0x20001a3c
100043e4:	20001348 	.word	0x20001348

100043e8 <stdio_uart_set_chars_available_callback>:
100043e8:	b570      	push	{r4, r5, r6, lr}
100043ea:	0004      	movs	r4, r0
100043ec:	000e      	movs	r6, r1
100043ee:	4b1c      	ldr	r3, [pc, #112]	; (10004460 <stdio_uart_set_chars_available_callback+0x78>)
100043f0:	681b      	ldr	r3, [r3, #0]
100043f2:	4a1c      	ldr	r2, [pc, #112]	; (10004464 <stdio_uart_set_chars_available_callback+0x7c>)
100043f4:	1898      	adds	r0, r3, r2
100043f6:	4242      	negs	r2, r0
100043f8:	4150      	adcs	r0, r2
100043fa:	3014      	adds	r0, #20
100043fc:	0005      	movs	r5, r0
100043fe:	2c00      	cmp	r4, #0
10004400:	d003      	beq.n	1000440a <stdio_uart_set_chars_available_callback+0x22>
10004402:	4a19      	ldr	r2, [pc, #100]	; (10004468 <stdio_uart_set_chars_available_callback+0x80>)
10004404:	6812      	ldr	r2, [r2, #0]
10004406:	2a00      	cmp	r2, #0
10004408:	d006      	beq.n	10004418 <stdio_uart_set_chars_available_callback+0x30>
1000440a:	2c00      	cmp	r4, #0
1000440c:	d019      	beq.n	10004442 <stdio_uart_set_chars_available_callback+0x5a>
1000440e:	4b16      	ldr	r3, [pc, #88]	; (10004468 <stdio_uart_set_chars_available_callback+0x80>)
10004410:	601c      	str	r4, [r3, #0]
10004412:	4b16      	ldr	r3, [pc, #88]	; (1000446c <stdio_uart_set_chars_available_callback+0x84>)
10004414:	601e      	str	r6, [r3, #0]
10004416:	bd70      	pop	{r4, r5, r6, pc}
10004418:	4915      	ldr	r1, [pc, #84]	; (10004470 <stdio_uart_set_chars_available_callback+0x88>)
1000441a:	f7fc f90f 	bl	1000063c <irq_set_exclusive_handler>
1000441e:	2101      	movs	r1, #1
10004420:	0028      	movs	r0, r5
10004422:	f7fc f8e1 	bl	100005e8 <irq_set_enabled>
10004426:	4b0e      	ldr	r3, [pc, #56]	; (10004460 <stdio_uart_set_chars_available_callback+0x78>)
10004428:	681a      	ldr	r2, [r3, #0]
1000442a:	2350      	movs	r3, #80	; 0x50
1000442c:	6393      	str	r3, [r2, #56]	; 0x38
1000442e:	0011      	movs	r1, r2
10004430:	3134      	adds	r1, #52	; 0x34
10004432:	6b53      	ldr	r3, [r2, #52]	; 0x34
10004434:	2238      	movs	r2, #56	; 0x38
10004436:	401a      	ands	r2, r3
10004438:	2380      	movs	r3, #128	; 0x80
1000443a:	015b      	lsls	r3, r3, #5
1000443c:	430b      	orrs	r3, r1
1000443e:	601a      	str	r2, [r3, #0]
10004440:	e7e5      	b.n	1000440e <stdio_uart_set_chars_available_callback+0x26>
10004442:	4a09      	ldr	r2, [pc, #36]	; (10004468 <stdio_uart_set_chars_available_callback+0x80>)
10004444:	6812      	ldr	r2, [r2, #0]
10004446:	2a00      	cmp	r2, #0
10004448:	d0e1      	beq.n	1000440e <stdio_uart_set_chars_available_callback+0x26>
1000444a:	2200      	movs	r2, #0
1000444c:	639a      	str	r2, [r3, #56]	; 0x38
1000444e:	2100      	movs	r1, #0
10004450:	0028      	movs	r0, r5
10004452:	f7fc f8c9 	bl	100005e8 <irq_set_enabled>
10004456:	4906      	ldr	r1, [pc, #24]	; (10004470 <stdio_uart_set_chars_available_callback+0x88>)
10004458:	0028      	movs	r0, r5
1000445a:	f7fc fa33 	bl	100008c4 <irq_remove_handler>
1000445e:	e7d6      	b.n	1000440e <stdio_uart_set_chars_available_callback+0x26>
10004460:	20001a3c 	.word	0x20001a3c
10004464:	bffc8000 	.word	0xbffc8000
10004468:	20001340 	.word	0x20001340
1000446c:	20001348 	.word	0x20001348
10004470:	100043c1 	.word	0x100043c1

10004474 <stdio_uart_init_full>:
10004474:	b570      	push	{r4, r5, r6, lr}
10004476:	000d      	movs	r5, r1
10004478:	001c      	movs	r4, r3
1000447a:	4b0d      	ldr	r3, [pc, #52]	; (100044b0 <stdio_uart_init_full+0x3c>)
1000447c:	6018      	str	r0, [r3, #0]
1000447e:	2a00      	cmp	r2, #0
10004480:	da0b      	bge.n	1000449a <stdio_uart_init_full+0x26>
10004482:	2c00      	cmp	r4, #0
10004484:	da0e      	bge.n	100044a4 <stdio_uart_init_full+0x30>
10004486:	4b0a      	ldr	r3, [pc, #40]	; (100044b0 <stdio_uart_init_full+0x3c>)
10004488:	6818      	ldr	r0, [r3, #0]
1000448a:	0029      	movs	r1, r5
1000448c:	f7fd fd96 	bl	10001fbc <uart_init>
10004490:	2101      	movs	r1, #1
10004492:	4808      	ldr	r0, [pc, #32]	; (100044b4 <stdio_uart_init_full+0x40>)
10004494:	f7ff feb0 	bl	100041f8 <stdio_set_driver_enabled>
10004498:	bd70      	pop	{r4, r5, r6, pc}
1000449a:	2102      	movs	r1, #2
1000449c:	0010      	movs	r0, r2
1000449e:	f7fb ff87 	bl	100003b0 <gpio_set_function>
100044a2:	e7ee      	b.n	10004482 <stdio_uart_init_full+0xe>
100044a4:	2102      	movs	r1, #2
100044a6:	0020      	movs	r0, r4
100044a8:	f7fb ff82 	bl	100003b0 <gpio_set_function>
100044ac:	e7eb      	b.n	10004486 <stdio_uart_init_full+0x12>
100044ae:	46c0      	nop			; (mov r8, r8)
100044b0:	20001a3c 	.word	0x20001a3c
100044b4:	20000c50 	.word	0x20000c50

100044b8 <stdio_uart_init>:
100044b8:	b510      	push	{r4, lr}
100044ba:	4b06      	ldr	r3, [pc, #24]	; (100044d4 <stdio_uart_init+0x1c>)
100044bc:	781b      	ldrb	r3, [r3, #0]
100044be:	4b06      	ldr	r3, [pc, #24]	; (100044d8 <stdio_uart_init+0x20>)
100044c0:	781b      	ldrb	r3, [r3, #0]
100044c2:	21e1      	movs	r1, #225	; 0xe1
100044c4:	2301      	movs	r3, #1
100044c6:	2200      	movs	r2, #0
100044c8:	0249      	lsls	r1, r1, #9
100044ca:	4804      	ldr	r0, [pc, #16]	; (100044dc <stdio_uart_init+0x24>)
100044cc:	f7ff ffd2 	bl	10004474 <stdio_uart_init_full>
100044d0:	bd10      	pop	{r4, pc}
100044d2:	46c0      	nop			; (mov r8, r8)
100044d4:	10008440 	.word	0x10008440
100044d8:	10008444 	.word	0x10008444
100044dc:	40034000 	.word	0x40034000

100044e0 <resetd_init>:
100044e0:	4770      	bx	lr
	...

100044e4 <resetd_reset>:
100044e4:	4b01      	ldr	r3, [pc, #4]	; (100044ec <resetd_reset+0x8>)
100044e6:	2200      	movs	r2, #0
100044e8:	701a      	strb	r2, [r3, #0]
100044ea:	4770      	bx	lr
100044ec:	20001a56 	.word	0x20001a56

100044f0 <resetd_open>:
100044f0:	794b      	ldrb	r3, [r1, #5]
100044f2:	2bff      	cmp	r3, #255	; 0xff
100044f4:	d10c      	bne.n	10004510 <resetd_open+0x20>
100044f6:	798b      	ldrb	r3, [r1, #6]
100044f8:	2b00      	cmp	r3, #0
100044fa:	d10b      	bne.n	10004514 <resetd_open+0x24>
100044fc:	79cb      	ldrb	r3, [r1, #7]
100044fe:	2b01      	cmp	r3, #1
10004500:	d10a      	bne.n	10004518 <resetd_open+0x28>
10004502:	2a08      	cmp	r2, #8
10004504:	d90a      	bls.n	1000451c <resetd_open+0x2c>
10004506:	788a      	ldrb	r2, [r1, #2]
10004508:	4b05      	ldr	r3, [pc, #20]	; (10004520 <resetd_open+0x30>)
1000450a:	701a      	strb	r2, [r3, #0]
1000450c:	2009      	movs	r0, #9
1000450e:	e000      	b.n	10004512 <resetd_open+0x22>
10004510:	2000      	movs	r0, #0
10004512:	4770      	bx	lr
10004514:	2000      	movs	r0, #0
10004516:	e7fc      	b.n	10004512 <resetd_open+0x22>
10004518:	2000      	movs	r0, #0
1000451a:	e7fa      	b.n	10004512 <resetd_open+0x22>
1000451c:	2000      	movs	r0, #0
1000451e:	e7f8      	b.n	10004512 <resetd_open+0x22>
10004520:	20001a56 	.word	0x20001a56

10004524 <resetd_xfer_cb>:
10004524:	2001      	movs	r0, #1
10004526:	4770      	bx	lr

10004528 <reset_usb_boot>:
10004528:	b570      	push	{r4, r5, r6, lr}
1000452a:	0004      	movs	r4, r0
1000452c:	000d      	movs	r5, r1
1000452e:	4803      	ldr	r0, [pc, #12]	; (1000453c <reset_usb_boot+0x14>)
10004530:	f7ff f904 	bl	1000373c <rom_func_lookup>
10004534:	0003      	movs	r3, r0
10004536:	0029      	movs	r1, r5
10004538:	0020      	movs	r0, r4
1000453a:	4798      	blx	r3
1000453c:	00004255 	.word	0x00004255

10004540 <resetd_control_xfer_cb>:
10004540:	b510      	push	{r4, lr}
10004542:	2901      	cmp	r1, #1
10004544:	d126      	bne.n	10004594 <resetd_control_xfer_cb+0x54>
10004546:	7911      	ldrb	r1, [r2, #4]
10004548:	7953      	ldrb	r3, [r2, #5]
1000454a:	021b      	lsls	r3, r3, #8
1000454c:	430b      	orrs	r3, r1
1000454e:	4912      	ldr	r1, [pc, #72]	; (10004598 <resetd_control_xfer_cb+0x58>)
10004550:	7809      	ldrb	r1, [r1, #0]
10004552:	428b      	cmp	r3, r1
10004554:	d001      	beq.n	1000455a <resetd_control_xfer_cb+0x1a>
10004556:	2000      	movs	r0, #0
10004558:	e01d      	b.n	10004596 <resetd_control_xfer_cb+0x56>
1000455a:	7853      	ldrb	r3, [r2, #1]
1000455c:	2b01      	cmp	r3, #1
1000455e:	d003      	beq.n	10004568 <resetd_control_xfer_cb+0x28>
10004560:	2b02      	cmp	r3, #2
10004562:	d010      	beq.n	10004586 <resetd_control_xfer_cb+0x46>
10004564:	2000      	movs	r0, #0
10004566:	e016      	b.n	10004596 <resetd_control_xfer_cb+0x56>
10004568:	7891      	ldrb	r1, [r2, #2]
1000456a:	78d3      	ldrb	r3, [r2, #3]
1000456c:	021b      	lsls	r3, r3, #8
1000456e:	4319      	orrs	r1, r3
10004570:	05db      	lsls	r3, r3, #23
10004572:	d506      	bpl.n	10004582 <resetd_control_xfer_cb+0x42>
10004574:	0a4b      	lsrs	r3, r1, #9
10004576:	2001      	movs	r0, #1
10004578:	4098      	lsls	r0, r3
1000457a:	237f      	movs	r3, #127	; 0x7f
1000457c:	4019      	ands	r1, r3
1000457e:	f7ff ffd3 	bl	10004528 <reset_usb_boot>
10004582:	2000      	movs	r0, #0
10004584:	e7f9      	b.n	1000457a <resetd_control_xfer_cb+0x3a>
10004586:	2264      	movs	r2, #100	; 0x64
10004588:	2100      	movs	r1, #0
1000458a:	2000      	movs	r0, #0
1000458c:	f7fd ff3e 	bl	1000240c <watchdog_reboot>
10004590:	2001      	movs	r0, #1
10004592:	e000      	b.n	10004596 <resetd_control_xfer_cb+0x56>
10004594:	2001      	movs	r0, #1
10004596:	bd10      	pop	{r4, pc}
10004598:	20001a56 	.word	0x20001a56

1000459c <usbd_app_driver_get_cb>:
1000459c:	2301      	movs	r3, #1
1000459e:	7003      	strb	r3, [r0, #0]
100045a0:	4800      	ldr	r0, [pc, #0]	; (100045a4 <usbd_app_driver_get_cb+0x8>)
100045a2:	4770      	bx	lr
100045a4:	10007d98 	.word	0x10007d98

100045a8 <tud_cdc_line_coding_cb>:
100045a8:	b510      	push	{r4, lr}
100045aa:	780b      	ldrb	r3, [r1, #0]
100045ac:	7848      	ldrb	r0, [r1, #1]
100045ae:	0200      	lsls	r0, r0, #8
100045b0:	4318      	orrs	r0, r3
100045b2:	788a      	ldrb	r2, [r1, #2]
100045b4:	0412      	lsls	r2, r2, #16
100045b6:	4310      	orrs	r0, r2
100045b8:	78cb      	ldrb	r3, [r1, #3]
100045ba:	061b      	lsls	r3, r3, #24
100045bc:	4303      	orrs	r3, r0
100045be:	2296      	movs	r2, #150	; 0x96
100045c0:	00d2      	lsls	r2, r2, #3
100045c2:	4293      	cmp	r3, r2
100045c4:	d000      	beq.n	100045c8 <tud_cdc_line_coding_cb+0x20>
100045c6:	bd10      	pop	{r4, pc}
100045c8:	2100      	movs	r1, #0
100045ca:	0008      	movs	r0, r1
100045cc:	f7ff ffac 	bl	10004528 <reset_usb_boot>

100045d0 <stdio_usb_set_chars_available_callback>:
100045d0:	4b02      	ldr	r3, [pc, #8]	; (100045dc <stdio_usb_set_chars_available_callback+0xc>)
100045d2:	6018      	str	r0, [r3, #0]
100045d4:	4b02      	ldr	r3, [pc, #8]	; (100045e0 <stdio_usb_set_chars_available_callback+0x10>)
100045d6:	6019      	str	r1, [r3, #0]
100045d8:	4770      	bx	lr
100045da:	46c0      	nop			; (mov r8, r8)
100045dc:	20001344 	.word	0x20001344
100045e0:	2000134c 	.word	0x2000134c

100045e4 <usb_irq>:
100045e4:	b510      	push	{r4, lr}
100045e6:	4b02      	ldr	r3, [pc, #8]	; (100045f0 <usb_irq+0xc>)
100045e8:	7818      	ldrb	r0, [r3, #0]
100045ea:	f7fc f805 	bl	100005f8 <irq_set_pending>
100045ee:	bd10      	pop	{r4, pc}
100045f0:	20001a57 	.word	0x20001a57

100045f4 <timer_task>:
100045f4:	b570      	push	{r4, r5, r6, lr}
100045f6:	4b13      	ldr	r3, [pc, #76]	; (10004644 <timer_task+0x50>)
100045f8:	681b      	ldr	r3, [r3, #0]
100045fa:	2b00      	cmp	r3, #0
100045fc:	d01d      	beq.n	1000463a <timer_task+0x46>
100045fe:	4b11      	ldr	r3, [pc, #68]	; (10004644 <timer_task+0x50>)
10004600:	6819      	ldr	r1, [r3, #0]
10004602:	f3ef 8310 	mrs	r3, PRIMASK
10004606:	b672      	cpsid	i
10004608:	680a      	ldr	r2, [r1, #0]
1000460a:	2a00      	cmp	r2, #0
1000460c:	d0fc      	beq.n	10004608 <timer_task+0x14>
1000460e:	f3bf 8f5f 	dmb	sy
10004612:	490c      	ldr	r1, [pc, #48]	; (10004644 <timer_task+0x50>)
10004614:	604b      	str	r3, [r1, #4]
10004616:	2200      	movs	r2, #0
10004618:	480b      	ldr	r0, [pc, #44]	; (10004648 <timer_task+0x54>)
1000461a:	7002      	strb	r2, [r0, #0]
1000461c:	6809      	ldr	r1, [r1, #0]
1000461e:	f3bf 8f5f 	dmb	sy
10004622:	600a      	str	r2, [r1, #0]
10004624:	f383 8810 	msr	PRIMASK, r3
10004628:	2400      	movs	r4, #0
1000462a:	2500      	movs	r5, #0
1000462c:	4b07      	ldr	r3, [pc, #28]	; (1000464c <timer_task+0x58>)
1000462e:	7818      	ldrb	r0, [r3, #0]
10004630:	f7fb ffe2 	bl	100005f8 <irq_set_pending>
10004634:	0020      	movs	r0, r4
10004636:	0029      	movs	r1, r5
10004638:	bd70      	pop	{r4, r5, r6, pc}
1000463a:	24fa      	movs	r4, #250	; 0xfa
1000463c:	00a4      	lsls	r4, r4, #2
1000463e:	2500      	movs	r5, #0
10004640:	e7f4      	b.n	1000462c <timer_task+0x38>
10004642:	46c0      	nop			; (mov r8, r8)
10004644:	200017f8 	.word	0x200017f8
10004648:	20001a58 	.word	0x20001a58
1000464c:	20001a57 	.word	0x20001a57

10004650 <low_priority_worker_irq>:
10004650:	b510      	push	{r4, lr}
10004652:	b084      	sub	sp, #16
10004654:	2100      	movs	r1, #0
10004656:	482d      	ldr	r0, [pc, #180]	; (1000470c <low_priority_worker_irq+0xbc>)
10004658:	f002 fa9a 	bl	10006b90 <__mutex_try_enter_veneer>
1000465c:	2800      	cmp	r0, #0
1000465e:	d13a      	bne.n	100046d6 <low_priority_worker_irq+0x86>
10004660:	4b2b      	ldr	r3, [pc, #172]	; (10004710 <low_priority_worker_irq+0xc0>)
10004662:	681b      	ldr	r3, [r3, #0]
10004664:	2b00      	cmp	r3, #0
10004666:	d03e      	beq.n	100046e6 <low_priority_worker_irq+0x96>
10004668:	4b29      	ldr	r3, [pc, #164]	; (10004710 <low_priority_worker_irq+0xc0>)
1000466a:	6819      	ldr	r1, [r3, #0]
1000466c:	f3ef 8210 	mrs	r2, PRIMASK
10004670:	b672      	cpsid	i
10004672:	680b      	ldr	r3, [r1, #0]
10004674:	2b00      	cmp	r3, #0
10004676:	d0fc      	beq.n	10004672 <low_priority_worker_irq+0x22>
10004678:	f3bf 8f5f 	dmb	sy
1000467c:	4924      	ldr	r1, [pc, #144]	; (10004710 <low_priority_worker_irq+0xc0>)
1000467e:	604a      	str	r2, [r1, #4]
10004680:	4824      	ldr	r0, [pc, #144]	; (10004714 <low_priority_worker_irq+0xc4>)
10004682:	7803      	ldrb	r3, [r0, #0]
10004684:	2401      	movs	r4, #1
10004686:	4063      	eors	r3, r4
10004688:	b2db      	uxtb	r3, r3
1000468a:	2401      	movs	r4, #1
1000468c:	7004      	strb	r4, [r0, #0]
1000468e:	6809      	ldr	r1, [r1, #0]
10004690:	f3bf 8f5f 	dmb	sy
10004694:	2000      	movs	r0, #0
10004696:	6008      	str	r0, [r1, #0]
10004698:	f382 8810 	msr	PRIMASK, r2
1000469c:	2b00      	cmp	r3, #0
1000469e:	d022      	beq.n	100046e6 <low_priority_worker_irq+0x96>
100046a0:	f7fc fe18 	bl	100012d4 <alarm_pool_get_default>
100046a4:	0004      	movs	r4, r0
100046a6:	f7fd f8bb 	bl	10001820 <time_us_64>
100046aa:	0002      	movs	r2, r0
100046ac:	1e0b      	subs	r3, r1, #0
100046ae:	db1c      	blt.n	100046ea <low_priority_worker_irq+0x9a>
100046b0:	20fa      	movs	r0, #250	; 0xfa
100046b2:	0080      	lsls	r0, r0, #2
100046b4:	2100      	movs	r1, #0
100046b6:	1812      	adds	r2, r2, r0
100046b8:	414b      	adcs	r3, r1
100046ba:	2b00      	cmp	r3, #0
100046bc:	db1b      	blt.n	100046f6 <low_priority_worker_irq+0xa6>
100046be:	2b00      	cmp	r3, #0
100046c0:	db1d      	blt.n	100046fe <low_priority_worker_irq+0xae>
100046c2:	2101      	movs	r1, #1
100046c4:	9102      	str	r1, [sp, #8]
100046c6:	2100      	movs	r1, #0
100046c8:	9101      	str	r1, [sp, #4]
100046ca:	4913      	ldr	r1, [pc, #76]	; (10004718 <low_priority_worker_irq+0xc8>)
100046cc:	9100      	str	r1, [sp, #0]
100046ce:	0020      	movs	r0, r4
100046d0:	f7fc fe16 	bl	10001300 <alarm_pool_add_alarm_at>
100046d4:	e007      	b.n	100046e6 <low_priority_worker_irq+0x96>
100046d6:	2001      	movs	r0, #1
100046d8:	2100      	movs	r1, #0
100046da:	4240      	negs	r0, r0
100046dc:	f001 f8f0 	bl	100058c0 <tud_task_ext>
100046e0:	480a      	ldr	r0, [pc, #40]	; (1000470c <low_priority_worker_irq+0xbc>)
100046e2:	f002 fa35 	bl	10006b50 <__mutex_exit_veneer>
100046e6:	b004      	add	sp, #16
100046e8:	bd10      	pop	{r4, pc}
100046ea:	4b0c      	ldr	r3, [pc, #48]	; (1000471c <low_priority_worker_irq+0xcc>)
100046ec:	4a0c      	ldr	r2, [pc, #48]	; (10004720 <low_priority_worker_irq+0xd0>)
100046ee:	213f      	movs	r1, #63	; 0x3f
100046f0:	480c      	ldr	r0, [pc, #48]	; (10004724 <low_priority_worker_irq+0xd4>)
100046f2:	f7fd fec9 	bl	10002488 <__assert_func>
100046f6:	2201      	movs	r2, #1
100046f8:	4252      	negs	r2, r2
100046fa:	4b0b      	ldr	r3, [pc, #44]	; (10004728 <low_priority_worker_irq+0xd8>)
100046fc:	e7df      	b.n	100046be <low_priority_worker_irq+0x6e>
100046fe:	4b07      	ldr	r3, [pc, #28]	; (1000471c <low_priority_worker_irq+0xcc>)
10004700:	4a07      	ldr	r2, [pc, #28]	; (10004720 <low_priority_worker_irq+0xd0>)
10004702:	213f      	movs	r1, #63	; 0x3f
10004704:	4807      	ldr	r0, [pc, #28]	; (10004724 <low_priority_worker_irq+0xd4>)
10004706:	f7fd febf 	bl	10002488 <__assert_func>
1000470a:	46c0      	nop			; (mov r8, r8)
1000470c:	20001a20 	.word	0x20001a20
10004710:	200017f8 	.word	0x200017f8
10004714:	20001a58 	.word	0x20001a58
10004718:	100045f5 	.word	0x100045f5
1000471c:	10006fa0 	.word	0x10006fa0
10004720:	10007e44 	.word	0x10007e44
10004724:	10006fbc 	.word	0x10006fbc
10004728:	7fffffff 	.word	0x7fffffff

1000472c <tud_cdc_rx_cb>:
1000472c:	b510      	push	{r4, lr}
1000472e:	4b05      	ldr	r3, [pc, #20]	; (10004744 <tud_cdc_rx_cb+0x18>)
10004730:	6818      	ldr	r0, [r3, #0]
10004732:	2800      	cmp	r0, #0
10004734:	d004      	beq.n	10004740 <tud_cdc_rx_cb+0x14>
10004736:	4b04      	ldr	r3, [pc, #16]	; (10004748 <tud_cdc_rx_cb+0x1c>)
10004738:	6819      	ldr	r1, [r3, #0]
1000473a:	2200      	movs	r2, #0
1000473c:	f000 fde6 	bl	1000530c <usbd_defer_func>
10004740:	bd10      	pop	{r4, pc}
10004742:	46c0      	nop			; (mov r8, r8)
10004744:	20001344 	.word	0x20001344
10004748:	2000134c 	.word	0x2000134c

1000474c <stdio_usb_init>:
1000474c:	b510      	push	{r4, lr}
1000474e:	b084      	sub	sp, #16
10004750:	23d0      	movs	r3, #208	; 0xd0
10004752:	061b      	lsls	r3, r3, #24
10004754:	681c      	ldr	r4, [r3, #0]
10004756:	f7fc fdbd 	bl	100012d4 <alarm_pool_get_default>
1000475a:	f7fc ff01 	bl	10001560 <alarm_pool_core_num>
1000475e:	42a0      	cmp	r0, r4
10004760:	d12a      	bne.n	100047b8 <stdio_usb_init+0x6c>
10004762:	4b32      	ldr	r3, [pc, #200]	; (1000482c <stdio_usb_init+0xe0>)
10004764:	781b      	ldrb	r3, [r3, #0]
10004766:	f001 fd93 	bl	10006290 <tusb_init>
1000476a:	4831      	ldr	r0, [pc, #196]	; (10004830 <stdio_usb_init+0xe4>)
1000476c:	f7fc fa22 	bl	10000bb4 <mutex_init>
10004770:	2001      	movs	r0, #1
10004772:	f7fc fa03 	bl	10000b7c <user_irq_claim_unused>
10004776:	b2c0      	uxtb	r0, r0
10004778:	4c2e      	ldr	r4, [pc, #184]	; (10004834 <stdio_usb_init+0xe8>)
1000477a:	7020      	strb	r0, [r4, #0]
1000477c:	492e      	ldr	r1, [pc, #184]	; (10004838 <stdio_usb_init+0xec>)
1000477e:	f7fb ff5d 	bl	1000063c <irq_set_exclusive_handler>
10004782:	7820      	ldrb	r0, [r4, #0]
10004784:	2101      	movs	r1, #1
10004786:	f7fb ff2f 	bl	100005e8 <irq_set_enabled>
1000478a:	2005      	movs	r0, #5
1000478c:	f7fb ff44 	bl	10000618 <irq_has_shared_handler>
10004790:	1e04      	subs	r4, r0, #0
10004792:	d017      	beq.n	100047c4 <stdio_usb_init+0x78>
10004794:	2200      	movs	r2, #0
10004796:	4929      	ldr	r1, [pc, #164]	; (1000483c <stdio_usb_init+0xf0>)
10004798:	2005      	movs	r0, #5
1000479a:	f7fb ff79 	bl	10000690 <irq_add_shared_handler>
1000479e:	f7fb fe91 	bl	100004c4 <next_striped_spin_lock_num>
100047a2:	0001      	movs	r1, r0
100047a4:	4826      	ldr	r0, [pc, #152]	; (10004840 <stdio_usb_init+0xf4>)
100047a6:	f7fc fa21 	bl	10000bec <critical_section_init_with_lock_num>
100047aa:	2101      	movs	r1, #1
100047ac:	4825      	ldr	r0, [pc, #148]	; (10004844 <stdio_usb_init+0xf8>)
100047ae:	f7ff fd23 	bl	100041f8 <stdio_set_driver_enabled>
100047b2:	0020      	movs	r0, r4
100047b4:	b004      	add	sp, #16
100047b6:	bd10      	pop	{r4, pc}
100047b8:	4b23      	ldr	r3, [pc, #140]	; (10004848 <stdio_usb_init+0xfc>)
100047ba:	4a24      	ldr	r2, [pc, #144]	; (1000484c <stdio_usb_init+0x100>)
100047bc:	21b2      	movs	r1, #178	; 0xb2
100047be:	4824      	ldr	r0, [pc, #144]	; (10004850 <stdio_usb_init+0x104>)
100047c0:	f7fd fe62 	bl	10002488 <__assert_func>
100047c4:	f7fc fd86 	bl	100012d4 <alarm_pool_get_default>
100047c8:	0004      	movs	r4, r0
100047ca:	f7fd f829 	bl	10001820 <time_us_64>
100047ce:	0002      	movs	r2, r0
100047d0:	1e0b      	subs	r3, r1, #0
100047d2:	db1b      	blt.n	1000480c <stdio_usb_init+0xc0>
100047d4:	20fa      	movs	r0, #250	; 0xfa
100047d6:	0080      	lsls	r0, r0, #2
100047d8:	2100      	movs	r1, #0
100047da:	1812      	adds	r2, r2, r0
100047dc:	414b      	adcs	r3, r1
100047de:	2b00      	cmp	r3, #0
100047e0:	db1a      	blt.n	10004818 <stdio_usb_init+0xcc>
100047e2:	2b00      	cmp	r3, #0
100047e4:	db1c      	blt.n	10004820 <stdio_usb_init+0xd4>
100047e6:	2101      	movs	r1, #1
100047e8:	9102      	str	r1, [sp, #8]
100047ea:	2100      	movs	r1, #0
100047ec:	9101      	str	r1, [sp, #4]
100047ee:	4919      	ldr	r1, [pc, #100]	; (10004854 <stdio_usb_init+0x108>)
100047f0:	9100      	str	r1, [sp, #0]
100047f2:	0020      	movs	r0, r4
100047f4:	f7fc fd84 	bl	10001300 <alarm_pool_add_alarm_at>
100047f8:	43c4      	mvns	r4, r0
100047fa:	0fe4      	lsrs	r4, r4, #31
100047fc:	2208      	movs	r2, #8
100047fe:	2100      	movs	r1, #0
10004800:	480f      	ldr	r0, [pc, #60]	; (10004840 <stdio_usb_init+0xf4>)
10004802:	f7ff fbf1 	bl	10003fe8 <__wrap_memset>
10004806:	2c00      	cmp	r4, #0
10004808:	d0d3      	beq.n	100047b2 <stdio_usb_init+0x66>
1000480a:	e7ce      	b.n	100047aa <stdio_usb_init+0x5e>
1000480c:	4b12      	ldr	r3, [pc, #72]	; (10004858 <stdio_usb_init+0x10c>)
1000480e:	4a13      	ldr	r2, [pc, #76]	; (1000485c <stdio_usb_init+0x110>)
10004810:	213f      	movs	r1, #63	; 0x3f
10004812:	4813      	ldr	r0, [pc, #76]	; (10004860 <stdio_usb_init+0x114>)
10004814:	f7fd fe38 	bl	10002488 <__assert_func>
10004818:	2201      	movs	r2, #1
1000481a:	4252      	negs	r2, r2
1000481c:	4b11      	ldr	r3, [pc, #68]	; (10004864 <stdio_usb_init+0x118>)
1000481e:	e7e0      	b.n	100047e2 <stdio_usb_init+0x96>
10004820:	4b0d      	ldr	r3, [pc, #52]	; (10004858 <stdio_usb_init+0x10c>)
10004822:	4a0e      	ldr	r2, [pc, #56]	; (1000485c <stdio_usb_init+0x110>)
10004824:	213f      	movs	r1, #63	; 0x3f
10004826:	480e      	ldr	r0, [pc, #56]	; (10004860 <stdio_usb_init+0x114>)
10004828:	f7fd fe2e 	bl	10002488 <__assert_func>
1000482c:	10008448 	.word	0x10008448
10004830:	20001a20 	.word	0x20001a20
10004834:	20001a57 	.word	0x20001a57
10004838:	10004651 	.word	0x10004651
1000483c:	100045e5 	.word	0x100045e5
10004840:	200017f8 	.word	0x200017f8
10004844:	20000c68 	.word	0x20000c68
10004848:	10006e38 	.word	0x10006e38
1000484c:	10007e34 	.word	0x10007e34
10004850:	10007db0 	.word	0x10007db0
10004854:	100045f5 	.word	0x100045f5
10004858:	10006fa0 	.word	0x10006fa0
1000485c:	10007e44 	.word	0x10007e44
10004860:	10006fbc 	.word	0x10006fbc
10004864:	7fffffff 	.word	0x7fffffff

10004868 <stdio_usb_connected>:
10004868:	b510      	push	{r4, lr}
1000486a:	2000      	movs	r0, #0
1000486c:	f001 fa30 	bl	10005cd0 <tud_cdc_n_connected>
10004870:	bd10      	pop	{r4, pc}
	...

10004874 <stdio_usb_in_chars>:
10004874:	b570      	push	{r4, r5, r6, lr}
10004876:	0005      	movs	r5, r0
10004878:	000c      	movs	r4, r1
1000487a:	f7ff fff5 	bl	10004868 <stdio_usb_connected>
1000487e:	2800      	cmp	r0, #0
10004880:	d045      	beq.n	1000490e <stdio_usb_in_chars+0x9a>
10004882:	2000      	movs	r0, #0
10004884:	f001 fa46 	bl	10005d14 <tud_cdc_n_available>
10004888:	2800      	cmp	r0, #0
1000488a:	d043      	beq.n	10004914 <stdio_usb_in_chars+0xa0>
1000488c:	f7fc ffc8 	bl	10001820 <time_us_64>
10004890:	0002      	movs	r2, r0
10004892:	1e0b      	subs	r3, r1, #0
10004894:	db21      	blt.n	100048da <stdio_usb_in_chars+0x66>
10004896:	4822      	ldr	r0, [pc, #136]	; (10004920 <stdio_usb_in_chars+0xac>)
10004898:	2100      	movs	r1, #0
1000489a:	1812      	adds	r2, r2, r0
1000489c:	414b      	adcs	r3, r1
1000489e:	2b00      	cmp	r3, #0
100048a0:	db21      	blt.n	100048e6 <stdio_usb_in_chars+0x72>
100048a2:	2b00      	cmp	r3, #0
100048a4:	db23      	blt.n	100048ee <stdio_usb_in_chars+0x7a>
100048a6:	481f      	ldr	r0, [pc, #124]	; (10004924 <stdio_usb_in_chars+0xb0>)
100048a8:	f002 f98a 	bl	10006bc0 <__mutex_try_enter_block_until_veneer>
100048ac:	2800      	cmp	r0, #0
100048ae:	d034      	beq.n	1000491a <stdio_usb_in_chars+0xa6>
100048b0:	f7ff ffda 	bl	10004868 <stdio_usb_connected>
100048b4:	2800      	cmp	r0, #0
100048b6:	d004      	beq.n	100048c2 <stdio_usb_in_chars+0x4e>
100048b8:	2000      	movs	r0, #0
100048ba:	f001 fa2b 	bl	10005d14 <tud_cdc_n_available>
100048be:	2800      	cmp	r0, #0
100048c0:	d11b      	bne.n	100048fa <stdio_usb_in_chars+0x86>
100048c2:	2001      	movs	r0, #1
100048c4:	2100      	movs	r1, #0
100048c6:	4240      	negs	r0, r0
100048c8:	f000 fffa 	bl	100058c0 <tud_task_ext>
100048cc:	2403      	movs	r4, #3
100048ce:	4264      	negs	r4, r4
100048d0:	4814      	ldr	r0, [pc, #80]	; (10004924 <stdio_usb_in_chars+0xb0>)
100048d2:	f002 f93d 	bl	10006b50 <__mutex_exit_veneer>
100048d6:	0020      	movs	r0, r4
100048d8:	bd70      	pop	{r4, r5, r6, pc}
100048da:	4b13      	ldr	r3, [pc, #76]	; (10004928 <stdio_usb_in_chars+0xb4>)
100048dc:	4a13      	ldr	r2, [pc, #76]	; (1000492c <stdio_usb_in_chars+0xb8>)
100048de:	213f      	movs	r1, #63	; 0x3f
100048e0:	4813      	ldr	r0, [pc, #76]	; (10004930 <stdio_usb_in_chars+0xbc>)
100048e2:	f7fd fdd1 	bl	10002488 <__assert_func>
100048e6:	2201      	movs	r2, #1
100048e8:	4252      	negs	r2, r2
100048ea:	4b12      	ldr	r3, [pc, #72]	; (10004934 <stdio_usb_in_chars+0xc0>)
100048ec:	e7d9      	b.n	100048a2 <stdio_usb_in_chars+0x2e>
100048ee:	4b0e      	ldr	r3, [pc, #56]	; (10004928 <stdio_usb_in_chars+0xb4>)
100048f0:	4a0e      	ldr	r2, [pc, #56]	; (1000492c <stdio_usb_in_chars+0xb8>)
100048f2:	213f      	movs	r1, #63	; 0x3f
100048f4:	480e      	ldr	r0, [pc, #56]	; (10004930 <stdio_usb_in_chars+0xbc>)
100048f6:	f7fd fdc7 	bl	10002488 <__assert_func>
100048fa:	0022      	movs	r2, r4
100048fc:	0029      	movs	r1, r5
100048fe:	2000      	movs	r0, #0
10004900:	f001 fa14 	bl	10005d2c <tud_cdc_n_read>
10004904:	1e04      	subs	r4, r0, #0
10004906:	d1e3      	bne.n	100048d0 <stdio_usb_in_chars+0x5c>
10004908:	2403      	movs	r4, #3
1000490a:	4264      	negs	r4, r4
1000490c:	e7e0      	b.n	100048d0 <stdio_usb_in_chars+0x5c>
1000490e:	2403      	movs	r4, #3
10004910:	4264      	negs	r4, r4
10004912:	e7e0      	b.n	100048d6 <stdio_usb_in_chars+0x62>
10004914:	2403      	movs	r4, #3
10004916:	4264      	negs	r4, r4
10004918:	e7dd      	b.n	100048d6 <stdio_usb_in_chars+0x62>
1000491a:	2403      	movs	r4, #3
1000491c:	4264      	negs	r4, r4
1000491e:	e7da      	b.n	100048d6 <stdio_usb_in_chars+0x62>
10004920:	000f4240 	.word	0x000f4240
10004924:	20001a20 	.word	0x20001a20
10004928:	10006fa0 	.word	0x10006fa0
1000492c:	10007e44 	.word	0x10007e44
10004930:	10006fbc 	.word	0x10006fbc
10004934:	7fffffff 	.word	0x7fffffff

10004938 <stdio_usb_out_chars>:
10004938:	b5f0      	push	{r4, r5, r6, r7, lr}
1000493a:	46c6      	mov	lr, r8
1000493c:	b500      	push	{lr}
1000493e:	4680      	mov	r8, r0
10004940:	000c      	movs	r4, r1
10004942:	f7fc ff6d 	bl	10001820 <time_us_64>
10004946:	0002      	movs	r2, r0
10004948:	1e0b      	subs	r3, r1, #0
1000494a:	db0f      	blt.n	1000496c <stdio_usb_out_chars+0x34>
1000494c:	4837      	ldr	r0, [pc, #220]	; (10004a2c <stdio_usb_out_chars+0xf4>)
1000494e:	2100      	movs	r1, #0
10004950:	1812      	adds	r2, r2, r0
10004952:	414b      	adcs	r3, r1
10004954:	2b00      	cmp	r3, #0
10004956:	db0f      	blt.n	10004978 <stdio_usb_out_chars+0x40>
10004958:	2b00      	cmp	r3, #0
1000495a:	db11      	blt.n	10004980 <stdio_usb_out_chars+0x48>
1000495c:	4834      	ldr	r0, [pc, #208]	; (10004a30 <stdio_usb_out_chars+0xf8>)
1000495e:	f002 f92f 	bl	10006bc0 <__mutex_try_enter_block_until_veneer>
10004962:	2800      	cmp	r0, #0
10004964:	d112      	bne.n	1000498c <stdio_usb_out_chars+0x54>
10004966:	bc80      	pop	{r7}
10004968:	46b8      	mov	r8, r7
1000496a:	bdf0      	pop	{r4, r5, r6, r7, pc}
1000496c:	4b31      	ldr	r3, [pc, #196]	; (10004a34 <stdio_usb_out_chars+0xfc>)
1000496e:	4a32      	ldr	r2, [pc, #200]	; (10004a38 <stdio_usb_out_chars+0x100>)
10004970:	213f      	movs	r1, #63	; 0x3f
10004972:	4832      	ldr	r0, [pc, #200]	; (10004a3c <stdio_usb_out_chars+0x104>)
10004974:	f7fd fd88 	bl	10002488 <__assert_func>
10004978:	2201      	movs	r2, #1
1000497a:	4252      	negs	r2, r2
1000497c:	4b30      	ldr	r3, [pc, #192]	; (10004a40 <stdio_usb_out_chars+0x108>)
1000497e:	e7eb      	b.n	10004958 <stdio_usb_out_chars+0x20>
10004980:	4b2c      	ldr	r3, [pc, #176]	; (10004a34 <stdio_usb_out_chars+0xfc>)
10004982:	4a2d      	ldr	r2, [pc, #180]	; (10004a38 <stdio_usb_out_chars+0x100>)
10004984:	213f      	movs	r1, #63	; 0x3f
10004986:	482d      	ldr	r0, [pc, #180]	; (10004a3c <stdio_usb_out_chars+0x104>)
10004988:	f7fd fd7e 	bl	10002488 <__assert_func>
1000498c:	f7ff ff6c 	bl	10004868 <stdio_usb_connected>
10004990:	2800      	cmp	r0, #0
10004992:	d149      	bne.n	10004a28 <stdio_usb_out_chars+0xf0>
10004994:	4b2b      	ldr	r3, [pc, #172]	; (10004a44 <stdio_usb_out_chars+0x10c>)
10004996:	2000      	movs	r0, #0
10004998:	2100      	movs	r1, #0
1000499a:	6018      	str	r0, [r3, #0]
1000499c:	6059      	str	r1, [r3, #4]
1000499e:	4824      	ldr	r0, [pc, #144]	; (10004a30 <stdio_usb_out_chars+0xf8>)
100049a0:	f002 f8d6 	bl	10006b50 <__mutex_exit_veneer>
100049a4:	e7df      	b.n	10004966 <stdio_usb_out_chars+0x2e>
100049a6:	2001      	movs	r0, #1
100049a8:	2100      	movs	r1, #0
100049aa:	4240      	negs	r0, r0
100049ac:	f000 ff88 	bl	100058c0 <tud_task_ext>
100049b0:	2000      	movs	r0, #0
100049b2:	f001 f9cf 	bl	10005d54 <tud_cdc_n_write_flush>
100049b6:	f7ff ff57 	bl	10004868 <stdio_usb_connected>
100049ba:	2800      	cmp	r0, #0
100049bc:	d0ef      	beq.n	1000499e <stdio_usb_out_chars+0x66>
100049be:	2000      	movs	r0, #0
100049c0:	f001 fa40 	bl	10005e44 <tud_cdc_n_write_available>
100049c4:	2800      	cmp	r0, #0
100049c6:	d020      	beq.n	10004a0a <stdio_usb_out_chars+0xd2>
100049c8:	42a5      	cmp	r5, r4
100049ca:	dae8      	bge.n	1000499e <stdio_usb_out_chars+0x66>
100049cc:	1b66      	subs	r6, r4, r5
100049ce:	2000      	movs	r0, #0
100049d0:	f001 fa38 	bl	10005e44 <tud_cdc_n_write_available>
100049d4:	0002      	movs	r2, r0
100049d6:	4286      	cmp	r6, r0
100049d8:	dc00      	bgt.n	100049dc <stdio_usb_out_chars+0xa4>
100049da:	0032      	movs	r2, r6
100049dc:	2a00      	cmp	r2, #0
100049de:	d0e2      	beq.n	100049a6 <stdio_usb_out_chars+0x6e>
100049e0:	4643      	mov	r3, r8
100049e2:	1959      	adds	r1, r3, r5
100049e4:	2000      	movs	r0, #0
100049e6:	f001 fa11 	bl	10005e0c <tud_cdc_n_write>
100049ea:	0006      	movs	r6, r0
100049ec:	2001      	movs	r0, #1
100049ee:	2100      	movs	r1, #0
100049f0:	4240      	negs	r0, r0
100049f2:	f000 ff65 	bl	100058c0 <tud_task_ext>
100049f6:	2000      	movs	r0, #0
100049f8:	f001 f9ac 	bl	10005d54 <tud_cdc_n_write_flush>
100049fc:	19ad      	adds	r5, r5, r6
100049fe:	f7fc ff0f 	bl	10001820 <time_us_64>
10004a02:	4b10      	ldr	r3, [pc, #64]	; (10004a44 <stdio_usb_out_chars+0x10c>)
10004a04:	6018      	str	r0, [r3, #0]
10004a06:	6059      	str	r1, [r3, #4]
10004a08:	e7de      	b.n	100049c8 <stdio_usb_out_chars+0x90>
10004a0a:	f7fc ff09 	bl	10001820 <time_us_64>
10004a0e:	4b0d      	ldr	r3, [pc, #52]	; (10004a44 <stdio_usb_out_chars+0x10c>)
10004a10:	681e      	ldr	r6, [r3, #0]
10004a12:	685f      	ldr	r7, [r3, #4]
10004a14:	4a0c      	ldr	r2, [pc, #48]	; (10004a48 <stdio_usb_out_chars+0x110>)
10004a16:	2300      	movs	r3, #0
10004a18:	1992      	adds	r2, r2, r6
10004a1a:	417b      	adcs	r3, r7
10004a1c:	4299      	cmp	r1, r3
10004a1e:	d8be      	bhi.n	1000499e <stdio_usb_out_chars+0x66>
10004a20:	d1d2      	bne.n	100049c8 <stdio_usb_out_chars+0x90>
10004a22:	4290      	cmp	r0, r2
10004a24:	d9d0      	bls.n	100049c8 <stdio_usb_out_chars+0x90>
10004a26:	e7ba      	b.n	1000499e <stdio_usb_out_chars+0x66>
10004a28:	2500      	movs	r5, #0
10004a2a:	e7cd      	b.n	100049c8 <stdio_usb_out_chars+0x90>
10004a2c:	000f4240 	.word	0x000f4240
10004a30:	20001a20 	.word	0x20001a20
10004a34:	10006fa0 	.word	0x10006fa0
10004a38:	10007e44 	.word	0x10007e44
10004a3c:	10006fbc 	.word	0x10006fbc
10004a40:	7fffffff 	.word	0x7fffffff
10004a44:	20000dc8 	.word	0x20000dc8
10004a48:	0007a120 	.word	0x0007a120

10004a4c <tud_descriptor_device_cb>:
10004a4c:	4800      	ldr	r0, [pc, #0]	; (10004a50 <tud_descriptor_device_cb+0x4>)
10004a4e:	4770      	bx	lr
10004a50:	10007edc 	.word	0x10007edc

10004a54 <tud_descriptor_configuration_cb>:
10004a54:	4800      	ldr	r0, [pc, #0]	; (10004a58 <tud_descriptor_configuration_cb+0x4>)
10004a56:	4770      	bx	lr
10004a58:	10007e88 	.word	0x10007e88

10004a5c <tud_descriptor_string_cb>:
10004a5c:	b510      	push	{r4, lr}
10004a5e:	0004      	movs	r4, r0
10004a60:	4b15      	ldr	r3, [pc, #84]	; (10004ab8 <tud_descriptor_string_cb+0x5c>)
10004a62:	781b      	ldrb	r3, [r3, #0]
10004a64:	2b00      	cmp	r3, #0
10004a66:	d00e      	beq.n	10004a86 <tud_descriptor_string_cb+0x2a>
10004a68:	2c00      	cmp	r4, #0
10004a6a:	d111      	bne.n	10004a90 <tud_descriptor_string_cb+0x34>
10004a6c:	4b13      	ldr	r3, [pc, #76]	; (10004abc <tud_descriptor_string_cb+0x60>)
10004a6e:	4a14      	ldr	r2, [pc, #80]	; (10004ac0 <tud_descriptor_string_cb+0x64>)
10004a70:	805a      	strh	r2, [r3, #2]
10004a72:	2301      	movs	r3, #1
10004a74:	3301      	adds	r3, #1
10004a76:	005b      	lsls	r3, r3, #1
10004a78:	b21b      	sxth	r3, r3
10004a7a:	22c0      	movs	r2, #192	; 0xc0
10004a7c:	0092      	lsls	r2, r2, #2
10004a7e:	4313      	orrs	r3, r2
10004a80:	480e      	ldr	r0, [pc, #56]	; (10004abc <tud_descriptor_string_cb+0x60>)
10004a82:	8003      	strh	r3, [r0, #0]
10004a84:	bd10      	pop	{r4, pc}
10004a86:	2111      	movs	r1, #17
10004a88:	480b      	ldr	r0, [pc, #44]	; (10004ab8 <tud_descriptor_string_cb+0x5c>)
10004a8a:	f000 f825 	bl	10004ad8 <pico_get_unique_board_id_string>
10004a8e:	e7eb      	b.n	10004a68 <tud_descriptor_string_cb+0xc>
10004a90:	2c05      	cmp	r4, #5
10004a92:	d80e      	bhi.n	10004ab2 <tud_descriptor_string_cb+0x56>
10004a94:	00a4      	lsls	r4, r4, #2
10004a96:	4b0b      	ldr	r3, [pc, #44]	; (10004ac4 <tud_descriptor_string_cb+0x68>)
10004a98:	58e4      	ldr	r4, [r4, r3]
10004a9a:	2300      	movs	r3, #0
10004a9c:	2b12      	cmp	r3, #18
10004a9e:	d8e9      	bhi.n	10004a74 <tud_descriptor_string_cb+0x18>
10004aa0:	5ce2      	ldrb	r2, [r4, r3]
10004aa2:	2a00      	cmp	r2, #0
10004aa4:	d0e6      	beq.n	10004a74 <tud_descriptor_string_cb+0x18>
10004aa6:	3301      	adds	r3, #1
10004aa8:	0059      	lsls	r1, r3, #1
10004aaa:	4804      	ldr	r0, [pc, #16]	; (10004abc <tud_descriptor_string_cb+0x60>)
10004aac:	5242      	strh	r2, [r0, r1]
10004aae:	b2db      	uxtb	r3, r3
10004ab0:	e7f4      	b.n	10004a9c <tud_descriptor_string_cb+0x40>
10004ab2:	2000      	movs	r0, #0
10004ab4:	e7e6      	b.n	10004a84 <tud_descriptor_string_cb+0x28>
10004ab6:	46c0      	nop			; (mov r8, r8)
10004ab8:	20001a40 	.word	0x20001a40
10004abc:	200013bc 	.word	0x200013bc
10004ac0:	00000409 	.word	0x00000409
10004ac4:	10007ef0 	.word	0x10007ef0

10004ac8 <_retrieve_unique_id_on_boot>:
10004ac8:	b510      	push	{r4, lr}
10004aca:	4802      	ldr	r0, [pc, #8]	; (10004ad4 <_retrieve_unique_id_on_boot+0xc>)
10004acc:	f000 f834 	bl	10004b38 <flash_get_unique_id>
10004ad0:	bd10      	pop	{r4, pc}
10004ad2:	46c0      	nop			; (mov r8, r8)
10004ad4:	20001810 	.word	0x20001810

10004ad8 <pico_get_unique_board_id_string>:
10004ad8:	b510      	push	{r4, lr}
10004ada:	2900      	cmp	r1, #0
10004adc:	d001      	beq.n	10004ae2 <pico_get_unique_board_id_string+0xa>
10004ade:	2300      	movs	r3, #0
10004ae0:	e00a      	b.n	10004af8 <pico_get_unique_board_id_string+0x20>
10004ae2:	4b11      	ldr	r3, [pc, #68]	; (10004b28 <pico_get_unique_board_id_string+0x50>)
10004ae4:	4a11      	ldr	r2, [pc, #68]	; (10004b2c <pico_get_unique_board_id_string+0x54>)
10004ae6:	311f      	adds	r1, #31
10004ae8:	4811      	ldr	r0, [pc, #68]	; (10004b30 <pico_get_unique_board_id_string+0x58>)
10004aea:	f7fd fccd 	bl	10002488 <__assert_func>
10004aee:	2400      	movs	r4, #0
10004af0:	e00d      	b.n	10004b0e <pico_get_unique_board_id_string+0x36>
10004af2:	3237      	adds	r2, #55	; 0x37
10004af4:	54c2      	strb	r2, [r0, r3]
10004af6:	3301      	adds	r3, #1
10004af8:	1e4a      	subs	r2, r1, #1
10004afa:	429a      	cmp	r2, r3
10004afc:	d90f      	bls.n	10004b1e <pico_get_unique_board_id_string+0x46>
10004afe:	2b0f      	cmp	r3, #15
10004b00:	d80d      	bhi.n	10004b1e <pico_get_unique_board_id_string+0x46>
10004b02:	085a      	lsrs	r2, r3, #1
10004b04:	4c0b      	ldr	r4, [pc, #44]	; (10004b34 <pico_get_unique_board_id_string+0x5c>)
10004b06:	5ca2      	ldrb	r2, [r4, r2]
10004b08:	07dc      	lsls	r4, r3, #31
10004b0a:	d4f0      	bmi.n	10004aee <pico_get_unique_board_id_string+0x16>
10004b0c:	2404      	movs	r4, #4
10004b0e:	4122      	asrs	r2, r4
10004b10:	0014      	movs	r4, r2
10004b12:	220f      	movs	r2, #15
10004b14:	4022      	ands	r2, r4
10004b16:	2a09      	cmp	r2, #9
10004b18:	dceb      	bgt.n	10004af2 <pico_get_unique_board_id_string+0x1a>
10004b1a:	3230      	adds	r2, #48	; 0x30
10004b1c:	e7ea      	b.n	10004af4 <pico_get_unique_board_id_string+0x1c>
10004b1e:	18c0      	adds	r0, r0, r3
10004b20:	2300      	movs	r3, #0
10004b22:	7003      	strb	r3, [r0, #0]
10004b24:	bd10      	pop	{r4, pc}
10004b26:	46c0      	nop			; (mov r8, r8)
10004b28:	10007f08 	.word	0x10007f08
10004b2c:	10007f74 	.word	0x10007f74
10004b30:	10007f10 	.word	0x10007f10
10004b34:	20001810 	.word	0x20001810

10004b38 <flash_get_unique_id>:
10004b38:	b570      	push	{r4, r5, r6, lr}
10004b3a:	b088      	sub	sp, #32
10004b3c:	0004      	movs	r4, r0
10004b3e:	ad04      	add	r5, sp, #16
10004b40:	2600      	movs	r6, #0
10004b42:	9604      	str	r6, [sp, #16]
10004b44:	2209      	movs	r2, #9
10004b46:	2100      	movs	r1, #0
10004b48:	a805      	add	r0, sp, #20
10004b4a:	f7ff fa4d 	bl	10003fe8 <__wrap_memset>
10004b4e:	9600      	str	r6, [sp, #0]
10004b50:	2209      	movs	r2, #9
10004b52:	2100      	movs	r1, #0
10004b54:	a801      	add	r0, sp, #4
10004b56:	f7ff fa47 	bl	10003fe8 <__wrap_memset>
10004b5a:	234b      	movs	r3, #75	; 0x4b
10004b5c:	702b      	strb	r3, [r5, #0]
10004b5e:	220d      	movs	r2, #13
10004b60:	4669      	mov	r1, sp
10004b62:	0028      	movs	r0, r5
10004b64:	f001 ffec 	bl	10006b40 <__flash_do_cmd_veneer>
10004b68:	2300      	movs	r3, #0
10004b6a:	e004      	b.n	10004b76 <flash_get_unique_id+0x3e>
10004b6c:	1d5a      	adds	r2, r3, #5
10004b6e:	4669      	mov	r1, sp
10004b70:	5c8a      	ldrb	r2, [r1, r2]
10004b72:	54e2      	strb	r2, [r4, r3]
10004b74:	3301      	adds	r3, #1
10004b76:	2b07      	cmp	r3, #7
10004b78:	ddf8      	ble.n	10004b6c <flash_get_unique_id+0x34>
10004b7a:	b008      	add	sp, #32
10004b7c:	bd70      	pop	{r4, r5, r6, pc}
	...

10004b80 <hw_endpoint_get_by_addr>:
10004b80:	0002      	movs	r2, r0
10004b82:	207f      	movs	r0, #127	; 0x7f
10004b84:	4010      	ands	r0, r2
10004b86:	09d2      	lsrs	r2, r2, #7
10004b88:	0040      	lsls	r0, r0, #1
10004b8a:	1880      	adds	r0, r0, r2
10004b8c:	0140      	lsls	r0, r0, #5
10004b8e:	4b01      	ldr	r3, [pc, #4]	; (10004b94 <hw_endpoint_get_by_addr+0x14>)
10004b90:	18c0      	adds	r0, r0, r3
10004b92:	4770      	bx	lr
10004b94:	200013f0 	.word	0x200013f0

10004b98 <_hw_endpoint_alloc>:
10004b98:	b510      	push	{r4, lr}
10004b9a:	8b03      	ldrh	r3, [r0, #24]
10004b9c:	333f      	adds	r3, #63	; 0x3f
10004b9e:	223f      	movs	r2, #63	; 0x3f
10004ba0:	4393      	bics	r3, r2
10004ba2:	2902      	cmp	r1, #2
10004ba4:	d015      	beq.n	10004bd2 <_hw_endpoint_alloc+0x3a>
10004ba6:	4c12      	ldr	r4, [pc, #72]	; (10004bf0 <_hw_endpoint_alloc+0x58>)
10004ba8:	6822      	ldr	r2, [r4, #0]
10004baa:	60c2      	str	r2, [r0, #12]
10004bac:	18d3      	adds	r3, r2, r3
10004bae:	6023      	str	r3, [r4, #0]
10004bb0:	069c      	lsls	r4, r3, #26
10004bb2:	d110      	bne.n	10004bd6 <_hw_endpoint_alloc+0x3e>
10004bb4:	4c0f      	ldr	r4, [pc, #60]	; (10004bf4 <_hw_endpoint_alloc+0x5c>)
10004bb6:	4062      	eors	r2, r4
10004bb8:	4063      	eors	r3, r4
10004bba:	2480      	movs	r4, #128	; 0x80
10004bbc:	0164      	lsls	r4, r4, #5
10004bbe:	42a3      	cmp	r3, r4
10004bc0:	d80f      	bhi.n	10004be2 <_hw_endpoint_alloc+0x4a>
10004bc2:	0689      	lsls	r1, r1, #26
10004bc4:	4311      	orrs	r1, r2
10004bc6:	2380      	movs	r3, #128	; 0x80
10004bc8:	061b      	lsls	r3, r3, #24
10004bca:	4319      	orrs	r1, r3
10004bcc:	6843      	ldr	r3, [r0, #4]
10004bce:	6019      	str	r1, [r3, #0]
10004bd0:	bd10      	pop	{r4, pc}
10004bd2:	005b      	lsls	r3, r3, #1
10004bd4:	e7e7      	b.n	10004ba6 <_hw_endpoint_alloc+0xe>
10004bd6:	4b08      	ldr	r3, [pc, #32]	; (10004bf8 <_hw_endpoint_alloc+0x60>)
10004bd8:	4a08      	ldr	r2, [pc, #32]	; (10004bfc <_hw_endpoint_alloc+0x64>)
10004bda:	2154      	movs	r1, #84	; 0x54
10004bdc:	4808      	ldr	r0, [pc, #32]	; (10004c00 <_hw_endpoint_alloc+0x68>)
10004bde:	f7fd fc53 	bl	10002488 <__assert_func>
10004be2:	4b08      	ldr	r3, [pc, #32]	; (10004c04 <_hw_endpoint_alloc+0x6c>)
10004be4:	4a05      	ldr	r2, [pc, #20]	; (10004bfc <_hw_endpoint_alloc+0x64>)
10004be6:	2156      	movs	r1, #86	; 0x56
10004be8:	4805      	ldr	r0, [pc, #20]	; (10004c00 <_hw_endpoint_alloc+0x68>)
10004bea:	f7fd fc4d 	bl	10002488 <__assert_func>
10004bee:	46c0      	nop			; (mov r8, r8)
10004bf0:	200017f4 	.word	0x200017f4
10004bf4:	50100000 	.word	0x50100000
10004bf8:	1000811c 	.word	0x1000811c
10004bfc:	10008250 	.word	0x10008250
10004c00:	1000814c 	.word	0x1000814c
10004c04:	100081bc 	.word	0x100081bc

10004c08 <hw_endpoint_init>:
10004c08:	b5f8      	push	{r3, r4, r5, r6, r7, lr}
10004c0a:	0005      	movs	r5, r0
10004c0c:	000e      	movs	r6, r1
10004c0e:	0014      	movs	r4, r2
10004c10:	f7ff ffb6 	bl	10004b80 <hw_endpoint_get_by_addr>
10004c14:	237f      	movs	r3, #127	; 0x7f
10004c16:	402b      	ands	r3, r5
10004c18:	09ef      	lsrs	r7, r5, #7
10004c1a:	7085      	strb	r5, [r0, #2]
10004c1c:	427a      	negs	r2, r7
10004c1e:	417a      	adcs	r2, r7
10004c20:	7042      	strb	r2, [r0, #1]
10004c22:	2200      	movs	r2, #0
10004c24:	70c2      	strb	r2, [r0, #3]
10004c26:	8306      	strh	r6, [r0, #24]
10004c28:	76c4      	strb	r4, [r0, #27]
10004c2a:	2f01      	cmp	r7, #1
10004c2c:	d00d      	beq.n	10004c4a <hw_endpoint_init+0x42>
10004c2e:	00da      	lsls	r2, r3, #3
10004c30:	4912      	ldr	r1, [pc, #72]	; (10004c7c <hw_endpoint_init+0x74>)
10004c32:	468c      	mov	ip, r1
10004c34:	4462      	add	r2, ip
10004c36:	6082      	str	r2, [r0, #8]
10004c38:	6882      	ldr	r2, [r0, #8]
10004c3a:	2100      	movs	r1, #0
10004c3c:	6011      	str	r1, [r2, #0]
10004c3e:	2b00      	cmp	r3, #0
10004c40:	d109      	bne.n	10004c56 <hw_endpoint_init+0x4e>
10004c42:	6043      	str	r3, [r0, #4]
10004c44:	4b0e      	ldr	r3, [pc, #56]	; (10004c80 <hw_endpoint_init+0x78>)
10004c46:	60c3      	str	r3, [r0, #12]
10004c48:	bdf8      	pop	{r3, r4, r5, r6, r7, pc}
10004c4a:	00da      	lsls	r2, r3, #3
10004c4c:	490d      	ldr	r1, [pc, #52]	; (10004c84 <hw_endpoint_init+0x7c>)
10004c4e:	468c      	mov	ip, r1
10004c50:	4462      	add	r2, ip
10004c52:	6082      	str	r2, [r0, #8]
10004c54:	e7f0      	b.n	10004c38 <hw_endpoint_init+0x30>
10004c56:	2f01      	cmp	r7, #1
10004c58:	d009      	beq.n	10004c6e <hw_endpoint_init+0x66>
10004c5a:	3b01      	subs	r3, #1
10004c5c:	00db      	lsls	r3, r3, #3
10004c5e:	4a0a      	ldr	r2, [pc, #40]	; (10004c88 <hw_endpoint_init+0x80>)
10004c60:	4694      	mov	ip, r2
10004c62:	4463      	add	r3, ip
10004c64:	6043      	str	r3, [r0, #4]
10004c66:	0021      	movs	r1, r4
10004c68:	f7ff ff96 	bl	10004b98 <_hw_endpoint_alloc>
10004c6c:	e7ec      	b.n	10004c48 <hw_endpoint_init+0x40>
10004c6e:	3b01      	subs	r3, #1
10004c70:	00db      	lsls	r3, r3, #3
10004c72:	4a06      	ldr	r2, [pc, #24]	; (10004c8c <hw_endpoint_init+0x84>)
10004c74:	4694      	mov	ip, r2
10004c76:	4463      	add	r3, ip
10004c78:	6043      	str	r3, [r0, #4]
10004c7a:	e7f4      	b.n	10004c66 <hw_endpoint_init+0x5e>
10004c7c:	50100084 	.word	0x50100084
10004c80:	50100100 	.word	0x50100100
10004c84:	50100080 	.word	0x50100080
10004c88:	5010000c 	.word	0x5010000c
10004c8c:	50100008 	.word	0x50100008

10004c90 <hw_endpoint_xfer>:
10004c90:	b570      	push	{r4, r5, r6, lr}
10004c92:	000c      	movs	r4, r1
10004c94:	0015      	movs	r5, r2
10004c96:	f7ff ff73 	bl	10004b80 <hw_endpoint_get_by_addr>
10004c9a:	002a      	movs	r2, r5
10004c9c:	0021      	movs	r1, r4
10004c9e:	f000 f90d 	bl	10004ebc <hw_endpoint_xfer_start>
10004ca2:	bd70      	pop	{r4, r5, r6, pc}

10004ca4 <dcd_int_enable>:
10004ca4:	b510      	push	{r4, lr}
10004ca6:	2800      	cmp	r0, #0
10004ca8:	d104      	bne.n	10004cb4 <dcd_int_enable+0x10>
10004caa:	2101      	movs	r1, #1
10004cac:	2005      	movs	r0, #5
10004cae:	f7fb fc9b 	bl	100005e8 <irq_set_enabled>
10004cb2:	bd10      	pop	{r4, pc}
10004cb4:	21d5      	movs	r1, #213	; 0xd5
10004cb6:	4b03      	ldr	r3, [pc, #12]	; (10004cc4 <dcd_int_enable+0x20>)
10004cb8:	4a03      	ldr	r2, [pc, #12]	; (10004cc8 <dcd_int_enable+0x24>)
10004cba:	0049      	lsls	r1, r1, #1
10004cbc:	4803      	ldr	r0, [pc, #12]	; (10004ccc <dcd_int_enable+0x28>)
10004cbe:	f7fd fbe3 	bl	10002488 <__assert_func>
10004cc2:	46c0      	nop			; (mov r8, r8)
10004cc4:	10008204 	.word	0x10008204
10004cc8:	10008240 	.word	0x10008240
10004ccc:	1000814c 	.word	0x1000814c

10004cd0 <dcd_set_address>:
10004cd0:	b510      	push	{r4, lr}
10004cd2:	2800      	cmp	r0, #0
10004cd4:	d105      	bne.n	10004ce2 <dcd_set_address+0x12>
10004cd6:	2200      	movs	r2, #0
10004cd8:	2100      	movs	r1, #0
10004cda:	2080      	movs	r0, #128	; 0x80
10004cdc:	f7ff ffd8 	bl	10004c90 <hw_endpoint_xfer>
10004ce0:	bd10      	pop	{r4, pc}
10004ce2:	21db      	movs	r1, #219	; 0xdb
10004ce4:	4b02      	ldr	r3, [pc, #8]	; (10004cf0 <dcd_set_address+0x20>)
10004ce6:	4a03      	ldr	r2, [pc, #12]	; (10004cf4 <dcd_set_address+0x24>)
10004ce8:	0049      	lsls	r1, r1, #1
10004cea:	4803      	ldr	r0, [pc, #12]	; (10004cf8 <dcd_set_address+0x28>)
10004cec:	f7fd fbcc 	bl	10002488 <__assert_func>
10004cf0:	10008204 	.word	0x10008204
10004cf4:	10008230 	.word	0x10008230
10004cf8:	1000814c 	.word	0x1000814c

10004cfc <dcd_connect>:
10004cfc:	4b02      	ldr	r3, [pc, #8]	; (10004d08 <dcd_connect+0xc>)
10004cfe:	2280      	movs	r2, #128	; 0x80
10004d00:	0252      	lsls	r2, r2, #9
10004d02:	64da      	str	r2, [r3, #76]	; 0x4c
10004d04:	4770      	bx	lr
10004d06:	46c0      	nop			; (mov r8, r8)
10004d08:	50112000 	.word	0x50112000

10004d0c <dcd_init>:
10004d0c:	b570      	push	{r4, r5, r6, lr}
10004d0e:	1e04      	subs	r4, r0, #0
10004d10:	d126      	bne.n	10004d60 <dcd_init+0x54>
10004d12:	f000 f8ad 	bl	10004e70 <rp2040_usb_init>
10004d16:	4d16      	ldr	r5, [pc, #88]	; (10004d70 <dcd_init+0x64>)
10004d18:	230c      	movs	r3, #12
10004d1a:	67ab      	str	r3, [r5, #120]	; 0x78
10004d1c:	22ff      	movs	r2, #255	; 0xff
10004d1e:	4915      	ldr	r1, [pc, #84]	; (10004d74 <dcd_init+0x68>)
10004d20:	2005      	movs	r0, #5
10004d22:	f7fb fcb5 	bl	10000690 <irq_add_shared_handler>
10004d26:	2240      	movs	r2, #64	; 0x40
10004d28:	2100      	movs	r1, #0
10004d2a:	4813      	ldr	r0, [pc, #76]	; (10004d78 <dcd_init+0x6c>)
10004d2c:	f7ff f95c 	bl	10003fe8 <__wrap_memset>
10004d30:	2200      	movs	r2, #0
10004d32:	2140      	movs	r1, #64	; 0x40
10004d34:	2000      	movs	r0, #0
10004d36:	f7ff ff67 	bl	10004c08 <hw_endpoint_init>
10004d3a:	2200      	movs	r2, #0
10004d3c:	2140      	movs	r1, #64	; 0x40
10004d3e:	2080      	movs	r0, #128	; 0x80
10004d40:	f7ff ff62 	bl	10004c08 <hw_endpoint_init>
10004d44:	f001 ff14 	bl	10006b70 <__reset_non_control_endpoints_veneer>
10004d48:	2301      	movs	r3, #1
10004d4a:	642b      	str	r3, [r5, #64]	; 0x40
10004d4c:	2380      	movs	r3, #128	; 0x80
10004d4e:	059b      	lsls	r3, r3, #22
10004d50:	64eb      	str	r3, [r5, #76]	; 0x4c
10004d52:	2390      	movs	r3, #144	; 0x90
10004d54:	4a09      	ldr	r2, [pc, #36]	; (10004d7c <dcd_init+0x70>)
10004d56:	50ea      	str	r2, [r5, r3]
10004d58:	0020      	movs	r0, r4
10004d5a:	f7ff ffcf 	bl	10004cfc <dcd_connect>
10004d5e:	bd70      	pop	{r4, r5, r6, pc}
10004d60:	2186      	movs	r1, #134	; 0x86
10004d62:	4b07      	ldr	r3, [pc, #28]	; (10004d80 <dcd_init+0x74>)
10004d64:	4a07      	ldr	r2, [pc, #28]	; (10004d84 <dcd_init+0x78>)
10004d66:	31ff      	adds	r1, #255	; 0xff
10004d68:	4807      	ldr	r0, [pc, #28]	; (10004d88 <dcd_init+0x7c>)
10004d6a:	f7fd fb8d 	bl	10002488 <__assert_func>
10004d6e:	46c0      	nop			; (mov r8, r8)
10004d70:	50110000 	.word	0x50110000
10004d74:	200004a1 	.word	0x200004a1
10004d78:	200013f0 	.word	0x200013f0
10004d7c:	0001d010 	.word	0x0001d010
10004d80:	10008204 	.word	0x10008204
10004d84:	10008264 	.word	0x10008264
10004d88:	1000814c 	.word	0x1000814c

10004d8c <dcd_edpt0_status_complete>:
10004d8c:	780b      	ldrb	r3, [r1, #0]
10004d8e:	065b      	lsls	r3, r3, #25
10004d90:	d102      	bne.n	10004d98 <dcd_edpt0_status_complete+0xc>
10004d92:	784b      	ldrb	r3, [r1, #1]
10004d94:	2b05      	cmp	r3, #5
10004d96:	d000      	beq.n	10004d9a <dcd_edpt0_status_complete+0xe>
10004d98:	4770      	bx	lr
10004d9a:	788a      	ldrb	r2, [r1, #2]
10004d9c:	4b01      	ldr	r3, [pc, #4]	; (10004da4 <dcd_edpt0_status_complete+0x18>)
10004d9e:	601a      	str	r2, [r3, #0]
10004da0:	e7fa      	b.n	10004d98 <dcd_edpt0_status_complete+0xc>
10004da2:	46c0      	nop			; (mov r8, r8)
10004da4:	50110000 	.word	0x50110000

10004da8 <dcd_edpt_open>:
10004da8:	b510      	push	{r4, lr}
10004daa:	000c      	movs	r4, r1
10004dac:	2800      	cmp	r0, #0
10004dae:	d10d      	bne.n	10004dcc <dcd_edpt_open+0x24>
10004db0:	7909      	ldrb	r1, [r1, #4]
10004db2:	7963      	ldrb	r3, [r4, #5]
10004db4:	021b      	lsls	r3, r3, #8
10004db6:	430b      	orrs	r3, r1
10004db8:	055b      	lsls	r3, r3, #21
10004dba:	0d59      	lsrs	r1, r3, #21
10004dbc:	78e2      	ldrb	r2, [r4, #3]
10004dbe:	0792      	lsls	r2, r2, #30
10004dc0:	0f92      	lsrs	r2, r2, #30
10004dc2:	78a0      	ldrb	r0, [r4, #2]
10004dc4:	f7ff ff20 	bl	10004c08 <hw_endpoint_init>
10004dc8:	2001      	movs	r0, #1
10004dca:	bd10      	pop	{r4, pc}
10004dcc:	21fc      	movs	r1, #252	; 0xfc
10004dce:	4b03      	ldr	r3, [pc, #12]	; (10004ddc <dcd_edpt_open+0x34>)
10004dd0:	4a03      	ldr	r2, [pc, #12]	; (10004de0 <dcd_edpt_open+0x38>)
10004dd2:	31ff      	adds	r1, #255	; 0xff
10004dd4:	4803      	ldr	r0, [pc, #12]	; (10004de4 <dcd_edpt_open+0x3c>)
10004dd6:	f7fd fb57 	bl	10002488 <__assert_func>
10004dda:	46c0      	nop			; (mov r8, r8)
10004ddc:	10008204 	.word	0x10008204
10004de0:	10008220 	.word	0x10008220
10004de4:	1000814c 	.word	0x1000814c

10004de8 <dcd_edpt_close_all>:
10004de8:	b510      	push	{r4, lr}
10004dea:	f001 fec1 	bl	10006b70 <__reset_non_control_endpoints_veneer>
10004dee:	bd10      	pop	{r4, pc}

10004df0 <dcd_edpt_xfer>:
10004df0:	b510      	push	{r4, lr}
10004df2:	0004      	movs	r4, r0
10004df4:	0008      	movs	r0, r1
10004df6:	0011      	movs	r1, r2
10004df8:	001a      	movs	r2, r3
10004dfa:	2c00      	cmp	r4, #0
10004dfc:	d103      	bne.n	10004e06 <dcd_edpt_xfer+0x16>
10004dfe:	f7ff ff47 	bl	10004c90 <hw_endpoint_xfer>
10004e02:	2001      	movs	r0, #1
10004e04:	bd10      	pop	{r4, pc}
10004e06:	4b03      	ldr	r3, [pc, #12]	; (10004e14 <dcd_edpt_xfer+0x24>)
10004e08:	4a03      	ldr	r2, [pc, #12]	; (10004e18 <dcd_edpt_xfer+0x28>)
10004e0a:	4904      	ldr	r1, [pc, #16]	; (10004e1c <dcd_edpt_xfer+0x2c>)
10004e0c:	4804      	ldr	r0, [pc, #16]	; (10004e20 <dcd_edpt_xfer+0x30>)
10004e0e:	f7fd fb3b 	bl	10002488 <__assert_func>
10004e12:	46c0      	nop			; (mov r8, r8)
10004e14:	10008204 	.word	0x10008204
10004e18:	10008210 	.word	0x10008210
10004e1c:	0000020a 	.word	0x0000020a
10004e20:	1000814c 	.word	0x1000814c

10004e24 <dcd_edpt_stall>:
10004e24:	b510      	push	{r4, lr}
10004e26:	0008      	movs	r0, r1
10004e28:	064b      	lsls	r3, r1, #25
10004e2a:	d105      	bne.n	10004e38 <dcd_edpt_stall+0x14>
10004e2c:	09cb      	lsrs	r3, r1, #7
10004e2e:	2b01      	cmp	r3, #1
10004e30:	d00a      	beq.n	10004e48 <dcd_edpt_stall+0x24>
10004e32:	2202      	movs	r2, #2
10004e34:	4b05      	ldr	r3, [pc, #20]	; (10004e4c <dcd_edpt_stall+0x28>)
10004e36:	669a      	str	r2, [r3, #104]	; 0x68
10004e38:	f7ff fea2 	bl	10004b80 <hw_endpoint_get_by_addr>
10004e3c:	2280      	movs	r2, #128	; 0x80
10004e3e:	0112      	lsls	r2, r2, #4
10004e40:	2100      	movs	r1, #0
10004e42:	f001 fee5 	bl	10006c10 <___hw_endpoint_buffer_control_update32_veneer>
10004e46:	bd10      	pop	{r4, pc}
10004e48:	2201      	movs	r2, #1
10004e4a:	e7f3      	b.n	10004e34 <dcd_edpt_stall+0x10>
10004e4c:	50112000 	.word	0x50112000

10004e50 <dcd_edpt_clear_stall>:
10004e50:	b510      	push	{r4, lr}
10004e52:	0008      	movs	r0, r1
10004e54:	064b      	lsls	r3, r1, #25
10004e56:	d100      	bne.n	10004e5a <dcd_edpt_clear_stall+0xa>
10004e58:	bd10      	pop	{r4, pc}
10004e5a:	f7ff fe91 	bl	10004b80 <hw_endpoint_get_by_addr>
10004e5e:	2300      	movs	r3, #0
10004e60:	70c3      	strb	r3, [r0, #3]
10004e62:	2200      	movs	r2, #0
10004e64:	4901      	ldr	r1, [pc, #4]	; (10004e6c <dcd_edpt_clear_stall+0x1c>)
10004e66:	f001 fed3 	bl	10006c10 <___hw_endpoint_buffer_control_update32_veneer>
10004e6a:	e7f5      	b.n	10004e58 <dcd_edpt_clear_stall+0x8>
10004e6c:	fffff7ff 	.word	0xfffff7ff

10004e70 <rp2040_usb_init>:
10004e70:	b510      	push	{r4, lr}
10004e72:	2380      	movs	r3, #128	; 0x80
10004e74:	045b      	lsls	r3, r3, #17
10004e76:	4a0c      	ldr	r2, [pc, #48]	; (10004ea8 <rp2040_usb_init+0x38>)
10004e78:	6013      	str	r3, [r2, #0]
10004e7a:	4a0c      	ldr	r2, [pc, #48]	; (10004eac <rp2040_usb_init+0x3c>)
10004e7c:	6013      	str	r3, [r2, #0]
10004e7e:	4b0c      	ldr	r3, [pc, #48]	; (10004eb0 <rp2040_usb_init+0x40>)
10004e80:	689a      	ldr	r2, [r3, #8]
10004e82:	2380      	movs	r3, #128	; 0x80
10004e84:	045b      	lsls	r3, r3, #17
10004e86:	4393      	bics	r3, r2
10004e88:	d1f9      	bne.n	10004e7e <rp2040_usb_init+0xe>
10004e8a:	4c0a      	ldr	r4, [pc, #40]	; (10004eb4 <rp2040_usb_init+0x44>)
10004e8c:	229c      	movs	r2, #156	; 0x9c
10004e8e:	2100      	movs	r1, #0
10004e90:	0020      	movs	r0, r4
10004e92:	f7ff f8a9 	bl	10003fe8 <__wrap_memset>
10004e96:	2280      	movs	r2, #128	; 0x80
10004e98:	0152      	lsls	r2, r2, #5
10004e9a:	2100      	movs	r1, #0
10004e9c:	4806      	ldr	r0, [pc, #24]	; (10004eb8 <rp2040_usb_init+0x48>)
10004e9e:	f7ff f8a3 	bl	10003fe8 <__wrap_memset>
10004ea2:	2309      	movs	r3, #9
10004ea4:	6763      	str	r3, [r4, #116]	; 0x74
10004ea6:	bd10      	pop	{r4, pc}
10004ea8:	4000e000 	.word	0x4000e000
10004eac:	4000f000 	.word	0x4000f000
10004eb0:	4000c000 	.word	0x4000c000
10004eb4:	50110000 	.word	0x50110000
10004eb8:	50100000 	.word	0x50100000

10004ebc <hw_endpoint_xfer_start>:
10004ebc:	b570      	push	{r4, r5, r6, lr}
10004ebe:	0004      	movs	r4, r0
10004ec0:	000d      	movs	r5, r1
10004ec2:	0016      	movs	r6, r2
10004ec4:	7e83      	ldrb	r3, [r0, #26]
10004ec6:	2b00      	cmp	r3, #0
10004ec8:	d117      	bne.n	10004efa <hw_endpoint_xfer_start+0x3e>
10004eca:	82a6      	strh	r6, [r4, #20]
10004ecc:	2300      	movs	r3, #0
10004ece:	82e3      	strh	r3, [r4, #22]
10004ed0:	3301      	adds	r3, #1
10004ed2:	76a3      	strb	r3, [r4, #26]
10004ed4:	6125      	str	r5, [r4, #16]
10004ed6:	0020      	movs	r0, r4
10004ed8:	f001 fe8a 	bl	10006bf0 <__e15_is_bulkin_ep_veneer>
10004edc:	2800      	cmp	r0, #0
10004ede:	d004      	beq.n	10004eea <hw_endpoint_xfer_start+0x2e>
10004ee0:	4a09      	ldr	r2, [pc, #36]	; (10004f08 <hw_endpoint_xfer_start+0x4c>)
10004ee2:	2390      	movs	r3, #144	; 0x90
10004ee4:	2180      	movs	r1, #128	; 0x80
10004ee6:	0289      	lsls	r1, r1, #10
10004ee8:	50d1      	str	r1, [r2, r3]
10004eea:	0020      	movs	r0, r4
10004eec:	f001 fe88 	bl	10006c00 <__e15_is_critical_frame_period_veneer>
10004ef0:	2800      	cmp	r0, #0
10004ef2:	d005      	beq.n	10004f00 <hw_endpoint_xfer_start+0x44>
10004ef4:	2301      	movs	r3, #1
10004ef6:	7723      	strb	r3, [r4, #28]
10004ef8:	bd70      	pop	{r4, r5, r6, pc}
10004efa:	f001 fe71 	bl	10006be0 <__hw_endpoint_reset_transfer_veneer>
10004efe:	e7e4      	b.n	10004eca <hw_endpoint_xfer_start+0xe>
10004f00:	0020      	movs	r0, r4
10004f02:	f001 fe65 	bl	10006bd0 <__hw_endpoint_start_next_buffer_veneer>
10004f06:	e7f7      	b.n	10004ef8 <hw_endpoint_xfer_start+0x3c>
10004f08:	50112000 	.word	0x50112000

10004f0c <configuration_reset>:
10004f0c:	b570      	push	{r4, r5, r6, lr}
10004f0e:	0005      	movs	r5, r0
10004f10:	2400      	movs	r4, #0
10004f12:	e00c      	b.n	10004f2e <configuration_reset+0x22>
10004f14:	0063      	lsls	r3, r4, #1
10004f16:	191b      	adds	r3, r3, r4
10004f18:	00da      	lsls	r2, r3, #3
10004f1a:	4b18      	ldr	r3, [pc, #96]	; (10004f7c <configuration_reset+0x70>)
10004f1c:	681b      	ldr	r3, [r3, #0]
10004f1e:	189b      	adds	r3, r3, r2
10004f20:	2b00      	cmp	r3, #0
10004f22:	d02a      	beq.n	10004f7a <configuration_reset+0x6e>
10004f24:	685b      	ldr	r3, [r3, #4]
10004f26:	0028      	movs	r0, r5
10004f28:	4798      	blx	r3
10004f2a:	3401      	adds	r4, #1
10004f2c:	b2e4      	uxtb	r4, r4
10004f2e:	4b14      	ldr	r3, [pc, #80]	; (10004f80 <configuration_reset+0x74>)
10004f30:	781b      	ldrb	r3, [r3, #0]
10004f32:	42a3      	cmp	r3, r4
10004f34:	d310      	bcc.n	10004f58 <configuration_reset+0x4c>
10004f36:	4a13      	ldr	r2, [pc, #76]	; (10004f84 <configuration_reset+0x78>)
10004f38:	2a00      	cmp	r2, #0
10004f3a:	d00b      	beq.n	10004f54 <configuration_reset+0x48>
10004f3c:	42a3      	cmp	r3, r4
10004f3e:	d8e9      	bhi.n	10004f14 <configuration_reset+0x8>
10004f40:	1ae3      	subs	r3, r4, r3
10004f42:	b2db      	uxtb	r3, r3
10004f44:	2b00      	cmp	r3, #0
10004f46:	d118      	bne.n	10004f7a <configuration_reset+0x6e>
10004f48:	005a      	lsls	r2, r3, #1
10004f4a:	18d2      	adds	r2, r2, r3
10004f4c:	00d2      	lsls	r2, r2, #3
10004f4e:	4b0e      	ldr	r3, [pc, #56]	; (10004f88 <configuration_reset+0x7c>)
10004f50:	189b      	adds	r3, r3, r2
10004f52:	e7e5      	b.n	10004f20 <configuration_reset+0x14>
10004f54:	0023      	movs	r3, r4
10004f56:	e7f5      	b.n	10004f44 <configuration_reset+0x38>
10004f58:	4c0c      	ldr	r4, [pc, #48]	; (10004f8c <configuration_reset+0x80>)
10004f5a:	2253      	movs	r2, #83	; 0x53
10004f5c:	2100      	movs	r1, #0
10004f5e:	0020      	movs	r0, r4
10004f60:	f7ff f842 	bl	10003fe8 <__wrap_memset>
10004f64:	1ce0      	adds	r0, r4, #3
10004f66:	2210      	movs	r2, #16
10004f68:	21ff      	movs	r1, #255	; 0xff
10004f6a:	f7ff f83d 	bl	10003fe8 <__wrap_memset>
10004f6e:	0020      	movs	r0, r4
10004f70:	3013      	adds	r0, #19
10004f72:	2220      	movs	r2, #32
10004f74:	21ff      	movs	r1, #255	; 0xff
10004f76:	f7ff f837 	bl	10003fe8 <__wrap_memset>
10004f7a:	bd70      	pop	{r4, r5, r6, pc}
10004f7c:	20000dec 	.word	0x20000dec
10004f80:	20001a51 	.word	0x20001a51
10004f84:	1000459d 	.word	0x1000459d
10004f88:	10008408 	.word	0x10008408
10004f8c:	20001114 	.word	0x20001114

10004f90 <usbd_reset>:
10004f90:	b510      	push	{r4, lr}
10004f92:	f7ff ffbb 	bl	10004f0c <configuration_reset>
10004f96:	f000 fdf1 	bl	10005b7c <usbd_control_reset>
10004f9a:	bd10      	pop	{r4, pc}

10004f9c <invoke_class_control>:
10004f9c:	b570      	push	{r4, r5, r6, lr}
10004f9e:	0005      	movs	r5, r0
10004fa0:	000c      	movs	r4, r1
10004fa2:	0016      	movs	r6, r2
10004fa4:	68c8      	ldr	r0, [r1, #12]
10004fa6:	f000 fdf3 	bl	10005b90 <usbd_control_set_complete_callback>
10004faa:	68e3      	ldr	r3, [r4, #12]
10004fac:	0032      	movs	r2, r6
10004fae:	2101      	movs	r1, #1
10004fb0:	0028      	movs	r0, r5
10004fb2:	4798      	blx	r3
10004fb4:	bd70      	pop	{r4, r5, r6, pc}
	...

10004fb8 <process_set_config>:
10004fb8:	b5f0      	push	{r4, r5, r6, r7, lr}
10004fba:	46de      	mov	lr, fp
10004fbc:	4657      	mov	r7, sl
10004fbe:	464e      	mov	r6, r9
10004fc0:	b5c0      	push	{r6, r7, lr}
10004fc2:	b082      	sub	sp, #8
10004fc4:	9000      	str	r0, [sp, #0]
10004fc6:	3901      	subs	r1, #1
10004fc8:	b2c8      	uxtb	r0, r1
10004fca:	f7ff fd43 	bl	10004a54 <tud_descriptor_configuration_cb>
10004fce:	2800      	cmp	r0, #0
10004fd0:	d100      	bne.n	10004fd4 <process_set_config+0x1c>
10004fd2:	e08c      	b.n	100050ee <process_set_config+0x136>
10004fd4:	7843      	ldrb	r3, [r0, #1]
10004fd6:	469a      	mov	sl, r3
10004fd8:	2b02      	cmp	r3, #2
10004fda:	d000      	beq.n	10004fde <process_set_config+0x26>
10004fdc:	e089      	b.n	100050f2 <process_set_config+0x13a>
10004fde:	79c5      	ldrb	r5, [r0, #7]
10004fe0:	116a      	asrs	r2, r5, #5
10004fe2:	3b01      	subs	r3, #1
10004fe4:	494b      	ldr	r1, [pc, #300]	; (10005114 <process_set_config+0x15c>)
10004fe6:	401a      	ands	r2, r3
10004fe8:	0114      	lsls	r4, r2, #4
10004fea:	780a      	ldrb	r2, [r1, #0]
10004fec:	2710      	movs	r7, #16
10004fee:	43ba      	bics	r2, r7
10004ff0:	4322      	orrs	r2, r4
10004ff2:	700a      	strb	r2, [r1, #0]
10004ff4:	11ad      	asrs	r5, r5, #6
10004ff6:	402b      	ands	r3, r5
10004ff8:	015b      	lsls	r3, r3, #5
10004ffa:	b2d2      	uxtb	r2, r2
10004ffc:	2420      	movs	r4, #32
10004ffe:	43a2      	bics	r2, r4
10005000:	4313      	orrs	r3, r2
10005002:	700b      	strb	r3, [r1, #0]
10005004:	0006      	movs	r6, r0
10005006:	3609      	adds	r6, #9
10005008:	7882      	ldrb	r2, [r0, #2]
1000500a:	78c4      	ldrb	r4, [r0, #3]
1000500c:	0224      	lsls	r4, r4, #8
1000500e:	4314      	orrs	r4, r2
10005010:	1904      	adds	r4, r0, r4
10005012:	42a6      	cmp	r6, r4
10005014:	d264      	bcs.n	100050e0 <process_set_config+0x128>
10005016:	7873      	ldrb	r3, [r6, #1]
10005018:	2b0b      	cmp	r3, #11
1000501a:	d009      	beq.n	10005030 <process_set_config+0x78>
1000501c:	2301      	movs	r3, #1
1000501e:	469b      	mov	fp, r3
10005020:	7873      	ldrb	r3, [r6, #1]
10005022:	2b04      	cmp	r3, #4
10005024:	d16c      	bne.n	10005100 <process_set_config+0x148>
10005026:	1ba3      	subs	r3, r4, r6
10005028:	b29b      	uxth	r3, r3
1000502a:	4699      	mov	r9, r3
1000502c:	2500      	movs	r5, #0
1000502e:	e025      	b.n	1000507c <process_set_config+0xc4>
10005030:	78f3      	ldrb	r3, [r6, #3]
10005032:	469b      	mov	fp, r3
10005034:	7833      	ldrb	r3, [r6, #0]
10005036:	18f6      	adds	r6, r6, r3
10005038:	e7f2      	b.n	10005020 <process_set_config+0x68>
1000503a:	006f      	lsls	r7, r5, #1
1000503c:	197f      	adds	r7, r7, r5
1000503e:	00fb      	lsls	r3, r7, #3
10005040:	4a35      	ldr	r2, [pc, #212]	; (10005118 <process_set_config+0x160>)
10005042:	6817      	ldr	r7, [r2, #0]
10005044:	18ff      	adds	r7, r7, r3
10005046:	e02b      	b.n	100050a0 <process_set_config+0xe8>
10005048:	002b      	movs	r3, r5
1000504a:	e022      	b.n	10005092 <process_set_config+0xda>
1000504c:	68ba      	ldr	r2, [r7, #8]
1000504e:	4b33      	ldr	r3, [pc, #204]	; (1000511c <process_set_config+0x164>)
10005050:	429a      	cmp	r2, r3
10005052:	d134      	bne.n	100050be <process_set_config+0x106>
10005054:	46d3      	mov	fp, sl
10005056:	e032      	b.n	100050be <process_set_config+0x106>
10005058:	482e      	ldr	r0, [pc, #184]	; (10005114 <process_set_config+0x15c>)
1000505a:	002b      	movs	r3, r5
1000505c:	9f01      	ldr	r7, [sp, #4]
1000505e:	003a      	movs	r2, r7
10005060:	0031      	movs	r1, r6
10005062:	3013      	adds	r0, #19
10005064:	f001 f9a2 	bl	100063ac <tu_edpt_bind_driver>
10005068:	46bc      	mov	ip, r7
1000506a:	4466      	add	r6, ip
1000506c:	4b2c      	ldr	r3, [pc, #176]	; (10005120 <process_set_config+0x168>)
1000506e:	781b      	ldrb	r3, [r3, #0]
10005070:	42ab      	cmp	r3, r5
10005072:	d2ce      	bcs.n	10005012 <process_set_config+0x5a>
10005074:	2000      	movs	r0, #0
10005076:	e03d      	b.n	100050f4 <process_set_config+0x13c>
10005078:	3501      	adds	r5, #1
1000507a:	b2ed      	uxtb	r5, r5
1000507c:	4b28      	ldr	r3, [pc, #160]	; (10005120 <process_set_config+0x168>)
1000507e:	781b      	ldrb	r3, [r3, #0]
10005080:	42ab      	cmp	r3, r5
10005082:	d3f3      	bcc.n	1000506c <process_set_config+0xb4>
10005084:	4a27      	ldr	r2, [pc, #156]	; (10005124 <process_set_config+0x16c>)
10005086:	2a00      	cmp	r2, #0
10005088:	d0de      	beq.n	10005048 <process_set_config+0x90>
1000508a:	42ab      	cmp	r3, r5
1000508c:	d8d5      	bhi.n	1000503a <process_set_config+0x82>
1000508e:	1aeb      	subs	r3, r5, r3
10005090:	b2db      	uxtb	r3, r3
10005092:	2b00      	cmp	r3, #0
10005094:	d136      	bne.n	10005104 <process_set_config+0x14c>
10005096:	005f      	lsls	r7, r3, #1
10005098:	18fb      	adds	r3, r7, r3
1000509a:	00db      	lsls	r3, r3, #3
1000509c:	4f22      	ldr	r7, [pc, #136]	; (10005128 <process_set_config+0x170>)
1000509e:	18ff      	adds	r7, r7, r3
100050a0:	2f00      	cmp	r7, #0
100050a2:	d031      	beq.n	10005108 <process_set_config+0x150>
100050a4:	464a      	mov	r2, r9
100050a6:	0031      	movs	r1, r6
100050a8:	9800      	ldr	r0, [sp, #0]
100050aa:	68bb      	ldr	r3, [r7, #8]
100050ac:	4798      	blx	r3
100050ae:	9001      	str	r0, [sp, #4]
100050b0:	2808      	cmp	r0, #8
100050b2:	d9e1      	bls.n	10005078 <process_set_config+0xc0>
100050b4:	4581      	cmp	r9, r0
100050b6:	d3df      	bcc.n	10005078 <process_set_config+0xc0>
100050b8:	465b      	mov	r3, fp
100050ba:	2b01      	cmp	r3, #1
100050bc:	d0c6      	beq.n	1000504c <process_set_config+0x94>
100050be:	2200      	movs	r2, #0
100050c0:	4593      	cmp	fp, r2
100050c2:	d9c9      	bls.n	10005058 <process_set_config+0xa0>
100050c4:	78b3      	ldrb	r3, [r6, #2]
100050c6:	189b      	adds	r3, r3, r2
100050c8:	b2db      	uxtb	r3, r3
100050ca:	4912      	ldr	r1, [pc, #72]	; (10005114 <process_set_config+0x15c>)
100050cc:	18c9      	adds	r1, r1, r3
100050ce:	78c9      	ldrb	r1, [r1, #3]
100050d0:	29ff      	cmp	r1, #255	; 0xff
100050d2:	d11b      	bne.n	1000510c <process_set_config+0x154>
100050d4:	490f      	ldr	r1, [pc, #60]	; (10005114 <process_set_config+0x15c>)
100050d6:	18cb      	adds	r3, r1, r3
100050d8:	70dd      	strb	r5, [r3, #3]
100050da:	3201      	adds	r2, #1
100050dc:	b2d2      	uxtb	r2, r2
100050de:	e7ef      	b.n	100050c0 <process_set_config+0x108>
100050e0:	4b12      	ldr	r3, [pc, #72]	; (1000512c <process_set_config+0x174>)
100050e2:	2b00      	cmp	r3, #0
100050e4:	d014      	beq.n	10005110 <process_set_config+0x158>
100050e6:	e000      	b.n	100050ea <process_set_config+0x132>
100050e8:	bf00      	nop
100050ea:	2001      	movs	r0, #1
100050ec:	e002      	b.n	100050f4 <process_set_config+0x13c>
100050ee:	2000      	movs	r0, #0
100050f0:	e000      	b.n	100050f4 <process_set_config+0x13c>
100050f2:	2000      	movs	r0, #0
100050f4:	b002      	add	sp, #8
100050f6:	bce0      	pop	{r5, r6, r7}
100050f8:	46bb      	mov	fp, r7
100050fa:	46b2      	mov	sl, r6
100050fc:	46a9      	mov	r9, r5
100050fe:	bdf0      	pop	{r4, r5, r6, r7, pc}
10005100:	2000      	movs	r0, #0
10005102:	e7f7      	b.n	100050f4 <process_set_config+0x13c>
10005104:	2000      	movs	r0, #0
10005106:	e7f5      	b.n	100050f4 <process_set_config+0x13c>
10005108:	2000      	movs	r0, #0
1000510a:	e7f3      	b.n	100050f4 <process_set_config+0x13c>
1000510c:	2000      	movs	r0, #0
1000510e:	e7f1      	b.n	100050f4 <process_set_config+0x13c>
10005110:	2001      	movs	r0, #1
10005112:	e7ef      	b.n	100050f4 <process_set_config+0x13c>
10005114:	20001114 	.word	0x20001114
10005118:	20000dec 	.word	0x20000dec
1000511c:	10005f61 	.word	0x10005f61
10005120:	20001a51 	.word	0x20001a51
10005124:	1000459d 	.word	0x1000459d
10005128:	10008408 	.word	0x10008408
1000512c:	00000000 	.word	0x00000000

10005130 <process_get_descriptor>:
10005130:	b570      	push	{r4, r5, r6, lr}
10005132:	0005      	movs	r5, r0
10005134:	000c      	movs	r4, r1
10005136:	78cb      	ldrb	r3, [r1, #3]
10005138:	7888      	ldrb	r0, [r1, #2]
1000513a:	2b0f      	cmp	r3, #15
1000513c:	d850      	bhi.n	100051e0 <process_get_descriptor+0xb0>
1000513e:	009a      	lsls	r2, r3, #2
10005140:	492e      	ldr	r1, [pc, #184]	; (100051fc <process_get_descriptor+0xcc>)
10005142:	588a      	ldr	r2, [r1, r2]
10005144:	4697      	mov	pc, r2
10005146:	f7ff fc81 	bl	10004a4c <tud_descriptor_device_cb>
1000514a:	0002      	movs	r2, r0
1000514c:	2312      	movs	r3, #18
1000514e:	0021      	movs	r1, r4
10005150:	0028      	movs	r0, r5
10005152:	f000 fcd9 	bl	10005b08 <tud_control_xfer>
10005156:	e044      	b.n	100051e2 <process_get_descriptor+0xb2>
10005158:	4b29      	ldr	r3, [pc, #164]	; (10005200 <process_get_descriptor+0xd0>)
1000515a:	2b00      	cmp	r3, #0
1000515c:	d042      	beq.n	100051e4 <process_get_descriptor+0xb4>
1000515e:	e000      	b.n	10005162 <process_get_descriptor+0x32>
10005160:	bf00      	nop
10005162:	1e02      	subs	r2, r0, #0
10005164:	d040      	beq.n	100051e8 <process_get_descriptor+0xb8>
10005166:	7881      	ldrb	r1, [r0, #2]
10005168:	78c3      	ldrb	r3, [r0, #3]
1000516a:	021b      	lsls	r3, r3, #8
1000516c:	430b      	orrs	r3, r1
1000516e:	0021      	movs	r1, r4
10005170:	0028      	movs	r0, r5
10005172:	f000 fcc9 	bl	10005b08 <tud_control_xfer>
10005176:	e034      	b.n	100051e2 <process_get_descriptor+0xb2>
10005178:	2b02      	cmp	r3, #2
1000517a:	d009      	beq.n	10005190 <process_get_descriptor+0x60>
1000517c:	4b21      	ldr	r3, [pc, #132]	; (10005204 <process_get_descriptor+0xd4>)
1000517e:	2b00      	cmp	r3, #0
10005180:	d034      	beq.n	100051ec <process_get_descriptor+0xbc>
10005182:	e000      	b.n	10005186 <process_get_descriptor+0x56>
10005184:	bf00      	nop
10005186:	0002      	movs	r2, r0
10005188:	2a00      	cmp	r2, #0
1000518a:	d105      	bne.n	10005198 <process_get_descriptor+0x68>
1000518c:	2000      	movs	r0, #0
1000518e:	e028      	b.n	100051e2 <process_get_descriptor+0xb2>
10005190:	f7ff fc60 	bl	10004a54 <tud_descriptor_configuration_cb>
10005194:	0002      	movs	r2, r0
10005196:	e7f7      	b.n	10005188 <process_get_descriptor+0x58>
10005198:	7891      	ldrb	r1, [r2, #2]
1000519a:	78d3      	ldrb	r3, [r2, #3]
1000519c:	021b      	lsls	r3, r3, #8
1000519e:	430b      	orrs	r3, r1
100051a0:	0021      	movs	r1, r4
100051a2:	0028      	movs	r0, r5
100051a4:	f000 fcb0 	bl	10005b08 <tud_control_xfer>
100051a8:	e01b      	b.n	100051e2 <process_get_descriptor+0xb2>
100051aa:	7923      	ldrb	r3, [r4, #4]
100051ac:	7961      	ldrb	r1, [r4, #5]
100051ae:	0209      	lsls	r1, r1, #8
100051b0:	4319      	orrs	r1, r3
100051b2:	f7ff fc53 	bl	10004a5c <tud_descriptor_string_cb>
100051b6:	1e02      	subs	r2, r0, #0
100051b8:	d01a      	beq.n	100051f0 <process_get_descriptor+0xc0>
100051ba:	7803      	ldrb	r3, [r0, #0]
100051bc:	0021      	movs	r1, r4
100051be:	0028      	movs	r0, r5
100051c0:	f000 fca2 	bl	10005b08 <tud_control_xfer>
100051c4:	e00d      	b.n	100051e2 <process_get_descriptor+0xb2>
100051c6:	4b10      	ldr	r3, [pc, #64]	; (10005208 <process_get_descriptor+0xd8>)
100051c8:	2b00      	cmp	r3, #0
100051ca:	d013      	beq.n	100051f4 <process_get_descriptor+0xc4>
100051cc:	e000      	b.n	100051d0 <process_get_descriptor+0xa0>
100051ce:	bf00      	nop
100051d0:	1e02      	subs	r2, r0, #0
100051d2:	d011      	beq.n	100051f8 <process_get_descriptor+0xc8>
100051d4:	7803      	ldrb	r3, [r0, #0]
100051d6:	0021      	movs	r1, r4
100051d8:	0028      	movs	r0, r5
100051da:	f000 fc95 	bl	10005b08 <tud_control_xfer>
100051de:	e000      	b.n	100051e2 <process_get_descriptor+0xb2>
100051e0:	2000      	movs	r0, #0
100051e2:	bd70      	pop	{r4, r5, r6, pc}
100051e4:	2000      	movs	r0, #0
100051e6:	e7fc      	b.n	100051e2 <process_get_descriptor+0xb2>
100051e8:	2000      	movs	r0, #0
100051ea:	e7fa      	b.n	100051e2 <process_get_descriptor+0xb2>
100051ec:	2000      	movs	r0, #0
100051ee:	e7f8      	b.n	100051e2 <process_get_descriptor+0xb2>
100051f0:	2000      	movs	r0, #0
100051f2:	e7f6      	b.n	100051e2 <process_get_descriptor+0xb2>
100051f4:	2000      	movs	r0, #0
100051f6:	e7f4      	b.n	100051e2 <process_get_descriptor+0xb2>
100051f8:	2000      	movs	r0, #0
100051fa:	e7f2      	b.n	100051e2 <process_get_descriptor+0xb2>
100051fc:	1000837c 	.word	0x1000837c
	...

1000520c <tud_mounted>:
1000520c:	4b02      	ldr	r3, [pc, #8]	; (10005218 <tud_mounted+0xc>)
1000520e:	7858      	ldrb	r0, [r3, #1]
10005210:	1e43      	subs	r3, r0, #1
10005212:	4198      	sbcs	r0, r3
10005214:	b2c0      	uxtb	r0, r0
10005216:	4770      	bx	lr
10005218:	20001114 	.word	0x20001114

1000521c <tud_suspended>:
1000521c:	4b02      	ldr	r3, [pc, #8]	; (10005228 <tud_suspended+0xc>)
1000521e:	7818      	ldrb	r0, [r3, #0]
10005220:	0740      	lsls	r0, r0, #29
10005222:	0fc0      	lsrs	r0, r0, #31
10005224:	4770      	bx	lr
10005226:	46c0      	nop			; (mov r8, r8)
10005228:	20001114 	.word	0x20001114

1000522c <tud_inited>:
1000522c:	4b03      	ldr	r3, [pc, #12]	; (1000523c <tud_inited+0x10>)
1000522e:	7818      	ldrb	r0, [r3, #0]
10005230:	38ff      	subs	r0, #255	; 0xff
10005232:	1e43      	subs	r3, r0, #1
10005234:	4198      	sbcs	r0, r3
10005236:	b2c0      	uxtb	r0, r0
10005238:	4770      	bx	lr
1000523a:	46c0      	nop			; (mov r8, r8)
1000523c:	20000ca4 	.word	0x20000ca4

10005240 <tud_init>:
10005240:	b570      	push	{r4, r5, r6, lr}
10005242:	0004      	movs	r4, r0
10005244:	f7ff fff2 	bl	1000522c <tud_inited>
10005248:	1e06      	subs	r6, r0, #0
1000524a:	d001      	beq.n	10005250 <tud_init+0x10>
1000524c:	0030      	movs	r0, r6
1000524e:	bd70      	pop	{r4, r5, r6, pc}
10005250:	2253      	movs	r2, #83	; 0x53
10005252:	2100      	movs	r1, #0
10005254:	4823      	ldr	r0, [pc, #140]	; (100052e4 <tud_init+0xa4>)
10005256:	f7fe fec7 	bl	10003fe8 <__wrap_memset>
1000525a:	4d23      	ldr	r5, [pc, #140]	; (100052e8 <tud_init+0xa8>)
1000525c:	0028      	movs	r0, r5
1000525e:	f7fb fca9 	bl	10000bb4 <mutex_init>
10005262:	4b22      	ldr	r3, [pc, #136]	; (100052ec <tud_init+0xac>)
10005264:	601d      	str	r5, [r3, #0]
10005266:	4d22      	ldr	r5, [pc, #136]	; (100052f0 <tud_init+0xb0>)
10005268:	0028      	movs	r0, r5
1000526a:	3014      	adds	r0, #20
1000526c:	f7fb fcc8 	bl	10000c00 <critical_section_init>
10005270:	0028      	movs	r0, r5
10005272:	f001 fbf0 	bl	10006a56 <tu_fifo_clear>
10005276:	4b1f      	ldr	r3, [pc, #124]	; (100052f4 <tud_init+0xb4>)
10005278:	601d      	str	r5, [r3, #0]
1000527a:	4b1f      	ldr	r3, [pc, #124]	; (100052f8 <tud_init+0xb8>)
1000527c:	2b00      	cmp	r3, #0
1000527e:	d004      	beq.n	1000528a <tud_init+0x4a>
10005280:	481e      	ldr	r0, [pc, #120]	; (100052fc <tud_init+0xbc>)
10005282:	f7ff f98b 	bl	1000459c <usbd_app_driver_get_cb>
10005286:	4b1e      	ldr	r3, [pc, #120]	; (10005300 <tud_init+0xc0>)
10005288:	6018      	str	r0, [r3, #0]
1000528a:	2500      	movs	r5, #0
1000528c:	e00b      	b.n	100052a6 <tud_init+0x66>
1000528e:	006b      	lsls	r3, r5, #1
10005290:	195b      	adds	r3, r3, r5
10005292:	00da      	lsls	r2, r3, #3
10005294:	4b1a      	ldr	r3, [pc, #104]	; (10005300 <tud_init+0xc0>)
10005296:	681b      	ldr	r3, [r3, #0]
10005298:	189b      	adds	r3, r3, r2
1000529a:	2b00      	cmp	r3, #0
1000529c:	d0d6      	beq.n	1000524c <tud_init+0xc>
1000529e:	681b      	ldr	r3, [r3, #0]
100052a0:	4798      	blx	r3
100052a2:	3501      	adds	r5, #1
100052a4:	b2ed      	uxtb	r5, r5
100052a6:	4b15      	ldr	r3, [pc, #84]	; (100052fc <tud_init+0xbc>)
100052a8:	781b      	ldrb	r3, [r3, #0]
100052aa:	42ab      	cmp	r3, r5
100052ac:	d310      	bcc.n	100052d0 <tud_init+0x90>
100052ae:	4a12      	ldr	r2, [pc, #72]	; (100052f8 <tud_init+0xb8>)
100052b0:	2a00      	cmp	r2, #0
100052b2:	d00b      	beq.n	100052cc <tud_init+0x8c>
100052b4:	42ab      	cmp	r3, r5
100052b6:	d8ea      	bhi.n	1000528e <tud_init+0x4e>
100052b8:	1aeb      	subs	r3, r5, r3
100052ba:	b2db      	uxtb	r3, r3
100052bc:	2b00      	cmp	r3, #0
100052be:	d1c5      	bne.n	1000524c <tud_init+0xc>
100052c0:	005a      	lsls	r2, r3, #1
100052c2:	18d2      	adds	r2, r2, r3
100052c4:	00d2      	lsls	r2, r2, #3
100052c6:	4b0f      	ldr	r3, [pc, #60]	; (10005304 <tud_init+0xc4>)
100052c8:	189b      	adds	r3, r3, r2
100052ca:	e7e6      	b.n	1000529a <tud_init+0x5a>
100052cc:	002b      	movs	r3, r5
100052ce:	e7f5      	b.n	100052bc <tud_init+0x7c>
100052d0:	4b0d      	ldr	r3, [pc, #52]	; (10005308 <tud_init+0xc8>)
100052d2:	701c      	strb	r4, [r3, #0]
100052d4:	0020      	movs	r0, r4
100052d6:	f7ff fd19 	bl	10004d0c <dcd_init>
100052da:	0020      	movs	r0, r4
100052dc:	f7ff fce2 	bl	10004ca4 <dcd_int_enable>
100052e0:	2601      	movs	r6, #1
100052e2:	e7b3      	b.n	1000524c <tud_init+0xc>
100052e4:	20001114 	.word	0x20001114
100052e8:	200010cc 	.word	0x200010cc
100052ec:	20001168 	.word	0x20001168
100052f0:	20000c88 	.word	0x20000c88
100052f4:	2000116c 	.word	0x2000116c
100052f8:	1000459d 	.word	0x1000459d
100052fc:	20001a51 	.word	0x20001a51
10005300:	20000dec 	.word	0x20000dec
10005304:	10008408 	.word	0x10008408
10005308:	20000ca4 	.word	0x20000ca4

1000530c <usbd_defer_func>:
1000530c:	b5f0      	push	{r4, r5, r6, r7, lr}
1000530e:	b085      	sub	sp, #20
10005310:	0007      	movs	r7, r0
10005312:	000e      	movs	r6, r1
10005314:	0015      	movs	r5, r2
10005316:	ac01      	add	r4, sp, #4
10005318:	220c      	movs	r2, #12
1000531a:	2100      	movs	r1, #0
1000531c:	0020      	movs	r0, r4
1000531e:	f7fe fe63 	bl	10003fe8 <__wrap_memset>
10005322:	2308      	movs	r3, #8
10005324:	7063      	strb	r3, [r4, #1]
10005326:	9702      	str	r7, [sp, #8]
10005328:	9603      	str	r6, [sp, #12]
1000532a:	0029      	movs	r1, r5
1000532c:	0020      	movs	r0, r4
1000532e:	f001 fc3f 	bl	10006bb0 <__dcd_event_handler_veneer>
10005332:	b005      	add	sp, #20
10005334:	bdf0      	pop	{r4, r5, r6, r7, pc}
	...

10005338 <usbd_edpt_open>:
10005338:	b570      	push	{r4, r5, r6, lr}
1000533a:	000c      	movs	r4, r1
1000533c:	4b09      	ldr	r3, [pc, #36]	; (10005364 <usbd_edpt_open+0x2c>)
1000533e:	781d      	ldrb	r5, [r3, #0]
10005340:	788b      	ldrb	r3, [r1, #2]
10005342:	2270      	movs	r2, #112	; 0x70
10005344:	421a      	tst	r2, r3
10005346:	d001      	beq.n	1000534c <usbd_edpt_open+0x14>
10005348:	2000      	movs	r0, #0
1000534a:	bd70      	pop	{r4, r5, r6, pc}
1000534c:	4b06      	ldr	r3, [pc, #24]	; (10005368 <usbd_edpt_open+0x30>)
1000534e:	7899      	ldrb	r1, [r3, #2]
10005350:	0020      	movs	r0, r4
10005352:	f000 ffef 	bl	10006334 <tu_edpt_validate>
10005356:	2800      	cmp	r0, #0
10005358:	d0f7      	beq.n	1000534a <usbd_edpt_open+0x12>
1000535a:	0021      	movs	r1, r4
1000535c:	0028      	movs	r0, r5
1000535e:	f7ff fd23 	bl	10004da8 <dcd_edpt_open>
10005362:	e7f2      	b.n	1000534a <usbd_edpt_open+0x12>
10005364:	20000ca4 	.word	0x20000ca4
10005368:	20001114 	.word	0x20001114

1000536c <usbd_open_edpt_pair>:
1000536c:	b5f8      	push	{r3, r4, r5, r6, r7, lr}
1000536e:	46ce      	mov	lr, r9
10005370:	4647      	mov	r7, r8
10005372:	b580      	push	{r7, lr}
10005374:	4681      	mov	r9, r0
10005376:	000c      	movs	r4, r1
10005378:	0017      	movs	r7, r2
1000537a:	001e      	movs	r6, r3
1000537c:	9b08      	ldr	r3, [sp, #32]
1000537e:	4698      	mov	r8, r3
10005380:	2500      	movs	r5, #0
10005382:	e004      	b.n	1000538e <usbd_open_edpt_pair+0x22>
10005384:	9a09      	ldr	r2, [sp, #36]	; 0x24
10005386:	7013      	strb	r3, [r2, #0]
10005388:	7823      	ldrb	r3, [r4, #0]
1000538a:	18e4      	adds	r4, r4, r3
1000538c:	3501      	adds	r5, #1
1000538e:	42af      	cmp	r7, r5
10005390:	dd14      	ble.n	100053bc <usbd_open_edpt_pair+0x50>
10005392:	7863      	ldrb	r3, [r4, #1]
10005394:	2b05      	cmp	r3, #5
10005396:	d116      	bne.n	100053c6 <usbd_open_edpt_pair+0x5a>
10005398:	78e1      	ldrb	r1, [r4, #3]
1000539a:	0789      	lsls	r1, r1, #30
1000539c:	0f89      	lsrs	r1, r1, #30
1000539e:	42b1      	cmp	r1, r6
100053a0:	d113      	bne.n	100053ca <usbd_open_edpt_pair+0x5e>
100053a2:	0021      	movs	r1, r4
100053a4:	4648      	mov	r0, r9
100053a6:	f7ff ffc7 	bl	10005338 <usbd_edpt_open>
100053aa:	2800      	cmp	r0, #0
100053ac:	d007      	beq.n	100053be <usbd_open_edpt_pair+0x52>
100053ae:	78a3      	ldrb	r3, [r4, #2]
100053b0:	09da      	lsrs	r2, r3, #7
100053b2:	2a01      	cmp	r2, #1
100053b4:	d0e6      	beq.n	10005384 <usbd_open_edpt_pair+0x18>
100053b6:	4642      	mov	r2, r8
100053b8:	7013      	strb	r3, [r2, #0]
100053ba:	e7e5      	b.n	10005388 <usbd_open_edpt_pair+0x1c>
100053bc:	2001      	movs	r0, #1
100053be:	bcc0      	pop	{r6, r7}
100053c0:	46b9      	mov	r9, r7
100053c2:	46b0      	mov	r8, r6
100053c4:	bdf8      	pop	{r3, r4, r5, r6, r7, pc}
100053c6:	2000      	movs	r0, #0
100053c8:	e7f9      	b.n	100053be <usbd_open_edpt_pair+0x52>
100053ca:	2000      	movs	r0, #0
100053cc:	e7f7      	b.n	100053be <usbd_open_edpt_pair+0x52>
	...

100053d0 <usbd_edpt_claim>:
100053d0:	b510      	push	{r4, lr}
100053d2:	207f      	movs	r0, #127	; 0x7f
100053d4:	4008      	ands	r0, r1
100053d6:	09c9      	lsrs	r1, r1, #7
100053d8:	0040      	lsls	r0, r0, #1
100053da:	1840      	adds	r0, r0, r1
100053dc:	3030      	adds	r0, #48	; 0x30
100053de:	4904      	ldr	r1, [pc, #16]	; (100053f0 <usbd_edpt_claim+0x20>)
100053e0:	1808      	adds	r0, r1, r0
100053e2:	3003      	adds	r0, #3
100053e4:	4b03      	ldr	r3, [pc, #12]	; (100053f4 <usbd_edpt_claim+0x24>)
100053e6:	6819      	ldr	r1, [r3, #0]
100053e8:	f000 ff5e 	bl	100062a8 <tu_edpt_claim>
100053ec:	bd10      	pop	{r4, pc}
100053ee:	46c0      	nop			; (mov r8, r8)
100053f0:	20001114 	.word	0x20001114
100053f4:	20001168 	.word	0x20001168

100053f8 <usbd_edpt_release>:
100053f8:	b510      	push	{r4, lr}
100053fa:	207f      	movs	r0, #127	; 0x7f
100053fc:	4008      	ands	r0, r1
100053fe:	09c9      	lsrs	r1, r1, #7
10005400:	0040      	lsls	r0, r0, #1
10005402:	1840      	adds	r0, r0, r1
10005404:	3030      	adds	r0, #48	; 0x30
10005406:	4904      	ldr	r1, [pc, #16]	; (10005418 <usbd_edpt_release+0x20>)
10005408:	1808      	adds	r0, r1, r0
1000540a:	3003      	adds	r0, #3
1000540c:	4b03      	ldr	r3, [pc, #12]	; (1000541c <usbd_edpt_release+0x24>)
1000540e:	6819      	ldr	r1, [r3, #0]
10005410:	f000 ff72 	bl	100062f8 <tu_edpt_release>
10005414:	bd10      	pop	{r4, pc}
10005416:	46c0      	nop			; (mov r8, r8)
10005418:	20001114 	.word	0x20001114
1000541c:	20001168 	.word	0x20001168

10005420 <usbd_edpt_xfer>:
10005420:	b5f8      	push	{r3, r4, r5, r6, r7, lr}
10005422:	46ce      	mov	lr, r9
10005424:	4647      	mov	r7, r8
10005426:	b580      	push	{r7, lr}
10005428:	4819      	ldr	r0, [pc, #100]	; (10005490 <usbd_edpt_xfer+0x70>)
1000542a:	7800      	ldrb	r0, [r0, #0]
1000542c:	257f      	movs	r5, #127	; 0x7f
1000542e:	400d      	ands	r5, r1
10005430:	09ce      	lsrs	r6, r1, #7
10005432:	006f      	lsls	r7, r5, #1
10005434:	4c17      	ldr	r4, [pc, #92]	; (10005494 <usbd_edpt_xfer+0x74>)
10005436:	19e4      	adds	r4, r4, r7
10005438:	19a4      	adds	r4, r4, r6
1000543a:	3430      	adds	r4, #48	; 0x30
1000543c:	78e4      	ldrb	r4, [r4, #3]
1000543e:	07e4      	lsls	r4, r4, #31
10005440:	d504      	bpl.n	1000544c <usbd_edpt_xfer+0x2c>
10005442:	2000      	movs	r0, #0
10005444:	bcc0      	pop	{r6, r7}
10005446:	46b9      	mov	r9, r7
10005448:	46b0      	mov	r8, r6
1000544a:	bdf8      	pop	{r3, r4, r5, r6, r7, pc}
1000544c:	4c11      	ldr	r4, [pc, #68]	; (10005494 <usbd_edpt_xfer+0x74>)
1000544e:	19e4      	adds	r4, r4, r7
10005450:	19a4      	adds	r4, r4, r6
10005452:	2730      	movs	r7, #48	; 0x30
10005454:	46b9      	mov	r9, r7
10005456:	44a1      	add	r9, r4
10005458:	464c      	mov	r4, r9
1000545a:	78e4      	ldrb	r4, [r4, #3]
1000545c:	2701      	movs	r7, #1
1000545e:	46bc      	mov	ip, r7
10005460:	4667      	mov	r7, ip
10005462:	433c      	orrs	r4, r7
10005464:	0027      	movs	r7, r4
10005466:	464c      	mov	r4, r9
10005468:	70e7      	strb	r7, [r4, #3]
1000546a:	f7ff fcc1 	bl	10004df0 <dcd_edpt_xfer>
1000546e:	2800      	cmp	r0, #0
10005470:	d1e8      	bne.n	10005444 <usbd_edpt_xfer+0x24>
10005472:	006d      	lsls	r5, r5, #1
10005474:	4b07      	ldr	r3, [pc, #28]	; (10005494 <usbd_edpt_xfer+0x74>)
10005476:	195d      	adds	r5, r3, r5
10005478:	19ae      	adds	r6, r5, r6
1000547a:	3630      	adds	r6, #48	; 0x30
1000547c:	78f3      	ldrb	r3, [r6, #3]
1000547e:	2201      	movs	r2, #1
10005480:	4393      	bics	r3, r2
10005482:	70f3      	strb	r3, [r6, #3]
10005484:	78f3      	ldrb	r3, [r6, #3]
10005486:	3203      	adds	r2, #3
10005488:	4393      	bics	r3, r2
1000548a:	70f3      	strb	r3, [r6, #3]
1000548c:	e7da      	b.n	10005444 <usbd_edpt_xfer+0x24>
1000548e:	46c0      	nop			; (mov r8, r8)
10005490:	20000ca4 	.word	0x20000ca4
10005494:	20001114 	.word	0x20001114

10005498 <usbd_edpt_stall>:
10005498:	b570      	push	{r4, r5, r6, lr}
1000549a:	4b0f      	ldr	r3, [pc, #60]	; (100054d8 <usbd_edpt_stall+0x40>)
1000549c:	7818      	ldrb	r0, [r3, #0]
1000549e:	247f      	movs	r4, #127	; 0x7f
100054a0:	400c      	ands	r4, r1
100054a2:	09cd      	lsrs	r5, r1, #7
100054a4:	0062      	lsls	r2, r4, #1
100054a6:	4b0d      	ldr	r3, [pc, #52]	; (100054dc <usbd_edpt_stall+0x44>)
100054a8:	189b      	adds	r3, r3, r2
100054aa:	195b      	adds	r3, r3, r5
100054ac:	3330      	adds	r3, #48	; 0x30
100054ae:	78db      	ldrb	r3, [r3, #3]
100054b0:	079b      	lsls	r3, r3, #30
100054b2:	d500      	bpl.n	100054b6 <usbd_edpt_stall+0x1e>
100054b4:	bd70      	pop	{r4, r5, r6, pc}
100054b6:	f7ff fcb5 	bl	10004e24 <dcd_edpt_stall>
100054ba:	0063      	lsls	r3, r4, #1
100054bc:	4c07      	ldr	r4, [pc, #28]	; (100054dc <usbd_edpt_stall+0x44>)
100054be:	18e4      	adds	r4, r4, r3
100054c0:	1964      	adds	r4, r4, r5
100054c2:	3430      	adds	r4, #48	; 0x30
100054c4:	78e3      	ldrb	r3, [r4, #3]
100054c6:	2202      	movs	r2, #2
100054c8:	4313      	orrs	r3, r2
100054ca:	70e3      	strb	r3, [r4, #3]
100054cc:	78e3      	ldrb	r3, [r4, #3]
100054ce:	2201      	movs	r2, #1
100054d0:	4313      	orrs	r3, r2
100054d2:	70e3      	strb	r3, [r4, #3]
100054d4:	e7ee      	b.n	100054b4 <usbd_edpt_stall+0x1c>
100054d6:	46c0      	nop			; (mov r8, r8)
100054d8:	20000ca4 	.word	0x20000ca4
100054dc:	20001114 	.word	0x20001114

100054e0 <usbd_edpt_clear_stall>:
100054e0:	b570      	push	{r4, r5, r6, lr}
100054e2:	4b0f      	ldr	r3, [pc, #60]	; (10005520 <usbd_edpt_clear_stall+0x40>)
100054e4:	7818      	ldrb	r0, [r3, #0]
100054e6:	247f      	movs	r4, #127	; 0x7f
100054e8:	400c      	ands	r4, r1
100054ea:	09cd      	lsrs	r5, r1, #7
100054ec:	0062      	lsls	r2, r4, #1
100054ee:	4b0d      	ldr	r3, [pc, #52]	; (10005524 <usbd_edpt_clear_stall+0x44>)
100054f0:	189b      	adds	r3, r3, r2
100054f2:	195b      	adds	r3, r3, r5
100054f4:	3330      	adds	r3, #48	; 0x30
100054f6:	78db      	ldrb	r3, [r3, #3]
100054f8:	079b      	lsls	r3, r3, #30
100054fa:	d400      	bmi.n	100054fe <usbd_edpt_clear_stall+0x1e>
100054fc:	bd70      	pop	{r4, r5, r6, pc}
100054fe:	f7ff fca7 	bl	10004e50 <dcd_edpt_clear_stall>
10005502:	0063      	lsls	r3, r4, #1
10005504:	4c07      	ldr	r4, [pc, #28]	; (10005524 <usbd_edpt_clear_stall+0x44>)
10005506:	18e4      	adds	r4, r4, r3
10005508:	1964      	adds	r4, r4, r5
1000550a:	3430      	adds	r4, #48	; 0x30
1000550c:	78e3      	ldrb	r3, [r4, #3]
1000550e:	2202      	movs	r2, #2
10005510:	4393      	bics	r3, r2
10005512:	70e3      	strb	r3, [r4, #3]
10005514:	78e3      	ldrb	r3, [r4, #3]
10005516:	3a01      	subs	r2, #1
10005518:	4393      	bics	r3, r2
1000551a:	70e3      	strb	r3, [r4, #3]
1000551c:	e7ee      	b.n	100054fc <usbd_edpt_clear_stall+0x1c>
1000551e:	46c0      	nop			; (mov r8, r8)
10005520:	20000ca4 	.word	0x20000ca4
10005524:	20001114 	.word	0x20001114

10005528 <usbd_edpt_stalled>:
10005528:	227f      	movs	r2, #127	; 0x7f
1000552a:	400a      	ands	r2, r1
1000552c:	09cb      	lsrs	r3, r1, #7
1000552e:	0052      	lsls	r2, r2, #1
10005530:	4903      	ldr	r1, [pc, #12]	; (10005540 <usbd_edpt_stalled+0x18>)
10005532:	1889      	adds	r1, r1, r2
10005534:	18c9      	adds	r1, r1, r3
10005536:	3130      	adds	r1, #48	; 0x30
10005538:	78c8      	ldrb	r0, [r1, #3]
1000553a:	0780      	lsls	r0, r0, #30
1000553c:	0fc0      	lsrs	r0, r0, #31
1000553e:	4770      	bx	lr
10005540:	20001114 	.word	0x20001114

10005544 <process_control_request>:
10005544:	b5f0      	push	{r4, r5, r6, r7, lr}
10005546:	46c6      	mov	lr, r8
10005548:	b500      	push	{lr}
1000554a:	b082      	sub	sp, #8
1000554c:	0005      	movs	r5, r0
1000554e:	000c      	movs	r4, r1
10005550:	2000      	movs	r0, #0
10005552:	f000 fb1d 	bl	10005b90 <usbd_control_set_complete_callback>
10005556:	7823      	ldrb	r3, [r4, #0]
10005558:	2260      	movs	r2, #96	; 0x60
1000555a:	4013      	ands	r3, r2
1000555c:	2b60      	cmp	r3, #96	; 0x60
1000555e:	d100      	bne.n	10005562 <process_control_request+0x1e>
10005560:	e185      	b.n	1000586e <process_control_request+0x32a>
10005562:	2b40      	cmp	r3, #64	; 0x40
10005564:	d00f      	beq.n	10005586 <process_control_request+0x42>
10005566:	7822      	ldrb	r2, [r4, #0]
10005568:	06d2      	lsls	r2, r2, #27
1000556a:	0ed2      	lsrs	r2, r2, #27
1000556c:	2a01      	cmp	r2, #1
1000556e:	d100      	bne.n	10005572 <process_control_request+0x2e>
10005570:	e0c9      	b.n	10005706 <process_control_request+0x1c2>
10005572:	2a02      	cmp	r2, #2
10005574:	d100      	bne.n	10005578 <process_control_request+0x34>
10005576:	e10f      	b.n	10005798 <process_control_request+0x254>
10005578:	2a00      	cmp	r2, #0
1000557a:	d011      	beq.n	100055a0 <process_control_request+0x5c>
1000557c:	2000      	movs	r0, #0
1000557e:	b002      	add	sp, #8
10005580:	bc80      	pop	{r7}
10005582:	46b8      	mov	r8, r7
10005584:	bdf0      	pop	{r4, r5, r6, r7, pc}
10005586:	4bc7      	ldr	r3, [pc, #796]	; (100058a4 <process_control_request+0x360>)
10005588:	2b00      	cmp	r3, #0
1000558a:	d100      	bne.n	1000558e <process_control_request+0x4a>
1000558c:	e171      	b.n	10005872 <process_control_request+0x32e>
1000558e:	0018      	movs	r0, r3
10005590:	f000 fafe 	bl	10005b90 <usbd_control_set_complete_callback>
10005594:	0022      	movs	r2, r4
10005596:	2101      	movs	r1, #1
10005598:	0028      	movs	r0, r5
1000559a:	e000      	b.n	1000559e <process_control_request+0x5a>
1000559c:	bf00      	nop
1000559e:	e7ee      	b.n	1000557e <process_control_request+0x3a>
100055a0:	2b20      	cmp	r3, #32
100055a2:	d00a      	beq.n	100055ba <process_control_request+0x76>
100055a4:	2b00      	cmp	r3, #0
100055a6:	d000      	beq.n	100055aa <process_control_request+0x66>
100055a8:	e16b      	b.n	10005882 <process_control_request+0x33e>
100055aa:	7863      	ldrb	r3, [r4, #1]
100055ac:	2b09      	cmp	r3, #9
100055ae:	d900      	bls.n	100055b2 <process_control_request+0x6e>
100055b0:	e169      	b.n	10005886 <process_control_request+0x342>
100055b2:	009b      	lsls	r3, r3, #2
100055b4:	4abc      	ldr	r2, [pc, #752]	; (100058a8 <process_control_request+0x364>)
100055b6:	58d3      	ldr	r3, [r2, r3]
100055b8:	469f      	mov	pc, r3
100055ba:	7923      	ldrb	r3, [r4, #4]
100055bc:	2b0f      	cmp	r3, #15
100055be:	d900      	bls.n	100055c2 <process_control_request+0x7e>
100055c0:	e159      	b.n	10005876 <process_control_request+0x332>
100055c2:	4aba      	ldr	r2, [pc, #744]	; (100058ac <process_control_request+0x368>)
100055c4:	18d3      	adds	r3, r2, r3
100055c6:	78db      	ldrb	r3, [r3, #3]
100055c8:	4ab9      	ldr	r2, [pc, #740]	; (100058b0 <process_control_request+0x36c>)
100055ca:	2a00      	cmp	r2, #0
100055cc:	d005      	beq.n	100055da <process_control_request+0x96>
100055ce:	4ab9      	ldr	r2, [pc, #740]	; (100058b4 <process_control_request+0x370>)
100055d0:	7812      	ldrb	r2, [r2, #0]
100055d2:	4293      	cmp	r3, r2
100055d4:	d311      	bcc.n	100055fa <process_control_request+0xb6>
100055d6:	1a9b      	subs	r3, r3, r2
100055d8:	b2db      	uxtb	r3, r3
100055da:	2b00      	cmp	r3, #0
100055dc:	d000      	beq.n	100055e0 <process_control_request+0x9c>
100055de:	e14c      	b.n	1000587a <process_control_request+0x336>
100055e0:	0059      	lsls	r1, r3, #1
100055e2:	18cb      	adds	r3, r1, r3
100055e4:	00db      	lsls	r3, r3, #3
100055e6:	49b4      	ldr	r1, [pc, #720]	; (100058b8 <process_control_request+0x374>)
100055e8:	18c9      	adds	r1, r1, r3
100055ea:	2900      	cmp	r1, #0
100055ec:	d100      	bne.n	100055f0 <process_control_request+0xac>
100055ee:	e146      	b.n	1000587e <process_control_request+0x33a>
100055f0:	0022      	movs	r2, r4
100055f2:	0028      	movs	r0, r5
100055f4:	f7ff fcd2 	bl	10004f9c <invoke_class_control>
100055f8:	e7c1      	b.n	1000557e <process_control_request+0x3a>
100055fa:	0059      	lsls	r1, r3, #1
100055fc:	18cb      	adds	r3, r1, r3
100055fe:	00db      	lsls	r3, r3, #3
10005600:	4aae      	ldr	r2, [pc, #696]	; (100058bc <process_control_request+0x378>)
10005602:	6811      	ldr	r1, [r2, #0]
10005604:	18c9      	adds	r1, r1, r3
10005606:	e7f0      	b.n	100055ea <process_control_request+0xa6>
10005608:	0020      	movs	r0, r4
1000560a:	f000 fac7 	bl	10005b9c <usbd_control_set_request>
1000560e:	78a1      	ldrb	r1, [r4, #2]
10005610:	0028      	movs	r0, r5
10005612:	f7ff fb5d 	bl	10004cd0 <dcd_set_address>
10005616:	4aa5      	ldr	r2, [pc, #660]	; (100058ac <process_control_request+0x368>)
10005618:	7813      	ldrb	r3, [r2, #0]
1000561a:	2102      	movs	r1, #2
1000561c:	430b      	orrs	r3, r1
1000561e:	7013      	strb	r3, [r2, #0]
10005620:	2001      	movs	r0, #1
10005622:	e7ac      	b.n	1000557e <process_control_request+0x3a>
10005624:	4ba1      	ldr	r3, [pc, #644]	; (100058ac <process_control_request+0x368>)
10005626:	785b      	ldrb	r3, [r3, #1]
10005628:	466a      	mov	r2, sp
1000562a:	3206      	adds	r2, #6
1000562c:	7013      	strb	r3, [r2, #0]
1000562e:	2301      	movs	r3, #1
10005630:	0021      	movs	r1, r4
10005632:	0028      	movs	r0, r5
10005634:	f000 fa68 	bl	10005b08 <tud_control_xfer>
10005638:	2001      	movs	r0, #1
1000563a:	e7a0      	b.n	1000557e <process_control_request+0x3a>
1000563c:	78a6      	ldrb	r6, [r4, #2]
1000563e:	4b9b      	ldr	r3, [pc, #620]	; (100058ac <process_control_request+0x368>)
10005640:	785b      	ldrb	r3, [r3, #1]
10005642:	b2db      	uxtb	r3, r3
10005644:	42b3      	cmp	r3, r6
10005646:	d005      	beq.n	10005654 <process_control_request+0x110>
10005648:	4b98      	ldr	r3, [pc, #608]	; (100058ac <process_control_request+0x368>)
1000564a:	785b      	ldrb	r3, [r3, #1]
1000564c:	2b00      	cmp	r3, #0
1000564e:	d109      	bne.n	10005664 <process_control_request+0x120>
10005650:	2e00      	cmp	r6, #0
10005652:	d113      	bne.n	1000567c <process_control_request+0x138>
10005654:	4b95      	ldr	r3, [pc, #596]	; (100058ac <process_control_request+0x368>)
10005656:	705e      	strb	r6, [r3, #1]
10005658:	0021      	movs	r1, r4
1000565a:	0028      	movs	r0, r5
1000565c:	f000 fa38 	bl	10005ad0 <tud_control_status>
10005660:	2001      	movs	r0, #1
10005662:	e78c      	b.n	1000557e <process_control_request+0x3a>
10005664:	0028      	movs	r0, r5
10005666:	f7ff fbbf 	bl	10004de8 <dcd_edpt_close_all>
1000566a:	4f90      	ldr	r7, [pc, #576]	; (100058ac <process_control_request+0x368>)
1000566c:	78bb      	ldrb	r3, [r7, #2]
1000566e:	4698      	mov	r8, r3
10005670:	0028      	movs	r0, r5
10005672:	f7ff fc4b 	bl	10004f0c <configuration_reset>
10005676:	4643      	mov	r3, r8
10005678:	70bb      	strb	r3, [r7, #2]
1000567a:	e7e9      	b.n	10005650 <process_control_request+0x10c>
1000567c:	0031      	movs	r1, r6
1000567e:	0028      	movs	r0, r5
10005680:	f7ff fc9a 	bl	10004fb8 <process_set_config>
10005684:	2800      	cmp	r0, #0
10005686:	d1e5      	bne.n	10005654 <process_control_request+0x110>
10005688:	e779      	b.n	1000557e <process_control_request+0x3a>
1000568a:	0021      	movs	r1, r4
1000568c:	0028      	movs	r0, r5
1000568e:	f7ff fd4f 	bl	10005130 <process_get_descriptor>
10005692:	e774      	b.n	1000557e <process_control_request+0x3a>
10005694:	78a2      	ldrb	r2, [r4, #2]
10005696:	78e3      	ldrb	r3, [r4, #3]
10005698:	021b      	lsls	r3, r3, #8
1000569a:	4313      	orrs	r3, r2
1000569c:	2b01      	cmp	r3, #1
1000569e:	d001      	beq.n	100056a4 <process_control_request+0x160>
100056a0:	2000      	movs	r0, #0
100056a2:	e76c      	b.n	1000557e <process_control_request+0x3a>
100056a4:	4a81      	ldr	r2, [pc, #516]	; (100058ac <process_control_request+0x368>)
100056a6:	7813      	ldrb	r3, [r2, #0]
100056a8:	2108      	movs	r1, #8
100056aa:	430b      	orrs	r3, r1
100056ac:	7013      	strb	r3, [r2, #0]
100056ae:	0021      	movs	r1, r4
100056b0:	0028      	movs	r0, r5
100056b2:	f000 fa0d 	bl	10005ad0 <tud_control_status>
100056b6:	2001      	movs	r0, #1
100056b8:	e761      	b.n	1000557e <process_control_request+0x3a>
100056ba:	78a2      	ldrb	r2, [r4, #2]
100056bc:	78e3      	ldrb	r3, [r4, #3]
100056be:	021b      	lsls	r3, r3, #8
100056c0:	4313      	orrs	r3, r2
100056c2:	2b01      	cmp	r3, #1
100056c4:	d001      	beq.n	100056ca <process_control_request+0x186>
100056c6:	2000      	movs	r0, #0
100056c8:	e759      	b.n	1000557e <process_control_request+0x3a>
100056ca:	4a78      	ldr	r2, [pc, #480]	; (100058ac <process_control_request+0x368>)
100056cc:	7813      	ldrb	r3, [r2, #0]
100056ce:	2108      	movs	r1, #8
100056d0:	438b      	bics	r3, r1
100056d2:	7013      	strb	r3, [r2, #0]
100056d4:	0021      	movs	r1, r4
100056d6:	0028      	movs	r0, r5
100056d8:	f000 f9fa 	bl	10005ad0 <tud_control_status>
100056dc:	2001      	movs	r0, #1
100056de:	e74e      	b.n	1000557e <process_control_request+0x3a>
100056e0:	4b72      	ldr	r3, [pc, #456]	; (100058ac <process_control_request+0x368>)
100056e2:	781a      	ldrb	r2, [r3, #0]
100056e4:	0951      	lsrs	r1, r2, #5
100056e6:	0892      	lsrs	r2, r2, #2
100056e8:	2301      	movs	r3, #1
100056ea:	400b      	ands	r3, r1
100056ec:	2102      	movs	r1, #2
100056ee:	400a      	ands	r2, r1
100056f0:	4313      	orrs	r3, r2
100056f2:	466a      	mov	r2, sp
100056f4:	3206      	adds	r2, #6
100056f6:	8013      	strh	r3, [r2, #0]
100056f8:	2302      	movs	r3, #2
100056fa:	0021      	movs	r1, r4
100056fc:	0028      	movs	r0, r5
100056fe:	f000 fa03 	bl	10005b08 <tud_control_xfer>
10005702:	2001      	movs	r0, #1
10005704:	e73b      	b.n	1000557e <process_control_request+0x3a>
10005706:	7923      	ldrb	r3, [r4, #4]
10005708:	2b0f      	cmp	r3, #15
1000570a:	d900      	bls.n	1000570e <process_control_request+0x1ca>
1000570c:	e0bd      	b.n	1000588a <process_control_request+0x346>
1000570e:	4a67      	ldr	r2, [pc, #412]	; (100058ac <process_control_request+0x368>)
10005710:	18d3      	adds	r3, r2, r3
10005712:	78d9      	ldrb	r1, [r3, #3]
10005714:	4b66      	ldr	r3, [pc, #408]	; (100058b0 <process_control_request+0x36c>)
10005716:	2b00      	cmp	r3, #0
10005718:	d005      	beq.n	10005726 <process_control_request+0x1e2>
1000571a:	4b66      	ldr	r3, [pc, #408]	; (100058b4 <process_control_request+0x370>)
1000571c:	781b      	ldrb	r3, [r3, #0]
1000571e:	4299      	cmp	r1, r3
10005720:	d328      	bcc.n	10005774 <process_control_request+0x230>
10005722:	1ac9      	subs	r1, r1, r3
10005724:	b2c9      	uxtb	r1, r1
10005726:	2900      	cmp	r1, #0
10005728:	d000      	beq.n	1000572c <process_control_request+0x1e8>
1000572a:	e0b0      	b.n	1000588e <process_control_request+0x34a>
1000572c:	004b      	lsls	r3, r1, #1
1000572e:	185b      	adds	r3, r3, r1
10005730:	00db      	lsls	r3, r3, #3
10005732:	4961      	ldr	r1, [pc, #388]	; (100058b8 <process_control_request+0x374>)
10005734:	18c9      	adds	r1, r1, r3
10005736:	2900      	cmp	r1, #0
10005738:	d100      	bne.n	1000573c <process_control_request+0x1f8>
1000573a:	e0aa      	b.n	10005892 <process_control_request+0x34e>
1000573c:	0022      	movs	r2, r4
1000573e:	0028      	movs	r0, r5
10005740:	f7ff fc2c 	bl	10004f9c <invoke_class_control>
10005744:	2800      	cmp	r0, #0
10005746:	d000      	beq.n	1000574a <process_control_request+0x206>
10005748:	e719      	b.n	1000557e <process_control_request+0x3a>
1000574a:	7823      	ldrb	r3, [r4, #0]
1000574c:	2260      	movs	r2, #96	; 0x60
1000574e:	421a      	tst	r2, r3
10005750:	d000      	beq.n	10005754 <process_control_request+0x210>
10005752:	e714      	b.n	1000557e <process_control_request+0x3a>
10005754:	7863      	ldrb	r3, [r4, #1]
10005756:	3b0a      	subs	r3, #10
10005758:	2b01      	cmp	r3, #1
1000575a:	d900      	bls.n	1000575e <process_control_request+0x21a>
1000575c:	e70f      	b.n	1000557e <process_control_request+0x3a>
1000575e:	f000 fa17 	bl	10005b90 <usbd_control_set_complete_callback>
10005762:	7863      	ldrb	r3, [r4, #1]
10005764:	2b0a      	cmp	r3, #10
10005766:	d00c      	beq.n	10005782 <process_control_request+0x23e>
10005768:	0021      	movs	r1, r4
1000576a:	0028      	movs	r0, r5
1000576c:	f000 f9b0 	bl	10005ad0 <tud_control_status>
10005770:	2001      	movs	r0, #1
10005772:	e704      	b.n	1000557e <process_control_request+0x3a>
10005774:	004b      	lsls	r3, r1, #1
10005776:	185b      	adds	r3, r3, r1
10005778:	00db      	lsls	r3, r3, #3
1000577a:	4a50      	ldr	r2, [pc, #320]	; (100058bc <process_control_request+0x378>)
1000577c:	6811      	ldr	r1, [r2, #0]
1000577e:	18c9      	adds	r1, r1, r3
10005780:	e7d9      	b.n	10005736 <process_control_request+0x1f2>
10005782:	466b      	mov	r3, sp
10005784:	1d9a      	adds	r2, r3, #6
10005786:	2300      	movs	r3, #0
10005788:	7013      	strb	r3, [r2, #0]
1000578a:	3301      	adds	r3, #1
1000578c:	0021      	movs	r1, r4
1000578e:	0028      	movs	r0, r5
10005790:	f000 f9ba 	bl	10005b08 <tud_control_xfer>
10005794:	2001      	movs	r0, #1
10005796:	e6f2      	b.n	1000557e <process_control_request+0x3a>
10005798:	7921      	ldrb	r1, [r4, #4]
1000579a:	227f      	movs	r2, #127	; 0x7f
1000579c:	400a      	ands	r2, r1
1000579e:	09ce      	lsrs	r6, r1, #7
100057a0:	2070      	movs	r0, #112	; 0x70
100057a2:	4208      	tst	r0, r1
100057a4:	d177      	bne.n	10005896 <process_control_request+0x352>
100057a6:	0052      	lsls	r2, r2, #1
100057a8:	4840      	ldr	r0, [pc, #256]	; (100058ac <process_control_request+0x368>)
100057aa:	1882      	adds	r2, r0, r2
100057ac:	1992      	adds	r2, r2, r6
100057ae:	7cd2      	ldrb	r2, [r2, #19]
100057b0:	483f      	ldr	r0, [pc, #252]	; (100058b0 <process_control_request+0x36c>)
100057b2:	2800      	cmp	r0, #0
100057b4:	d005      	beq.n	100057c2 <process_control_request+0x27e>
100057b6:	483f      	ldr	r0, [pc, #252]	; (100058b4 <process_control_request+0x370>)
100057b8:	7800      	ldrb	r0, [r0, #0]
100057ba:	4282      	cmp	r2, r0
100057bc:	d312      	bcc.n	100057e4 <process_control_request+0x2a0>
100057be:	1a12      	subs	r2, r2, r0
100057c0:	b2d2      	uxtb	r2, r2
100057c2:	2a00      	cmp	r2, #0
100057c4:	d115      	bne.n	100057f2 <process_control_request+0x2ae>
100057c6:	0056      	lsls	r6, r2, #1
100057c8:	18b2      	adds	r2, r6, r2
100057ca:	00d2      	lsls	r2, r2, #3
100057cc:	4e3a      	ldr	r6, [pc, #232]	; (100058b8 <process_control_request+0x374>)
100057ce:	18b6      	adds	r6, r6, r2
100057d0:	2b00      	cmp	r3, #0
100057d2:	d010      	beq.n	100057f6 <process_control_request+0x2b2>
100057d4:	2e00      	cmp	r6, #0
100057d6:	d060      	beq.n	1000589a <process_control_request+0x356>
100057d8:	0022      	movs	r2, r4
100057da:	0031      	movs	r1, r6
100057dc:	0028      	movs	r0, r5
100057de:	f7ff fbdd 	bl	10004f9c <invoke_class_control>
100057e2:	e6cc      	b.n	1000557e <process_control_request+0x3a>
100057e4:	0056      	lsls	r6, r2, #1
100057e6:	18b2      	adds	r2, r6, r2
100057e8:	00d2      	lsls	r2, r2, #3
100057ea:	4834      	ldr	r0, [pc, #208]	; (100058bc <process_control_request+0x378>)
100057ec:	6806      	ldr	r6, [r0, #0]
100057ee:	18b6      	adds	r6, r6, r2
100057f0:	e7ee      	b.n	100057d0 <process_control_request+0x28c>
100057f2:	2600      	movs	r6, #0
100057f4:	e7ec      	b.n	100057d0 <process_control_request+0x28c>
100057f6:	7863      	ldrb	r3, [r4, #1]
100057f8:	2b01      	cmp	r3, #1
100057fa:	d012      	beq.n	10005822 <process_control_request+0x2de>
100057fc:	2b03      	cmp	r3, #3
100057fe:	d010      	beq.n	10005822 <process_control_request+0x2de>
10005800:	2b00      	cmp	r3, #0
10005802:	d001      	beq.n	10005808 <process_control_request+0x2c4>
10005804:	2000      	movs	r0, #0
10005806:	e6ba      	b.n	1000557e <process_control_request+0x3a>
10005808:	0028      	movs	r0, r5
1000580a:	f7ff fe8d 	bl	10005528 <usbd_edpt_stalled>
1000580e:	466b      	mov	r3, sp
10005810:	1d9a      	adds	r2, r3, #6
10005812:	8010      	strh	r0, [r2, #0]
10005814:	2302      	movs	r3, #2
10005816:	0021      	movs	r1, r4
10005818:	0028      	movs	r0, r5
1000581a:	f000 f975 	bl	10005b08 <tud_control_xfer>
1000581e:	2001      	movs	r0, #1
10005820:	e6ad      	b.n	1000557e <process_control_request+0x3a>
10005822:	78a7      	ldrb	r7, [r4, #2]
10005824:	78e2      	ldrb	r2, [r4, #3]
10005826:	0212      	lsls	r2, r2, #8
10005828:	433a      	orrs	r2, r7
1000582a:	d104      	bne.n	10005836 <process_control_request+0x2f2>
1000582c:	2b01      	cmp	r3, #1
1000582e:	d01a      	beq.n	10005866 <process_control_request+0x322>
10005830:	0028      	movs	r0, r5
10005832:	f7ff fe31 	bl	10005498 <usbd_edpt_stall>
10005836:	2e00      	cmp	r6, #0
10005838:	d031      	beq.n	1000589e <process_control_request+0x35a>
1000583a:	0022      	movs	r2, r4
1000583c:	0031      	movs	r1, r6
1000583e:	0028      	movs	r0, r5
10005840:	f7ff fbac 	bl	10004f9c <invoke_class_control>
10005844:	2000      	movs	r0, #0
10005846:	f000 f9a3 	bl	10005b90 <usbd_control_set_complete_callback>
1000584a:	4a18      	ldr	r2, [pc, #96]	; (100058ac <process_control_request+0x368>)
1000584c:	2334      	movs	r3, #52	; 0x34
1000584e:	5cd3      	ldrb	r3, [r2, r3]
10005850:	07db      	lsls	r3, r3, #31
10005852:	0fd8      	lsrs	r0, r3, #31
10005854:	2b00      	cmp	r3, #0
10005856:	d000      	beq.n	1000585a <process_control_request+0x316>
10005858:	e691      	b.n	1000557e <process_control_request+0x3a>
1000585a:	0021      	movs	r1, r4
1000585c:	0028      	movs	r0, r5
1000585e:	f000 f937 	bl	10005ad0 <tud_control_status>
10005862:	2001      	movs	r0, #1
10005864:	e68b      	b.n	1000557e <process_control_request+0x3a>
10005866:	0028      	movs	r0, r5
10005868:	f7ff fe3a 	bl	100054e0 <usbd_edpt_clear_stall>
1000586c:	e7e3      	b.n	10005836 <process_control_request+0x2f2>
1000586e:	2000      	movs	r0, #0
10005870:	e685      	b.n	1000557e <process_control_request+0x3a>
10005872:	2000      	movs	r0, #0
10005874:	e683      	b.n	1000557e <process_control_request+0x3a>
10005876:	2000      	movs	r0, #0
10005878:	e681      	b.n	1000557e <process_control_request+0x3a>
1000587a:	2000      	movs	r0, #0
1000587c:	e67f      	b.n	1000557e <process_control_request+0x3a>
1000587e:	2000      	movs	r0, #0
10005880:	e67d      	b.n	1000557e <process_control_request+0x3a>
10005882:	2000      	movs	r0, #0
10005884:	e67b      	b.n	1000557e <process_control_request+0x3a>
10005886:	2000      	movs	r0, #0
10005888:	e679      	b.n	1000557e <process_control_request+0x3a>
1000588a:	2000      	movs	r0, #0
1000588c:	e677      	b.n	1000557e <process_control_request+0x3a>
1000588e:	2000      	movs	r0, #0
10005890:	e675      	b.n	1000557e <process_control_request+0x3a>
10005892:	2000      	movs	r0, #0
10005894:	e673      	b.n	1000557e <process_control_request+0x3a>
10005896:	2000      	movs	r0, #0
10005898:	e671      	b.n	1000557e <process_control_request+0x3a>
1000589a:	2000      	movs	r0, #0
1000589c:	e66f      	b.n	1000557e <process_control_request+0x3a>
1000589e:	2001      	movs	r0, #1
100058a0:	e66d      	b.n	1000557e <process_control_request+0x3a>
100058a2:	46c0      	nop			; (mov r8, r8)
100058a4:	00000000 	.word	0x00000000
100058a8:	100083bc 	.word	0x100083bc
100058ac:	20001114 	.word	0x20001114
100058b0:	1000459d 	.word	0x1000459d
100058b4:	20001a51 	.word	0x20001a51
100058b8:	10008408 	.word	0x10008408
100058bc:	20000dec 	.word	0x20000dec

100058c0 <tud_task_ext>:
100058c0:	b530      	push	{r4, r5, lr}
100058c2:	b085      	sub	sp, #20
100058c4:	f000 fce9 	bl	1000629a <tusb_inited>
100058c8:	2800      	cmp	r0, #0
100058ca:	d108      	bne.n	100058de <tud_task_ext+0x1e>
100058cc:	b005      	add	sp, #20
100058ce:	bd30      	pop	{r4, r5, pc}
100058d0:	ac01      	add	r4, sp, #4
100058d2:	7820      	ldrb	r0, [r4, #0]
100058d4:	f7ff fb5c 	bl	10004f90 <usbd_reset>
100058d8:	7922      	ldrb	r2, [r4, #4]
100058da:	4b5d      	ldr	r3, [pc, #372]	; (10005a50 <tud_task_ext+0x190>)
100058dc:	709a      	strb	r2, [r3, #2]
100058de:	4b5d      	ldr	r3, [pc, #372]	; (10005a54 <tud_task_ext+0x194>)
100058e0:	681c      	ldr	r4, [r3, #0]
100058e2:	0021      	movs	r1, r4
100058e4:	3114      	adds	r1, #20
100058e6:	6962      	ldr	r2, [r4, #20]
100058e8:	f3ef 8010 	mrs	r0, PRIMASK
100058ec:	b672      	cpsid	i
100058ee:	6813      	ldr	r3, [r2, #0]
100058f0:	2b00      	cmp	r3, #0
100058f2:	d0fc      	beq.n	100058ee <tud_task_ext+0x2e>
100058f4:	f3bf 8f5f 	dmb	sy
100058f8:	6048      	str	r0, [r1, #4]
100058fa:	a901      	add	r1, sp, #4
100058fc:	0020      	movs	r0, r4
100058fe:	f001 f84d 	bl	1000699c <tu_fifo_read>
10005902:	6962      	ldr	r2, [r4, #20]
10005904:	69a3      	ldr	r3, [r4, #24]
10005906:	f3bf 8f5f 	dmb	sy
1000590a:	2100      	movs	r1, #0
1000590c:	6011      	str	r1, [r2, #0]
1000590e:	f383 8810 	msr	PRIMASK, r3
10005912:	2800      	cmp	r0, #0
10005914:	d0da      	beq.n	100058cc <tud_task_ext+0xc>
10005916:	ab01      	add	r3, sp, #4
10005918:	785b      	ldrb	r3, [r3, #1]
1000591a:	2b08      	cmp	r3, #8
1000591c:	d8df      	bhi.n	100058de <tud_task_ext+0x1e>
1000591e:	009b      	lsls	r3, r3, #2
10005920:	4a4d      	ldr	r2, [pc, #308]	; (10005a58 <tud_task_ext+0x198>)
10005922:	58d3      	ldr	r3, [r2, r3]
10005924:	469f      	mov	pc, r3
10005926:	ab01      	add	r3, sp, #4
10005928:	7818      	ldrb	r0, [r3, #0]
1000592a:	f7ff fb31 	bl	10004f90 <usbd_reset>
1000592e:	4b4b      	ldr	r3, [pc, #300]	; (10005a5c <tud_task_ext+0x19c>)
10005930:	2b00      	cmp	r3, #0
10005932:	d0d4      	beq.n	100058de <tud_task_ext+0x1e>
10005934:	e000      	b.n	10005938 <tud_task_ext+0x78>
10005936:	bf00      	nop
10005938:	e7d1      	b.n	100058de <tud_task_ext+0x1e>
1000593a:	4b45      	ldr	r3, [pc, #276]	; (10005a50 <tud_task_ext+0x190>)
1000593c:	781a      	ldrb	r2, [r3, #0]
1000593e:	2401      	movs	r4, #1
10005940:	2101      	movs	r1, #1
10005942:	430a      	orrs	r2, r1
10005944:	701a      	strb	r2, [r3, #0]
10005946:	2233      	movs	r2, #51	; 0x33
10005948:	5c99      	ldrb	r1, [r3, r2]
1000594a:	43a1      	bics	r1, r4
1000594c:	5499      	strb	r1, [r3, r2]
1000594e:	5c99      	ldrb	r1, [r3, r2]
10005950:	2004      	movs	r0, #4
10005952:	4381      	bics	r1, r0
10005954:	5499      	strb	r1, [r3, r2]
10005956:	3201      	adds	r2, #1
10005958:	5c99      	ldrb	r1, [r3, r2]
1000595a:	43a1      	bics	r1, r4
1000595c:	5499      	strb	r1, [r3, r2]
1000595e:	5c99      	ldrb	r1, [r3, r2]
10005960:	4381      	bics	r1, r0
10005962:	5499      	strb	r1, [r3, r2]
10005964:	ab01      	add	r3, sp, #4
10005966:	7818      	ldrb	r0, [r3, #0]
10005968:	a902      	add	r1, sp, #8
1000596a:	f7ff fdeb 	bl	10005544 <process_control_request>
1000596e:	2800      	cmp	r0, #0
10005970:	d1b5      	bne.n	100058de <tud_task_ext+0x1e>
10005972:	ac01      	add	r4, sp, #4
10005974:	7820      	ldrb	r0, [r4, #0]
10005976:	2100      	movs	r1, #0
10005978:	f7ff fa54 	bl	10004e24 <dcd_edpt_stall>
1000597c:	7820      	ldrb	r0, [r4, #0]
1000597e:	2180      	movs	r1, #128	; 0x80
10005980:	f7ff fa50 	bl	10004e24 <dcd_edpt_stall>
10005984:	e7ab      	b.n	100058de <tud_task_ext+0x1e>
10005986:	ab01      	add	r3, sp, #4
10005988:	7919      	ldrb	r1, [r3, #4]
1000598a:	227f      	movs	r2, #127	; 0x7f
1000598c:	400a      	ands	r2, r1
1000598e:	09cc      	lsrs	r4, r1, #7
10005990:	0050      	lsls	r0, r2, #1
10005992:	4b2f      	ldr	r3, [pc, #188]	; (10005a50 <tud_task_ext+0x190>)
10005994:	181b      	adds	r3, r3, r0
10005996:	191b      	adds	r3, r3, r4
10005998:	3330      	adds	r3, #48	; 0x30
1000599a:	78d8      	ldrb	r0, [r3, #3]
1000599c:	2501      	movs	r5, #1
1000599e:	43a8      	bics	r0, r5
100059a0:	70d8      	strb	r0, [r3, #3]
100059a2:	78d8      	ldrb	r0, [r3, #3]
100059a4:	3503      	adds	r5, #3
100059a6:	43a8      	bics	r0, r5
100059a8:	70d8      	strb	r0, [r3, #3]
100059aa:	2a00      	cmp	r2, #0
100059ac:	d01f      	beq.n	100059ee <tud_task_ext+0x12e>
100059ae:	0052      	lsls	r2, r2, #1
100059b0:	4b27      	ldr	r3, [pc, #156]	; (10005a50 <tud_task_ext+0x190>)
100059b2:	189a      	adds	r2, r3, r2
100059b4:	1912      	adds	r2, r2, r4
100059b6:	7cd3      	ldrb	r3, [r2, #19]
100059b8:	4a29      	ldr	r2, [pc, #164]	; (10005a60 <tud_task_ext+0x1a0>)
100059ba:	2a00      	cmp	r2, #0
100059bc:	d005      	beq.n	100059ca <tud_task_ext+0x10a>
100059be:	4a29      	ldr	r2, [pc, #164]	; (10005a64 <tud_task_ext+0x1a4>)
100059c0:	7812      	ldrb	r2, [r2, #0]
100059c2:	4293      	cmp	r3, r2
100059c4:	d31a      	bcc.n	100059fc <tud_task_ext+0x13c>
100059c6:	1a9b      	subs	r3, r3, r2
100059c8:	b2db      	uxtb	r3, r3
100059ca:	2b00      	cmp	r3, #0
100059cc:	d000      	beq.n	100059d0 <tud_task_ext+0x110>
100059ce:	e77d      	b.n	100058cc <tud_task_ext+0xc>
100059d0:	005a      	lsls	r2, r3, #1
100059d2:	18d2      	adds	r2, r2, r3
100059d4:	00d2      	lsls	r2, r2, #3
100059d6:	4b24      	ldr	r3, [pc, #144]	; (10005a68 <tud_task_ext+0x1a8>)
100059d8:	189b      	adds	r3, r3, r2
100059da:	2b00      	cmp	r3, #0
100059dc:	d100      	bne.n	100059e0 <tud_task_ext+0x120>
100059de:	e775      	b.n	100058cc <tud_task_ext+0xc>
100059e0:	691c      	ldr	r4, [r3, #16]
100059e2:	a801      	add	r0, sp, #4
100059e4:	7942      	ldrb	r2, [r0, #5]
100059e6:	9b03      	ldr	r3, [sp, #12]
100059e8:	7800      	ldrb	r0, [r0, #0]
100059ea:	47a0      	blx	r4
100059ec:	e777      	b.n	100058de <tud_task_ext+0x1e>
100059ee:	a801      	add	r0, sp, #4
100059f0:	7942      	ldrb	r2, [r0, #5]
100059f2:	9b03      	ldr	r3, [sp, #12]
100059f4:	7800      	ldrb	r0, [r0, #0]
100059f6:	f000 f8df 	bl	10005bb8 <usbd_control_xfer_cb>
100059fa:	e770      	b.n	100058de <tud_task_ext+0x1e>
100059fc:	005a      	lsls	r2, r3, #1
100059fe:	18d2      	adds	r2, r2, r3
10005a00:	00d2      	lsls	r2, r2, #3
10005a02:	4b1a      	ldr	r3, [pc, #104]	; (10005a6c <tud_task_ext+0x1ac>)
10005a04:	681b      	ldr	r3, [r3, #0]
10005a06:	189b      	adds	r3, r3, r2
10005a08:	e7e7      	b.n	100059da <tud_task_ext+0x11a>
10005a0a:	4b11      	ldr	r3, [pc, #68]	; (10005a50 <tud_task_ext+0x190>)
10005a0c:	781b      	ldrb	r3, [r3, #0]
10005a0e:	07db      	lsls	r3, r3, #31
10005a10:	d400      	bmi.n	10005a14 <tud_task_ext+0x154>
10005a12:	e764      	b.n	100058de <tud_task_ext+0x1e>
10005a14:	4b16      	ldr	r3, [pc, #88]	; (10005a70 <tud_task_ext+0x1b0>)
10005a16:	2b00      	cmp	r3, #0
10005a18:	d100      	bne.n	10005a1c <tud_task_ext+0x15c>
10005a1a:	e760      	b.n	100058de <tud_task_ext+0x1e>
10005a1c:	4b0c      	ldr	r3, [pc, #48]	; (10005a50 <tud_task_ext+0x190>)
10005a1e:	7818      	ldrb	r0, [r3, #0]
10005a20:	0700      	lsls	r0, r0, #28
10005a22:	0fc0      	lsrs	r0, r0, #31
10005a24:	e000      	b.n	10005a28 <tud_task_ext+0x168>
10005a26:	bf00      	nop
10005a28:	e759      	b.n	100058de <tud_task_ext+0x1e>
10005a2a:	4b09      	ldr	r3, [pc, #36]	; (10005a50 <tud_task_ext+0x190>)
10005a2c:	781b      	ldrb	r3, [r3, #0]
10005a2e:	07db      	lsls	r3, r3, #31
10005a30:	d400      	bmi.n	10005a34 <tud_task_ext+0x174>
10005a32:	e754      	b.n	100058de <tud_task_ext+0x1e>
10005a34:	4b0f      	ldr	r3, [pc, #60]	; (10005a74 <tud_task_ext+0x1b4>)
10005a36:	2b00      	cmp	r3, #0
10005a38:	d100      	bne.n	10005a3c <tud_task_ext+0x17c>
10005a3a:	e750      	b.n	100058de <tud_task_ext+0x1e>
10005a3c:	e000      	b.n	10005a40 <tud_task_ext+0x180>
10005a3e:	bf00      	nop
10005a40:	e74d      	b.n	100058de <tud_task_ext+0x1e>
10005a42:	9b02      	ldr	r3, [sp, #8]
10005a44:	2b00      	cmp	r3, #0
10005a46:	d100      	bne.n	10005a4a <tud_task_ext+0x18a>
10005a48:	e749      	b.n	100058de <tud_task_ext+0x1e>
10005a4a:	9803      	ldr	r0, [sp, #12]
10005a4c:	4798      	blx	r3
10005a4e:	e746      	b.n	100058de <tud_task_ext+0x1e>
10005a50:	20001114 	.word	0x20001114
10005a54:	2000116c 	.word	0x2000116c
10005a58:	100083e4 	.word	0x100083e4
10005a5c:	00000000 	.word	0x00000000
10005a60:	1000459d 	.word	0x1000459d
10005a64:	20001a51 	.word	0x20001a51
10005a68:	10008408 	.word	0x10008408
10005a6c:	20000dec 	.word	0x20000dec
	...

10005a78 <_data_stage_xact>:
10005a78:	b5f8      	push	{r3, r4, r5, r6, r7, lr}
10005a7a:	0005      	movs	r5, r0
10005a7c:	4b12      	ldr	r3, [pc, #72]	; (10005ac8 <_data_stage_xact+0x50>)
10005a7e:	899f      	ldrh	r7, [r3, #12]
10005a80:	89de      	ldrh	r6, [r3, #14]
10005a82:	1bb9      	subs	r1, r7, r6
10005a84:	b289      	uxth	r1, r1
10005a86:	1c0b      	adds	r3, r1, #0
10005a88:	2940      	cmp	r1, #64	; 0x40
10005a8a:	d900      	bls.n	10005a8e <_data_stage_xact+0x16>
10005a8c:	2340      	movs	r3, #64	; 0x40
10005a8e:	b29c      	uxth	r4, r3
10005a90:	4b0d      	ldr	r3, [pc, #52]	; (10005ac8 <_data_stage_xact+0x50>)
10005a92:	781b      	ldrb	r3, [r3, #0]
10005a94:	b25b      	sxtb	r3, r3
10005a96:	2b00      	cmp	r3, #0
10005a98:	db08      	blt.n	10005aac <_data_stage_xact+0x34>
10005a9a:	2100      	movs	r1, #0
10005a9c:	42b7      	cmp	r7, r6
10005a9e:	d011      	beq.n	10005ac4 <_data_stage_xact+0x4c>
10005aa0:	4a0a      	ldr	r2, [pc, #40]	; (10005acc <_data_stage_xact+0x54>)
10005aa2:	0023      	movs	r3, r4
10005aa4:	0028      	movs	r0, r5
10005aa6:	f7ff fcbb 	bl	10005420 <usbd_edpt_xfer>
10005aaa:	bdf8      	pop	{r3, r4, r5, r6, r7, pc}
10005aac:	42b7      	cmp	r7, r6
10005aae:	d101      	bne.n	10005ab4 <_data_stage_xact+0x3c>
10005ab0:	2180      	movs	r1, #128	; 0x80
10005ab2:	e7f3      	b.n	10005a9c <_data_stage_xact+0x24>
10005ab4:	4b04      	ldr	r3, [pc, #16]	; (10005ac8 <_data_stage_xact+0x50>)
10005ab6:	6899      	ldr	r1, [r3, #8]
10005ab8:	0022      	movs	r2, r4
10005aba:	4804      	ldr	r0, [pc, #16]	; (10005acc <_data_stage_xact+0x54>)
10005abc:	f7fe fa9a 	bl	10003ff4 <__wrap___aeabi_memcpy>
10005ac0:	2180      	movs	r1, #128	; 0x80
10005ac2:	e7eb      	b.n	10005a9c <_data_stage_xact+0x24>
10005ac4:	2200      	movs	r2, #0
10005ac6:	e7ec      	b.n	10005aa2 <_data_stage_xact+0x2a>
10005ac8:	200010b8 	.word	0x200010b8
10005acc:	200010d4 	.word	0x200010d4

10005ad0 <tud_control_status>:
10005ad0:	b570      	push	{r4, r5, r6, lr}
10005ad2:	0006      	movs	r6, r0
10005ad4:	000c      	movs	r4, r1
10005ad6:	4d0b      	ldr	r5, [pc, #44]	; (10005b04 <tud_control_status+0x34>)
10005ad8:	2208      	movs	r2, #8
10005ada:	0028      	movs	r0, r5
10005adc:	f7fe fa8a 	bl	10003ff4 <__wrap___aeabi_memcpy>
10005ae0:	2300      	movs	r3, #0
10005ae2:	60ab      	str	r3, [r5, #8]
10005ae4:	81eb      	strh	r3, [r5, #14]
10005ae6:	81ab      	strh	r3, [r5, #12]
10005ae8:	2300      	movs	r3, #0
10005aea:	56e3      	ldrsb	r3, [r4, r3]
10005aec:	2b00      	cmp	r3, #0
10005aee:	db06      	blt.n	10005afe <tud_control_status+0x2e>
10005af0:	2180      	movs	r1, #128	; 0x80
10005af2:	2300      	movs	r3, #0
10005af4:	2200      	movs	r2, #0
10005af6:	0030      	movs	r0, r6
10005af8:	f7ff fc92 	bl	10005420 <usbd_edpt_xfer>
10005afc:	bd70      	pop	{r4, r5, r6, pc}
10005afe:	2100      	movs	r1, #0
10005b00:	e7f7      	b.n	10005af2 <tud_control_status+0x22>
10005b02:	46c0      	nop			; (mov r8, r8)
10005b04:	200010b8 	.word	0x200010b8

10005b08 <tud_control_xfer>:
10005b08:	b5f0      	push	{r4, r5, r6, r7, lr}
10005b0a:	46c6      	mov	lr, r8
10005b0c:	b500      	push	{lr}
10005b0e:	4680      	mov	r8, r0
10005b10:	000c      	movs	r4, r1
10005b12:	0016      	movs	r6, r2
10005b14:	001d      	movs	r5, r3
10005b16:	4f18      	ldr	r7, [pc, #96]	; (10005b78 <tud_control_xfer+0x70>)
10005b18:	2208      	movs	r2, #8
10005b1a:	0038      	movs	r0, r7
10005b1c:	f7fe fa6a 	bl	10003ff4 <__wrap___aeabi_memcpy>
10005b20:	60be      	str	r6, [r7, #8]
10005b22:	2300      	movs	r3, #0
10005b24:	81fb      	strh	r3, [r7, #14]
10005b26:	79a3      	ldrb	r3, [r4, #6]
10005b28:	79e1      	ldrb	r1, [r4, #7]
10005b2a:	0209      	lsls	r1, r1, #8
10005b2c:	4319      	orrs	r1, r3
10005b2e:	1c0b      	adds	r3, r1, #0
10005b30:	42a9      	cmp	r1, r5
10005b32:	d900      	bls.n	10005b36 <tud_control_xfer+0x2e>
10005b34:	1c2b      	adds	r3, r5, #0
10005b36:	b299      	uxth	r1, r3
10005b38:	4a0f      	ldr	r2, [pc, #60]	; (10005b78 <tud_control_xfer+0x70>)
10005b3a:	8193      	strh	r3, [r2, #12]
10005b3c:	79a2      	ldrb	r2, [r4, #6]
10005b3e:	79e3      	ldrb	r3, [r4, #7]
10005b40:	021b      	lsls	r3, r3, #8
10005b42:	4313      	orrs	r3, r2
10005b44:	d009      	beq.n	10005b5a <tud_control_xfer+0x52>
10005b46:	2900      	cmp	r1, #0
10005b48:	d001      	beq.n	10005b4e <tud_control_xfer+0x46>
10005b4a:	2e00      	cmp	r6, #0
10005b4c:	d012      	beq.n	10005b74 <tud_control_xfer+0x6c>
10005b4e:	4640      	mov	r0, r8
10005b50:	f7ff ff92 	bl	10005a78 <_data_stage_xact>
10005b54:	bc80      	pop	{r7}
10005b56:	46b8      	mov	r8, r7
10005b58:	bdf0      	pop	{r4, r5, r6, r7, pc}
10005b5a:	2300      	movs	r3, #0
10005b5c:	56e3      	ldrsb	r3, [r4, r3]
10005b5e:	2b00      	cmp	r3, #0
10005b60:	db06      	blt.n	10005b70 <tud_control_xfer+0x68>
10005b62:	2180      	movs	r1, #128	; 0x80
10005b64:	2300      	movs	r3, #0
10005b66:	2200      	movs	r2, #0
10005b68:	4640      	mov	r0, r8
10005b6a:	f7ff fc59 	bl	10005420 <usbd_edpt_xfer>
10005b6e:	e7f1      	b.n	10005b54 <tud_control_xfer+0x4c>
10005b70:	2100      	movs	r1, #0
10005b72:	e7f7      	b.n	10005b64 <tud_control_xfer+0x5c>
10005b74:	2000      	movs	r0, #0
10005b76:	e7ed      	b.n	10005b54 <tud_control_xfer+0x4c>
10005b78:	200010b8 	.word	0x200010b8

10005b7c <usbd_control_reset>:
10005b7c:	b510      	push	{r4, lr}
10005b7e:	2214      	movs	r2, #20
10005b80:	2100      	movs	r1, #0
10005b82:	4802      	ldr	r0, [pc, #8]	; (10005b8c <usbd_control_reset+0x10>)
10005b84:	f7fe fa30 	bl	10003fe8 <__wrap_memset>
10005b88:	bd10      	pop	{r4, pc}
10005b8a:	46c0      	nop			; (mov r8, r8)
10005b8c:	200010b8 	.word	0x200010b8

10005b90 <usbd_control_set_complete_callback>:
10005b90:	4b01      	ldr	r3, [pc, #4]	; (10005b98 <usbd_control_set_complete_callback+0x8>)
10005b92:	6118      	str	r0, [r3, #16]
10005b94:	4770      	bx	lr
10005b96:	46c0      	nop			; (mov r8, r8)
10005b98:	200010b8 	.word	0x200010b8

10005b9c <usbd_control_set_request>:
10005b9c:	b510      	push	{r4, lr}
10005b9e:	0001      	movs	r1, r0
10005ba0:	4c04      	ldr	r4, [pc, #16]	; (10005bb4 <usbd_control_set_request+0x18>)
10005ba2:	2208      	movs	r2, #8
10005ba4:	0020      	movs	r0, r4
10005ba6:	f7fe fa25 	bl	10003ff4 <__wrap___aeabi_memcpy>
10005baa:	2300      	movs	r3, #0
10005bac:	60a3      	str	r3, [r4, #8]
10005bae:	81e3      	strh	r3, [r4, #14]
10005bb0:	81a3      	strh	r3, [r4, #12]
10005bb2:	bd10      	pop	{r4, pc}
10005bb4:	200010b8 	.word	0x200010b8

10005bb8 <usbd_control_xfer_cb>:
10005bb8:	b570      	push	{r4, r5, r6, lr}
10005bba:	0005      	movs	r5, r0
10005bbc:	001c      	movs	r4, r3
10005bbe:	09c9      	lsrs	r1, r1, #7
10005bc0:	4b2d      	ldr	r3, [pc, #180]	; (10005c78 <usbd_control_xfer_cb+0xc0>)
10005bc2:	781b      	ldrb	r3, [r3, #0]
10005bc4:	09db      	lsrs	r3, r3, #7
10005bc6:	428b      	cmp	r3, r1
10005bc8:	d011      	beq.n	10005bee <usbd_control_xfer_cb+0x36>
10005bca:	2c00      	cmp	r4, #0
10005bcc:	d150      	bne.n	10005c70 <usbd_control_xfer_cb+0xb8>
10005bce:	4b2b      	ldr	r3, [pc, #172]	; (10005c7c <usbd_control_xfer_cb+0xc4>)
10005bd0:	2b00      	cmp	r3, #0
10005bd2:	d002      	beq.n	10005bda <usbd_control_xfer_cb+0x22>
10005bd4:	4928      	ldr	r1, [pc, #160]	; (10005c78 <usbd_control_xfer_cb+0xc0>)
10005bd6:	f7ff f8d9 	bl	10004d8c <dcd_edpt0_status_complete>
10005bda:	4b27      	ldr	r3, [pc, #156]	; (10005c78 <usbd_control_xfer_cb+0xc0>)
10005bdc:	691b      	ldr	r3, [r3, #16]
10005bde:	2b00      	cmp	r3, #0
10005be0:	d003      	beq.n	10005bea <usbd_control_xfer_cb+0x32>
10005be2:	4a25      	ldr	r2, [pc, #148]	; (10005c78 <usbd_control_xfer_cb+0xc0>)
10005be4:	2103      	movs	r1, #3
10005be6:	0028      	movs	r0, r5
10005be8:	4798      	blx	r3
10005bea:	2001      	movs	r0, #1
10005bec:	bd70      	pop	{r4, r5, r6, pc}
10005bee:	4b22      	ldr	r3, [pc, #136]	; (10005c78 <usbd_control_xfer_cb+0xc0>)
10005bf0:	781b      	ldrb	r3, [r3, #0]
10005bf2:	b25b      	sxtb	r3, r3
10005bf4:	2b00      	cmp	r3, #0
10005bf6:	db07      	blt.n	10005c08 <usbd_control_xfer_cb+0x50>
10005bf8:	4b1f      	ldr	r3, [pc, #124]	; (10005c78 <usbd_control_xfer_cb+0xc0>)
10005bfa:	6898      	ldr	r0, [r3, #8]
10005bfc:	2800      	cmp	r0, #0
10005bfe:	d039      	beq.n	10005c74 <usbd_control_xfer_cb+0xbc>
10005c00:	0022      	movs	r2, r4
10005c02:	491f      	ldr	r1, [pc, #124]	; (10005c80 <usbd_control_xfer_cb+0xc8>)
10005c04:	f7fe f9f6 	bl	10003ff4 <__wrap___aeabi_memcpy>
10005c08:	b2a2      	uxth	r2, r4
10005c0a:	491b      	ldr	r1, [pc, #108]	; (10005c78 <usbd_control_xfer_cb+0xc0>)
10005c0c:	89cb      	ldrh	r3, [r1, #14]
10005c0e:	18d3      	adds	r3, r2, r3
10005c10:	b29b      	uxth	r3, r3
10005c12:	81cb      	strh	r3, [r1, #14]
10005c14:	688a      	ldr	r2, [r1, #8]
10005c16:	1912      	adds	r2, r2, r4
10005c18:	608a      	str	r2, [r1, #8]
10005c1a:	88ca      	ldrh	r2, [r1, #6]
10005c1c:	4293      	cmp	r3, r2
10005c1e:	d001      	beq.n	10005c24 <usbd_control_xfer_cb+0x6c>
10005c20:	2c3f      	cmp	r4, #63	; 0x3f
10005c22:	d821      	bhi.n	10005c68 <usbd_control_xfer_cb+0xb0>
10005c24:	4b14      	ldr	r3, [pc, #80]	; (10005c78 <usbd_control_xfer_cb+0xc0>)
10005c26:	691b      	ldr	r3, [r3, #16]
10005c28:	2b00      	cmp	r3, #0
10005c2a:	d005      	beq.n	10005c38 <usbd_control_xfer_cb+0x80>
10005c2c:	4a12      	ldr	r2, [pc, #72]	; (10005c78 <usbd_control_xfer_cb+0xc0>)
10005c2e:	2102      	movs	r1, #2
10005c30:	0028      	movs	r0, r5
10005c32:	4798      	blx	r3
10005c34:	2800      	cmp	r0, #0
10005c36:	d00d      	beq.n	10005c54 <usbd_control_xfer_cb+0x9c>
10005c38:	4b0f      	ldr	r3, [pc, #60]	; (10005c78 <usbd_control_xfer_cb+0xc0>)
10005c3a:	781b      	ldrb	r3, [r3, #0]
10005c3c:	b25b      	sxtb	r3, r3
10005c3e:	2b00      	cmp	r3, #0
10005c40:	db06      	blt.n	10005c50 <usbd_control_xfer_cb+0x98>
10005c42:	2180      	movs	r1, #128	; 0x80
10005c44:	2300      	movs	r3, #0
10005c46:	2200      	movs	r2, #0
10005c48:	0028      	movs	r0, r5
10005c4a:	f7ff fbe9 	bl	10005420 <usbd_edpt_xfer>
10005c4e:	e7cd      	b.n	10005bec <usbd_control_xfer_cb+0x34>
10005c50:	2100      	movs	r1, #0
10005c52:	e7f7      	b.n	10005c44 <usbd_control_xfer_cb+0x8c>
10005c54:	2100      	movs	r1, #0
10005c56:	0028      	movs	r0, r5
10005c58:	f7ff f8e4 	bl	10004e24 <dcd_edpt_stall>
10005c5c:	2180      	movs	r1, #128	; 0x80
10005c5e:	0028      	movs	r0, r5
10005c60:	f7ff f8e0 	bl	10004e24 <dcd_edpt_stall>
10005c64:	2001      	movs	r0, #1
10005c66:	e7c1      	b.n	10005bec <usbd_control_xfer_cb+0x34>
10005c68:	0028      	movs	r0, r5
10005c6a:	f7ff ff05 	bl	10005a78 <_data_stage_xact>
10005c6e:	e7bd      	b.n	10005bec <usbd_control_xfer_cb+0x34>
10005c70:	2000      	movs	r0, #0
10005c72:	e7bb      	b.n	10005bec <usbd_control_xfer_cb+0x34>
10005c74:	2000      	movs	r0, #0
10005c76:	e7b9      	b.n	10005bec <usbd_control_xfer_cb+0x34>
10005c78:	200010b8 	.word	0x200010b8
10005c7c:	10004d8d 	.word	0x10004d8d
10005c80:	200010d4 	.word	0x200010d4

10005c84 <_prep_out_transaction>:
10005c84:	b570      	push	{r4, r5, r6, lr}
10005c86:	0004      	movs	r4, r0
10005c88:	0005      	movs	r5, r0
10005c8a:	3510      	adds	r5, #16
10005c8c:	0028      	movs	r0, r5
10005c8e:	f000 fe6f 	bl	10006970 <tu_fifo_remaining>
10005c92:	283f      	cmp	r0, #63	; 0x3f
10005c94:	d801      	bhi.n	10005c9a <_prep_out_transaction+0x16>
10005c96:	2000      	movs	r0, #0
10005c98:	bd70      	pop	{r4, r5, r6, pc}
10005c9a:	78e1      	ldrb	r1, [r4, #3]
10005c9c:	2000      	movs	r0, #0
10005c9e:	f7ff fb97 	bl	100053d0 <usbd_edpt_claim>
10005ca2:	2800      	cmp	r0, #0
10005ca4:	d0f8      	beq.n	10005c98 <_prep_out_transaction+0x14>
10005ca6:	0028      	movs	r0, r5
10005ca8:	f000 fe62 	bl	10006970 <tu_fifo_remaining>
10005cac:	283f      	cmp	r0, #63	; 0x3f
10005cae:	d908      	bls.n	10005cc2 <_prep_out_transaction+0x3e>
10005cb0:	2392      	movs	r3, #146	; 0x92
10005cb2:	009b      	lsls	r3, r3, #2
10005cb4:	18e2      	adds	r2, r4, r3
10005cb6:	78e1      	ldrb	r1, [r4, #3]
10005cb8:	2340      	movs	r3, #64	; 0x40
10005cba:	2000      	movs	r0, #0
10005cbc:	f7ff fbb0 	bl	10005420 <usbd_edpt_xfer>
10005cc0:	e7ea      	b.n	10005c98 <_prep_out_transaction+0x14>
10005cc2:	78e1      	ldrb	r1, [r4, #3]
10005cc4:	2000      	movs	r0, #0
10005cc6:	f7ff fb97 	bl	100053f8 <usbd_edpt_release>
10005cca:	2000      	movs	r0, #0
10005ccc:	e7e4      	b.n	10005c98 <_prep_out_transaction+0x14>
	...

10005cd0 <tud_cdc_n_connected>:
10005cd0:	b510      	push	{r4, lr}
10005cd2:	0004      	movs	r4, r0
10005cd4:	f7ff fa9a 	bl	1000520c <tud_mounted>
10005cd8:	2800      	cmp	r0, #0
10005cda:	d10c      	bne.n	10005cf6 <tud_cdc_n_connected+0x26>
10005cdc:	2200      	movs	r2, #0
10005cde:	2a00      	cmp	r2, #0
10005ce0:	d011      	beq.n	10005d06 <tud_cdc_n_connected+0x36>
10005ce2:	23b2      	movs	r3, #178	; 0xb2
10005ce4:	009b      	lsls	r3, r3, #2
10005ce6:	4363      	muls	r3, r4
10005ce8:	4809      	ldr	r0, [pc, #36]	; (10005d10 <tud_cdc_n_connected+0x40>)
10005cea:	18c0      	adds	r0, r0, r3
10005cec:	7903      	ldrb	r3, [r0, #4]
10005cee:	07db      	lsls	r3, r3, #31
10005cf0:	d50b      	bpl.n	10005d0a <tud_cdc_n_connected+0x3a>
10005cf2:	2001      	movs	r0, #1
10005cf4:	e008      	b.n	10005d08 <tud_cdc_n_connected+0x38>
10005cf6:	f7ff fa91 	bl	1000521c <tud_suspended>
10005cfa:	2800      	cmp	r0, #0
10005cfc:	d101      	bne.n	10005d02 <tud_cdc_n_connected+0x32>
10005cfe:	2201      	movs	r2, #1
10005d00:	e7ed      	b.n	10005cde <tud_cdc_n_connected+0xe>
10005d02:	2200      	movs	r2, #0
10005d04:	e7eb      	b.n	10005cde <tud_cdc_n_connected+0xe>
10005d06:	2000      	movs	r0, #0
10005d08:	bd10      	pop	{r4, pc}
10005d0a:	2000      	movs	r0, #0
10005d0c:	e7fc      	b.n	10005d08 <tud_cdc_n_connected+0x38>
10005d0e:	46c0      	nop			; (mov r8, r8)
10005d10:	20000df0 	.word	0x20000df0

10005d14 <tud_cdc_n_available>:
10005d14:	b510      	push	{r4, lr}
10005d16:	23b2      	movs	r3, #178	; 0xb2
10005d18:	009b      	lsls	r3, r3, #2
10005d1a:	4358      	muls	r0, r3
10005d1c:	3010      	adds	r0, #16
10005d1e:	4b02      	ldr	r3, [pc, #8]	; (10005d28 <tud_cdc_n_available+0x14>)
10005d20:	18c0      	adds	r0, r0, r3
10005d22:	f000 fdf4 	bl	1000690e <tu_fifo_count>
10005d26:	bd10      	pop	{r4, pc}
10005d28:	20000df0 	.word	0x20000df0

10005d2c <tud_cdc_n_read>:
10005d2c:	b570      	push	{r4, r5, r6, lr}
10005d2e:	23b2      	movs	r3, #178	; 0xb2
10005d30:	009b      	lsls	r3, r3, #2
10005d32:	4358      	muls	r0, r3
10005d34:	4b06      	ldr	r3, [pc, #24]	; (10005d50 <tud_cdc_n_read+0x24>)
10005d36:	18c5      	adds	r5, r0, r3
10005d38:	b292      	uxth	r2, r2
10005d3a:	3010      	adds	r0, #16
10005d3c:	18c0      	adds	r0, r0, r3
10005d3e:	f000 fe4e 	bl	100069de <tu_fifo_read_n>
10005d42:	0004      	movs	r4, r0
10005d44:	0028      	movs	r0, r5
10005d46:	f7ff ff9d 	bl	10005c84 <_prep_out_transaction>
10005d4a:	0020      	movs	r0, r4
10005d4c:	bd70      	pop	{r4, r5, r6, pc}
10005d4e:	46c0      	nop			; (mov r8, r8)
10005d50:	20000df0 	.word	0x20000df0

10005d54 <tud_cdc_n_write_flush>:
10005d54:	b570      	push	{r4, r5, r6, lr}
10005d56:	0005      	movs	r5, r0
10005d58:	f7ff fa58 	bl	1000520c <tud_mounted>
10005d5c:	2800      	cmp	r0, #0
10005d5e:	d104      	bne.n	10005d6a <tud_cdc_n_write_flush+0x16>
10005d60:	2300      	movs	r3, #0
10005d62:	2b00      	cmp	r3, #0
10005d64:	d109      	bne.n	10005d7a <tud_cdc_n_write_flush+0x26>
10005d66:	2000      	movs	r0, #0
10005d68:	bd70      	pop	{r4, r5, r6, pc}
10005d6a:	f7ff fa57 	bl	1000521c <tud_suspended>
10005d6e:	2800      	cmp	r0, #0
10005d70:	d101      	bne.n	10005d76 <tud_cdc_n_write_flush+0x22>
10005d72:	2301      	movs	r3, #1
10005d74:	e7f5      	b.n	10005d62 <tud_cdc_n_write_flush+0xe>
10005d76:	2300      	movs	r3, #0
10005d78:	e7f3      	b.n	10005d62 <tud_cdc_n_write_flush+0xe>
10005d7a:	24b2      	movs	r4, #178	; 0xb2
10005d7c:	00a4      	lsls	r4, r4, #2
10005d7e:	436c      	muls	r4, r5
10005d80:	3420      	adds	r4, #32
10005d82:	4b21      	ldr	r3, [pc, #132]	; (10005e08 <tud_cdc_n_write_flush+0xb4>)
10005d84:	18e4      	adds	r4, r4, r3
10005d86:	3404      	adds	r4, #4
10005d88:	0020      	movs	r0, r4
10005d8a:	f000 fdc0 	bl	1000690e <tu_fifo_count>
10005d8e:	2800      	cmp	r0, #0
10005d90:	d101      	bne.n	10005d96 <tud_cdc_n_write_flush+0x42>
10005d92:	2000      	movs	r0, #0
10005d94:	e7e8      	b.n	10005d68 <tud_cdc_n_write_flush+0x14>
10005d96:	22b2      	movs	r2, #178	; 0xb2
10005d98:	0092      	lsls	r2, r2, #2
10005d9a:	436a      	muls	r2, r5
10005d9c:	4b1a      	ldr	r3, [pc, #104]	; (10005e08 <tud_cdc_n_write_flush+0xb4>)
10005d9e:	189b      	adds	r3, r3, r2
10005da0:	7899      	ldrb	r1, [r3, #2]
10005da2:	2000      	movs	r0, #0
10005da4:	f7ff fb14 	bl	100053d0 <usbd_edpt_claim>
10005da8:	2800      	cmp	r0, #0
10005daa:	d101      	bne.n	10005db0 <tud_cdc_n_write_flush+0x5c>
10005dac:	2000      	movs	r0, #0
10005dae:	e7db      	b.n	10005d68 <tud_cdc_n_write_flush+0x14>
10005db0:	26b2      	movs	r6, #178	; 0xb2
10005db2:	00b6      	lsls	r6, r6, #2
10005db4:	436e      	muls	r6, r5
10005db6:	23a2      	movs	r3, #162	; 0xa2
10005db8:	009b      	lsls	r3, r3, #2
10005dba:	469c      	mov	ip, r3
10005dbc:	4466      	add	r6, ip
10005dbe:	4b12      	ldr	r3, [pc, #72]	; (10005e08 <tud_cdc_n_write_flush+0xb4>)
10005dc0:	18f6      	adds	r6, r6, r3
10005dc2:	2240      	movs	r2, #64	; 0x40
10005dc4:	0031      	movs	r1, r6
10005dc6:	0020      	movs	r0, r4
10005dc8:	f000 fe09 	bl	100069de <tu_fifo_read_n>
10005dcc:	1e04      	subs	r4, r0, #0
10005dce:	d00e      	beq.n	10005dee <tud_cdc_n_write_flush+0x9a>
10005dd0:	20b2      	movs	r0, #178	; 0xb2
10005dd2:	0080      	lsls	r0, r0, #2
10005dd4:	4368      	muls	r0, r5
10005dd6:	4d0c      	ldr	r5, [pc, #48]	; (10005e08 <tud_cdc_n_write_flush+0xb4>)
10005dd8:	182d      	adds	r5, r5, r0
10005dda:	78a9      	ldrb	r1, [r5, #2]
10005ddc:	0023      	movs	r3, r4
10005dde:	0032      	movs	r2, r6
10005de0:	2000      	movs	r0, #0
10005de2:	f7ff fb1d 	bl	10005420 <usbd_edpt_xfer>
10005de6:	2800      	cmp	r0, #0
10005de8:	d00c      	beq.n	10005e04 <tud_cdc_n_write_flush+0xb0>
10005dea:	0020      	movs	r0, r4
10005dec:	e7bc      	b.n	10005d68 <tud_cdc_n_write_flush+0x14>
10005dee:	20b2      	movs	r0, #178	; 0xb2
10005df0:	0080      	lsls	r0, r0, #2
10005df2:	4368      	muls	r0, r5
10005df4:	4d04      	ldr	r5, [pc, #16]	; (10005e08 <tud_cdc_n_write_flush+0xb4>)
10005df6:	182d      	adds	r5, r5, r0
10005df8:	78a9      	ldrb	r1, [r5, #2]
10005dfa:	2000      	movs	r0, #0
10005dfc:	f7ff fafc 	bl	100053f8 <usbd_edpt_release>
10005e00:	2000      	movs	r0, #0
10005e02:	e7b1      	b.n	10005d68 <tud_cdc_n_write_flush+0x14>
10005e04:	2000      	movs	r0, #0
10005e06:	e7af      	b.n	10005d68 <tud_cdc_n_write_flush+0x14>
10005e08:	20000df0 	.word	0x20000df0

10005e0c <tud_cdc_n_write>:
10005e0c:	b570      	push	{r4, r5, r6, lr}
10005e0e:	0005      	movs	r5, r0
10005e10:	24b2      	movs	r4, #178	; 0xb2
10005e12:	00a4      	lsls	r4, r4, #2
10005e14:	4344      	muls	r4, r0
10005e16:	3420      	adds	r4, #32
10005e18:	4b09      	ldr	r3, [pc, #36]	; (10005e40 <tud_cdc_n_write+0x34>)
10005e1a:	18e4      	adds	r4, r4, r3
10005e1c:	3404      	adds	r4, #4
10005e1e:	b292      	uxth	r2, r2
10005e20:	0020      	movs	r0, r4
10005e22:	f000 fe13 	bl	10006a4c <tu_fifo_write_n>
10005e26:	0006      	movs	r6, r0
10005e28:	0020      	movs	r0, r4
10005e2a:	f000 fd70 	bl	1000690e <tu_fifo_count>
10005e2e:	283f      	cmp	r0, #63	; 0x3f
10005e30:	d801      	bhi.n	10005e36 <tud_cdc_n_write+0x2a>
10005e32:	0030      	movs	r0, r6
10005e34:	bd70      	pop	{r4, r5, r6, pc}
10005e36:	0028      	movs	r0, r5
10005e38:	f7ff ff8c 	bl	10005d54 <tud_cdc_n_write_flush>
10005e3c:	e7f9      	b.n	10005e32 <tud_cdc_n_write+0x26>
10005e3e:	46c0      	nop			; (mov r8, r8)
10005e40:	20000df0 	.word	0x20000df0

10005e44 <tud_cdc_n_write_available>:
10005e44:	b510      	push	{r4, lr}
10005e46:	23b2      	movs	r3, #178	; 0xb2
10005e48:	009b      	lsls	r3, r3, #2
10005e4a:	4358      	muls	r0, r3
10005e4c:	3020      	adds	r0, #32
10005e4e:	4b03      	ldr	r3, [pc, #12]	; (10005e5c <tud_cdc_n_write_available+0x18>)
10005e50:	18c0      	adds	r0, r0, r3
10005e52:	3004      	adds	r0, #4
10005e54:	f000 fd8c 	bl	10006970 <tu_fifo_remaining>
10005e58:	bd10      	pop	{r4, pc}
10005e5a:	46c0      	nop			; (mov r8, r8)
10005e5c:	20000df0 	.word	0x20000df0

10005e60 <cdcd_init>:
10005e60:	b5f0      	push	{r4, r5, r6, r7, lr}
10005e62:	46ce      	mov	lr, r9
10005e64:	4647      	mov	r7, r8
10005e66:	b580      	push	{r7, lr}
10005e68:	b083      	sub	sp, #12
10005e6a:	22b2      	movs	r2, #178	; 0xb2
10005e6c:	0092      	lsls	r2, r2, #2
10005e6e:	2100      	movs	r1, #0
10005e70:	4828      	ldr	r0, [pc, #160]	; (10005f14 <cdcd_init+0xb4>)
10005e72:	f7fe f8b9 	bl	10003fe8 <__wrap_memset>
10005e76:	2600      	movs	r6, #0
10005e78:	2e00      	cmp	r6, #0
10005e7a:	d004      	beq.n	10005e86 <cdcd_init+0x26>
10005e7c:	b003      	add	sp, #12
10005e7e:	bcc0      	pop	{r6, r7}
10005e80:	46b9      	mov	r9, r7
10005e82:	46b0      	mov	r8, r6
10005e84:	bdf0      	pop	{r4, r5, r6, r7, pc}
10005e86:	4f23      	ldr	r7, [pc, #140]	; (10005f14 <cdcd_init+0xb4>)
10005e88:	24b2      	movs	r4, #178	; 0xb2
10005e8a:	00a4      	lsls	r4, r4, #2
10005e8c:	4374      	muls	r4, r6
10005e8e:	193d      	adds	r5, r7, r4
10005e90:	23ff      	movs	r3, #255	; 0xff
10005e92:	716b      	strb	r3, [r5, #5]
10005e94:	2300      	movs	r3, #0
10005e96:	4698      	mov	r8, r3
10005e98:	4a1f      	ldr	r2, [pc, #124]	; (10005f18 <cdcd_init+0xb8>)
10005e9a:	80ea      	strh	r2, [r5, #6]
10005e9c:	2201      	movs	r2, #1
10005e9e:	812a      	strh	r2, [r5, #8]
10005ea0:	72ab      	strb	r3, [r5, #10]
10005ea2:	72eb      	strb	r3, [r5, #11]
10005ea4:	2308      	movs	r3, #8
10005ea6:	732b      	strb	r3, [r5, #12]
10005ea8:	0021      	movs	r1, r4
10005eaa:	3138      	adds	r1, #56	; 0x38
10005eac:	19c9      	adds	r1, r1, r7
10005eae:	33f8      	adds	r3, #248	; 0xf8
10005eb0:	4699      	mov	r9, r3
10005eb2:	0020      	movs	r0, r4
10005eb4:	3010      	adds	r0, #16
10005eb6:	19c0      	adds	r0, r0, r7
10005eb8:	4643      	mov	r3, r8
10005eba:	9300      	str	r3, [sp, #0]
10005ebc:	3301      	adds	r3, #1
10005ebe:	464a      	mov	r2, r9
10005ec0:	f000 fce7 	bl	10006892 <tu_fifo_config>
10005ec4:	0021      	movs	r1, r4
10005ec6:	3139      	adds	r1, #57	; 0x39
10005ec8:	31ff      	adds	r1, #255	; 0xff
10005eca:	19c9      	adds	r1, r1, r7
10005ecc:	0020      	movs	r0, r4
10005ece:	3020      	adds	r0, #32
10005ed0:	19c0      	adds	r0, r0, r7
10005ed2:	3004      	adds	r0, #4
10005ed4:	2301      	movs	r3, #1
10005ed6:	9300      	str	r3, [sp, #0]
10005ed8:	464a      	mov	r2, r9
10005eda:	f000 fcda 	bl	10006892 <tu_fifo_config>
10005ede:	238e      	movs	r3, #142	; 0x8e
10005ee0:	009b      	lsls	r3, r3, #2
10005ee2:	18e3      	adds	r3, r4, r3
10005ee4:	4699      	mov	r9, r3
10005ee6:	44b9      	add	r9, r7
10005ee8:	4648      	mov	r0, r9
10005eea:	f7fa fe63 	bl	10000bb4 <mutex_init>
10005eee:	4643      	mov	r3, r8
10005ef0:	61eb      	str	r3, [r5, #28]
10005ef2:	464b      	mov	r3, r9
10005ef4:	622b      	str	r3, [r5, #32]
10005ef6:	2390      	movs	r3, #144	; 0x90
10005ef8:	009b      	lsls	r3, r3, #2
10005efa:	469c      	mov	ip, r3
10005efc:	4464      	add	r4, ip
10005efe:	19e4      	adds	r4, r4, r7
10005f00:	0020      	movs	r0, r4
10005f02:	f7fa fe57 	bl	10000bb4 <mutex_init>
10005f06:	632c      	str	r4, [r5, #48]	; 0x30
10005f08:	4643      	mov	r3, r8
10005f0a:	636b      	str	r3, [r5, #52]	; 0x34
10005f0c:	3601      	adds	r6, #1
10005f0e:	b2f6      	uxtb	r6, r6
10005f10:	e7b2      	b.n	10005e78 <cdcd_init+0x18>
10005f12:	46c0      	nop			; (mov r8, r8)
10005f14:	20000df0 	.word	0x20000df0
10005f18:	ffffc200 	.word	0xffffc200

10005f1c <cdcd_reset>:
10005f1c:	b570      	push	{r4, r5, r6, lr}
10005f1e:	2500      	movs	r5, #0
10005f20:	2d00      	cmp	r5, #0
10005f22:	d000      	beq.n	10005f26 <cdcd_reset+0xa>
10005f24:	bd70      	pop	{r4, r5, r6, pc}
10005f26:	24b2      	movs	r4, #178	; 0xb2
10005f28:	00a4      	lsls	r4, r4, #2
10005f2a:	436c      	muls	r4, r5
10005f2c:	4e0b      	ldr	r6, [pc, #44]	; (10005f5c <cdcd_reset+0x40>)
10005f2e:	19a0      	adds	r0, r4, r6
10005f30:	2205      	movs	r2, #5
10005f32:	2100      	movs	r1, #0
10005f34:	f7fe f858 	bl	10003fe8 <__wrap_memset>
10005f38:	0020      	movs	r0, r4
10005f3a:	3010      	adds	r0, #16
10005f3c:	1980      	adds	r0, r0, r6
10005f3e:	f000 fd8a 	bl	10006a56 <tu_fifo_clear>
10005f42:	3420      	adds	r4, #32
10005f44:	19a4      	adds	r4, r4, r6
10005f46:	3404      	adds	r4, #4
10005f48:	0020      	movs	r0, r4
10005f4a:	f000 fd84 	bl	10006a56 <tu_fifo_clear>
10005f4e:	2101      	movs	r1, #1
10005f50:	0020      	movs	r0, r4
10005f52:	f000 fd9f 	bl	10006a94 <tu_fifo_set_overwritable>
10005f56:	3501      	adds	r5, #1
10005f58:	b2ed      	uxtb	r5, r5
10005f5a:	e7e1      	b.n	10005f20 <cdcd_reset+0x4>
10005f5c:	20000df0 	.word	0x20000df0

10005f60 <cdcd_open>:
10005f60:	b5f0      	push	{r4, r5, r6, r7, lr}
10005f62:	b083      	sub	sp, #12
10005f64:	0006      	movs	r6, r0
10005f66:	794b      	ldrb	r3, [r1, #5]
10005f68:	2b02      	cmp	r3, #2
10005f6a:	d150      	bne.n	1000600e <cdcd_open+0xae>
10005f6c:	798b      	ldrb	r3, [r1, #6]
10005f6e:	2b02      	cmp	r3, #2
10005f70:	d151      	bne.n	10006016 <cdcd_open+0xb6>
10005f72:	2300      	movs	r3, #0
10005f74:	2b00      	cmp	r3, #0
10005f76:	d008      	beq.n	10005f8a <cdcd_open+0x2a>
10005f78:	2700      	movs	r7, #0
10005f7a:	2f00      	cmp	r7, #0
10005f7c:	d04d      	beq.n	1000601a <cdcd_open+0xba>
10005f7e:	788b      	ldrb	r3, [r1, #2]
10005f80:	703b      	strb	r3, [r7, #0]
10005f82:	780c      	ldrb	r4, [r1, #0]
10005f84:	190c      	adds	r4, r1, r4
10005f86:	2509      	movs	r5, #9
10005f88:	e011      	b.n	10005fae <cdcd_open+0x4e>
10005f8a:	24b2      	movs	r4, #178	; 0xb2
10005f8c:	00a4      	lsls	r4, r4, #2
10005f8e:	435c      	muls	r4, r3
10005f90:	4825      	ldr	r0, [pc, #148]	; (10006028 <cdcd_open+0xc8>)
10005f92:	1900      	adds	r0, r0, r4
10005f94:	7880      	ldrb	r0, [r0, #2]
10005f96:	2800      	cmp	r0, #0
10005f98:	d002      	beq.n	10005fa0 <cdcd_open+0x40>
10005f9a:	3301      	adds	r3, #1
10005f9c:	b2db      	uxtb	r3, r3
10005f9e:	e7e9      	b.n	10005f74 <cdcd_open+0x14>
10005fa0:	4f21      	ldr	r7, [pc, #132]	; (10006028 <cdcd_open+0xc8>)
10005fa2:	19e7      	adds	r7, r4, r7
10005fa4:	e7e9      	b.n	10005f7a <cdcd_open+0x1a>
10005fa6:	7821      	ldrb	r1, [r4, #0]
10005fa8:	194d      	adds	r5, r1, r5
10005faa:	b2ad      	uxth	r5, r5
10005fac:	1864      	adds	r4, r4, r1
10005fae:	7863      	ldrb	r3, [r4, #1]
10005fb0:	2b24      	cmp	r3, #36	; 0x24
10005fb2:	d101      	bne.n	10005fb8 <cdcd_open+0x58>
10005fb4:	4295      	cmp	r5, r2
10005fb6:	d9f6      	bls.n	10005fa6 <cdcd_open+0x46>
10005fb8:	2b05      	cmp	r3, #5
10005fba:	d009      	beq.n	10005fd0 <cdcd_open+0x70>
10005fbc:	7863      	ldrb	r3, [r4, #1]
10005fbe:	2b04      	cmp	r3, #4
10005fc0:	d102      	bne.n	10005fc8 <cdcd_open+0x68>
10005fc2:	7963      	ldrb	r3, [r4, #5]
10005fc4:	2b0a      	cmp	r3, #10
10005fc6:	d010      	beq.n	10005fea <cdcd_open+0x8a>
10005fc8:	0038      	movs	r0, r7
10005fca:	f7ff fe5b 	bl	10005c84 <_prep_out_transaction>
10005fce:	e01f      	b.n	10006010 <cdcd_open+0xb0>
10005fd0:	0021      	movs	r1, r4
10005fd2:	0030      	movs	r0, r6
10005fd4:	f7ff f9b0 	bl	10005338 <usbd_edpt_open>
10005fd8:	2800      	cmp	r0, #0
10005fda:	d020      	beq.n	1000601e <cdcd_open+0xbe>
10005fdc:	78a3      	ldrb	r3, [r4, #2]
10005fde:	707b      	strb	r3, [r7, #1]
10005fe0:	7822      	ldrb	r2, [r4, #0]
10005fe2:	1955      	adds	r5, r2, r5
10005fe4:	b2ad      	uxth	r5, r5
10005fe6:	18a4      	adds	r4, r4, r2
10005fe8:	e7e8      	b.n	10005fbc <cdcd_open+0x5c>
10005fea:	7821      	ldrb	r1, [r4, #0]
10005fec:	194d      	adds	r5, r1, r5
10005fee:	b2ad      	uxth	r5, r5
10005ff0:	1861      	adds	r1, r4, r1
10005ff2:	1cbb      	adds	r3, r7, #2
10005ff4:	9301      	str	r3, [sp, #4]
10005ff6:	1cfb      	adds	r3, r7, #3
10005ff8:	9300      	str	r3, [sp, #0]
10005ffa:	2302      	movs	r3, #2
10005ffc:	2202      	movs	r2, #2
10005ffe:	0030      	movs	r0, r6
10006000:	f7ff f9b4 	bl	1000536c <usbd_open_edpt_pair>
10006004:	2800      	cmp	r0, #0
10006006:	d00c      	beq.n	10006022 <cdcd_open+0xc2>
10006008:	350e      	adds	r5, #14
1000600a:	b2ad      	uxth	r5, r5
1000600c:	e7dc      	b.n	10005fc8 <cdcd_open+0x68>
1000600e:	2500      	movs	r5, #0
10006010:	0028      	movs	r0, r5
10006012:	b003      	add	sp, #12
10006014:	bdf0      	pop	{r4, r5, r6, r7, pc}
10006016:	2500      	movs	r5, #0
10006018:	e7fa      	b.n	10006010 <cdcd_open+0xb0>
1000601a:	2500      	movs	r5, #0
1000601c:	e7f8      	b.n	10006010 <cdcd_open+0xb0>
1000601e:	2500      	movs	r5, #0
10006020:	e7f6      	b.n	10006010 <cdcd_open+0xb0>
10006022:	2500      	movs	r5, #0
10006024:	e7f4      	b.n	10006010 <cdcd_open+0xb0>
10006026:	46c0      	nop			; (mov r8, r8)
10006028:	20000df0 	.word	0x20000df0

1000602c <cdcd_control_xfer_cb>:
1000602c:	b5f8      	push	{r3, r4, r5, r6, r7, lr}
1000602e:	0014      	movs	r4, r2
10006030:	7812      	ldrb	r2, [r2, #0]
10006032:	2360      	movs	r3, #96	; 0x60
10006034:	4013      	ands	r3, r2
10006036:	2b20      	cmp	r3, #32
10006038:	d000      	beq.n	1000603c <cdcd_control_xfer_cb+0x10>
1000603a:	e07f      	b.n	1000613c <cdcd_control_xfer_cb+0x110>
1000603c:	4a44      	ldr	r2, [pc, #272]	; (10006150 <cdcd_control_xfer_cb+0x124>)
1000603e:	2500      	movs	r5, #0
10006040:	2d00      	cmp	r5, #0
10006042:	d000      	beq.n	10006046 <cdcd_control_xfer_cb+0x1a>
10006044:	e07c      	b.n	10006140 <cdcd_control_xfer_cb+0x114>
10006046:	7816      	ldrb	r6, [r2, #0]
10006048:	7927      	ldrb	r7, [r4, #4]
1000604a:	7963      	ldrb	r3, [r4, #5]
1000604c:	021b      	lsls	r3, r3, #8
1000604e:	433b      	orrs	r3, r7
10006050:	429e      	cmp	r6, r3
10006052:	d006      	beq.n	10006062 <cdcd_control_xfer_cb+0x36>
10006054:	3501      	adds	r5, #1
10006056:	b2ed      	uxtb	r5, r5
10006058:	23b2      	movs	r3, #178	; 0xb2
1000605a:	009b      	lsls	r3, r3, #2
1000605c:	469c      	mov	ip, r3
1000605e:	4462      	add	r2, ip
10006060:	e7ee      	b.n	10006040 <cdcd_control_xfer_cb+0x14>
10006062:	7863      	ldrb	r3, [r4, #1]
10006064:	2b22      	cmp	r3, #34	; 0x22
10006066:	d031      	beq.n	100060cc <cdcd_control_xfer_cb+0xa0>
10006068:	d809      	bhi.n	1000607e <cdcd_control_xfer_cb+0x52>
1000606a:	2b20      	cmp	r3, #32
1000606c:	d011      	beq.n	10006092 <cdcd_control_xfer_cb+0x66>
1000606e:	2b21      	cmp	r3, #33	; 0x21
10006070:	d103      	bne.n	1000607a <cdcd_control_xfer_cb+0x4e>
10006072:	2901      	cmp	r1, #1
10006074:	d023      	beq.n	100060be <cdcd_control_xfer_cb+0x92>
10006076:	2001      	movs	r0, #1
10006078:	e061      	b.n	1000613e <cdcd_control_xfer_cb+0x112>
1000607a:	2000      	movs	r0, #0
1000607c:	e05f      	b.n	1000613e <cdcd_control_xfer_cb+0x112>
1000607e:	2b23      	cmp	r3, #35	; 0x23
10006080:	d105      	bne.n	1000608e <cdcd_control_xfer_cb+0x62>
10006082:	2901      	cmp	r1, #1
10006084:	d049      	beq.n	1000611a <cdcd_control_xfer_cb+0xee>
10006086:	2903      	cmp	r1, #3
10006088:	d04c      	beq.n	10006124 <cdcd_control_xfer_cb+0xf8>
1000608a:	2001      	movs	r0, #1
1000608c:	e057      	b.n	1000613e <cdcd_control_xfer_cb+0x112>
1000608e:	2000      	movs	r0, #0
10006090:	e055      	b.n	1000613e <cdcd_control_xfer_cb+0x112>
10006092:	2901      	cmp	r1, #1
10006094:	d003      	beq.n	1000609e <cdcd_control_xfer_cb+0x72>
10006096:	2903      	cmp	r1, #3
10006098:	d008      	beq.n	100060ac <cdcd_control_xfer_cb+0x80>
1000609a:	2001      	movs	r0, #1
1000609c:	e04f      	b.n	1000613e <cdcd_control_xfer_cb+0x112>
1000609e:	3206      	adds	r2, #6
100060a0:	2307      	movs	r3, #7
100060a2:	0021      	movs	r1, r4
100060a4:	f7ff fd30 	bl	10005b08 <tud_control_xfer>
100060a8:	2001      	movs	r0, #1
100060aa:	e048      	b.n	1000613e <cdcd_control_xfer_cb+0x112>
100060ac:	4b29      	ldr	r3, [pc, #164]	; (10006154 <cdcd_control_xfer_cb+0x128>)
100060ae:	2b00      	cmp	r3, #0
100060b0:	d048      	beq.n	10006144 <cdcd_control_xfer_cb+0x118>
100060b2:	1d91      	adds	r1, r2, #6
100060b4:	0028      	movs	r0, r5
100060b6:	f7fe fa77 	bl	100045a8 <tud_cdc_line_coding_cb>
100060ba:	2001      	movs	r0, #1
100060bc:	e03f      	b.n	1000613e <cdcd_control_xfer_cb+0x112>
100060be:	3206      	adds	r2, #6
100060c0:	2307      	movs	r3, #7
100060c2:	0021      	movs	r1, r4
100060c4:	f7ff fd20 	bl	10005b08 <tud_control_xfer>
100060c8:	2001      	movs	r0, #1
100060ca:	e038      	b.n	1000613e <cdcd_control_xfer_cb+0x112>
100060cc:	2901      	cmp	r1, #1
100060ce:	d003      	beq.n	100060d8 <cdcd_control_xfer_cb+0xac>
100060d0:	2903      	cmp	r1, #3
100060d2:	d006      	beq.n	100060e2 <cdcd_control_xfer_cb+0xb6>
100060d4:	2001      	movs	r0, #1
100060d6:	e032      	b.n	1000613e <cdcd_control_xfer_cb+0x112>
100060d8:	0021      	movs	r1, r4
100060da:	f7ff fcf9 	bl	10005ad0 <tud_control_status>
100060de:	2001      	movs	r0, #1
100060e0:	e02d      	b.n	1000613e <cdcd_control_xfer_cb+0x112>
100060e2:	78a1      	ldrb	r1, [r4, #2]
100060e4:	78e3      	ldrb	r3, [r4, #3]
100060e6:	021b      	lsls	r3, r3, #8
100060e8:	430b      	orrs	r3, r1
100060ea:	2001      	movs	r0, #1
100060ec:	0019      	movs	r1, r3
100060ee:	4001      	ands	r1, r0
100060f0:	000e      	movs	r6, r1
100060f2:	085c      	lsrs	r4, r3, #1
100060f4:	4004      	ands	r4, r0
100060f6:	7113      	strb	r3, [r2, #4]
100060f8:	424b      	negs	r3, r1
100060fa:	4159      	adcs	r1, r3
100060fc:	b2c9      	uxtb	r1, r1
100060fe:	3224      	adds	r2, #36	; 0x24
10006100:	0010      	movs	r0, r2
10006102:	f000 fcc7 	bl	10006a94 <tu_fifo_set_overwritable>
10006106:	4b14      	ldr	r3, [pc, #80]	; (10006158 <cdcd_control_xfer_cb+0x12c>)
10006108:	2b00      	cmp	r3, #0
1000610a:	d01d      	beq.n	10006148 <cdcd_control_xfer_cb+0x11c>
1000610c:	0022      	movs	r2, r4
1000610e:	0031      	movs	r1, r6
10006110:	0028      	movs	r0, r5
10006112:	e000      	b.n	10006116 <cdcd_control_xfer_cb+0xea>
10006114:	bf00      	nop
10006116:	2001      	movs	r0, #1
10006118:	e011      	b.n	1000613e <cdcd_control_xfer_cb+0x112>
1000611a:	0021      	movs	r1, r4
1000611c:	f7ff fcd8 	bl	10005ad0 <tud_control_status>
10006120:	2001      	movs	r0, #1
10006122:	e00c      	b.n	1000613e <cdcd_control_xfer_cb+0x112>
10006124:	4b0d      	ldr	r3, [pc, #52]	; (1000615c <cdcd_control_xfer_cb+0x130>)
10006126:	2b00      	cmp	r3, #0
10006128:	d010      	beq.n	1000614c <cdcd_control_xfer_cb+0x120>
1000612a:	78a3      	ldrb	r3, [r4, #2]
1000612c:	78e1      	ldrb	r1, [r4, #3]
1000612e:	0209      	lsls	r1, r1, #8
10006130:	4319      	orrs	r1, r3
10006132:	0028      	movs	r0, r5
10006134:	e000      	b.n	10006138 <cdcd_control_xfer_cb+0x10c>
10006136:	bf00      	nop
10006138:	2001      	movs	r0, #1
1000613a:	e000      	b.n	1000613e <cdcd_control_xfer_cb+0x112>
1000613c:	2000      	movs	r0, #0
1000613e:	bdf8      	pop	{r3, r4, r5, r6, r7, pc}
10006140:	2000      	movs	r0, #0
10006142:	e7fc      	b.n	1000613e <cdcd_control_xfer_cb+0x112>
10006144:	2001      	movs	r0, #1
10006146:	e7fa      	b.n	1000613e <cdcd_control_xfer_cb+0x112>
10006148:	2001      	movs	r0, #1
1000614a:	e7f8      	b.n	1000613e <cdcd_control_xfer_cb+0x112>
1000614c:	2001      	movs	r0, #1
1000614e:	e7f6      	b.n	1000613e <cdcd_control_xfer_cb+0x112>
10006150:	20000df0 	.word	0x20000df0
10006154:	100045a9 	.word	0x100045a9
	...

10006160 <cdcd_xfer_cb>:
10006160:	b5f0      	push	{r4, r5, r6, r7, lr}
10006162:	46d6      	mov	lr, sl
10006164:	b500      	push	{lr}
10006166:	b082      	sub	sp, #8
10006168:	9001      	str	r0, [sp, #4]
1000616a:	000f      	movs	r7, r1
1000616c:	9300      	str	r3, [sp, #0]
1000616e:	2400      	movs	r4, #0
10006170:	2c00      	cmp	r4, #0
10006172:	d00e      	beq.n	10006192 <cdcd_xfer_cb+0x32>
10006174:	2c00      	cmp	r4, #0
10006176:	d000      	beq.n	1000617a <cdcd_xfer_cb+0x1a>
10006178:	e07c      	b.n	10006274 <cdcd_xfer_cb+0x114>
1000617a:	78eb      	ldrb	r3, [r5, #3]
1000617c:	42bb      	cmp	r3, r7
1000617e:	d016      	beq.n	100061ae <cdcd_xfer_cb+0x4e>
10006180:	78ab      	ldrb	r3, [r5, #2]
10006182:	42bb      	cmp	r3, r7
10006184:	d04d      	beq.n	10006222 <cdcd_xfer_cb+0xc2>
10006186:	2401      	movs	r4, #1
10006188:	0020      	movs	r0, r4
1000618a:	b002      	add	sp, #8
1000618c:	bc80      	pop	{r7}
1000618e:	46ba      	mov	sl, r7
10006190:	bdf0      	pop	{r4, r5, r6, r7, pc}
10006192:	25b2      	movs	r5, #178	; 0xb2
10006194:	00ad      	lsls	r5, r5, #2
10006196:	4365      	muls	r5, r4
10006198:	4b39      	ldr	r3, [pc, #228]	; (10006280 <cdcd_xfer_cb+0x120>)
1000619a:	18ed      	adds	r5, r5, r3
1000619c:	78eb      	ldrb	r3, [r5, #3]
1000619e:	42bb      	cmp	r3, r7
100061a0:	d0e8      	beq.n	10006174 <cdcd_xfer_cb+0x14>
100061a2:	78ab      	ldrb	r3, [r5, #2]
100061a4:	42bb      	cmp	r3, r7
100061a6:	d0e5      	beq.n	10006174 <cdcd_xfer_cb+0x14>
100061a8:	3401      	adds	r4, #1
100061aa:	b2e4      	uxtb	r4, r4
100061ac:	e7e0      	b.n	10006170 <cdcd_xfer_cb+0x10>
100061ae:	2310      	movs	r3, #16
100061b0:	469a      	mov	sl, r3
100061b2:	44aa      	add	sl, r5
100061b4:	2392      	movs	r3, #146	; 0x92
100061b6:	009b      	lsls	r3, r3, #2
100061b8:	18e9      	adds	r1, r5, r3
100061ba:	466b      	mov	r3, sp
100061bc:	881a      	ldrh	r2, [r3, #0]
100061be:	4650      	mov	r0, sl
100061c0:	f000 fc44 	bl	10006a4c <tu_fifo_write_n>
100061c4:	4b2f      	ldr	r3, [pc, #188]	; (10006284 <cdcd_xfer_cb+0x124>)
100061c6:	2b00      	cmp	r3, #0
100061c8:	d01b      	beq.n	10006202 <cdcd_xfer_cb+0xa2>
100061ca:	796b      	ldrb	r3, [r5, #5]
100061cc:	2bff      	cmp	r3, #255	; 0xff
100061ce:	d018      	beq.n	10006202 <cdcd_xfer_cb+0xa2>
100061d0:	2600      	movs	r6, #0
100061d2:	e000      	b.n	100061d6 <cdcd_xfer_cb+0x76>
100061d4:	3601      	adds	r6, #1
100061d6:	9b00      	ldr	r3, [sp, #0]
100061d8:	429e      	cmp	r6, r3
100061da:	d212      	bcs.n	10006202 <cdcd_xfer_cb+0xa2>
100061dc:	796a      	ldrb	r2, [r5, #5]
100061de:	19ab      	adds	r3, r5, r6
100061e0:	2192      	movs	r1, #146	; 0x92
100061e2:	0089      	lsls	r1, r1, #2
100061e4:	468c      	mov	ip, r1
100061e6:	4463      	add	r3, ip
100061e8:	781b      	ldrb	r3, [r3, #0]
100061ea:	429a      	cmp	r2, r3
100061ec:	d1f2      	bne.n	100061d4 <cdcd_xfer_cb+0x74>
100061ee:	4650      	mov	r0, sl
100061f0:	f000 fba2 	bl	10006938 <tu_fifo_empty>
100061f4:	2800      	cmp	r0, #0
100061f6:	d1ed      	bne.n	100061d4 <cdcd_xfer_cb+0x74>
100061f8:	7969      	ldrb	r1, [r5, #5]
100061fa:	0020      	movs	r0, r4
100061fc:	e000      	b.n	10006200 <cdcd_xfer_cb+0xa0>
100061fe:	bf00      	nop
10006200:	e7e8      	b.n	100061d4 <cdcd_xfer_cb+0x74>
10006202:	4b21      	ldr	r3, [pc, #132]	; (10006288 <cdcd_xfer_cb+0x128>)
10006204:	2b00      	cmp	r3, #0
10006206:	d004      	beq.n	10006212 <cdcd_xfer_cb+0xb2>
10006208:	4650      	mov	r0, sl
1000620a:	f000 fb95 	bl	10006938 <tu_fifo_empty>
1000620e:	2800      	cmp	r0, #0
10006210:	d003      	beq.n	1000621a <cdcd_xfer_cb+0xba>
10006212:	0028      	movs	r0, r5
10006214:	f7ff fd36 	bl	10005c84 <_prep_out_transaction>
10006218:	e7b2      	b.n	10006180 <cdcd_xfer_cb+0x20>
1000621a:	0020      	movs	r0, r4
1000621c:	f7fe fa86 	bl	1000472c <tud_cdc_rx_cb>
10006220:	e7f7      	b.n	10006212 <cdcd_xfer_cb+0xb2>
10006222:	4b1a      	ldr	r3, [pc, #104]	; (1000628c <cdcd_xfer_cb+0x12c>)
10006224:	2b00      	cmp	r3, #0
10006226:	d002      	beq.n	1000622e <cdcd_xfer_cb+0xce>
10006228:	0020      	movs	r0, r4
1000622a:	e000      	b.n	1000622e <cdcd_xfer_cb+0xce>
1000622c:	bf00      	nop
1000622e:	0020      	movs	r0, r4
10006230:	f7ff fd90 	bl	10005d54 <tud_cdc_n_write_flush>
10006234:	2800      	cmp	r0, #0
10006236:	d001      	beq.n	1000623c <cdcd_xfer_cb+0xdc>
10006238:	2401      	movs	r4, #1
1000623a:	e7a5      	b.n	10006188 <cdcd_xfer_cb+0x28>
1000623c:	0028      	movs	r0, r5
1000623e:	3024      	adds	r0, #36	; 0x24
10006240:	f000 fb65 	bl	1000690e <tu_fifo_count>
10006244:	2800      	cmp	r0, #0
10006246:	d117      	bne.n	10006278 <cdcd_xfer_cb+0x118>
10006248:	9b00      	ldr	r3, [sp, #0]
1000624a:	2b00      	cmp	r3, #0
1000624c:	d016      	beq.n	1000627c <cdcd_xfer_cb+0x11c>
1000624e:	069b      	lsls	r3, r3, #26
10006250:	d001      	beq.n	10006256 <cdcd_xfer_cb+0xf6>
10006252:	2401      	movs	r4, #1
10006254:	e798      	b.n	10006188 <cdcd_xfer_cb+0x28>
10006256:	78a9      	ldrb	r1, [r5, #2]
10006258:	9801      	ldr	r0, [sp, #4]
1000625a:	f7ff f8b9 	bl	100053d0 <usbd_edpt_claim>
1000625e:	1e04      	subs	r4, r0, #0
10006260:	d101      	bne.n	10006266 <cdcd_xfer_cb+0x106>
10006262:	2401      	movs	r4, #1
10006264:	e790      	b.n	10006188 <cdcd_xfer_cb+0x28>
10006266:	78a9      	ldrb	r1, [r5, #2]
10006268:	2300      	movs	r3, #0
1000626a:	2200      	movs	r2, #0
1000626c:	9801      	ldr	r0, [sp, #4]
1000626e:	f7ff f8d7 	bl	10005420 <usbd_edpt_xfer>
10006272:	e789      	b.n	10006188 <cdcd_xfer_cb+0x28>
10006274:	2400      	movs	r4, #0
10006276:	e787      	b.n	10006188 <cdcd_xfer_cb+0x28>
10006278:	2401      	movs	r4, #1
1000627a:	e785      	b.n	10006188 <cdcd_xfer_cb+0x28>
1000627c:	2401      	movs	r4, #1
1000627e:	e783      	b.n	10006188 <cdcd_xfer_cb+0x28>
10006280:	20000df0 	.word	0x20000df0
10006284:	00000000 	.word	0x00000000
10006288:	1000472d 	.word	0x1000472d
1000628c:	00000000 	.word	0x00000000

10006290 <tusb_init>:
10006290:	b510      	push	{r4, lr}
10006292:	2000      	movs	r0, #0
10006294:	f7fe ffd4 	bl	10005240 <tud_init>
10006298:	bd10      	pop	{r4, pc}

1000629a <tusb_inited>:
1000629a:	b510      	push	{r4, lr}
1000629c:	f7fe ffc6 	bl	1000522c <tud_inited>
100062a0:	2800      	cmp	r0, #0
100062a2:	d000      	beq.n	100062a6 <tusb_inited+0xc>
100062a4:	2001      	movs	r0, #1
100062a6:	bd10      	pop	{r4, pc}

100062a8 <tu_edpt_claim>:
100062a8:	b570      	push	{r4, r5, r6, lr}
100062aa:	0004      	movs	r4, r0
100062ac:	000d      	movs	r5, r1
100062ae:	7803      	ldrb	r3, [r0, #0]
100062b0:	07db      	lsls	r3, r3, #31
100062b2:	0fde      	lsrs	r6, r3, #31
100062b4:	2b00      	cmp	r3, #0
100062b6:	d11c      	bne.n	100062f2 <tu_edpt_claim+0x4a>
100062b8:	7803      	ldrb	r3, [r0, #0]
100062ba:	075b      	lsls	r3, r3, #29
100062bc:	d41a      	bmi.n	100062f4 <tu_edpt_claim+0x4c>
100062be:	2101      	movs	r1, #1
100062c0:	4249      	negs	r1, r1
100062c2:	0028      	movs	r0, r5
100062c4:	f000 fc6c 	bl	10006ba0 <__mutex_enter_timeout_ms_veneer>
100062c8:	7823      	ldrb	r3, [r4, #0]
100062ca:	07db      	lsls	r3, r3, #31
100062cc:	d404      	bmi.n	100062d8 <tu_edpt_claim+0x30>
100062ce:	7823      	ldrb	r3, [r4, #0]
100062d0:	075b      	lsls	r3, r3, #29
100062d2:	d50c      	bpl.n	100062ee <tu_edpt_claim+0x46>
100062d4:	2600      	movs	r6, #0
100062d6:	e000      	b.n	100062da <tu_edpt_claim+0x32>
100062d8:	2600      	movs	r6, #0
100062da:	2e00      	cmp	r6, #0
100062dc:	d003      	beq.n	100062e6 <tu_edpt_claim+0x3e>
100062de:	7823      	ldrb	r3, [r4, #0]
100062e0:	2204      	movs	r2, #4
100062e2:	4313      	orrs	r3, r2
100062e4:	7023      	strb	r3, [r4, #0]
100062e6:	0028      	movs	r0, r5
100062e8:	f000 fc32 	bl	10006b50 <__mutex_exit_veneer>
100062ec:	e002      	b.n	100062f4 <tu_edpt_claim+0x4c>
100062ee:	2601      	movs	r6, #1
100062f0:	e7f3      	b.n	100062da <tu_edpt_claim+0x32>
100062f2:	2600      	movs	r6, #0
100062f4:	0030      	movs	r0, r6
100062f6:	bd70      	pop	{r4, r5, r6, pc}

100062f8 <tu_edpt_release>:
100062f8:	b570      	push	{r4, r5, r6, lr}
100062fa:	0004      	movs	r4, r0
100062fc:	000e      	movs	r6, r1
100062fe:	2101      	movs	r1, #1
10006300:	4249      	negs	r1, r1
10006302:	0030      	movs	r0, r6
10006304:	f000 fc4c 	bl	10006ba0 <__mutex_enter_timeout_ms_veneer>
10006308:	7823      	ldrb	r3, [r4, #0]
1000630a:	075b      	lsls	r3, r3, #29
1000630c:	d40b      	bmi.n	10006326 <tu_edpt_release+0x2e>
1000630e:	2500      	movs	r5, #0
10006310:	2d00      	cmp	r5, #0
10006312:	d003      	beq.n	1000631c <tu_edpt_release+0x24>
10006314:	7823      	ldrb	r3, [r4, #0]
10006316:	2204      	movs	r2, #4
10006318:	4393      	bics	r3, r2
1000631a:	7023      	strb	r3, [r4, #0]
1000631c:	0030      	movs	r0, r6
1000631e:	f000 fc17 	bl	10006b50 <__mutex_exit_veneer>
10006322:	0028      	movs	r0, r5
10006324:	bd70      	pop	{r4, r5, r6, pc}
10006326:	7823      	ldrb	r3, [r4, #0]
10006328:	07db      	lsls	r3, r3, #31
1000632a:	d501      	bpl.n	10006330 <tu_edpt_release+0x38>
1000632c:	2500      	movs	r5, #0
1000632e:	e7ef      	b.n	10006310 <tu_edpt_release+0x18>
10006330:	2501      	movs	r5, #1
10006332:	e7ed      	b.n	10006310 <tu_edpt_release+0x18>

10006334 <tu_edpt_validate>:
10006334:	b510      	push	{r4, lr}
10006336:	7904      	ldrb	r4, [r0, #4]
10006338:	7943      	ldrb	r3, [r0, #5]
1000633a:	021b      	lsls	r3, r3, #8
1000633c:	4323      	orrs	r3, r4
1000633e:	055b      	lsls	r3, r3, #21
10006340:	0d5b      	lsrs	r3, r3, #21
10006342:	78c2      	ldrb	r2, [r0, #3]
10006344:	0792      	lsls	r2, r2, #30
10006346:	0f92      	lsrs	r2, r2, #30
10006348:	2a02      	cmp	r2, #2
1000634a:	d00f      	beq.n	1000636c <tu_edpt_validate+0x38>
1000634c:	2a03      	cmp	r2, #3
1000634e:	d019      	beq.n	10006384 <tu_edpt_validate+0x50>
10006350:	2a01      	cmp	r2, #1
10006352:	d001      	beq.n	10006358 <tu_edpt_validate+0x24>
10006354:	2000      	movs	r0, #0
10006356:	bd10      	pop	{r4, pc}
10006358:	2902      	cmp	r1, #2
1000635a:	d004      	beq.n	10006366 <tu_edpt_validate+0x32>
1000635c:	4a12      	ldr	r2, [pc, #72]	; (100063a8 <tu_edpt_validate+0x74>)
1000635e:	429a      	cmp	r2, r3
10006360:	d31a      	bcc.n	10006398 <tu_edpt_validate+0x64>
10006362:	2001      	movs	r0, #1
10006364:	e7f7      	b.n	10006356 <tu_edpt_validate+0x22>
10006366:	2280      	movs	r2, #128	; 0x80
10006368:	00d2      	lsls	r2, r2, #3
1000636a:	e7f8      	b.n	1000635e <tu_edpt_validate+0x2a>
1000636c:	2902      	cmp	r1, #2
1000636e:	d003      	beq.n	10006378 <tu_edpt_validate+0x44>
10006370:	2b40      	cmp	r3, #64	; 0x40
10006372:	d815      	bhi.n	100063a0 <tu_edpt_validate+0x6c>
10006374:	2001      	movs	r0, #1
10006376:	e7ee      	b.n	10006356 <tu_edpt_validate+0x22>
10006378:	2280      	movs	r2, #128	; 0x80
1000637a:	0092      	lsls	r2, r2, #2
1000637c:	4293      	cmp	r3, r2
1000637e:	d10d      	bne.n	1000639c <tu_edpt_validate+0x68>
10006380:	2001      	movs	r0, #1
10006382:	e7e8      	b.n	10006356 <tu_edpt_validate+0x22>
10006384:	2902      	cmp	r1, #2
10006386:	d004      	beq.n	10006392 <tu_edpt_validate+0x5e>
10006388:	2240      	movs	r2, #64	; 0x40
1000638a:	429a      	cmp	r2, r3
1000638c:	d30a      	bcc.n	100063a4 <tu_edpt_validate+0x70>
1000638e:	2001      	movs	r0, #1
10006390:	e7e1      	b.n	10006356 <tu_edpt_validate+0x22>
10006392:	2280      	movs	r2, #128	; 0x80
10006394:	00d2      	lsls	r2, r2, #3
10006396:	e7f8      	b.n	1000638a <tu_edpt_validate+0x56>
10006398:	2000      	movs	r0, #0
1000639a:	e7dc      	b.n	10006356 <tu_edpt_validate+0x22>
1000639c:	2000      	movs	r0, #0
1000639e:	e7da      	b.n	10006356 <tu_edpt_validate+0x22>
100063a0:	2000      	movs	r0, #0
100063a2:	e7d8      	b.n	10006356 <tu_edpt_validate+0x22>
100063a4:	2000      	movs	r0, #0
100063a6:	e7d6      	b.n	10006356 <tu_edpt_validate+0x22>
100063a8:	000003ff 	.word	0x000003ff

100063ac <tu_edpt_bind_driver>:
100063ac:	b530      	push	{r4, r5, lr}
100063ae:	188a      	adds	r2, r1, r2
100063b0:	e001      	b.n	100063b6 <tu_edpt_bind_driver+0xa>
100063b2:	780c      	ldrb	r4, [r1, #0]
100063b4:	1909      	adds	r1, r1, r4
100063b6:	4291      	cmp	r1, r2
100063b8:	d20a      	bcs.n	100063d0 <tu_edpt_bind_driver+0x24>
100063ba:	784c      	ldrb	r4, [r1, #1]
100063bc:	2c05      	cmp	r4, #5
100063be:	d1f8      	bne.n	100063b2 <tu_edpt_bind_driver+0x6>
100063c0:	788d      	ldrb	r5, [r1, #2]
100063c2:	347a      	adds	r4, #122	; 0x7a
100063c4:	402c      	ands	r4, r5
100063c6:	0064      	lsls	r4, r4, #1
100063c8:	1904      	adds	r4, r0, r4
100063ca:	09ed      	lsrs	r5, r5, #7
100063cc:	5563      	strb	r3, [r4, r5]
100063ce:	e7f0      	b.n	100063b2 <tu_edpt_bind_driver+0x6>
100063d0:	bd30      	pop	{r4, r5, pc}

100063d2 <advance_index>:
100063d2:	0003      	movs	r3, r0
100063d4:	188a      	adds	r2, r1, r2
100063d6:	b290      	uxth	r0, r2
100063d8:	4281      	cmp	r1, r0
100063da:	d802      	bhi.n	100063e2 <advance_index+0x10>
100063dc:	005a      	lsls	r2, r3, #1
100063de:	4290      	cmp	r0, r2
100063e0:	db03      	blt.n	100063ea <advance_index+0x18>
100063e2:	005b      	lsls	r3, r3, #1
100063e4:	b29b      	uxth	r3, r3
100063e6:	1ac0      	subs	r0, r0, r3
100063e8:	b280      	uxth	r0, r0
100063ea:	4770      	bx	lr

100063ec <_tu_fifo_peek>:
100063ec:	b570      	push	{r4, r5, r6, lr}
100063ee:	0005      	movs	r5, r0
100063f0:	0008      	movs	r0, r1
100063f2:	88ac      	ldrh	r4, [r5, #4]
100063f4:	429a      	cmp	r2, r3
100063f6:	d30b      	bcc.n	10006410 <_tu_fifo_peek+0x24>
100063f8:	1ad1      	subs	r1, r2, r3
100063fa:	b289      	uxth	r1, r1
100063fc:	2900      	cmp	r1, #0
100063fe:	d01e      	beq.n	1000643e <_tu_fifo_peek+0x52>
10006400:	428c      	cmp	r4, r1
10006402:	d210      	bcs.n	10006426 <_tu_fifo_peek+0x3a>
10006404:	4294      	cmp	r4, r2
10006406:	d809      	bhi.n	1000641c <_tu_fifo_peek+0x30>
10006408:	1b13      	subs	r3, r2, r4
1000640a:	b29b      	uxth	r3, r3
1000640c:	816b      	strh	r3, [r5, #10]
1000640e:	e00a      	b.n	10006426 <_tu_fifo_peek+0x3a>
10006410:	1ad1      	subs	r1, r2, r3
10006412:	b289      	uxth	r1, r1
10006414:	0066      	lsls	r6, r4, #1
10006416:	1989      	adds	r1, r1, r6
10006418:	b289      	uxth	r1, r1
1000641a:	e7ef      	b.n	100063fc <_tu_fifo_peek+0x10>
1000641c:	18a2      	adds	r2, r4, r2
1000641e:	b293      	uxth	r3, r2
10006420:	e7f4      	b.n	1000640c <_tu_fifo_peek+0x20>
10006422:	1b1b      	subs	r3, r3, r4
10006424:	b29b      	uxth	r3, r3
10006426:	429c      	cmp	r4, r3
10006428:	d9fb      	bls.n	10006422 <_tu_fifo_peek+0x36>
1000642a:	6829      	ldr	r1, [r5, #0]
1000642c:	88ea      	ldrh	r2, [r5, #6]
1000642e:	0452      	lsls	r2, r2, #17
10006430:	0c52      	lsrs	r2, r2, #17
10006432:	4353      	muls	r3, r2
10006434:	18c9      	adds	r1, r1, r3
10006436:	f7fd fddd 	bl	10003ff4 <__wrap___aeabi_memcpy>
1000643a:	2001      	movs	r0, #1
1000643c:	bd70      	pop	{r4, r5, r6, pc}
1000643e:	2000      	movs	r0, #0
10006440:	e7fc      	b.n	1000643c <_tu_fifo_peek+0x50>

10006442 <_ff_pull_const_addr>:
10006442:	b5f0      	push	{r4, r5, r6, r7, lr}
10006444:	b083      	sub	sp, #12
10006446:	0006      	movs	r6, r0
10006448:	0893      	lsrs	r3, r2, #2
1000644a:	e00c      	b.n	10006466 <_ff_pull_const_addr+0x24>
1000644c:	780b      	ldrb	r3, [r1, #0]
1000644e:	784d      	ldrb	r5, [r1, #1]
10006450:	022d      	lsls	r5, r5, #8
10006452:	431d      	orrs	r5, r3
10006454:	788c      	ldrb	r4, [r1, #2]
10006456:	0424      	lsls	r4, r4, #16
10006458:	4325      	orrs	r5, r4
1000645a:	78cb      	ldrb	r3, [r1, #3]
1000645c:	061b      	lsls	r3, r3, #24
1000645e:	432b      	orrs	r3, r5
10006460:	6033      	str	r3, [r6, #0]
10006462:	3104      	adds	r1, #4
10006464:	003b      	movs	r3, r7
10006466:	1e5f      	subs	r7, r3, #1
10006468:	b2bf      	uxth	r7, r7
1000646a:	2b00      	cmp	r3, #0
1000646c:	d1ee      	bne.n	1000644c <_ff_pull_const_addr+0xa>
1000646e:	3303      	adds	r3, #3
10006470:	0010      	movs	r0, r2
10006472:	4018      	ands	r0, r3
10006474:	421a      	tst	r2, r3
10006476:	d101      	bne.n	1000647c <_ff_pull_const_addr+0x3a>
10006478:	b003      	add	sp, #12
1000647a:	bdf0      	pop	{r4, r5, r6, r7, pc}
1000647c:	2300      	movs	r3, #0
1000647e:	9301      	str	r3, [sp, #4]
10006480:	0002      	movs	r2, r0
10006482:	a801      	add	r0, sp, #4
10006484:	f7fd fdb6 	bl	10003ff4 <__wrap___aeabi_memcpy>
10006488:	9b01      	ldr	r3, [sp, #4]
1000648a:	6033      	str	r3, [r6, #0]
1000648c:	e7f4      	b.n	10006478 <_ff_pull_const_addr+0x36>

1000648e <_ff_pull_n>:
1000648e:	b5f0      	push	{r4, r5, r6, r7, lr}
10006490:	46de      	mov	lr, fp
10006492:	4657      	mov	r7, sl
10006494:	464e      	mov	r6, r9
10006496:	4645      	mov	r5, r8
10006498:	b5e0      	push	{r5, r6, r7, lr}
1000649a:	b083      	sub	sp, #12
1000649c:	0005      	movs	r5, r0
1000649e:	468a      	mov	sl, r1
100064a0:	a90c      	add	r1, sp, #48	; 0x30
100064a2:	7809      	ldrb	r1, [r1, #0]
100064a4:	8884      	ldrh	r4, [r0, #4]
100064a6:	1ae0      	subs	r0, r4, r3
100064a8:	b280      	uxth	r0, r0
100064aa:	1b1c      	subs	r4, r3, r4
100064ac:	1914      	adds	r4, r2, r4
100064ae:	b2a4      	uxth	r4, r4
100064b0:	88ef      	ldrh	r7, [r5, #6]
100064b2:	047f      	lsls	r7, r7, #17
100064b4:	0c7e      	lsrs	r6, r7, #17
100064b6:	0007      	movs	r7, r0
100064b8:	4377      	muls	r7, r6
100064ba:	b2bf      	uxth	r7, r7
100064bc:	4374      	muls	r4, r6
100064be:	b2a4      	uxth	r4, r4
100064c0:	46a3      	mov	fp, r4
100064c2:	4373      	muls	r3, r6
100064c4:	682c      	ldr	r4, [r5, #0]
100064c6:	46a0      	mov	r8, r4
100064c8:	4498      	add	r8, r3
100064ca:	2900      	cmp	r1, #0
100064cc:	d008      	beq.n	100064e0 <_ff_pull_n+0x52>
100064ce:	2901      	cmp	r1, #1
100064d0:	d01a      	beq.n	10006508 <_ff_pull_n+0x7a>
100064d2:	b003      	add	sp, #12
100064d4:	bcf0      	pop	{r4, r5, r6, r7}
100064d6:	46bb      	mov	fp, r7
100064d8:	46b2      	mov	sl, r6
100064da:	46a9      	mov	r9, r5
100064dc:	46a0      	mov	r8, r4
100064de:	bdf0      	pop	{r4, r5, r6, r7, pc}
100064e0:	4290      	cmp	r0, r2
100064e2:	d305      	bcc.n	100064f0 <_ff_pull_n+0x62>
100064e4:	4372      	muls	r2, r6
100064e6:	4641      	mov	r1, r8
100064e8:	4650      	mov	r0, sl
100064ea:	f7fd fd83 	bl	10003ff4 <__wrap___aeabi_memcpy>
100064ee:	e7f0      	b.n	100064d2 <_ff_pull_n+0x44>
100064f0:	003a      	movs	r2, r7
100064f2:	4641      	mov	r1, r8
100064f4:	4650      	mov	r0, sl
100064f6:	f7fd fd7d 	bl	10003ff4 <__wrap___aeabi_memcpy>
100064fa:	6829      	ldr	r1, [r5, #0]
100064fc:	0038      	movs	r0, r7
100064fe:	4450      	add	r0, sl
10006500:	465a      	mov	r2, fp
10006502:	f7fd fd77 	bl	10003ff4 <__wrap___aeabi_memcpy>
10006506:	e7e4      	b.n	100064d2 <_ff_pull_n+0x44>
10006508:	4290      	cmp	r0, r2
1000650a:	d306      	bcc.n	1000651a <_ff_pull_n+0x8c>
1000650c:	4372      	muls	r2, r6
1000650e:	b292      	uxth	r2, r2
10006510:	4641      	mov	r1, r8
10006512:	4650      	mov	r0, sl
10006514:	f7ff ff95 	bl	10006442 <_ff_pull_const_addr>
10006518:	e7db      	b.n	100064d2 <_ff_pull_n+0x44>
1000651a:	2303      	movs	r3, #3
1000651c:	003a      	movs	r2, r7
1000651e:	439a      	bics	r2, r3
10006520:	4691      	mov	r9, r2
10006522:	4641      	mov	r1, r8
10006524:	4650      	mov	r0, sl
10006526:	f7ff ff8c 	bl	10006442 <_ff_pull_const_addr>
1000652a:	4643      	mov	r3, r8
1000652c:	444b      	add	r3, r9
1000652e:	2103      	movs	r1, #3
10006530:	003a      	movs	r2, r7
10006532:	400a      	ands	r2, r1
10006534:	420f      	tst	r7, r1
10006536:	d030      	beq.n	1000659a <_ff_pull_n+0x10c>
10006538:	2104      	movs	r1, #4
1000653a:	1a89      	subs	r1, r1, r2
1000653c:	b289      	uxth	r1, r1
1000653e:	1c08      	adds	r0, r1, #0
10006540:	4559      	cmp	r1, fp
10006542:	d900      	bls.n	10006546 <_ff_pull_n+0xb8>
10006544:	4658      	mov	r0, fp
10006546:	b2c7      	uxtb	r7, r0
10006548:	21ff      	movs	r1, #255	; 0xff
1000654a:	4001      	ands	r1, r0
1000654c:	4658      	mov	r0, fp
1000654e:	1a44      	subs	r4, r0, r1
10006550:	b2a1      	uxth	r1, r4
10006552:	468b      	mov	fp, r1
10006554:	2100      	movs	r1, #0
10006556:	9101      	str	r1, [sp, #4]
10006558:	a801      	add	r0, sp, #4
1000655a:	e004      	b.n	10006566 <_ff_pull_n+0xd8>
1000655c:	781a      	ldrb	r2, [r3, #0]
1000655e:	7002      	strb	r2, [r0, #0]
10006560:	3001      	adds	r0, #1
10006562:	000a      	movs	r2, r1
10006564:	3301      	adds	r3, #1
10006566:	1e51      	subs	r1, r2, #1
10006568:	b2c9      	uxtb	r1, r1
1000656a:	2a00      	cmp	r2, #0
1000656c:	d1f6      	bne.n	1000655c <_ff_pull_n+0xce>
1000656e:	6829      	ldr	r1, [r5, #0]
10006570:	e004      	b.n	1000657c <_ff_pull_n+0xee>
10006572:	780a      	ldrb	r2, [r1, #0]
10006574:	7002      	strb	r2, [r0, #0]
10006576:	3001      	adds	r0, #1
10006578:	001f      	movs	r7, r3
1000657a:	3101      	adds	r1, #1
1000657c:	1e7b      	subs	r3, r7, #1
1000657e:	b2db      	uxtb	r3, r3
10006580:	2f00      	cmp	r7, #0
10006582:	d1f6      	bne.n	10006572 <_ff_pull_n+0xe4>
10006584:	4653      	mov	r3, sl
10006586:	9a01      	ldr	r2, [sp, #4]
10006588:	601a      	str	r2, [r3, #0]
1000658a:	465b      	mov	r3, fp
1000658c:	2b00      	cmp	r3, #0
1000658e:	d0a0      	beq.n	100064d2 <_ff_pull_n+0x44>
10006590:	465a      	mov	r2, fp
10006592:	4650      	mov	r0, sl
10006594:	f7ff ff55 	bl	10006442 <_ff_pull_const_addr>
10006598:	e79b      	b.n	100064d2 <_ff_pull_n+0x44>
1000659a:	6829      	ldr	r1, [r5, #0]
1000659c:	e7f5      	b.n	1000658a <_ff_pull_n+0xfc>

1000659e <_tu_fifo_peek_n>:
1000659e:	b5f0      	push	{r4, r5, r6, r7, lr}
100065a0:	46c6      	mov	lr, r8
100065a2:	b500      	push	{lr}
100065a4:	b082      	sub	sp, #8
100065a6:	001e      	movs	r6, r3
100065a8:	ab08      	add	r3, sp, #32
100065aa:	881b      	ldrh	r3, [r3, #0]
100065ac:	ac09      	add	r4, sp, #36	; 0x24
100065ae:	7827      	ldrb	r7, [r4, #0]
100065b0:	8884      	ldrh	r4, [r0, #4]
100065b2:	429e      	cmp	r6, r3
100065b4:	d30f      	bcc.n	100065d6 <_tu_fifo_peek_n+0x38>
100065b6:	1af5      	subs	r5, r6, r3
100065b8:	b2ad      	uxth	r5, r5
100065ba:	2d00      	cmp	r5, #0
100065bc:	d01f      	beq.n	100065fe <_tu_fifo_peek_n+0x60>
100065be:	42ac      	cmp	r4, r5
100065c0:	d205      	bcs.n	100065ce <_tu_fifo_peek_n+0x30>
100065c2:	42b4      	cmp	r4, r6
100065c4:	d810      	bhi.n	100065e8 <_tu_fifo_peek_n+0x4a>
100065c6:	1b33      	subs	r3, r6, r4
100065c8:	b29b      	uxth	r3, r3
100065ca:	8143      	strh	r3, [r0, #10]
100065cc:	0025      	movs	r5, r4
100065ce:	4295      	cmp	r5, r2
100065d0:	d30f      	bcc.n	100065f2 <_tu_fifo_peek_n+0x54>
100065d2:	0015      	movs	r5, r2
100065d4:	e00d      	b.n	100065f2 <_tu_fifo_peek_n+0x54>
100065d6:	1af5      	subs	r5, r6, r3
100065d8:	b2ad      	uxth	r5, r5
100065da:	46a8      	mov	r8, r5
100065dc:	0065      	lsls	r5, r4, #1
100065de:	46ac      	mov	ip, r5
100065e0:	4645      	mov	r5, r8
100065e2:	4465      	add	r5, ip
100065e4:	b2ad      	uxth	r5, r5
100065e6:	e7e8      	b.n	100065ba <_tu_fifo_peek_n+0x1c>
100065e8:	19a6      	adds	r6, r4, r6
100065ea:	b2b3      	uxth	r3, r6
100065ec:	e7ed      	b.n	100065ca <_tu_fifo_peek_n+0x2c>
100065ee:	1b1b      	subs	r3, r3, r4
100065f0:	b29b      	uxth	r3, r3
100065f2:	429c      	cmp	r4, r3
100065f4:	d9fb      	bls.n	100065ee <_tu_fifo_peek_n+0x50>
100065f6:	9700      	str	r7, [sp, #0]
100065f8:	002a      	movs	r2, r5
100065fa:	f7ff ff48 	bl	1000648e <_ff_pull_n>
100065fe:	0028      	movs	r0, r5
10006600:	b002      	add	sp, #8
10006602:	bc80      	pop	{r7}
10006604:	46b8      	mov	r8, r7
10006606:	bdf0      	pop	{r4, r5, r6, r7, pc}

10006608 <_tu_fifo_read_n>:
10006608:	b5f0      	push	{r4, r5, r6, r7, lr}
1000660a:	b083      	sub	sp, #12
1000660c:	0004      	movs	r4, r0
1000660e:	000d      	movs	r5, r1
10006610:	0016      	movs	r6, r2
10006612:	001f      	movs	r7, r3
10006614:	6900      	ldr	r0, [r0, #16]
10006616:	2800      	cmp	r0, #0
10006618:	d003      	beq.n	10006622 <_tu_fifo_read_n+0x1a>
1000661a:	2101      	movs	r1, #1
1000661c:	4249      	negs	r1, r1
1000661e:	f000 fabf 	bl	10006ba0 <__mutex_enter_timeout_ms_veneer>
10006622:	8923      	ldrh	r3, [r4, #8]
10006624:	b29b      	uxth	r3, r3
10006626:	8962      	ldrh	r2, [r4, #10]
10006628:	9701      	str	r7, [sp, #4]
1000662a:	9200      	str	r2, [sp, #0]
1000662c:	0032      	movs	r2, r6
1000662e:	0029      	movs	r1, r5
10006630:	0020      	movs	r0, r4
10006632:	f7ff ffb4 	bl	1000659e <_tu_fifo_peek_n>
10006636:	0005      	movs	r5, r0
10006638:	8961      	ldrh	r1, [r4, #10]
1000663a:	b289      	uxth	r1, r1
1000663c:	88a0      	ldrh	r0, [r4, #4]
1000663e:	002a      	movs	r2, r5
10006640:	f7ff fec7 	bl	100063d2 <advance_index>
10006644:	8160      	strh	r0, [r4, #10]
10006646:	6920      	ldr	r0, [r4, #16]
10006648:	2800      	cmp	r0, #0
1000664a:	d001      	beq.n	10006650 <_tu_fifo_read_n+0x48>
1000664c:	f000 fa80 	bl	10006b50 <__mutex_exit_veneer>
10006650:	0028      	movs	r0, r5
10006652:	b003      	add	sp, #12
10006654:	bdf0      	pop	{r4, r5, r6, r7, pc}

10006656 <_ff_push_const_addr>:
10006656:	b570      	push	{r4, r5, r6, lr}
10006658:	b082      	sub	sp, #8
1000665a:	0016      	movs	r6, r2
1000665c:	0895      	lsrs	r5, r2, #2
1000665e:	e009      	b.n	10006674 <_ff_push_const_addr+0x1e>
10006660:	680b      	ldr	r3, [r1, #0]
10006662:	7003      	strb	r3, [r0, #0]
10006664:	0a1d      	lsrs	r5, r3, #8
10006666:	7045      	strb	r5, [r0, #1]
10006668:	0c1d      	lsrs	r5, r3, #16
1000666a:	7085      	strb	r5, [r0, #2]
1000666c:	0e1b      	lsrs	r3, r3, #24
1000666e:	70c3      	strb	r3, [r0, #3]
10006670:	3004      	adds	r0, #4
10006672:	0025      	movs	r5, r4
10006674:	1e6c      	subs	r4, r5, #1
10006676:	b2a4      	uxth	r4, r4
10006678:	2d00      	cmp	r5, #0
1000667a:	d1f1      	bne.n	10006660 <_ff_push_const_addr+0xa>
1000667c:	2303      	movs	r3, #3
1000667e:	0032      	movs	r2, r6
10006680:	401a      	ands	r2, r3
10006682:	421e      	tst	r6, r3
10006684:	d101      	bne.n	1000668a <_ff_push_const_addr+0x34>
10006686:	b002      	add	sp, #8
10006688:	bd70      	pop	{r4, r5, r6, pc}
1000668a:	680b      	ldr	r3, [r1, #0]
1000668c:	9301      	str	r3, [sp, #4]
1000668e:	a901      	add	r1, sp, #4
10006690:	f7fd fcb0 	bl	10003ff4 <__wrap___aeabi_memcpy>
10006694:	e7f7      	b.n	10006686 <_ff_push_const_addr+0x30>

10006696 <_ff_push_n>:
10006696:	b5f0      	push	{r4, r5, r6, r7, lr}
10006698:	46de      	mov	lr, fp
1000669a:	4657      	mov	r7, sl
1000669c:	464e      	mov	r6, r9
1000669e:	4645      	mov	r5, r8
100066a0:	b5e0      	push	{r5, r6, r7, lr}
100066a2:	b083      	sub	sp, #12
100066a4:	0005      	movs	r5, r0
100066a6:	468a      	mov	sl, r1
100066a8:	a90c      	add	r1, sp, #48	; 0x30
100066aa:	7808      	ldrb	r0, [r1, #0]
100066ac:	88ac      	ldrh	r4, [r5, #4]
100066ae:	1ae1      	subs	r1, r4, r3
100066b0:	b289      	uxth	r1, r1
100066b2:	1b1c      	subs	r4, r3, r4
100066b4:	1914      	adds	r4, r2, r4
100066b6:	b2a4      	uxth	r4, r4
100066b8:	88ef      	ldrh	r7, [r5, #6]
100066ba:	047f      	lsls	r7, r7, #17
100066bc:	0c7e      	lsrs	r6, r7, #17
100066be:	000f      	movs	r7, r1
100066c0:	4377      	muls	r7, r6
100066c2:	b2bf      	uxth	r7, r7
100066c4:	4374      	muls	r4, r6
100066c6:	b2a4      	uxth	r4, r4
100066c8:	46a3      	mov	fp, r4
100066ca:	4373      	muls	r3, r6
100066cc:	682c      	ldr	r4, [r5, #0]
100066ce:	46a0      	mov	r8, r4
100066d0:	4498      	add	r8, r3
100066d2:	2800      	cmp	r0, #0
100066d4:	d008      	beq.n	100066e8 <_ff_push_n+0x52>
100066d6:	2801      	cmp	r0, #1
100066d8:	d01a      	beq.n	10006710 <_ff_push_n+0x7a>
100066da:	b003      	add	sp, #12
100066dc:	bcf0      	pop	{r4, r5, r6, r7}
100066de:	46bb      	mov	fp, r7
100066e0:	46b2      	mov	sl, r6
100066e2:	46a9      	mov	r9, r5
100066e4:	46a0      	mov	r8, r4
100066e6:	bdf0      	pop	{r4, r5, r6, r7, pc}
100066e8:	4291      	cmp	r1, r2
100066ea:	d305      	bcc.n	100066f8 <_ff_push_n+0x62>
100066ec:	4372      	muls	r2, r6
100066ee:	4651      	mov	r1, sl
100066f0:	4640      	mov	r0, r8
100066f2:	f7fd fc7f 	bl	10003ff4 <__wrap___aeabi_memcpy>
100066f6:	e7f0      	b.n	100066da <_ff_push_n+0x44>
100066f8:	003a      	movs	r2, r7
100066fa:	4651      	mov	r1, sl
100066fc:	4640      	mov	r0, r8
100066fe:	f7fd fc79 	bl	10003ff4 <__wrap___aeabi_memcpy>
10006702:	6828      	ldr	r0, [r5, #0]
10006704:	0039      	movs	r1, r7
10006706:	4451      	add	r1, sl
10006708:	465a      	mov	r2, fp
1000670a:	f7fd fc73 	bl	10003ff4 <__wrap___aeabi_memcpy>
1000670e:	e7e4      	b.n	100066da <_ff_push_n+0x44>
10006710:	4291      	cmp	r1, r2
10006712:	d306      	bcc.n	10006722 <_ff_push_n+0x8c>
10006714:	4372      	muls	r2, r6
10006716:	b292      	uxth	r2, r2
10006718:	4651      	mov	r1, sl
1000671a:	4640      	mov	r0, r8
1000671c:	f7ff ff9b 	bl	10006656 <_ff_push_const_addr>
10006720:	e7db      	b.n	100066da <_ff_push_n+0x44>
10006722:	2303      	movs	r3, #3
10006724:	003a      	movs	r2, r7
10006726:	439a      	bics	r2, r3
10006728:	4691      	mov	r9, r2
1000672a:	4651      	mov	r1, sl
1000672c:	4640      	mov	r0, r8
1000672e:	f7ff ff92 	bl	10006656 <_ff_push_const_addr>
10006732:	4643      	mov	r3, r8
10006734:	444b      	add	r3, r9
10006736:	2103      	movs	r1, #3
10006738:	003a      	movs	r2, r7
1000673a:	400a      	ands	r2, r1
1000673c:	420f      	tst	r7, r1
1000673e:	d02e      	beq.n	1000679e <_ff_push_n+0x108>
10006740:	2104      	movs	r1, #4
10006742:	1a89      	subs	r1, r1, r2
10006744:	b289      	uxth	r1, r1
10006746:	1c08      	adds	r0, r1, #0
10006748:	4559      	cmp	r1, fp
1000674a:	d900      	bls.n	1000674e <_ff_push_n+0xb8>
1000674c:	4658      	mov	r0, fp
1000674e:	b2c7      	uxtb	r7, r0
10006750:	21ff      	movs	r1, #255	; 0xff
10006752:	4001      	ands	r1, r0
10006754:	4658      	mov	r0, fp
10006756:	1a44      	subs	r4, r0, r1
10006758:	b2a1      	uxth	r1, r4
1000675a:	468b      	mov	fp, r1
1000675c:	4651      	mov	r1, sl
1000675e:	6809      	ldr	r1, [r1, #0]
10006760:	9101      	str	r1, [sp, #4]
10006762:	a901      	add	r1, sp, #4
10006764:	e004      	b.n	10006770 <_ff_push_n+0xda>
10006766:	780a      	ldrb	r2, [r1, #0]
10006768:	701a      	strb	r2, [r3, #0]
1000676a:	3101      	adds	r1, #1
1000676c:	0002      	movs	r2, r0
1000676e:	3301      	adds	r3, #1
10006770:	1e50      	subs	r0, r2, #1
10006772:	b2c0      	uxtb	r0, r0
10006774:	2a00      	cmp	r2, #0
10006776:	d1f6      	bne.n	10006766 <_ff_push_n+0xd0>
10006778:	6828      	ldr	r0, [r5, #0]
1000677a:	e004      	b.n	10006786 <_ff_push_n+0xf0>
1000677c:	780a      	ldrb	r2, [r1, #0]
1000677e:	7002      	strb	r2, [r0, #0]
10006780:	3101      	adds	r1, #1
10006782:	001f      	movs	r7, r3
10006784:	3001      	adds	r0, #1
10006786:	1e7b      	subs	r3, r7, #1
10006788:	b2db      	uxtb	r3, r3
1000678a:	2f00      	cmp	r7, #0
1000678c:	d1f6      	bne.n	1000677c <_ff_push_n+0xe6>
1000678e:	465b      	mov	r3, fp
10006790:	2b00      	cmp	r3, #0
10006792:	d0a2      	beq.n	100066da <_ff_push_n+0x44>
10006794:	465a      	mov	r2, fp
10006796:	4651      	mov	r1, sl
10006798:	f7ff ff5d 	bl	10006656 <_ff_push_const_addr>
1000679c:	e79d      	b.n	100066da <_ff_push_n+0x44>
1000679e:	6828      	ldr	r0, [r5, #0]
100067a0:	e7f5      	b.n	1000678e <_ff_push_n+0xf8>

100067a2 <_tu_fifo_write_n>:
100067a2:	b5f0      	push	{r4, r5, r6, r7, lr}
100067a4:	b085      	sub	sp, #20
100067a6:	0006      	movs	r6, r0
100067a8:	9103      	str	r1, [sp, #12]
100067aa:	1e15      	subs	r5, r2, #0
100067ac:	9302      	str	r3, [sp, #8]
100067ae:	d100      	bne.n	100067b2 <_tu_fifo_write_n+0x10>
100067b0:	e06d      	b.n	1000688e <_tu_fifo_write_n+0xec>
100067b2:	68c0      	ldr	r0, [r0, #12]
100067b4:	2800      	cmp	r0, #0
100067b6:	d003      	beq.n	100067c0 <_tu_fifo_write_n+0x1e>
100067b8:	2101      	movs	r1, #1
100067ba:	4249      	negs	r1, r1
100067bc:	f000 f9f0 	bl	10006ba0 <__mutex_enter_timeout_ms_veneer>
100067c0:	8934      	ldrh	r4, [r6, #8]
100067c2:	b2a4      	uxth	r4, r4
100067c4:	8971      	ldrh	r1, [r6, #10]
100067c6:	b289      	uxth	r1, r1
100067c8:	79f3      	ldrb	r3, [r6, #7]
100067ca:	09db      	lsrs	r3, r3, #7
100067cc:	d11a      	bne.n	10006804 <_tu_fifo_write_n+0x62>
100067ce:	88b3      	ldrh	r3, [r6, #4]
100067d0:	428c      	cmp	r4, r1
100067d2:	d30f      	bcc.n	100067f4 <_tu_fifo_write_n+0x52>
100067d4:	1a61      	subs	r1, r4, r1
100067d6:	b289      	uxth	r1, r1
100067d8:	428b      	cmp	r3, r1
100067da:	d911      	bls.n	10006800 <_tu_fifo_write_n+0x5e>
100067dc:	1a5b      	subs	r3, r3, r1
100067de:	b29b      	uxth	r3, r3
100067e0:	1c2f      	adds	r7, r5, #0
100067e2:	429d      	cmp	r5, r3
100067e4:	d900      	bls.n	100067e8 <_tu_fifo_write_n+0x46>
100067e6:	1c1f      	adds	r7, r3, #0
100067e8:	b2bf      	uxth	r7, r7
100067ea:	2f00      	cmp	r7, #0
100067ec:	d047      	beq.n	1000687e <_tu_fifo_write_n+0xdc>
100067ee:	88b2      	ldrh	r2, [r6, #4]
100067f0:	0023      	movs	r3, r4
100067f2:	e035      	b.n	10006860 <_tu_fifo_write_n+0xbe>
100067f4:	1a61      	subs	r1, r4, r1
100067f6:	b289      	uxth	r1, r1
100067f8:	005a      	lsls	r2, r3, #1
100067fa:	1889      	adds	r1, r1, r2
100067fc:	b289      	uxth	r1, r1
100067fe:	e7eb      	b.n	100067d8 <_tu_fifo_write_n+0x36>
10006800:	2300      	movs	r3, #0
10006802:	e7ed      	b.n	100067e0 <_tu_fifo_write_n+0x3e>
10006804:	88b7      	ldrh	r7, [r6, #4]
10006806:	42af      	cmp	r7, r5
10006808:	d80e      	bhi.n	10006828 <_tu_fifo_write_n+0x86>
1000680a:	9b02      	ldr	r3, [sp, #8]
1000680c:	2b00      	cmp	r3, #0
1000680e:	d121      	bne.n	10006854 <_tu_fifo_write_n+0xb2>
10006810:	1bed      	subs	r5, r5, r7
10006812:	88f3      	ldrh	r3, [r6, #6]
10006814:	045b      	lsls	r3, r3, #17
10006816:	0c5a      	lsrs	r2, r3, #17
10006818:	436a      	muls	r2, r5
1000681a:	9b03      	ldr	r3, [sp, #12]
1000681c:	469c      	mov	ip, r3
1000681e:	4494      	add	ip, r2
10006820:	4663      	mov	r3, ip
10006822:	9303      	str	r3, [sp, #12]
10006824:	000c      	movs	r4, r1
10006826:	e7e0      	b.n	100067ea <_tu_fifo_write_n+0x48>
10006828:	428c      	cmp	r4, r1
1000682a:	d30d      	bcc.n	10006848 <_tu_fifo_write_n+0xa6>
1000682c:	1a63      	subs	r3, r4, r1
1000682e:	b29b      	uxth	r3, r3
10006830:	195b      	adds	r3, r3, r5
10006832:	007a      	lsls	r2, r7, #1
10006834:	4293      	cmp	r3, r2
10006836:	db0f      	blt.n	10006858 <_tu_fifo_write_n+0xb6>
10006838:	1b7a      	subs	r2, r7, r5
1000683a:	b292      	uxth	r2, r2
1000683c:	0038      	movs	r0, r7
1000683e:	f7ff fdc8 	bl	100063d2 <advance_index>
10006842:	0004      	movs	r4, r0
10006844:	002f      	movs	r7, r5
10006846:	e7d0      	b.n	100067ea <_tu_fifo_write_n+0x48>
10006848:	1a63      	subs	r3, r4, r1
1000684a:	b29b      	uxth	r3, r3
1000684c:	007a      	lsls	r2, r7, #1
1000684e:	189b      	adds	r3, r3, r2
10006850:	b29b      	uxth	r3, r3
10006852:	e7ed      	b.n	10006830 <_tu_fifo_write_n+0x8e>
10006854:	000c      	movs	r4, r1
10006856:	e7c8      	b.n	100067ea <_tu_fifo_write_n+0x48>
10006858:	002f      	movs	r7, r5
1000685a:	e7c6      	b.n	100067ea <_tu_fifo_write_n+0x48>
1000685c:	1a9b      	subs	r3, r3, r2
1000685e:	b29b      	uxth	r3, r3
10006860:	429a      	cmp	r2, r3
10006862:	d9fb      	bls.n	1000685c <_tu_fifo_write_n+0xba>
10006864:	9a02      	ldr	r2, [sp, #8]
10006866:	9200      	str	r2, [sp, #0]
10006868:	003a      	movs	r2, r7
1000686a:	9903      	ldr	r1, [sp, #12]
1000686c:	0030      	movs	r0, r6
1000686e:	f7ff ff12 	bl	10006696 <_ff_push_n>
10006872:	88b0      	ldrh	r0, [r6, #4]
10006874:	003a      	movs	r2, r7
10006876:	0021      	movs	r1, r4
10006878:	f7ff fdab 	bl	100063d2 <advance_index>
1000687c:	8130      	strh	r0, [r6, #8]
1000687e:	68f0      	ldr	r0, [r6, #12]
10006880:	2800      	cmp	r0, #0
10006882:	d001      	beq.n	10006888 <_tu_fifo_write_n+0xe6>
10006884:	f000 f964 	bl	10006b50 <__mutex_exit_veneer>
10006888:	0038      	movs	r0, r7
1000688a:	b005      	add	sp, #20
1000688c:	bdf0      	pop	{r4, r5, r6, r7, pc}
1000688e:	0017      	movs	r7, r2
10006890:	e7fa      	b.n	10006888 <_tu_fifo_write_n+0xe6>

10006892 <tu_fifo_config>:
10006892:	b5f0      	push	{r4, r5, r6, r7, lr}
10006894:	b083      	sub	sp, #12
10006896:	0004      	movs	r4, r0
10006898:	9101      	str	r1, [sp, #4]
1000689a:	0016      	movs	r6, r2
1000689c:	001d      	movs	r5, r3
1000689e:	ab08      	add	r3, sp, #32
100068a0:	781f      	ldrb	r7, [r3, #0]
100068a2:	2380      	movs	r3, #128	; 0x80
100068a4:	021b      	lsls	r3, r3, #8
100068a6:	429a      	cmp	r2, r3
100068a8:	d82d      	bhi.n	10006906 <tu_fifo_config+0x74>
100068aa:	68c0      	ldr	r0, [r0, #12]
100068ac:	2800      	cmp	r0, #0
100068ae:	d003      	beq.n	100068b8 <tu_fifo_config+0x26>
100068b0:	2101      	movs	r1, #1
100068b2:	4249      	negs	r1, r1
100068b4:	f000 f974 	bl	10006ba0 <__mutex_enter_timeout_ms_veneer>
100068b8:	6920      	ldr	r0, [r4, #16]
100068ba:	2800      	cmp	r0, #0
100068bc:	d003      	beq.n	100068c6 <tu_fifo_config+0x34>
100068be:	2101      	movs	r1, #1
100068c0:	4249      	negs	r1, r1
100068c2:	f000 f96d 	bl	10006ba0 <__mutex_enter_timeout_ms_veneer>
100068c6:	9b01      	ldr	r3, [sp, #4]
100068c8:	6023      	str	r3, [r4, #0]
100068ca:	80a6      	strh	r6, [r4, #4]
100068cc:	046d      	lsls	r5, r5, #17
100068ce:	0c6b      	lsrs	r3, r5, #17
100068d0:	88e2      	ldrh	r2, [r4, #6]
100068d2:	0bd2      	lsrs	r2, r2, #15
100068d4:	03d5      	lsls	r5, r2, #15
100068d6:	431d      	orrs	r5, r3
100068d8:	80e5      	strh	r5, [r4, #6]
100068da:	01fb      	lsls	r3, r7, #7
100068dc:	79e2      	ldrb	r2, [r4, #7]
100068de:	277f      	movs	r7, #127	; 0x7f
100068e0:	4017      	ands	r7, r2
100068e2:	431f      	orrs	r7, r3
100068e4:	71e7      	strb	r7, [r4, #7]
100068e6:	2300      	movs	r3, #0
100068e8:	8163      	strh	r3, [r4, #10]
100068ea:	8123      	strh	r3, [r4, #8]
100068ec:	68e0      	ldr	r0, [r4, #12]
100068ee:	2800      	cmp	r0, #0
100068f0:	d001      	beq.n	100068f6 <tu_fifo_config+0x64>
100068f2:	f000 f92d 	bl	10006b50 <__mutex_exit_veneer>
100068f6:	6920      	ldr	r0, [r4, #16]
100068f8:	2800      	cmp	r0, #0
100068fa:	d006      	beq.n	1000690a <tu_fifo_config+0x78>
100068fc:	f000 f928 	bl	10006b50 <__mutex_exit_veneer>
10006900:	2001      	movs	r0, #1
10006902:	b003      	add	sp, #12
10006904:	bdf0      	pop	{r4, r5, r6, r7, pc}
10006906:	2000      	movs	r0, #0
10006908:	e7fb      	b.n	10006902 <tu_fifo_config+0x70>
1000690a:	2001      	movs	r0, #1
1000690c:	e7f9      	b.n	10006902 <tu_fifo_config+0x70>

1000690e <tu_fifo_count>:
1000690e:	8881      	ldrh	r1, [r0, #4]
10006910:	8903      	ldrh	r3, [r0, #8]
10006912:	b29b      	uxth	r3, r3
10006914:	8942      	ldrh	r2, [r0, #10]
10006916:	b292      	uxth	r2, r2
10006918:	4293      	cmp	r3, r2
1000691a:	d307      	bcc.n	1000692c <tu_fifo_count+0x1e>
1000691c:	1a9b      	subs	r3, r3, r2
1000691e:	b29b      	uxth	r3, r3
10006920:	1c08      	adds	r0, r1, #0
10006922:	4299      	cmp	r1, r3
10006924:	d900      	bls.n	10006928 <tu_fifo_count+0x1a>
10006926:	1c18      	adds	r0, r3, #0
10006928:	b280      	uxth	r0, r0
1000692a:	4770      	bx	lr
1000692c:	1a9b      	subs	r3, r3, r2
1000692e:	b29b      	uxth	r3, r3
10006930:	004a      	lsls	r2, r1, #1
10006932:	189b      	adds	r3, r3, r2
10006934:	b29b      	uxth	r3, r3
10006936:	e7f3      	b.n	10006920 <tu_fifo_count+0x12>

10006938 <tu_fifo_empty>:
10006938:	0003      	movs	r3, r0
1000693a:	8900      	ldrh	r0, [r0, #8]
1000693c:	895b      	ldrh	r3, [r3, #10]
1000693e:	1ac0      	subs	r0, r0, r3
10006940:	4243      	negs	r3, r0
10006942:	4158      	adcs	r0, r3
10006944:	b2c0      	uxtb	r0, r0
10006946:	4770      	bx	lr

10006948 <tu_fifo_full>:
10006948:	8881      	ldrh	r1, [r0, #4]
1000694a:	8903      	ldrh	r3, [r0, #8]
1000694c:	b29b      	uxth	r3, r3
1000694e:	8942      	ldrh	r2, [r0, #10]
10006950:	b292      	uxth	r2, r2
10006952:	4293      	cmp	r3, r2
10006954:	d306      	bcc.n	10006964 <tu_fifo_full+0x1c>
10006956:	1a9b      	subs	r3, r3, r2
10006958:	b29b      	uxth	r3, r3
1000695a:	2000      	movs	r0, #0
1000695c:	428b      	cmp	r3, r1
1000695e:	4140      	adcs	r0, r0
10006960:	b2c0      	uxtb	r0, r0
10006962:	4770      	bx	lr
10006964:	1a9b      	subs	r3, r3, r2
10006966:	b29b      	uxth	r3, r3
10006968:	004a      	lsls	r2, r1, #1
1000696a:	189b      	adds	r3, r3, r2
1000696c:	b29b      	uxth	r3, r3
1000696e:	e7f4      	b.n	1000695a <tu_fifo_full+0x12>

10006970 <tu_fifo_remaining>:
10006970:	8882      	ldrh	r2, [r0, #4]
10006972:	8903      	ldrh	r3, [r0, #8]
10006974:	b29b      	uxth	r3, r3
10006976:	8940      	ldrh	r0, [r0, #10]
10006978:	b280      	uxth	r0, r0
1000697a:	4283      	cmp	r3, r0
1000697c:	d306      	bcc.n	1000698c <tu_fifo_remaining+0x1c>
1000697e:	1a1b      	subs	r3, r3, r0
10006980:	b29b      	uxth	r3, r3
10006982:	429a      	cmp	r2, r3
10006984:	d908      	bls.n	10006998 <tu_fifo_remaining+0x28>
10006986:	1ad3      	subs	r3, r2, r3
10006988:	b298      	uxth	r0, r3
1000698a:	4770      	bx	lr
1000698c:	1a1b      	subs	r3, r3, r0
1000698e:	b29b      	uxth	r3, r3
10006990:	0050      	lsls	r0, r2, #1
10006992:	181b      	adds	r3, r3, r0
10006994:	b29b      	uxth	r3, r3
10006996:	e7f4      	b.n	10006982 <tu_fifo_remaining+0x12>
10006998:	2000      	movs	r0, #0
1000699a:	e7f6      	b.n	1000698a <tu_fifo_remaining+0x1a>

1000699c <tu_fifo_read>:
1000699c:	b570      	push	{r4, r5, r6, lr}
1000699e:	0004      	movs	r4, r0
100069a0:	000d      	movs	r5, r1
100069a2:	6900      	ldr	r0, [r0, #16]
100069a4:	2800      	cmp	r0, #0
100069a6:	d003      	beq.n	100069b0 <tu_fifo_read+0x14>
100069a8:	2101      	movs	r1, #1
100069aa:	4249      	negs	r1, r1
100069ac:	f000 f8f8 	bl	10006ba0 <__mutex_enter_timeout_ms_veneer>
100069b0:	8922      	ldrh	r2, [r4, #8]
100069b2:	b292      	uxth	r2, r2
100069b4:	8963      	ldrh	r3, [r4, #10]
100069b6:	b29b      	uxth	r3, r3
100069b8:	0029      	movs	r1, r5
100069ba:	0020      	movs	r0, r4
100069bc:	f7ff fd16 	bl	100063ec <_tu_fifo_peek>
100069c0:	0005      	movs	r5, r0
100069c2:	8961      	ldrh	r1, [r4, #10]
100069c4:	b289      	uxth	r1, r1
100069c6:	b282      	uxth	r2, r0
100069c8:	88a0      	ldrh	r0, [r4, #4]
100069ca:	f7ff fd02 	bl	100063d2 <advance_index>
100069ce:	8160      	strh	r0, [r4, #10]
100069d0:	6920      	ldr	r0, [r4, #16]
100069d2:	2800      	cmp	r0, #0
100069d4:	d001      	beq.n	100069da <tu_fifo_read+0x3e>
100069d6:	f000 f8bb 	bl	10006b50 <__mutex_exit_veneer>
100069da:	0028      	movs	r0, r5
100069dc:	bd70      	pop	{r4, r5, r6, pc}

100069de <tu_fifo_read_n>:
100069de:	b510      	push	{r4, lr}
100069e0:	2300      	movs	r3, #0
100069e2:	f7ff fe11 	bl	10006608 <_tu_fifo_read_n>
100069e6:	bd10      	pop	{r4, pc}

100069e8 <tu_fifo_write>:
100069e8:	b5f8      	push	{r3, r4, r5, r6, r7, lr}
100069ea:	0004      	movs	r4, r0
100069ec:	000e      	movs	r6, r1
100069ee:	68c0      	ldr	r0, [r0, #12]
100069f0:	2800      	cmp	r0, #0
100069f2:	d003      	beq.n	100069fc <tu_fifo_write+0x14>
100069f4:	2101      	movs	r1, #1
100069f6:	4249      	negs	r1, r1
100069f8:	f000 f8d2 	bl	10006ba0 <__mutex_enter_timeout_ms_veneer>
100069fc:	8925      	ldrh	r5, [r4, #8]
100069fe:	b2ad      	uxth	r5, r5
10006a00:	0020      	movs	r0, r4
10006a02:	f7ff ffa1 	bl	10006948 <tu_fifo_full>
10006a06:	2800      	cmp	r0, #0
10006a08:	d002      	beq.n	10006a10 <tu_fifo_write+0x28>
10006a0a:	79e7      	ldrb	r7, [r4, #7]
10006a0c:	09ff      	lsrs	r7, r7, #7
10006a0e:	d016      	beq.n	10006a3e <tu_fifo_write+0x56>
10006a10:	88a2      	ldrh	r2, [r4, #4]
10006a12:	002b      	movs	r3, r5
10006a14:	e001      	b.n	10006a1a <tu_fifo_write+0x32>
10006a16:	1a9b      	subs	r3, r3, r2
10006a18:	b29b      	uxth	r3, r3
10006a1a:	429a      	cmp	r2, r3
10006a1c:	d9fb      	bls.n	10006a16 <tu_fifo_write+0x2e>
10006a1e:	88e2      	ldrh	r2, [r4, #6]
10006a20:	0452      	lsls	r2, r2, #17
10006a22:	0c52      	lsrs	r2, r2, #17
10006a24:	4353      	muls	r3, r2
10006a26:	6821      	ldr	r1, [r4, #0]
10006a28:	18c8      	adds	r0, r1, r3
10006a2a:	0031      	movs	r1, r6
10006a2c:	f7fd fae2 	bl	10003ff4 <__wrap___aeabi_memcpy>
10006a30:	88a0      	ldrh	r0, [r4, #4]
10006a32:	2201      	movs	r2, #1
10006a34:	0029      	movs	r1, r5
10006a36:	f7ff fccc 	bl	100063d2 <advance_index>
10006a3a:	8120      	strh	r0, [r4, #8]
10006a3c:	2701      	movs	r7, #1
10006a3e:	68e0      	ldr	r0, [r4, #12]
10006a40:	2800      	cmp	r0, #0
10006a42:	d001      	beq.n	10006a48 <tu_fifo_write+0x60>
10006a44:	f000 f884 	bl	10006b50 <__mutex_exit_veneer>
10006a48:	0038      	movs	r0, r7
10006a4a:	bdf8      	pop	{r3, r4, r5, r6, r7, pc}

10006a4c <tu_fifo_write_n>:
10006a4c:	b510      	push	{r4, lr}
10006a4e:	2300      	movs	r3, #0
10006a50:	f7ff fea7 	bl	100067a2 <_tu_fifo_write_n>
10006a54:	bd10      	pop	{r4, pc}

10006a56 <tu_fifo_clear>:
10006a56:	b510      	push	{r4, lr}
10006a58:	0004      	movs	r4, r0
10006a5a:	68c0      	ldr	r0, [r0, #12]
10006a5c:	2800      	cmp	r0, #0
10006a5e:	d003      	beq.n	10006a68 <tu_fifo_clear+0x12>
10006a60:	2101      	movs	r1, #1
10006a62:	4249      	negs	r1, r1
10006a64:	f000 f89c 	bl	10006ba0 <__mutex_enter_timeout_ms_veneer>
10006a68:	6920      	ldr	r0, [r4, #16]
10006a6a:	2800      	cmp	r0, #0
10006a6c:	d003      	beq.n	10006a76 <tu_fifo_clear+0x20>
10006a6e:	2101      	movs	r1, #1
10006a70:	4249      	negs	r1, r1
10006a72:	f000 f895 	bl	10006ba0 <__mutex_enter_timeout_ms_veneer>
10006a76:	2300      	movs	r3, #0
10006a78:	8163      	strh	r3, [r4, #10]
10006a7a:	8123      	strh	r3, [r4, #8]
10006a7c:	68e0      	ldr	r0, [r4, #12]
10006a7e:	2800      	cmp	r0, #0
10006a80:	d001      	beq.n	10006a86 <tu_fifo_clear+0x30>
10006a82:	f000 f865 	bl	10006b50 <__mutex_exit_veneer>
10006a86:	6920      	ldr	r0, [r4, #16]
10006a88:	2800      	cmp	r0, #0
10006a8a:	d001      	beq.n	10006a90 <tu_fifo_clear+0x3a>
10006a8c:	f000 f860 	bl	10006b50 <__mutex_exit_veneer>
10006a90:	2001      	movs	r0, #1
10006a92:	bd10      	pop	{r4, pc}

10006a94 <tu_fifo_set_overwritable>:
10006a94:	b570      	push	{r4, r5, r6, lr}
10006a96:	0004      	movs	r4, r0
10006a98:	000d      	movs	r5, r1
10006a9a:	68c0      	ldr	r0, [r0, #12]
10006a9c:	2800      	cmp	r0, #0
10006a9e:	d003      	beq.n	10006aa8 <tu_fifo_set_overwritable+0x14>
10006aa0:	2101      	movs	r1, #1
10006aa2:	4249      	negs	r1, r1
10006aa4:	f000 f87c 	bl	10006ba0 <__mutex_enter_timeout_ms_veneer>
10006aa8:	6920      	ldr	r0, [r4, #16]
10006aaa:	2800      	cmp	r0, #0
10006aac:	d003      	beq.n	10006ab6 <tu_fifo_set_overwritable+0x22>
10006aae:	2101      	movs	r1, #1
10006ab0:	4249      	negs	r1, r1
10006ab2:	f000 f875 	bl	10006ba0 <__mutex_enter_timeout_ms_veneer>
10006ab6:	01ed      	lsls	r5, r5, #7
10006ab8:	79e3      	ldrb	r3, [r4, #7]
10006aba:	217f      	movs	r1, #127	; 0x7f
10006abc:	4019      	ands	r1, r3
10006abe:	4329      	orrs	r1, r5
10006ac0:	71e1      	strb	r1, [r4, #7]
10006ac2:	68e0      	ldr	r0, [r4, #12]
10006ac4:	2800      	cmp	r0, #0
10006ac6:	d001      	beq.n	10006acc <tu_fifo_set_overwritable+0x38>
10006ac8:	f000 f842 	bl	10006b50 <__mutex_exit_veneer>
10006acc:	6920      	ldr	r0, [r4, #16]
10006ace:	2800      	cmp	r0, #0
10006ad0:	d001      	beq.n	10006ad6 <tu_fifo_set_overwritable+0x42>
10006ad2:	f000 f83d 	bl	10006b50 <__mutex_exit_veneer>
10006ad6:	2001      	movs	r0, #1
10006ad8:	bd70      	pop	{r4, r5, r6, pc}
	...

10006adc <strlen>:
10006adc:	b510      	push	{r4, lr}
10006ade:	0783      	lsls	r3, r0, #30
10006ae0:	d00a      	beq.n	10006af8 <strlen+0x1c>
10006ae2:	0003      	movs	r3, r0
10006ae4:	2103      	movs	r1, #3
10006ae6:	e002      	b.n	10006aee <strlen+0x12>
10006ae8:	3301      	adds	r3, #1
10006aea:	420b      	tst	r3, r1
10006aec:	d005      	beq.n	10006afa <strlen+0x1e>
10006aee:	781a      	ldrb	r2, [r3, #0]
10006af0:	2a00      	cmp	r2, #0
10006af2:	d1f9      	bne.n	10006ae8 <strlen+0xc>
10006af4:	1a18      	subs	r0, r3, r0
10006af6:	bd10      	pop	{r4, pc}
10006af8:	0003      	movs	r3, r0
10006afa:	6819      	ldr	r1, [r3, #0]
10006afc:	4a0c      	ldr	r2, [pc, #48]	; (10006b30 <strlen+0x54>)
10006afe:	4c0d      	ldr	r4, [pc, #52]	; (10006b34 <strlen+0x58>)
10006b00:	188a      	adds	r2, r1, r2
10006b02:	438a      	bics	r2, r1
10006b04:	4222      	tst	r2, r4
10006b06:	d10f      	bne.n	10006b28 <strlen+0x4c>
10006b08:	6859      	ldr	r1, [r3, #4]
10006b0a:	4a09      	ldr	r2, [pc, #36]	; (10006b30 <strlen+0x54>)
10006b0c:	3304      	adds	r3, #4
10006b0e:	188a      	adds	r2, r1, r2
10006b10:	438a      	bics	r2, r1
10006b12:	4222      	tst	r2, r4
10006b14:	d108      	bne.n	10006b28 <strlen+0x4c>
10006b16:	6859      	ldr	r1, [r3, #4]
10006b18:	4a05      	ldr	r2, [pc, #20]	; (10006b30 <strlen+0x54>)
10006b1a:	3304      	adds	r3, #4
10006b1c:	188a      	adds	r2, r1, r2
10006b1e:	438a      	bics	r2, r1
10006b20:	4222      	tst	r2, r4
10006b22:	d0f1      	beq.n	10006b08 <strlen+0x2c>
10006b24:	e000      	b.n	10006b28 <strlen+0x4c>
10006b26:	3301      	adds	r3, #1
10006b28:	781a      	ldrb	r2, [r3, #0]
10006b2a:	2a00      	cmp	r2, #0
10006b2c:	d1fb      	bne.n	10006b26 <strlen+0x4a>
10006b2e:	e7e1      	b.n	10006af4 <strlen+0x18>
10006b30:	fefefeff 	.word	0xfefefeff
10006b34:	80808080 	.word	0x80808080

10006b38 <_fini>:
10006b38:	b5f8      	push	{r3, r4, r5, r6, r7, lr}
10006b3a:	46c0      	nop			; (mov r8, r8)
10006b3c:	0000      	movs	r0, r0
	...

10006b40 <__flash_do_cmd_veneer>:
10006b40:	b401      	push	{r0}
10006b42:	4802      	ldr	r0, [pc, #8]	; (10006b4c <__flash_do_cmd_veneer+0xc>)
10006b44:	4684      	mov	ip, r0
10006b46:	bc01      	pop	{r0}
10006b48:	4760      	bx	ip
10006b4a:	bf00      	nop
10006b4c:	200002e5 	.word	0x200002e5

10006b50 <__mutex_exit_veneer>:
10006b50:	b401      	push	{r0}
10006b52:	4802      	ldr	r0, [pc, #8]	; (10006b5c <__mutex_exit_veneer+0xc>)
10006b54:	4684      	mov	ip, r0
10006b56:	bc01      	pop	{r0}
10006b58:	4760      	bx	ip
10006b5a:	bf00      	nop
10006b5c:	20000231 	.word	0x20000231

10006b60 <____aeabi_ldiv0_veneer>:
10006b60:	b401      	push	{r0}
10006b62:	4802      	ldr	r0, [pc, #8]	; (10006b6c <____aeabi_ldiv0_veneer+0xc>)
10006b64:	4684      	mov	ip, r0
10006b66:	bc01      	pop	{r0}
10006b68:	4760      	bx	ip
10006b6a:	bf00      	nop
10006b6c:	20000b1d 	.word	0x20000b1d

10006b70 <__reset_non_control_endpoints_veneer>:
10006b70:	b401      	push	{r0}
10006b72:	4802      	ldr	r0, [pc, #8]	; (10006b7c <__reset_non_control_endpoints_veneer+0xc>)
10006b74:	4684      	mov	ip, r0
10006b76:	bc01      	pop	{r0}
10006b78:	4760      	bx	ip
10006b7a:	bf00      	nop
10006b7c:	200003bd 	.word	0x200003bd

10006b80 <____aeabi_idiv0_veneer>:
10006b80:	b401      	push	{r0}
10006b82:	4802      	ldr	r0, [pc, #8]	; (10006b8c <____aeabi_idiv0_veneer+0xc>)
10006b84:	4684      	mov	ip, r0
10006b86:	bc01      	pop	{r0}
10006b88:	4760      	bx	ip
10006b8a:	bf00      	nop
10006b8c:	20000b1d 	.word	0x20000b1d

10006b90 <__mutex_try_enter_veneer>:
10006b90:	b401      	push	{r0}
10006b92:	4802      	ldr	r0, [pc, #8]	; (10006b9c <__mutex_try_enter_veneer+0xc>)
10006b94:	4684      	mov	ip, r0
10006b96:	bc01      	pop	{r0}
10006b98:	4760      	bx	ip
10006b9a:	bf00      	nop
10006b9c:	200000c1 	.word	0x200000c1

10006ba0 <__mutex_enter_timeout_ms_veneer>:
10006ba0:	b401      	push	{r0}
10006ba2:	4802      	ldr	r0, [pc, #8]	; (10006bac <__mutex_enter_timeout_ms_veneer+0xc>)
10006ba4:	4684      	mov	ip, r0
10006ba6:	bc01      	pop	{r0}
10006ba8:	4760      	bx	ip
10006baa:	bf00      	nop
10006bac:	200001c9 	.word	0x200001c9

10006bb0 <__dcd_event_handler_veneer>:
10006bb0:	b401      	push	{r0}
10006bb2:	4802      	ldr	r0, [pc, #8]	; (10006bbc <__dcd_event_handler_veneer+0xc>)
10006bb4:	4684      	mov	ip, r0
10006bb6:	bc01      	pop	{r0}
10006bb8:	4760      	bx	ip
10006bba:	bf00      	nop
10006bbc:	2000091d 	.word	0x2000091d

10006bc0 <__mutex_try_enter_block_until_veneer>:
10006bc0:	b401      	push	{r0}
10006bc2:	4802      	ldr	r0, [pc, #8]	; (10006bcc <__mutex_try_enter_block_until_veneer+0xc>)
10006bc4:	4684      	mov	ip, r0
10006bc6:	bc01      	pop	{r0}
10006bc8:	4760      	bx	ip
10006bca:	bf00      	nop
10006bcc:	20000195 	.word	0x20000195

10006bd0 <__hw_endpoint_start_next_buffer_veneer>:
10006bd0:	b401      	push	{r0}
10006bd2:	4802      	ldr	r0, [pc, #8]	; (10006bdc <__hw_endpoint_start_next_buffer_veneer+0xc>)
10006bd4:	4684      	mov	ip, r0
10006bd6:	bc01      	pop	{r0}
10006bd8:	4760      	bx	ip
10006bda:	bf00      	nop
10006bdc:	20000845 	.word	0x20000845

10006be0 <__hw_endpoint_reset_transfer_veneer>:
10006be0:	b401      	push	{r0}
10006be2:	4802      	ldr	r0, [pc, #8]	; (10006bec <__hw_endpoint_reset_transfer_veneer+0xc>)
10006be4:	4684      	mov	ip, r0
10006be6:	bc01      	pop	{r0}
10006be8:	4760      	bx	ip
10006bea:	bf00      	nop
10006bec:	200007e1 	.word	0x200007e1

10006bf0 <__e15_is_bulkin_ep_veneer>:
10006bf0:	b401      	push	{r0}
10006bf2:	4802      	ldr	r0, [pc, #8]	; (10006bfc <__e15_is_bulkin_ep_veneer+0xc>)
10006bf4:	4684      	mov	ip, r0
10006bf6:	bc01      	pop	{r0}
10006bf8:	4760      	bx	ip
10006bfa:	bf00      	nop
10006bfc:	2000066d 	.word	0x2000066d

10006c00 <__e15_is_critical_frame_period_veneer>:
10006c00:	b401      	push	{r0}
10006c02:	4802      	ldr	r0, [pc, #8]	; (10006c0c <__e15_is_critical_frame_period_veneer+0xc>)
10006c04:	4684      	mov	ip, r0
10006c06:	bc01      	pop	{r0}
10006c08:	4760      	bx	ip
10006c0a:	bf00      	nop
10006c0c:	20000699 	.word	0x20000699

10006c10 <___hw_endpoint_buffer_control_update32_veneer>:
10006c10:	b401      	push	{r0}
10006c12:	4802      	ldr	r0, [pc, #8]	; (10006c1c <___hw_endpoint_buffer_control_update32_veneer+0xc>)
10006c14:	4684      	mov	ip, r0
10006c16:	bc01      	pop	{r0}
10006c18:	4760      	bx	ip
10006c1a:	bf00      	nop
10006c1c:	200007ed 	.word	0x200007ed

Disassembly of section .data:

200000c0 <mutex_try_enter>:
200000c0:	0003      	movs	r3, r0
200000c2:	6800      	ldr	r0, [r0, #0]
200000c4:	f3ef 8c10 	mrs	ip, PRIMASK
200000c8:	b672      	cpsid	i
200000ca:	6802      	ldr	r2, [r0, #0]
200000cc:	2a00      	cmp	r2, #0
200000ce:	d0fc      	beq.n	200000ca <mutex_try_enter+0xa>
200000d0:	f3bf 8f5f 	dmb	sy
200000d4:	2204      	movs	r2, #4
200000d6:	569a      	ldrsb	r2, [r3, r2]
200000d8:	2a00      	cmp	r2, #0
200000da:	db0b      	blt.n	200000f4 <mutex_try_enter+0x34>
200000dc:	2900      	cmp	r1, #0
200000de:	d010      	beq.n	20000102 <mutex_try_enter+0x42>
200000e0:	600a      	str	r2, [r1, #0]
200000e2:	2000      	movs	r0, #0
200000e4:	681b      	ldr	r3, [r3, #0]
200000e6:	f3bf 8f5f 	dmb	sy
200000ea:	2200      	movs	r2, #0
200000ec:	601a      	str	r2, [r3, #0]
200000ee:	f38c 8810 	msr	PRIMASK, ip
200000f2:	4770      	bx	lr
200000f4:	22d0      	movs	r2, #208	; 0xd0
200000f6:	0612      	lsls	r2, r2, #24
200000f8:	7812      	ldrb	r2, [r2, #0]
200000fa:	b252      	sxtb	r2, r2
200000fc:	711a      	strb	r2, [r3, #4]
200000fe:	2001      	movs	r0, #1
20000100:	e7f0      	b.n	200000e4 <mutex_try_enter+0x24>
20000102:	2000      	movs	r0, #0
20000104:	e7ee      	b.n	200000e4 <mutex_try_enter+0x24>
	...

20000108 <mutex_enter_block_until>:
20000108:	b5f8      	push	{r3, r4, r5, r6, r7, lr}
2000010a:	46ce      	mov	lr, r9
2000010c:	4647      	mov	r7, r8
2000010e:	b580      	push	{r7, lr}
20000110:	0004      	movs	r4, r0
20000112:	0017      	movs	r7, r2
20000114:	4698      	mov	r8, r3
20000116:	6803      	ldr	r3, [r0, #0]
20000118:	2b00      	cmp	r3, #0
2000011a:	d020      	beq.n	2000015e <mutex_enter_block_until+0x56>
2000011c:	23d0      	movs	r3, #208	; 0xd0
2000011e:	061b      	lsls	r3, r3, #24
20000120:	781b      	ldrb	r3, [r3, #0]
20000122:	b25b      	sxtb	r3, r3
20000124:	4699      	mov	r9, r3
20000126:	6826      	ldr	r6, [r4, #0]
20000128:	f3ef 8c10 	mrs	ip, PRIMASK
2000012c:	b672      	cpsid	i
2000012e:	6835      	ldr	r5, [r6, #0]
20000130:	2d00      	cmp	r5, #0
20000132:	d0fc      	beq.n	2000012e <mutex_enter_block_until+0x26>
20000134:	f3bf 8f5f 	dmb	sy
20000138:	2504      	movs	r5, #4
2000013a:	5765      	ldrsb	r5, [r4, r5]
2000013c:	2d00      	cmp	r5, #0
2000013e:	db14      	blt.n	2000016a <mutex_enter_block_until+0x62>
20000140:	6823      	ldr	r3, [r4, #0]
20000142:	f3bf 8f5f 	dmb	sy
20000146:	2200      	movs	r2, #0
20000148:	601a      	str	r2, [r3, #0]
2000014a:	f38c 8810 	msr	PRIMASK, ip
2000014e:	0038      	movs	r0, r7
20000150:	4641      	mov	r1, r8
20000152:	f000 fcf5 	bl	20000b40 <__best_effort_wfe_or_timeout_veneer>
20000156:	2800      	cmp	r0, #0
20000158:	d0e5      	beq.n	20000126 <mutex_enter_block_until+0x1e>
2000015a:	2000      	movs	r0, #0
2000015c:	e00f      	b.n	2000017e <mutex_enter_block_until+0x76>
2000015e:	4b0a      	ldr	r3, [pc, #40]	; (20000188 <mutex_enter_block_until+0x80>)
20000160:	4a0a      	ldr	r2, [pc, #40]	; (2000018c <mutex_enter_block_until+0x84>)
20000162:	2185      	movs	r1, #133	; 0x85
20000164:	480a      	ldr	r0, [pc, #40]	; (20000190 <mutex_enter_block_until+0x88>)
20000166:	f000 fcdb 	bl	20000b20 <____assert_func_veneer>
2000016a:	464b      	mov	r3, r9
2000016c:	7123      	strb	r3, [r4, #4]
2000016e:	6823      	ldr	r3, [r4, #0]
20000170:	f3bf 8f5f 	dmb	sy
20000174:	2200      	movs	r2, #0
20000176:	601a      	str	r2, [r3, #0]
20000178:	f38c 8810 	msr	PRIMASK, ip
2000017c:	2001      	movs	r0, #1
2000017e:	bcc0      	pop	{r6, r7}
20000180:	46b9      	mov	r9, r7
20000182:	46b0      	mov	r8, r6
20000184:	bdf8      	pop	{r3, r4, r5, r6, r7, pc}
20000186:	46c0      	nop			; (mov r8, r8)
20000188:	10006f8c 	.word	0x10006f8c
2000018c:	10007064 	.word	0x10007064
20000190:	10006f38 	.word	0x10006f38

20000194 <mutex_try_enter_block_until>:
20000194:	b570      	push	{r4, r5, r6, lr}
20000196:	b082      	sub	sp, #8
20000198:	0006      	movs	r6, r0
2000019a:	0015      	movs	r5, r2
2000019c:	001c      	movs	r4, r3
2000019e:	a901      	add	r1, sp, #4
200001a0:	f7ff ff8e 	bl	200000c0 <mutex_try_enter>
200001a4:	2800      	cmp	r0, #0
200001a6:	d107      	bne.n	200001b8 <mutex_try_enter_block_until+0x24>
200001a8:	9b01      	ldr	r3, [sp, #4]
200001aa:	b25b      	sxtb	r3, r3
200001ac:	22d0      	movs	r2, #208	; 0xd0
200001ae:	0612      	lsls	r2, r2, #24
200001b0:	7812      	ldrb	r2, [r2, #0]
200001b2:	b252      	sxtb	r2, r2
200001b4:	4293      	cmp	r3, r2
200001b6:	d101      	bne.n	200001bc <mutex_try_enter_block_until+0x28>
200001b8:	b002      	add	sp, #8
200001ba:	bd70      	pop	{r4, r5, r6, pc}
200001bc:	002a      	movs	r2, r5
200001be:	0023      	movs	r3, r4
200001c0:	0030      	movs	r0, r6
200001c2:	f7ff ffa1 	bl	20000108 <mutex_enter_block_until>
200001c6:	e7f7      	b.n	200001b8 <mutex_try_enter_block_until+0x24>

200001c8 <mutex_enter_timeout_ms>:
200001c8:	b5f8      	push	{r3, r4, r5, r6, r7, lr}
200001ca:	0006      	movs	r6, r0
200001cc:	000f      	movs	r7, r1
200001ce:	f000 fce7 	bl	20000ba0 <__time_us_64_veneer>
200001d2:	0004      	movs	r4, r0
200001d4:	1e0d      	subs	r5, r1, #0
200001d6:	db12      	blt.n	200001fe <mutex_enter_timeout_ms+0x36>
200001d8:	22fa      	movs	r2, #250	; 0xfa
200001da:	0092      	lsls	r2, r2, #2
200001dc:	2300      	movs	r3, #0
200001de:	0038      	movs	r0, r7
200001e0:	2100      	movs	r1, #0
200001e2:	f000 fcbd 	bl	20000b60 <____wrap___aeabi_lmul_veneer>
200001e6:	0022      	movs	r2, r4
200001e8:	002b      	movs	r3, r5
200001ea:	1812      	adds	r2, r2, r0
200001ec:	414b      	adcs	r3, r1
200001ee:	2b00      	cmp	r3, #0
200001f0:	db0b      	blt.n	2000020a <mutex_enter_timeout_ms+0x42>
200001f2:	2b00      	cmp	r3, #0
200001f4:	db0d      	blt.n	20000212 <mutex_enter_timeout_ms+0x4a>
200001f6:	0030      	movs	r0, r6
200001f8:	f7ff ff86 	bl	20000108 <mutex_enter_block_until>
200001fc:	bdf8      	pop	{r3, r4, r5, r6, r7, pc}
200001fe:	4b08      	ldr	r3, [pc, #32]	; (20000220 <mutex_enter_timeout_ms+0x58>)
20000200:	4a08      	ldr	r2, [pc, #32]	; (20000224 <mutex_enter_timeout_ms+0x5c>)
20000202:	213f      	movs	r1, #63	; 0x3f
20000204:	4808      	ldr	r0, [pc, #32]	; (20000228 <mutex_enter_timeout_ms+0x60>)
20000206:	f000 fc8b 	bl	20000b20 <____assert_func_veneer>
2000020a:	2201      	movs	r2, #1
2000020c:	4252      	negs	r2, r2
2000020e:	4b07      	ldr	r3, [pc, #28]	; (2000022c <mutex_enter_timeout_ms+0x64>)
20000210:	e7ef      	b.n	200001f2 <mutex_enter_timeout_ms+0x2a>
20000212:	4b03      	ldr	r3, [pc, #12]	; (20000220 <mutex_enter_timeout_ms+0x58>)
20000214:	4a03      	ldr	r2, [pc, #12]	; (20000224 <mutex_enter_timeout_ms+0x5c>)
20000216:	213f      	movs	r1, #63	; 0x3f
20000218:	4803      	ldr	r0, [pc, #12]	; (20000228 <mutex_enter_timeout_ms+0x60>)
2000021a:	f000 fc81 	bl	20000b20 <____assert_func_veneer>
2000021e:	46c0      	nop			; (mov r8, r8)
20000220:	10006fa0 	.word	0x10006fa0
20000224:	1000707c 	.word	0x1000707c
20000228:	10006fbc 	.word	0x10006fbc
2000022c:	7fffffff 	.word	0x7fffffff

20000230 <mutex_exit>:
20000230:	b510      	push	{r4, lr}
20000232:	6802      	ldr	r2, [r0, #0]
20000234:	f3ef 8110 	mrs	r1, PRIMASK
20000238:	b672      	cpsid	i
2000023a:	6813      	ldr	r3, [r2, #0]
2000023c:	2b00      	cmp	r3, #0
2000023e:	d0fc      	beq.n	2000023a <mutex_exit+0xa>
20000240:	f3bf 8f5f 	dmb	sy
20000244:	2304      	movs	r3, #4
20000246:	56c3      	ldrsb	r3, [r0, r3]
20000248:	2b00      	cmp	r3, #0
2000024a:	db0a      	blt.n	20000262 <mutex_exit+0x32>
2000024c:	23ff      	movs	r3, #255	; 0xff
2000024e:	7103      	strb	r3, [r0, #4]
20000250:	6803      	ldr	r3, [r0, #0]
20000252:	f3bf 8f5f 	dmb	sy
20000256:	2200      	movs	r2, #0
20000258:	601a      	str	r2, [r3, #0]
2000025a:	f381 8810 	msr	PRIMASK, r1
2000025e:	bf40      	sev
20000260:	bd10      	pop	{r4, pc}
20000262:	4b03      	ldr	r3, [pc, #12]	; (20000270 <mutex_exit+0x40>)
20000264:	4a03      	ldr	r2, [pc, #12]	; (20000274 <mutex_exit+0x44>)
20000266:	21b4      	movs	r1, #180	; 0xb4
20000268:	4803      	ldr	r0, [pc, #12]	; (20000278 <mutex_exit+0x48>)
2000026a:	f000 fc59 	bl	20000b20 <____assert_func_veneer>
2000026e:	46c0      	nop			; (mov r8, r8)
20000270:	10007020 	.word	0x10007020
20000274:	10007058 	.word	0x10007058
20000278:	10006f38 	.word	0x10006f38

2000027c <flash_init_boot2_copyout>:
2000027c:	4b09      	ldr	r3, [pc, #36]	; (200002a4 <flash_init_boot2_copyout+0x28>)
2000027e:	781b      	ldrb	r3, [r3, #0]
20000280:	2b00      	cmp	r3, #0
20000282:	d008      	beq.n	20000296 <flash_init_boot2_copyout+0x1a>
20000284:	e00c      	b.n	200002a0 <flash_init_boot2_copyout+0x24>
20000286:	009a      	lsls	r2, r3, #2
20000288:	2180      	movs	r1, #128	; 0x80
2000028a:	0549      	lsls	r1, r1, #21
2000028c:	1851      	adds	r1, r2, r1
2000028e:	6808      	ldr	r0, [r1, #0]
20000290:	4905      	ldr	r1, [pc, #20]	; (200002a8 <flash_init_boot2_copyout+0x2c>)
20000292:	5050      	str	r0, [r2, r1]
20000294:	3301      	adds	r3, #1
20000296:	2b3f      	cmp	r3, #63	; 0x3f
20000298:	ddf5      	ble.n	20000286 <flash_init_boot2_copyout+0xa>
2000029a:	4b02      	ldr	r3, [pc, #8]	; (200002a4 <flash_init_boot2_copyout+0x28>)
2000029c:	2201      	movs	r2, #1
2000029e:	701a      	strb	r2, [r3, #0]
200002a0:	4770      	bx	lr
200002a2:	46c0      	nop			; (mov r8, r8)
200002a4:	20001a53 	.word	0x20001a53
200002a8:	20001240 	.word	0x20001240

200002ac <flash_enable_xip_via_boot2>:
200002ac:	b510      	push	{r4, lr}
200002ae:	4b02      	ldr	r3, [pc, #8]	; (200002b8 <flash_enable_xip_via_boot2+0xc>)
200002b0:	3301      	adds	r3, #1
200002b2:	4798      	blx	r3
200002b4:	bd10      	pop	{r4, pc}
200002b6:	46c0      	nop			; (mov r8, r8)
200002b8:	20001240 	.word	0x20001240

200002bc <flash_cs_force>:
200002bc:	2800      	cmp	r0, #0
200002be:	d00a      	beq.n	200002d6 <flash_cs_force+0x1a>
200002c0:	2303      	movs	r3, #3
200002c2:	021b      	lsls	r3, r3, #8
200002c4:	4a05      	ldr	r2, [pc, #20]	; (200002dc <flash_cs_force+0x20>)
200002c6:	6812      	ldr	r2, [r2, #0]
200002c8:	4053      	eors	r3, r2
200002ca:	22c0      	movs	r2, #192	; 0xc0
200002cc:	0092      	lsls	r2, r2, #2
200002ce:	4013      	ands	r3, r2
200002d0:	4a03      	ldr	r2, [pc, #12]	; (200002e0 <flash_cs_force+0x24>)
200002d2:	6013      	str	r3, [r2, #0]
200002d4:	4770      	bx	lr
200002d6:	2302      	movs	r3, #2
200002d8:	e7f3      	b.n	200002c2 <flash_cs_force+0x6>
200002da:	46c0      	nop			; (mov r8, r8)
200002dc:	4001800c 	.word	0x4001800c
200002e0:	4001900c 	.word	0x4001900c

200002e4 <flash_do_cmd>:
200002e4:	b5f0      	push	{r4, r5, r6, r7, lr}
200002e6:	46d6      	mov	lr, sl
200002e8:	464f      	mov	r7, r9
200002ea:	4646      	mov	r6, r8
200002ec:	b5c0      	push	{r6, r7, lr}
200002ee:	0007      	movs	r7, r0
200002f0:	000e      	movs	r6, r1
200002f2:	0015      	movs	r5, r2
200002f4:	2318      	movs	r3, #24
200002f6:	469a      	mov	sl, r3
200002f8:	881b      	ldrh	r3, [r3, #0]
200002fa:	2214      	movs	r2, #20
200002fc:	4690      	mov	r8, r2
200002fe:	8810      	ldrh	r0, [r2, #0]
20000300:	4928      	ldr	r1, [pc, #160]	; (200003a4 <flash_do_cmd+0xc0>)
20000302:	4798      	blx	r3
20000304:	4681      	mov	r9, r0
20000306:	4653      	mov	r3, sl
20000308:	881b      	ldrh	r3, [r3, #0]
2000030a:	4642      	mov	r2, r8
2000030c:	8810      	ldrh	r0, [r2, #0]
2000030e:	4926      	ldr	r1, [pc, #152]	; (200003a8 <flash_do_cmd+0xc4>)
20000310:	4798      	blx	r3
20000312:	0004      	movs	r4, r0
20000314:	4653      	mov	r3, sl
20000316:	881b      	ldrh	r3, [r3, #0]
20000318:	4642      	mov	r2, r8
2000031a:	8810      	ldrh	r0, [r2, #0]
2000031c:	4923      	ldr	r1, [pc, #140]	; (200003ac <flash_do_cmd+0xc8>)
2000031e:	4798      	blx	r3
20000320:	4680      	mov	r8, r0
20000322:	464b      	mov	r3, r9
20000324:	2b00      	cmp	r3, #0
20000326:	d00c      	beq.n	20000342 <flash_do_cmd+0x5e>
20000328:	2c00      	cmp	r4, #0
2000032a:	d00a      	beq.n	20000342 <flash_do_cmd+0x5e>
2000032c:	2800      	cmp	r0, #0
2000032e:	d008      	beq.n	20000342 <flash_do_cmd+0x5e>
20000330:	f7ff ffa4 	bl	2000027c <flash_init_boot2_copyout>
20000334:	47c8      	blx	r9
20000336:	47a0      	blx	r4
20000338:	2000      	movs	r0, #0
2000033a:	f7ff ffbf 	bl	200002bc <flash_cs_force>
2000033e:	002a      	movs	r2, r5
20000340:	e00f      	b.n	20000362 <flash_do_cmd+0x7e>
20000342:	4b1b      	ldr	r3, [pc, #108]	; (200003b0 <flash_do_cmd+0xcc>)
20000344:	4a1b      	ldr	r2, [pc, #108]	; (200003b4 <flash_do_cmd+0xd0>)
20000346:	2180      	movs	r1, #128	; 0x80
20000348:	481b      	ldr	r0, [pc, #108]	; (200003b8 <flash_do_cmd+0xd4>)
2000034a:	f000 fbe9 	bl	20000b20 <____assert_func_veneer>
2000034e:	2b00      	cmp	r3, #0
20000350:	d007      	beq.n	20000362 <flash_do_cmd+0x7e>
20000352:	2a00      	cmp	r2, #0
20000354:	d005      	beq.n	20000362 <flash_do_cmd+0x7e>
20000356:	23c0      	movs	r3, #192	; 0xc0
20000358:	055b      	lsls	r3, r3, #21
2000035a:	6e1b      	ldr	r3, [r3, #96]	; 0x60
2000035c:	7033      	strb	r3, [r6, #0]
2000035e:	3a01      	subs	r2, #1
20000360:	3601      	adds	r6, #1
20000362:	002b      	movs	r3, r5
20000364:	4313      	orrs	r3, r2
20000366:	d012      	beq.n	2000038e <flash_do_cmd+0xaa>
20000368:	23c0      	movs	r3, #192	; 0xc0
2000036a:	055b      	lsls	r3, r3, #21
2000036c:	6a9c      	ldr	r4, [r3, #40]	; 0x28
2000036e:	2308      	movs	r3, #8
20000370:	4023      	ands	r3, r4
20000372:	07a1      	lsls	r1, r4, #30
20000374:	d5eb      	bpl.n	2000034e <flash_do_cmd+0x6a>
20000376:	2d00      	cmp	r5, #0
20000378:	d0e9      	beq.n	2000034e <flash_do_cmd+0x6a>
2000037a:	1b51      	subs	r1, r2, r5
2000037c:	290d      	cmp	r1, #13
2000037e:	d8e6      	bhi.n	2000034e <flash_do_cmd+0x6a>
20000380:	7838      	ldrb	r0, [r7, #0]
20000382:	21c0      	movs	r1, #192	; 0xc0
20000384:	0549      	lsls	r1, r1, #21
20000386:	6608      	str	r0, [r1, #96]	; 0x60
20000388:	3d01      	subs	r5, #1
2000038a:	3701      	adds	r7, #1
2000038c:	e7df      	b.n	2000034e <flash_do_cmd+0x6a>
2000038e:	2001      	movs	r0, #1
20000390:	f7ff ff94 	bl	200002bc <flash_cs_force>
20000394:	47c0      	blx	r8
20000396:	f7ff ff89 	bl	200002ac <flash_enable_xip_via_boot2>
2000039a:	bce0      	pop	{r5, r6, r7}
2000039c:	46ba      	mov	sl, r7
2000039e:	46b1      	mov	r9, r6
200003a0:	46a8      	mov	r8, r5
200003a2:	bdf0      	pop	{r4, r5, r6, r7, pc}
200003a4:	00004649 	.word	0x00004649
200003a8:	00005845 	.word	0x00005845
200003ac:	00004346 	.word	0x00004346
200003b0:	100080cc 	.word	0x100080cc
200003b4:	1000810c 	.word	0x1000810c
200003b8:	10007fc0 	.word	0x10007fc0

200003bc <reset_non_control_endpoints>:
200003bc:	b510      	push	{r4, lr}
200003be:	2300      	movs	r3, #0
200003c0:	e008      	b.n	200003d4 <reset_non_control_endpoints+0x18>
200003c2:	3301      	adds	r3, #1
200003c4:	00da      	lsls	r2, r3, #3
200003c6:	2100      	movs	r1, #0
200003c8:	4808      	ldr	r0, [pc, #32]	; (200003ec <reset_non_control_endpoints+0x30>)
200003ca:	5011      	str	r1, [r2, r0]
200003cc:	4684      	mov	ip, r0
200003ce:	4462      	add	r2, ip
200003d0:	6051      	str	r1, [r2, #4]
200003d2:	b2db      	uxtb	r3, r3
200003d4:	2b0e      	cmp	r3, #14
200003d6:	d9f4      	bls.n	200003c2 <reset_non_control_endpoints+0x6>
200003d8:	22f0      	movs	r2, #240	; 0xf0
200003da:	0092      	lsls	r2, r2, #2
200003dc:	2100      	movs	r1, #0
200003de:	4804      	ldr	r0, [pc, #16]	; (200003f0 <reset_non_control_endpoints+0x34>)
200003e0:	f000 fbc6 	bl	20000b70 <____wrap_memset_veneer>
200003e4:	4b03      	ldr	r3, [pc, #12]	; (200003f4 <reset_non_control_endpoints+0x38>)
200003e6:	4a04      	ldr	r2, [pc, #16]	; (200003f8 <reset_non_control_endpoints+0x3c>)
200003e8:	601a      	str	r2, [r3, #0]
200003ea:	bd10      	pop	{r4, pc}
200003ec:	50100000 	.word	0x50100000
200003f0:	20001430 	.word	0x20001430
200003f4:	200017f4 	.word	0x200017f4
200003f8:	50100180 	.word	0x50100180

200003fc <hw_handle_buff_status>:
200003fc:	b5f0      	push	{r4, r5, r6, r7, lr}
200003fe:	46ce      	mov	lr, r9
20000400:	4647      	mov	r7, r8
20000402:	b580      	push	{r7, lr}
20000404:	b085      	sub	sp, #20
20000406:	4b23      	ldr	r3, [pc, #140]	; (20000494 <hw_handle_buff_status+0x98>)
20000408:	6d9f      	ldr	r7, [r3, #88]	; 0x58
2000040a:	2400      	movs	r4, #0
2000040c:	2601      	movs	r6, #1
2000040e:	e003      	b.n	20000418 <hw_handle_buff_status+0x1c>
20000410:	43b7      	bics	r7, r6
20000412:	0076      	lsls	r6, r6, #1
20000414:	3401      	adds	r4, #1
20000416:	b2e4      	uxtb	r4, r4
20000418:	2f00      	cmp	r7, #0
2000041a:	d036      	beq.n	2000048a <hw_handle_buff_status+0x8e>
2000041c:	2c1f      	cmp	r4, #31
2000041e:	d834      	bhi.n	2000048a <hw_handle_buff_status+0x8e>
20000420:	423e      	tst	r6, r7
20000422:	d0f6      	beq.n	20000412 <hw_handle_buff_status+0x16>
20000424:	4b1c      	ldr	r3, [pc, #112]	; (20000498 <hw_handle_buff_status+0x9c>)
20000426:	659e      	str	r6, [r3, #88]	; 0x58
20000428:	0863      	lsrs	r3, r4, #1
2000042a:	4699      	mov	r9, r3
2000042c:	2301      	movs	r3, #1
2000042e:	4063      	eors	r3, r4
20000430:	2201      	movs	r2, #1
20000432:	401a      	ands	r2, r3
20000434:	4690      	mov	r8, r2
20000436:	464b      	mov	r3, r9
20000438:	005d      	lsls	r5, r3, #1
2000043a:	4445      	add	r5, r8
2000043c:	016d      	lsls	r5, r5, #5
2000043e:	4b17      	ldr	r3, [pc, #92]	; (2000049c <hw_handle_buff_status+0xa0>)
20000440:	18ed      	adds	r5, r5, r3
20000442:	0028      	movs	r0, r5
20000444:	f000 fa42 	bl	200008cc <hw_endpoint_xfer_continue>
20000448:	2800      	cmp	r0, #0
2000044a:	d0e1      	beq.n	20000410 <hw_handle_buff_status+0x14>
2000044c:	464b      	mov	r3, r9
2000044e:	005b      	lsls	r3, r3, #1
20000450:	4443      	add	r3, r8
20000452:	015b      	lsls	r3, r3, #5
20000454:	4a11      	ldr	r2, [pc, #68]	; (2000049c <hw_handle_buff_status+0xa0>)
20000456:	18d3      	adds	r3, r2, r3
20000458:	789a      	ldrb	r2, [r3, #2]
2000045a:	4691      	mov	r9, r2
2000045c:	8adb      	ldrh	r3, [r3, #22]
2000045e:	4698      	mov	r8, r3
20000460:	220c      	movs	r2, #12
20000462:	2100      	movs	r1, #0
20000464:	a801      	add	r0, sp, #4
20000466:	f000 fb83 	bl	20000b70 <____wrap_memset_veneer>
2000046a:	2307      	movs	r3, #7
2000046c:	466a      	mov	r2, sp
2000046e:	7153      	strb	r3, [r2, #5]
20000470:	466b      	mov	r3, sp
20000472:	464a      	mov	r2, r9
20000474:	721a      	strb	r2, [r3, #8]
20000476:	4643      	mov	r3, r8
20000478:	9303      	str	r3, [sp, #12]
2000047a:	2101      	movs	r1, #1
2000047c:	a801      	add	r0, sp, #4
2000047e:	f000 fa4d 	bl	2000091c <dcd_event_handler>
20000482:	0028      	movs	r0, r5
20000484:	f000 f9ac 	bl	200007e0 <hw_endpoint_reset_transfer>
20000488:	e7c2      	b.n	20000410 <hw_handle_buff_status+0x14>
2000048a:	b005      	add	sp, #20
2000048c:	bcc0      	pop	{r6, r7}
2000048e:	46b9      	mov	r9, r7
20000490:	46b0      	mov	r8, r6
20000492:	bdf0      	pop	{r4, r5, r6, r7, pc}
20000494:	50110000 	.word	0x50110000
20000498:	50113000 	.word	0x50113000
2000049c:	200013f0 	.word	0x200013f0

200004a0 <dcd_rp2040_irq>:
200004a0:	b5f0      	push	{r4, r5, r6, r7, lr}
200004a2:	b085      	sub	sp, #20
200004a4:	4a68      	ldr	r2, [pc, #416]	; (20000648 <dcd_rp2040_irq+0x1a8>)
200004a6:	2398      	movs	r3, #152	; 0x98
200004a8:	58d5      	ldr	r5, [r2, r3]
200004aa:	2380      	movs	r3, #128	; 0x80
200004ac:	029b      	lsls	r3, r3, #10
200004ae:	002c      	movs	r4, r5
200004b0:	401c      	ands	r4, r3
200004b2:	421d      	tst	r5, r3
200004b4:	d04a      	beq.n	2000054c <dcd_rp2040_irq+0xac>
200004b6:	4b65      	ldr	r3, [pc, #404]	; (2000064c <dcd_rp2040_irq+0x1ac>)
200004b8:	6a9a      	ldr	r2, [r3, #40]	; 0x28
200004ba:	4b65      	ldr	r3, [pc, #404]	; (20000650 <dcd_rp2040_irq+0x1b0>)
200004bc:	601a      	str	r2, [r3, #0]
200004be:	2400      	movs	r4, #0
200004c0:	2600      	movs	r6, #0
200004c2:	e009      	b.n	200004d8 <dcd_rp2040_irq+0x38>
200004c4:	4b63      	ldr	r3, [pc, #396]	; (20000654 <dcd_rp2040_irq+0x1b4>)
200004c6:	1899      	adds	r1, r3, r2
200004c8:	313c      	adds	r1, #60	; 0x3c
200004ca:	2300      	movs	r3, #0
200004cc:	700b      	strb	r3, [r1, #0]
200004ce:	f000 f9b9 	bl	20000844 <hw_endpoint_start_next_buffer>
200004d2:	003e      	movs	r6, r7
200004d4:	3401      	adds	r4, #1
200004d6:	b2e4      	uxtb	r4, r4
200004d8:	2c0f      	cmp	r4, #15
200004da:	d817      	bhi.n	2000050c <dcd_rp2040_irq+0x6c>
200004dc:	01a2      	lsls	r2, r4, #6
200004de:	0010      	movs	r0, r2
200004e0:	3020      	adds	r0, #32
200004e2:	4b5c      	ldr	r3, [pc, #368]	; (20000654 <dcd_rp2040_irq+0x1b4>)
200004e4:	18c0      	adds	r0, r0, r3
200004e6:	189b      	adds	r3, r3, r2
200004e8:	333b      	adds	r3, #59	; 0x3b
200004ea:	781b      	ldrb	r3, [r3, #0]
200004ec:	2b02      	cmp	r3, #2
200004ee:	d1f1      	bne.n	200004d4 <dcd_rp2040_irq+0x34>
200004f0:	4b58      	ldr	r3, [pc, #352]	; (20000654 <dcd_rp2040_irq+0x1b4>)
200004f2:	189b      	adds	r3, r3, r2
200004f4:	333a      	adds	r3, #58	; 0x3a
200004f6:	781f      	ldrb	r7, [r3, #0]
200004f8:	2f00      	cmp	r7, #0
200004fa:	d0eb      	beq.n	200004d4 <dcd_rp2040_irq+0x34>
200004fc:	4b55      	ldr	r3, [pc, #340]	; (20000654 <dcd_rp2040_irq+0x1b4>)
200004fe:	189b      	adds	r3, r3, r2
20000500:	333c      	adds	r3, #60	; 0x3c
20000502:	781b      	ldrb	r3, [r3, #0]
20000504:	2b00      	cmp	r3, #0
20000506:	d1dd      	bne.n	200004c4 <dcd_rp2040_irq+0x24>
20000508:	003e      	movs	r6, r7
2000050a:	e7e3      	b.n	200004d4 <dcd_rp2040_irq+0x34>
2000050c:	2e00      	cmp	r6, #0
2000050e:	d108      	bne.n	20000522 <dcd_rp2040_irq+0x82>
20000510:	4b51      	ldr	r3, [pc, #324]	; (20000658 <dcd_rp2040_irq+0x1b8>)
20000512:	781b      	ldrb	r3, [r3, #0]
20000514:	2b00      	cmp	r3, #0
20000516:	d104      	bne.n	20000522 <dcd_rp2040_irq+0x82>
20000518:	4a50      	ldr	r2, [pc, #320]	; (2000065c <dcd_rp2040_irq+0x1bc>)
2000051a:	3390      	adds	r3, #144	; 0x90
2000051c:	2180      	movs	r1, #128	; 0x80
2000051e:	0289      	lsls	r1, r1, #10
20000520:	50d1      	str	r1, [r2, r3]
20000522:	4b49      	ldr	r3, [pc, #292]	; (20000648 <dcd_rp2040_irq+0x1a8>)
20000524:	6c9c      	ldr	r4, [r3, #72]	; 0x48
20000526:	0564      	lsls	r4, r4, #21
20000528:	0d64      	lsrs	r4, r4, #21
2000052a:	220c      	movs	r2, #12
2000052c:	2100      	movs	r1, #0
2000052e:	a801      	add	r0, sp, #4
20000530:	f000 fb1e 	bl	20000b70 <____wrap_memset_veneer>
20000534:	2300      	movs	r3, #0
20000536:	466a      	mov	r2, sp
20000538:	7113      	strb	r3, [r2, #4]
2000053a:	3303      	adds	r3, #3
2000053c:	7153      	strb	r3, [r2, #5]
2000053e:	9402      	str	r4, [sp, #8]
20000540:	2101      	movs	r1, #1
20000542:	a801      	add	r0, sp, #4
20000544:	f000 f9ea 	bl	2000091c <dcd_event_handler>
20000548:	2480      	movs	r4, #128	; 0x80
2000054a:	02a4      	lsls	r4, r4, #10
2000054c:	06eb      	lsls	r3, r5, #27
2000054e:	d409      	bmi.n	20000564 <dcd_rp2040_irq+0xc4>
20000550:	03eb      	lsls	r3, r5, #15
20000552:	d529      	bpl.n	200005a8 <dcd_rp2040_irq+0x108>
20000554:	2380      	movs	r3, #128	; 0x80
20000556:	025b      	lsls	r3, r3, #9
20000558:	431c      	orrs	r4, r3
2000055a:	ab01      	add	r3, sp, #4
2000055c:	4a40      	ldr	r2, [pc, #256]	; (20000660 <dcd_rp2040_irq+0x1c0>)
2000055e:	801a      	strh	r2, [r3, #0]
20000560:	2600      	movs	r6, #0
20000562:	e00b      	b.n	2000057c <dcd_rp2040_irq+0xdc>
20000564:	2310      	movs	r3, #16
20000566:	431c      	orrs	r4, r3
20000568:	f7ff ff48 	bl	200003fc <hw_handle_buff_status>
2000056c:	e7f0      	b.n	20000550 <dcd_rp2040_irq+0xb0>
2000056e:	ab01      	add	r3, sp, #4
20000570:	5d98      	ldrb	r0, [r3, r6]
20000572:	f000 fb0d 	bl	20000b90 <__hw_endpoint_get_by_addr_veneer>
20000576:	2301      	movs	r3, #1
20000578:	70c3      	strb	r3, [r0, #3]
2000057a:	3601      	adds	r6, #1
2000057c:	2e01      	cmp	r6, #1
2000057e:	d9f6      	bls.n	2000056e <dcd_rp2040_irq+0xce>
20000580:	ae01      	add	r6, sp, #4
20000582:	220c      	movs	r2, #12
20000584:	2100      	movs	r1, #0
20000586:	0030      	movs	r0, r6
20000588:	f000 faf2 	bl	20000b70 <____wrap_memset_veneer>
2000058c:	2306      	movs	r3, #6
2000058e:	7073      	strb	r3, [r6, #1]
20000590:	4a34      	ldr	r2, [pc, #208]	; (20000664 <dcd_rp2040_irq+0x1c4>)
20000592:	ab02      	add	r3, sp, #8
20000594:	ca03      	ldmia	r2!, {r0, r1}
20000596:	c303      	stmia	r3!, {r0, r1}
20000598:	2101      	movs	r1, #1
2000059a:	0030      	movs	r0, r6
2000059c:	f000 f9be 	bl	2000091c <dcd_event_handler>
200005a0:	4b2e      	ldr	r3, [pc, #184]	; (2000065c <dcd_rp2040_irq+0x1bc>)
200005a2:	2280      	movs	r2, #128	; 0x80
200005a4:	0292      	lsls	r2, r2, #10
200005a6:	651a      	str	r2, [r3, #80]	; 0x50
200005a8:	04eb      	lsls	r3, r5, #19
200005aa:	d407      	bmi.n	200005bc <dcd_rp2040_irq+0x11c>
200005ac:	046b      	lsls	r3, r5, #17
200005ae:	d41e      	bmi.n	200005ee <dcd_rp2040_irq+0x14e>
200005b0:	042b      	lsls	r3, r5, #16
200005b2:	d42f      	bmi.n	20000614 <dcd_rp2040_irq+0x174>
200005b4:	42ac      	cmp	r4, r5
200005b6:	d141      	bne.n	2000063c <dcd_rp2040_irq+0x19c>
200005b8:	b005      	add	sp, #20
200005ba:	bdf0      	pop	{r4, r5, r6, r7, pc}
200005bc:	2380      	movs	r3, #128	; 0x80
200005be:	015b      	lsls	r3, r3, #5
200005c0:	431c      	orrs	r4, r3
200005c2:	4b21      	ldr	r3, [pc, #132]	; (20000648 <dcd_rp2040_irq+0x1a8>)
200005c4:	2200      	movs	r2, #0
200005c6:	601a      	str	r2, [r3, #0]
200005c8:	f7ff fef8 	bl	200003bc <reset_non_control_endpoints>
200005cc:	ae01      	add	r6, sp, #4
200005ce:	220c      	movs	r2, #12
200005d0:	2100      	movs	r1, #0
200005d2:	0030      	movs	r0, r6
200005d4:	f000 facc 	bl	20000b70 <____wrap_memset_veneer>
200005d8:	2301      	movs	r3, #1
200005da:	7073      	strb	r3, [r6, #1]
200005dc:	2101      	movs	r1, #1
200005de:	0030      	movs	r0, r6
200005e0:	f000 f99c 	bl	2000091c <dcd_event_handler>
200005e4:	4b1d      	ldr	r3, [pc, #116]	; (2000065c <dcd_rp2040_irq+0x1bc>)
200005e6:	2280      	movs	r2, #128	; 0x80
200005e8:	0312      	lsls	r2, r2, #12
200005ea:	651a      	str	r2, [r3, #80]	; 0x50
200005ec:	e7de      	b.n	200005ac <dcd_rp2040_irq+0x10c>
200005ee:	2380      	movs	r3, #128	; 0x80
200005f0:	01db      	lsls	r3, r3, #7
200005f2:	431c      	orrs	r4, r3
200005f4:	ae01      	add	r6, sp, #4
200005f6:	220c      	movs	r2, #12
200005f8:	2100      	movs	r1, #0
200005fa:	0030      	movs	r0, r6
200005fc:	f000 fab8 	bl	20000b70 <____wrap_memset_veneer>
20000600:	2304      	movs	r3, #4
20000602:	7073      	strb	r3, [r6, #1]
20000604:	2101      	movs	r1, #1
20000606:	0030      	movs	r0, r6
20000608:	f000 f988 	bl	2000091c <dcd_event_handler>
2000060c:	4b13      	ldr	r3, [pc, #76]	; (2000065c <dcd_rp2040_irq+0x1bc>)
2000060e:	2210      	movs	r2, #16
20000610:	651a      	str	r2, [r3, #80]	; 0x50
20000612:	e7cd      	b.n	200005b0 <dcd_rp2040_irq+0x110>
20000614:	2380      	movs	r3, #128	; 0x80
20000616:	021b      	lsls	r3, r3, #8
20000618:	431c      	orrs	r4, r3
2000061a:	ae01      	add	r6, sp, #4
2000061c:	220c      	movs	r2, #12
2000061e:	2100      	movs	r1, #0
20000620:	0030      	movs	r0, r6
20000622:	f000 faa5 	bl	20000b70 <____wrap_memset_veneer>
20000626:	2305      	movs	r3, #5
20000628:	7073      	strb	r3, [r6, #1]
2000062a:	2101      	movs	r1, #1
2000062c:	0030      	movs	r0, r6
2000062e:	f000 f975 	bl	2000091c <dcd_event_handler>
20000632:	4b0a      	ldr	r3, [pc, #40]	; (2000065c <dcd_rp2040_irq+0x1bc>)
20000634:	2280      	movs	r2, #128	; 0x80
20000636:	0112      	lsls	r2, r2, #4
20000638:	651a      	str	r2, [r3, #80]	; 0x50
2000063a:	e7bb      	b.n	200005b4 <dcd_rp2040_irq+0x114>
2000063c:	0021      	movs	r1, r4
2000063e:	4069      	eors	r1, r5
20000640:	4809      	ldr	r0, [pc, #36]	; (20000668 <dcd_rp2040_irq+0x1c8>)
20000642:	f000 fa9d 	bl	20000b80 <__panic_veneer>
20000646:	46c0      	nop			; (mov r8, r8)
20000648:	50110000 	.word	0x50110000
2000064c:	40054000 	.word	0x40054000
20000650:	200013e8 	.word	0x200013e8
20000654:	200013f0 	.word	0x200013f0
20000658:	20001a52 	.word	0x20001a52
2000065c:	50113000 	.word	0x50113000
20000660:	ffff8000 	.word	0xffff8000
20000664:	50100000 	.word	0x50100000
20000668:	100081f0 	.word	0x100081f0

2000066c <e15_is_bulkin_ep>:
2000066c:	4b09      	ldr	r3, [pc, #36]	; (20000694 <e15_is_bulkin_ep+0x28>)
2000066e:	6c1b      	ldr	r3, [r3, #64]	; 0x40
20000670:	079b      	lsls	r3, r3, #30
20000672:	d40c      	bmi.n	2000068e <e15_is_bulkin_ep+0x22>
20000674:	7883      	ldrb	r3, [r0, #2]
20000676:	09db      	lsrs	r3, r3, #7
20000678:	2b01      	cmp	r3, #1
2000067a:	d001      	beq.n	20000680 <e15_is_bulkin_ep+0x14>
2000067c:	2000      	movs	r0, #0
2000067e:	e007      	b.n	20000690 <e15_is_bulkin_ep+0x24>
20000680:	7ec3      	ldrb	r3, [r0, #27]
20000682:	2b02      	cmp	r3, #2
20000684:	d001      	beq.n	2000068a <e15_is_bulkin_ep+0x1e>
20000686:	2000      	movs	r0, #0
20000688:	e002      	b.n	20000690 <e15_is_bulkin_ep+0x24>
2000068a:	2001      	movs	r0, #1
2000068c:	e000      	b.n	20000690 <e15_is_bulkin_ep+0x24>
2000068e:	2000      	movs	r0, #0
20000690:	4770      	bx	lr
20000692:	46c0      	nop			; (mov r8, r8)
20000694:	50110000 	.word	0x50110000

20000698 <e15_is_critical_frame_period>:
20000698:	b510      	push	{r4, lr}
2000069a:	f7ff ffe7 	bl	2000066c <e15_is_bulkin_ep>
2000069e:	2800      	cmp	r0, #0
200006a0:	d009      	beq.n	200006b6 <e15_is_critical_frame_period+0x1e>
200006a2:	4b06      	ldr	r3, [pc, #24]	; (200006bc <e15_is_critical_frame_period+0x24>)
200006a4:	6a9b      	ldr	r3, [r3, #40]	; 0x28
200006a6:	4a06      	ldr	r2, [pc, #24]	; (200006c0 <e15_is_critical_frame_period+0x28>)
200006a8:	6812      	ldr	r2, [r2, #0]
200006aa:	1a9b      	subs	r3, r3, r2
200006ac:	4a05      	ldr	r2, [pc, #20]	; (200006c4 <e15_is_critical_frame_period+0x2c>)
200006ae:	4694      	mov	ip, r2
200006b0:	4463      	add	r3, ip
200006b2:	2bc6      	cmp	r3, #198	; 0xc6
200006b4:	d800      	bhi.n	200006b8 <e15_is_critical_frame_period+0x20>
200006b6:	bd10      	pop	{r4, pc}
200006b8:	2000      	movs	r0, #0
200006ba:	e7fc      	b.n	200006b6 <e15_is_critical_frame_period+0x1e>
200006bc:	40054000 	.word	0x40054000
200006c0:	200013e8 	.word	0x200013e8
200006c4:	fffffce0 	.word	0xfffffce0

200006c8 <prepare_ep_buffer>:
200006c8:	b5f8      	push	{r3, r4, r5, r6, r7, lr}
200006ca:	0004      	movs	r4, r0
200006cc:	000f      	movs	r7, r1
200006ce:	8a83      	ldrh	r3, [r0, #20]
200006d0:	8b02      	ldrh	r2, [r0, #24]
200006d2:	1c1e      	adds	r6, r3, #0
200006d4:	4293      	cmp	r3, r2
200006d6:	d900      	bls.n	200006da <prepare_ep_buffer+0x12>
200006d8:	1c16      	adds	r6, r2, #0
200006da:	b2b6      	uxth	r6, r6
200006dc:	1b9b      	subs	r3, r3, r6
200006de:	82a3      	strh	r3, [r4, #20]
200006e0:	2580      	movs	r5, #128	; 0x80
200006e2:	00ed      	lsls	r5, r5, #3
200006e4:	4335      	orrs	r5, r6
200006e6:	78e3      	ldrb	r3, [r4, #3]
200006e8:	2b00      	cmp	r3, #0
200006ea:	d013      	beq.n	20000714 <prepare_ep_buffer+0x4c>
200006ec:	2280      	movs	r2, #128	; 0x80
200006ee:	0192      	lsls	r2, r2, #6
200006f0:	4315      	orrs	r5, r2
200006f2:	2201      	movs	r2, #1
200006f4:	4053      	eors	r3, r2
200006f6:	70e3      	strb	r3, [r4, #3]
200006f8:	7863      	ldrb	r3, [r4, #1]
200006fa:	2b00      	cmp	r3, #0
200006fc:	d00c      	beq.n	20000718 <prepare_ep_buffer+0x50>
200006fe:	8aa3      	ldrh	r3, [r4, #20]
20000700:	2b00      	cmp	r3, #0
20000702:	d102      	bne.n	2000070a <prepare_ep_buffer+0x42>
20000704:	2380      	movs	r3, #128	; 0x80
20000706:	01db      	lsls	r3, r3, #7
20000708:	431d      	orrs	r5, r3
2000070a:	2f00      	cmp	r7, #0
2000070c:	d000      	beq.n	20000710 <prepare_ep_buffer+0x48>
2000070e:	042d      	lsls	r5, r5, #16
20000710:	0028      	movs	r0, r5
20000712:	bdf8      	pop	{r3, r4, r5, r6, r7, pc}
20000714:	2200      	movs	r2, #0
20000716:	e7eb      	b.n	200006f0 <prepare_ep_buffer+0x28>
20000718:	01b8      	lsls	r0, r7, #6
2000071a:	68e3      	ldr	r3, [r4, #12]
2000071c:	469c      	mov	ip, r3
2000071e:	4460      	add	r0, ip
20000720:	0032      	movs	r2, r6
20000722:	6921      	ldr	r1, [r4, #16]
20000724:	f000 fa14 	bl	20000b50 <____wrap_memcpy_veneer>
20000728:	6923      	ldr	r3, [r4, #16]
2000072a:	469c      	mov	ip, r3
2000072c:	4466      	add	r6, ip
2000072e:	6126      	str	r6, [r4, #16]
20000730:	2380      	movs	r3, #128	; 0x80
20000732:	021b      	lsls	r3, r3, #8
20000734:	431d      	orrs	r5, r3
20000736:	e7e2      	b.n	200006fe <prepare_ep_buffer+0x36>

20000738 <sync_ep_buffer>:
20000738:	b570      	push	{r4, r5, r6, lr}
2000073a:	0004      	movs	r4, r0
2000073c:	6883      	ldr	r3, [r0, #8]
2000073e:	681b      	ldr	r3, [r3, #0]
20000740:	2900      	cmp	r1, #0
20000742:	d000      	beq.n	20000746 <sync_ep_buffer+0xe>
20000744:	0c1b      	lsrs	r3, r3, #16
20000746:	059d      	lsls	r5, r3, #22
20000748:	0dad      	lsrs	r5, r5, #22
2000074a:	7862      	ldrb	r2, [r4, #1]
2000074c:	2a00      	cmp	r2, #0
2000074e:	d112      	bne.n	20000776 <sync_ep_buffer+0x3e>
20000750:	041b      	lsls	r3, r3, #16
20000752:	d409      	bmi.n	20000768 <sync_ep_buffer+0x30>
20000754:	8ae3      	ldrh	r3, [r4, #22]
20000756:	195b      	adds	r3, r3, r5
20000758:	82e3      	strh	r3, [r4, #22]
2000075a:	8b23      	ldrh	r3, [r4, #24]
2000075c:	42ab      	cmp	r3, r5
2000075e:	d901      	bls.n	20000764 <sync_ep_buffer+0x2c>
20000760:	2300      	movs	r3, #0
20000762:	82a3      	strh	r3, [r4, #20]
20000764:	0028      	movs	r0, r5
20000766:	bd70      	pop	{r4, r5, r6, pc}
20000768:	2181      	movs	r1, #129	; 0x81
2000076a:	4b0f      	ldr	r3, [pc, #60]	; (200007a8 <sync_ep_buffer+0x70>)
2000076c:	4a0f      	ldr	r2, [pc, #60]	; (200007ac <sync_ep_buffer+0x74>)
2000076e:	0049      	lsls	r1, r1, #1
20000770:	480f      	ldr	r0, [pc, #60]	; (200007b0 <sync_ep_buffer+0x78>)
20000772:	f000 f9d5 	bl	20000b20 <____assert_func_veneer>
20000776:	041b      	lsls	r3, r3, #16
20000778:	d50e      	bpl.n	20000798 <sync_ep_buffer+0x60>
2000077a:	0189      	lsls	r1, r1, #6
2000077c:	68e3      	ldr	r3, [r4, #12]
2000077e:	469c      	mov	ip, r3
20000780:	4461      	add	r1, ip
20000782:	002a      	movs	r2, r5
20000784:	6920      	ldr	r0, [r4, #16]
20000786:	f000 f9e3 	bl	20000b50 <____wrap_memcpy_veneer>
2000078a:	8ae3      	ldrh	r3, [r4, #22]
2000078c:	195b      	adds	r3, r3, r5
2000078e:	82e3      	strh	r3, [r4, #22]
20000790:	6923      	ldr	r3, [r4, #16]
20000792:	195b      	adds	r3, r3, r5
20000794:	6123      	str	r3, [r4, #16]
20000796:	e7e0      	b.n	2000075a <sync_ep_buffer+0x22>
20000798:	210a      	movs	r1, #10
2000079a:	4b06      	ldr	r3, [pc, #24]	; (200007b4 <sync_ep_buffer+0x7c>)
2000079c:	4a03      	ldr	r2, [pc, #12]	; (200007ac <sync_ep_buffer+0x74>)
2000079e:	31ff      	adds	r1, #255	; 0xff
200007a0:	4803      	ldr	r0, [pc, #12]	; (200007b0 <sync_ep_buffer+0x78>)
200007a2:	f000 f9bd 	bl	20000b20 <____assert_func_veneer>
200007a6:	46c0      	nop			; (mov r8, r8)
200007a8:	10008270 	.word	0x10008270
200007ac:	1000836c 	.word	0x1000836c
200007b0:	10008290 	.word	0x10008290
200007b4:	10008300 	.word	0x10008300

200007b8 <_hw_endpoint_xfer_sync>:
200007b8:	b510      	push	{r4, lr}
200007ba:	0004      	movs	r4, r0
200007bc:	6883      	ldr	r3, [r0, #8]
200007be:	681b      	ldr	r3, [r3, #0]
200007c0:	2100      	movs	r1, #0
200007c2:	f7ff ffb9 	bl	20000738 <sync_ep_buffer>
200007c6:	6863      	ldr	r3, [r4, #4]
200007c8:	681b      	ldr	r3, [r3, #0]
200007ca:	005b      	lsls	r3, r3, #1
200007cc:	d502      	bpl.n	200007d4 <_hw_endpoint_xfer_sync+0x1c>
200007ce:	8b23      	ldrh	r3, [r4, #24]
200007d0:	4283      	cmp	r3, r0
200007d2:	d000      	beq.n	200007d6 <_hw_endpoint_xfer_sync+0x1e>
200007d4:	bd10      	pop	{r4, pc}
200007d6:	2101      	movs	r1, #1
200007d8:	0020      	movs	r0, r4
200007da:	f7ff ffad 	bl	20000738 <sync_ep_buffer>
200007de:	e7f9      	b.n	200007d4 <_hw_endpoint_xfer_sync+0x1c>

200007e0 <hw_endpoint_reset_transfer>:
200007e0:	2300      	movs	r3, #0
200007e2:	7683      	strb	r3, [r0, #26]
200007e4:	8283      	strh	r3, [r0, #20]
200007e6:	82c3      	strh	r3, [r0, #22]
200007e8:	6103      	str	r3, [r0, #16]
200007ea:	4770      	bx	lr

200007ec <_hw_endpoint_buffer_control_update32>:
200007ec:	b510      	push	{r4, lr}
200007ee:	2900      	cmp	r1, #0
200007f0:	d002      	beq.n	200007f8 <_hw_endpoint_buffer_control_update32+0xc>
200007f2:	6883      	ldr	r3, [r0, #8]
200007f4:	681b      	ldr	r3, [r3, #0]
200007f6:	4019      	ands	r1, r3
200007f8:	2a00      	cmp	r2, #0
200007fa:	d00f      	beq.n	2000081c <_hw_endpoint_buffer_control_update32+0x30>
200007fc:	4311      	orrs	r1, r2
200007fe:	0553      	lsls	r3, r2, #21
20000800:	d50c      	bpl.n	2000081c <_hw_endpoint_buffer_control_update32+0x30>
20000802:	6882      	ldr	r2, [r0, #8]
20000804:	6813      	ldr	r3, [r2, #0]
20000806:	055b      	lsls	r3, r3, #21
20000808:	d40b      	bmi.n	20000822 <_hw_endpoint_buffer_control_update32+0x36>
2000080a:	4b0b      	ldr	r3, [pc, #44]	; (20000838 <_hw_endpoint_buffer_control_update32+0x4c>)
2000080c:	400b      	ands	r3, r1
2000080e:	6013      	str	r3, [r2, #0]
20000810:	e7ff      	b.n	20000812 <_hw_endpoint_buffer_control_update32+0x26>
20000812:	e7ff      	b.n	20000814 <_hw_endpoint_buffer_control_update32+0x28>
20000814:	e7ff      	b.n	20000816 <_hw_endpoint_buffer_control_update32+0x2a>
20000816:	e7ff      	b.n	20000818 <_hw_endpoint_buffer_control_update32+0x2c>
20000818:	e7ff      	b.n	2000081a <_hw_endpoint_buffer_control_update32+0x2e>
2000081a:	e7ff      	b.n	2000081c <_hw_endpoint_buffer_control_update32+0x30>
2000081c:	6883      	ldr	r3, [r0, #8]
2000081e:	6019      	str	r1, [r3, #0]
20000820:	bd10      	pop	{r4, pc}
20000822:	7883      	ldrb	r3, [r0, #2]
20000824:	217f      	movs	r1, #127	; 0x7f
20000826:	4019      	ands	r1, r3
20000828:	09db      	lsrs	r3, r3, #7
2000082a:	009b      	lsls	r3, r3, #2
2000082c:	4a03      	ldr	r2, [pc, #12]	; (2000083c <_hw_endpoint_buffer_control_update32+0x50>)
2000082e:	589a      	ldr	r2, [r3, r2]
20000830:	4803      	ldr	r0, [pc, #12]	; (20000840 <_hw_endpoint_buffer_control_update32+0x54>)
20000832:	f000 f9a5 	bl	20000b80 <__panic_veneer>
20000836:	46c0      	nop			; (mov r8, r8)
20000838:	fffffbff 	.word	0xfffffbff
2000083c:	20000c80 	.word	0x20000c80
20000840:	10008320 	.word	0x10008320

20000844 <hw_endpoint_start_next_buffer>:
20000844:	b570      	push	{r4, r5, r6, lr}
20000846:	0004      	movs	r4, r0
20000848:	6843      	ldr	r3, [r0, #4]
2000084a:	681e      	ldr	r6, [r3, #0]
2000084c:	2100      	movs	r1, #0
2000084e:	f7ff ff3b 	bl	200006c8 <prepare_ep_buffer>
20000852:	2580      	movs	r5, #128	; 0x80
20000854:	016d      	lsls	r5, r5, #5
20000856:	4305      	orrs	r5, r0
20000858:	4b19      	ldr	r3, [pc, #100]	; (200008c0 <hw_endpoint_start_next_buffer+0x7c>)
2000085a:	6c1b      	ldr	r3, [r3, #64]	; 0x40
2000085c:	2202      	movs	r2, #2
2000085e:	0011      	movs	r1, r2
20000860:	4019      	ands	r1, r3
20000862:	421a      	tst	r2, r3
20000864:	d102      	bne.n	2000086c <hw_endpoint_start_next_buffer+0x28>
20000866:	78a3      	ldrb	r3, [r4, #2]
20000868:	09db      	lsrs	r3, r3, #7
2000086a:	d006      	beq.n	2000087a <hw_endpoint_start_next_buffer+0x36>
2000086c:	2900      	cmp	r1, #0
2000086e:	d006      	beq.n	2000087e <hw_endpoint_start_next_buffer+0x3a>
20000870:	78a3      	ldrb	r3, [r4, #2]
20000872:	065b      	lsls	r3, r3, #25
20000874:	d116      	bne.n	200008a4 <hw_endpoint_start_next_buffer+0x60>
20000876:	2300      	movs	r3, #0
20000878:	e002      	b.n	20000880 <hw_endpoint_start_next_buffer+0x3c>
2000087a:	2301      	movs	r3, #1
2000087c:	e000      	b.n	20000880 <hw_endpoint_start_next_buffer+0x3c>
2000087e:	2300      	movs	r3, #0
20000880:	8aa2      	ldrh	r2, [r4, #20]
20000882:	2a00      	cmp	r2, #0
20000884:	d001      	beq.n	2000088a <hw_endpoint_start_next_buffer+0x46>
20000886:	2b00      	cmp	r3, #0
20000888:	d00e      	beq.n	200008a8 <hw_endpoint_start_next_buffer+0x64>
2000088a:	4b0e      	ldr	r3, [pc, #56]	; (200008c4 <hw_endpoint_start_next_buffer+0x80>)
2000088c:	401e      	ands	r6, r3
2000088e:	2380      	movs	r3, #128	; 0x80
20000890:	059b      	lsls	r3, r3, #22
20000892:	4333      	orrs	r3, r6
20000894:	6862      	ldr	r2, [r4, #4]
20000896:	6013      	str	r3, [r2, #0]
20000898:	002a      	movs	r2, r5
2000089a:	2100      	movs	r1, #0
2000089c:	0020      	movs	r0, r4
2000089e:	f7ff ffa5 	bl	200007ec <_hw_endpoint_buffer_control_update32>
200008a2:	bd70      	pop	{r4, r5, r6, pc}
200008a4:	2301      	movs	r3, #1
200008a6:	e7eb      	b.n	20000880 <hw_endpoint_start_next_buffer+0x3c>
200008a8:	2101      	movs	r1, #1
200008aa:	0020      	movs	r0, r4
200008ac:	f7ff ff0c 	bl	200006c8 <prepare_ep_buffer>
200008b0:	4305      	orrs	r5, r0
200008b2:	4b05      	ldr	r3, [pc, #20]	; (200008c8 <hw_endpoint_start_next_buffer+0x84>)
200008b4:	401e      	ands	r6, r3
200008b6:	23a0      	movs	r3, #160	; 0xa0
200008b8:	05db      	lsls	r3, r3, #23
200008ba:	4333      	orrs	r3, r6
200008bc:	e7ea      	b.n	20000894 <hw_endpoint_start_next_buffer+0x50>
200008be:	46c0      	nop			; (mov r8, r8)
200008c0:	50110000 	.word	0x50110000
200008c4:	afffffff 	.word	0xafffffff
200008c8:	dfffffff 	.word	0xdfffffff

200008cc <hw_endpoint_xfer_continue>:
200008cc:	b570      	push	{r4, r5, r6, lr}
200008ce:	0004      	movs	r4, r0
200008d0:	7e85      	ldrb	r5, [r0, #26]
200008d2:	2d00      	cmp	r5, #0
200008d4:	d006      	beq.n	200008e4 <hw_endpoint_xfer_continue+0x18>
200008d6:	f7ff ff6f 	bl	200007b8 <_hw_endpoint_xfer_sync>
200008da:	8aa3      	ldrh	r3, [r4, #20]
200008dc:	2b00      	cmp	r3, #0
200008de:	d10b      	bne.n	200008f8 <hw_endpoint_xfer_continue+0x2c>
200008e0:	0028      	movs	r0, r5
200008e2:	bd70      	pop	{r4, r5, r6, pc}
200008e4:	7883      	ldrb	r3, [r0, #2]
200008e6:	217f      	movs	r1, #127	; 0x7f
200008e8:	4019      	ands	r1, r3
200008ea:	09db      	lsrs	r3, r3, #7
200008ec:	009b      	lsls	r3, r3, #2
200008ee:	4a09      	ldr	r2, [pc, #36]	; (20000914 <hw_endpoint_xfer_continue+0x48>)
200008f0:	589a      	ldr	r2, [r3, r2]
200008f2:	4809      	ldr	r0, [pc, #36]	; (20000918 <hw_endpoint_xfer_continue+0x4c>)
200008f4:	f000 f944 	bl	20000b80 <__panic_veneer>
200008f8:	0020      	movs	r0, r4
200008fa:	f7ff fecd 	bl	20000698 <e15_is_critical_frame_period>
200008fe:	1e05      	subs	r5, r0, #0
20000900:	d003      	beq.n	2000090a <hw_endpoint_xfer_continue+0x3e>
20000902:	2301      	movs	r3, #1
20000904:	7723      	strb	r3, [r4, #28]
20000906:	2500      	movs	r5, #0
20000908:	e7ea      	b.n	200008e0 <hw_endpoint_xfer_continue+0x14>
2000090a:	0020      	movs	r0, r4
2000090c:	f7ff ff9a 	bl	20000844 <hw_endpoint_start_next_buffer>
20000910:	e7e6      	b.n	200008e0 <hw_endpoint_xfer_continue+0x14>
20000912:	46c0      	nop			; (mov r8, r8)
20000914:	20000c80 	.word	0x20000c80
20000918:	10008340 	.word	0x10008340

2000091c <dcd_event_handler>:
2000091c:	b530      	push	{r4, r5, lr}
2000091e:	b085      	sub	sp, #20
20000920:	0005      	movs	r5, r0
20000922:	7843      	ldrb	r3, [r0, #1]
20000924:	2b04      	cmp	r3, #4
20000926:	d100      	bne.n	2000092a <dcd_event_handler+0xe>
20000928:	e059      	b.n	200009de <dcd_event_handler+0xc2>
2000092a:	d806      	bhi.n	2000093a <dcd_event_handler+0x1e>
2000092c:	2b02      	cmp	r3, #2
2000092e:	d02b      	beq.n	20000988 <dcd_event_handler+0x6c>
20000930:	2b03      	cmp	r3, #3
20000932:	d000      	beq.n	20000936 <dcd_event_handler+0x1a>
20000934:	e0cb      	b.n	20000ace <dcd_event_handler+0x1b2>
20000936:	2400      	movs	r4, #0
20000938:	e083      	b.n	20000a42 <dcd_event_handler+0x126>
2000093a:	2b05      	cmp	r3, #5
2000093c:	d000      	beq.n	20000940 <dcd_event_handler+0x24>
2000093e:	e0c6      	b.n	20000ace <dcd_event_handler+0x1b2>
20000940:	4b70      	ldr	r3, [pc, #448]	; (20000b04 <dcd_event_handler+0x1e8>)
20000942:	781b      	ldrb	r3, [r3, #0]
20000944:	07db      	lsls	r3, r3, #31
20000946:	d548      	bpl.n	200009da <dcd_event_handler+0xbe>
20000948:	4a6e      	ldr	r2, [pc, #440]	; (20000b04 <dcd_event_handler+0x1e8>)
2000094a:	7813      	ldrb	r3, [r2, #0]
2000094c:	2104      	movs	r1, #4
2000094e:	438b      	bics	r3, r1
20000950:	7013      	strb	r3, [r2, #0]
20000952:	4b6d      	ldr	r3, [pc, #436]	; (20000b08 <dcd_event_handler+0x1ec>)
20000954:	681c      	ldr	r4, [r3, #0]
20000956:	0021      	movs	r1, r4
20000958:	3114      	adds	r1, #20
2000095a:	6962      	ldr	r2, [r4, #20]
2000095c:	f3ef 8010 	mrs	r0, PRIMASK
20000960:	b672      	cpsid	i
20000962:	6813      	ldr	r3, [r2, #0]
20000964:	2b00      	cmp	r3, #0
20000966:	d0fc      	beq.n	20000962 <dcd_event_handler+0x46>
20000968:	f3bf 8f5f 	dmb	sy
2000096c:	6048      	str	r0, [r1, #4]
2000096e:	0029      	movs	r1, r5
20000970:	0020      	movs	r0, r4
20000972:	f000 f8dd 	bl	20000b30 <__tu_fifo_write_veneer>
20000976:	6962      	ldr	r2, [r4, #20]
20000978:	69a3      	ldr	r3, [r4, #24]
2000097a:	f3bf 8f5f 	dmb	sy
2000097e:	2100      	movs	r1, #0
20000980:	6011      	str	r1, [r2, #0]
20000982:	f383 8810 	msr	PRIMASK, r3
20000986:	e028      	b.n	200009da <dcd_event_handler+0xbe>
20000988:	4b5e      	ldr	r3, [pc, #376]	; (20000b04 <dcd_event_handler+0x1e8>)
2000098a:	781a      	ldrb	r2, [r3, #0]
2000098c:	2101      	movs	r1, #1
2000098e:	438a      	bics	r2, r1
20000990:	701a      	strb	r2, [r3, #0]
20000992:	781a      	ldrb	r2, [r3, #0]
20000994:	3101      	adds	r1, #1
20000996:	438a      	bics	r2, r1
20000998:	701a      	strb	r2, [r3, #0]
2000099a:	2200      	movs	r2, #0
2000099c:	705a      	strb	r2, [r3, #1]
2000099e:	781a      	ldrb	r2, [r3, #0]
200009a0:	3102      	adds	r1, #2
200009a2:	438a      	bics	r2, r1
200009a4:	701a      	strb	r2, [r3, #0]
200009a6:	4b58      	ldr	r3, [pc, #352]	; (20000b08 <dcd_event_handler+0x1ec>)
200009a8:	681c      	ldr	r4, [r3, #0]
200009aa:	0021      	movs	r1, r4
200009ac:	3114      	adds	r1, #20
200009ae:	6962      	ldr	r2, [r4, #20]
200009b0:	f3ef 8010 	mrs	r0, PRIMASK
200009b4:	b672      	cpsid	i
200009b6:	6813      	ldr	r3, [r2, #0]
200009b8:	2b00      	cmp	r3, #0
200009ba:	d0fc      	beq.n	200009b6 <dcd_event_handler+0x9a>
200009bc:	f3bf 8f5f 	dmb	sy
200009c0:	6048      	str	r0, [r1, #4]
200009c2:	0029      	movs	r1, r5
200009c4:	0020      	movs	r0, r4
200009c6:	f000 f8b3 	bl	20000b30 <__tu_fifo_write_veneer>
200009ca:	6962      	ldr	r2, [r4, #20]
200009cc:	69a3      	ldr	r3, [r4, #24]
200009ce:	f3bf 8f5f 	dmb	sy
200009d2:	2100      	movs	r1, #0
200009d4:	6011      	str	r1, [r2, #0]
200009d6:	f383 8810 	msr	PRIMASK, r3
200009da:	b005      	add	sp, #20
200009dc:	bd30      	pop	{r4, r5, pc}
200009de:	4b49      	ldr	r3, [pc, #292]	; (20000b04 <dcd_event_handler+0x1e8>)
200009e0:	781b      	ldrb	r3, [r3, #0]
200009e2:	07db      	lsls	r3, r3, #31
200009e4:	d5f9      	bpl.n	200009da <dcd_event_handler+0xbe>
200009e6:	4a47      	ldr	r2, [pc, #284]	; (20000b04 <dcd_event_handler+0x1e8>)
200009e8:	7813      	ldrb	r3, [r2, #0]
200009ea:	2104      	movs	r1, #4
200009ec:	430b      	orrs	r3, r1
200009ee:	7013      	strb	r3, [r2, #0]
200009f0:	4b45      	ldr	r3, [pc, #276]	; (20000b08 <dcd_event_handler+0x1ec>)
200009f2:	681c      	ldr	r4, [r3, #0]
200009f4:	0021      	movs	r1, r4
200009f6:	3114      	adds	r1, #20
200009f8:	6962      	ldr	r2, [r4, #20]
200009fa:	f3ef 8010 	mrs	r0, PRIMASK
200009fe:	b672      	cpsid	i
20000a00:	6813      	ldr	r3, [r2, #0]
20000a02:	2b00      	cmp	r3, #0
20000a04:	d0fc      	beq.n	20000a00 <dcd_event_handler+0xe4>
20000a06:	f3bf 8f5f 	dmb	sy
20000a0a:	6048      	str	r0, [r1, #4]
20000a0c:	0029      	movs	r1, r5
20000a0e:	0020      	movs	r0, r4
20000a10:	f000 f88e 	bl	20000b30 <__tu_fifo_write_veneer>
20000a14:	6962      	ldr	r2, [r4, #20]
20000a16:	69a3      	ldr	r3, [r4, #24]
20000a18:	f3bf 8f5f 	dmb	sy
20000a1c:	2100      	movs	r1, #0
20000a1e:	6011      	str	r1, [r2, #0]
20000a20:	f383 8810 	msr	PRIMASK, r3
20000a24:	e7d9      	b.n	200009da <dcd_event_handler+0xbe>
20000a26:	0063      	lsls	r3, r4, #1
20000a28:	191b      	adds	r3, r3, r4
20000a2a:	00da      	lsls	r2, r3, #3
20000a2c:	4b37      	ldr	r3, [pc, #220]	; (20000b0c <dcd_event_handler+0x1f0>)
20000a2e:	681b      	ldr	r3, [r3, #0]
20000a30:	189b      	adds	r3, r3, r2
20000a32:	e018      	b.n	20000a66 <dcd_event_handler+0x14a>
20000a34:	0023      	movs	r3, r4
20000a36:	e00f      	b.n	20000a58 <dcd_event_handler+0x13c>
20000a38:	7828      	ldrb	r0, [r5, #0]
20000a3a:	6869      	ldr	r1, [r5, #4]
20000a3c:	4798      	blx	r3
20000a3e:	3401      	adds	r4, #1
20000a40:	b2e4      	uxtb	r4, r4
20000a42:	4b33      	ldr	r3, [pc, #204]	; (20000b10 <dcd_event_handler+0x1f4>)
20000a44:	781b      	ldrb	r3, [r3, #0]
20000a46:	42a3      	cmp	r3, r4
20000a48:	d313      	bcc.n	20000a72 <dcd_event_handler+0x156>
20000a4a:	4a32      	ldr	r2, [pc, #200]	; (20000b14 <dcd_event_handler+0x1f8>)
20000a4c:	2a00      	cmp	r2, #0
20000a4e:	d0f1      	beq.n	20000a34 <dcd_event_handler+0x118>
20000a50:	42a3      	cmp	r3, r4
20000a52:	d8e8      	bhi.n	20000a26 <dcd_event_handler+0x10a>
20000a54:	1ae3      	subs	r3, r4, r3
20000a56:	b2db      	uxtb	r3, r3
20000a58:	2b00      	cmp	r3, #0
20000a5a:	d1f0      	bne.n	20000a3e <dcd_event_handler+0x122>
20000a5c:	005a      	lsls	r2, r3, #1
20000a5e:	18d2      	adds	r2, r2, r3
20000a60:	00d2      	lsls	r2, r2, #3
20000a62:	4b2d      	ldr	r3, [pc, #180]	; (20000b18 <dcd_event_handler+0x1fc>)
20000a64:	189b      	adds	r3, r3, r2
20000a66:	2b00      	cmp	r3, #0
20000a68:	d0e9      	beq.n	20000a3e <dcd_event_handler+0x122>
20000a6a:	695b      	ldr	r3, [r3, #20]
20000a6c:	2b00      	cmp	r3, #0
20000a6e:	d1e3      	bne.n	20000a38 <dcd_event_handler+0x11c>
20000a70:	e7e5      	b.n	20000a3e <dcd_event_handler+0x122>
20000a72:	4b24      	ldr	r3, [pc, #144]	; (20000b04 <dcd_event_handler+0x1e8>)
20000a74:	781b      	ldrb	r3, [r3, #0]
20000a76:	075b      	lsls	r3, r3, #29
20000a78:	d5af      	bpl.n	200009da <dcd_event_handler+0xbe>
20000a7a:	4a22      	ldr	r2, [pc, #136]	; (20000b04 <dcd_event_handler+0x1e8>)
20000a7c:	7813      	ldrb	r3, [r2, #0]
20000a7e:	2104      	movs	r1, #4
20000a80:	438b      	bics	r3, r1
20000a82:	7013      	strb	r3, [r2, #0]
20000a84:	220c      	movs	r2, #12
20000a86:	2100      	movs	r1, #0
20000a88:	a801      	add	r0, sp, #4
20000a8a:	f000 f871 	bl	20000b70 <____wrap_memset_veneer>
20000a8e:	782b      	ldrb	r3, [r5, #0]
20000a90:	466a      	mov	r2, sp
20000a92:	7113      	strb	r3, [r2, #4]
20000a94:	2305      	movs	r3, #5
20000a96:	7153      	strb	r3, [r2, #5]
20000a98:	4b1b      	ldr	r3, [pc, #108]	; (20000b08 <dcd_event_handler+0x1ec>)
20000a9a:	681c      	ldr	r4, [r3, #0]
20000a9c:	0021      	movs	r1, r4
20000a9e:	3114      	adds	r1, #20
20000aa0:	6962      	ldr	r2, [r4, #20]
20000aa2:	f3ef 8010 	mrs	r0, PRIMASK
20000aa6:	b672      	cpsid	i
20000aa8:	6813      	ldr	r3, [r2, #0]
20000aaa:	2b00      	cmp	r3, #0
20000aac:	d0fc      	beq.n	20000aa8 <dcd_event_handler+0x18c>
20000aae:	f3bf 8f5f 	dmb	sy
20000ab2:	6048      	str	r0, [r1, #4]
20000ab4:	a901      	add	r1, sp, #4
20000ab6:	0020      	movs	r0, r4
20000ab8:	f000 f83a 	bl	20000b30 <__tu_fifo_write_veneer>
20000abc:	6962      	ldr	r2, [r4, #20]
20000abe:	69a3      	ldr	r3, [r4, #24]
20000ac0:	f3bf 8f5f 	dmb	sy
20000ac4:	2100      	movs	r1, #0
20000ac6:	6011      	str	r1, [r2, #0]
20000ac8:	f383 8810 	msr	PRIMASK, r3
20000acc:	e785      	b.n	200009da <dcd_event_handler+0xbe>
20000ace:	4b0e      	ldr	r3, [pc, #56]	; (20000b08 <dcd_event_handler+0x1ec>)
20000ad0:	681c      	ldr	r4, [r3, #0]
20000ad2:	0021      	movs	r1, r4
20000ad4:	3114      	adds	r1, #20
20000ad6:	6962      	ldr	r2, [r4, #20]
20000ad8:	f3ef 8010 	mrs	r0, PRIMASK
20000adc:	b672      	cpsid	i
20000ade:	6813      	ldr	r3, [r2, #0]
20000ae0:	2b00      	cmp	r3, #0
20000ae2:	d0fc      	beq.n	20000ade <dcd_event_handler+0x1c2>
20000ae4:	f3bf 8f5f 	dmb	sy
20000ae8:	6048      	str	r0, [r1, #4]
20000aea:	0029      	movs	r1, r5
20000aec:	0020      	movs	r0, r4
20000aee:	f000 f81f 	bl	20000b30 <__tu_fifo_write_veneer>
20000af2:	6962      	ldr	r2, [r4, #20]
20000af4:	69a3      	ldr	r3, [r4, #24]
20000af6:	f3bf 8f5f 	dmb	sy
20000afa:	2100      	movs	r1, #0
20000afc:	6011      	str	r1, [r2, #0]
20000afe:	f383 8810 	msr	PRIMASK, r3
20000b02:	e76a      	b.n	200009da <dcd_event_handler+0xbe>
20000b04:	20001114 	.word	0x20001114
20000b08:	2000116c 	.word	0x2000116c
20000b0c:	20000dec 	.word	0x20000dec
20000b10:	20001a51 	.word	0x20001a51
20000b14:	1000459d 	.word	0x1000459d
20000b18:	10008408 	.word	0x10008408

20000b1c <__aeabi_idiv0>:
20000b1c:	4770      	bx	lr
20000b1e:	46c0      	nop			; (mov r8, r8)

20000b20 <____assert_func_veneer>:
20000b20:	b401      	push	{r0}
20000b22:	4802      	ldr	r0, [pc, #8]	; (20000b2c <____assert_func_veneer+0xc>)
20000b24:	4684      	mov	ip, r0
20000b26:	bc01      	pop	{r0}
20000b28:	4760      	bx	ip
20000b2a:	bf00      	nop
20000b2c:	10002489 	.word	0x10002489

20000b30 <__tu_fifo_write_veneer>:
20000b30:	b401      	push	{r0}
20000b32:	4802      	ldr	r0, [pc, #8]	; (20000b3c <__tu_fifo_write_veneer+0xc>)
20000b34:	4684      	mov	ip, r0
20000b36:	bc01      	pop	{r0}
20000b38:	4760      	bx	ip
20000b3a:	bf00      	nop
20000b3c:	100069e9 	.word	0x100069e9

20000b40 <__best_effort_wfe_or_timeout_veneer>:
20000b40:	b401      	push	{r0}
20000b42:	4802      	ldr	r0, [pc, #8]	; (20000b4c <__best_effort_wfe_or_timeout_veneer+0xc>)
20000b44:	4684      	mov	ip, r0
20000b46:	bc01      	pop	{r0}
20000b48:	4760      	bx	ip
20000b4a:	bf00      	nop
20000b4c:	100016cd 	.word	0x100016cd

20000b50 <____wrap_memcpy_veneer>:
20000b50:	b401      	push	{r0}
20000b52:	4802      	ldr	r0, [pc, #8]	; (20000b5c <____wrap_memcpy_veneer+0xc>)
20000b54:	4684      	mov	ip, r0
20000b56:	bc01      	pop	{r0}
20000b58:	4760      	bx	ip
20000b5a:	bf00      	nop
20000b5c:	10003ff5 	.word	0x10003ff5

20000b60 <____wrap___aeabi_lmul_veneer>:
20000b60:	b401      	push	{r0}
20000b62:	4802      	ldr	r0, [pc, #8]	; (20000b6c <____wrap___aeabi_lmul_veneer+0xc>)
20000b64:	4684      	mov	ip, r0
20000b66:	bc01      	pop	{r0}
20000b68:	4760      	bx	ip
20000b6a:	bf00      	nop
20000b6c:	10003f11 	.word	0x10003f11

20000b70 <____wrap_memset_veneer>:
20000b70:	b401      	push	{r0}
20000b72:	4802      	ldr	r0, [pc, #8]	; (20000b7c <____wrap_memset_veneer+0xc>)
20000b74:	4684      	mov	ip, r0
20000b76:	bc01      	pop	{r0}
20000b78:	4760      	bx	ip
20000b7a:	bf00      	nop
20000b7c:	10003fe9 	.word	0x10003fe9

20000b80 <__panic_veneer>:
20000b80:	b401      	push	{r0}
20000b82:	4802      	ldr	r0, [pc, #8]	; (20000b8c <__panic_veneer+0xc>)
20000b84:	4684      	mov	ip, r0
20000b86:	bc01      	pop	{r0}
20000b88:	4760      	bx	ip
20000b8a:	bf00      	nop
20000b8c:	100025bd 	.word	0x100025bd

20000b90 <__hw_endpoint_get_by_addr_veneer>:
20000b90:	b401      	push	{r0}
20000b92:	4802      	ldr	r0, [pc, #8]	; (20000b9c <__hw_endpoint_get_by_addr_veneer+0xc>)
20000b94:	4684      	mov	ip, r0
20000b96:	bc01      	pop	{r0}
20000b98:	4760      	bx	ip
20000b9a:	bf00      	nop
20000b9c:	10004b81 	.word	0x10004b81

20000ba0 <__time_us_64_veneer>:
20000ba0:	b401      	push	{r0}
20000ba2:	4802      	ldr	r0, [pc, #8]	; (20000bac <__time_us_64_veneer+0xc>)
20000ba4:	4684      	mov	ip, r0
20000ba6:	bc01      	pop	{r0}
20000ba8:	4760      	bx	ip
20000baa:	bf00      	nop
20000bac:	10001821 	.word	0x10001821

20000bb0 <striped_spin_lock_num>:
20000bb0:	00000010                                ....

20000bb4 <irq_handler_chain_slots>:
20000bb4:	00000000 	.word	0x00000000
20000bb8:	00010000 	.word	0x00010000
	...
20000bc4:	00020000 	.word	0x00020000
	...
20000bd0:	00030000 	.word	0x00030000
	...
20000bdc:	00ff0000 	.word	0x00ff0000
20000be0:	00000000 	.word	0x00000000

20000be4 <irq_handler_chain_first_slot>:
20000be4:	b501      	push	{r0, lr}
20000be6:	6848      	ldr	r0, [r1, #4]
20000be8:	3101      	adds	r1, #1
20000bea:	468e      	mov	lr, r1
20000bec:	4700      	bx	r0

20000bee <irq_handler_chain_remove_tail>:
20000bee:	4670      	mov	r0, lr
20000bf0:	3809      	subs	r0, #9
20000bf2:	4901      	ldr	r1, [pc, #4]	; (20000bf8 <irq_handler_chain_remove_tail+0xa>)
20000bf4:	4788      	blx	r1
20000bf6:	bd01      	pop	{r0, pc}
20000bf8:	10000a71 	.word	0x10000a71

20000bfc <default_alarm_pool>:
20000bfc:	20000c14 00000000 20000cc8 2000137c     ... ....... |.. 
	...

20000c14 <default_alarm_pool_heap>:
20000c14:	2000138c 00000000 00000000 00000010     ... ............
	...

20000c30 <aeabi_bits_funcs>:
20000c30:	00003350 	.word	0x00003350
20000c34:	0000334c 	.word	0x0000334c
20000c38:	00003354 	.word	0x00003354
20000c3c:	00003352 	.word	0x00003352

20000c40 <aeabi_bits_funcs_end>:
20000c40:	0000534d 	.word	0x0000534d
20000c44:	0000434d 	.word	0x0000434d
20000c48:	00003453 	.word	0x00003453
20000c4c:	00003443 	.word	0x00003443

20000c50 <stdio_uart>:
20000c50:	100042cd 00000000 10004341 100043e9     .B......AC...C..
20000c60:	00000000 00000100                       ........

20000c68 <stdio_usb>:
20000c68:	10004939 00000000 10004875 100045d1     9I......uH...E..
20000c78:	00000000 00000100                       ........

20000c80 <ep_dir_string>:
20000c80:	10007d80 10007d60                       .}..`}..

20000c88 <_usbd_qdef>:
20000c88:	20001170 000c0010 00000000 00000000     p.. ............
	...

20000ca4 <_usbd_rhport>:
20000ca4:	000000ff                                ....

20000ca8 <print_mutex>:
	...

20000cb0 <__mutex_array_end>:
20000cb0:	10003fd9 	.word	0x10003fd9
20000cb4:	1000372d 	.word	0x1000372d
20000cb8:	10003e11 	.word	0x10003e11
20000cbc:	10003f51 	.word	0x10003f51

20000cc0 <__frame_dummy_init_array_entry>:
20000cc0:	100002e5 10004ac9                       .....J..
