
C:/Users/Fish/Documents/GitHub/INF2004-Embedded/forensics_tool/build/testing/uart_test_tx.elf:     file format elf32-littlearm

Sections:
Idx Name          Size      VMA       LMA       File off  Algn
  0 .boot2        00000100  10000000  10000000  00001000  2**0
                  CONTENTS, ALLOC, LOAD, READONLY, CODE
  1 .text         00006b40  10000100  10000100  00001100  2**3
                  CONTENTS, ALLOC, LOAD, READONLY, CODE
  2 .rodata       00001800  10006c40  10006c40  00007c40  2**3
                  CONTENTS, ALLOC, LOAD, READONLY, DATA
  3 .binary_info  0000002c  10008440  10008440  00009440  2**2
                  CONTENTS, ALLOC, LOAD, READONLY, DATA
  4 .ram_vector_table 000000c0  20000000  20000000  0000b000  2**2
                  ALLOC
  5 .data         00000c08  200000c0  1000846c  0000a0c0  2**4
                  CONTENTS, ALLOC, LOAD, READONLY, CODE
  6 .uninitialized_data 00000000  20000cc8  20000cc8  0000acc8  2**0
                  CONTENTS
  7 .scratch_x    00000000  20040000  20040000  0000acc8  2**0
                  CONTENTS
  8 .scratch_y    00000000  20041000  20041000  0000acc8  2**0
                  CONTENTS
  9 .bss          00000d94  20000cc8  20000cc8  0000b000  2**3
                  ALLOC
 10 .heap         00000800  20001a5c  20001a5c  0000acc8  2**2
                  CONTENTS, READONLY
 11 .stack_dummy  00000800  20041000  20041000  0000b4e0  2**5
                  CONTENTS, READONLY
 12 .ARM.attributes 00000028  00000000  00000000  0000bce0  2**0
                  CONTENTS, READONLY
 13 .comment      00000049  00000000  00000000  0000bd08  2**0
                  CONTENTS, READONLY
 14 .debug_info   00026652  00000000  00000000  0000bd51  2**0
                  CONTENTS, READONLY, DEBUGGING, OCTETS
 15 .debug_abbrev 00006fdb  00000000  00000000  000323a3  2**0
                  CONTENTS, READONLY, DEBUGGING, OCTETS
 16 .debug_loc    00019625  00000000  00000000  0003937e  2**0
                  CONTENTS, READONLY, DEBUGGING, OCTETS
 17 .debug_aranges 00001430  00000000  00000000  000529a8  2**3
                  CONTENTS, READONLY, DEBUGGING, OCTETS
 18 .debug_ranges 00004e70  00000000  00000000  00053dd8  2**3
                  CONTENTS, READONLY, DEBUGGING, OCTETS
 19 .debug_line   000187c2  00000000  00000000  00058c48  2**0
                  CONTENTS, READONLY, DEBUGGING, OCTETS
 20 .debug_str    00007801  00000000  00000000  0007140a  2**0
                  CONTENTS, READONLY, DEBUGGING, OCTETS
 21 .debug_frame  00002b5c  00000000  00000000  00078c0c  2**2
                  CONTENTS, READONLY, DEBUGGING, OCTETS

C:/Users/Fish/Documents/GitHub/INF2004-Embedded/forensics_tool/build/testing/uart_test_tx.elf:     file format elf32-littlearm


Disassembly of section .boot2:

10000000 <__boot2_start__>:
10000000:	4b32b500 	.word	0x4b32b500
10000004:	60582021 	.word	0x60582021
10000008:	21026898 	.word	0x21026898
1000000c:	60984388 	.word	0x60984388
10000010:	611860d8 	.word	0x611860d8
10000014:	4b2e6158 	.word	0x4b2e6158
10000018:	60992100 	.word	0x60992100
1000001c:	61592102 	.word	0x61592102
10000020:	22f02101 	.word	0x22f02101
10000024:	492b5099 	.word	0x492b5099
10000028:	21016019 	.word	0x21016019
1000002c:	20356099 	.word	0x20356099
10000030:	f844f000 	.word	0xf844f000
10000034:	42902202 	.word	0x42902202
10000038:	2106d014 	.word	0x2106d014
1000003c:	f0006619 	.word	0xf0006619
10000040:	6e19f834 	.word	0x6e19f834
10000044:	66192101 	.word	0x66192101
10000048:	66182000 	.word	0x66182000
1000004c:	f000661a 	.word	0xf000661a
10000050:	6e19f82c 	.word	0x6e19f82c
10000054:	6e196e19 	.word	0x6e196e19
10000058:	f0002005 	.word	0xf0002005
1000005c:	2101f82f 	.word	0x2101f82f
10000060:	d1f94208 	.word	0xd1f94208
10000064:	60992100 	.word	0x60992100
10000068:	6019491b 	.word	0x6019491b
1000006c:	60592100 	.word	0x60592100
10000070:	481b491a 	.word	0x481b491a
10000074:	21016001 	.word	0x21016001
10000078:	21eb6099 	.word	0x21eb6099
1000007c:	21a06619 	.word	0x21a06619
10000080:	f0006619 	.word	0xf0006619
10000084:	2100f812 	.word	0x2100f812
10000088:	49166099 	.word	0x49166099
1000008c:	60014814 	.word	0x60014814
10000090:	60992101 	.word	0x60992101
10000094:	2800bc01 	.word	0x2800bc01
10000098:	4700d000 	.word	0x4700d000
1000009c:	49134812 	.word	0x49134812
100000a0:	c8036008 	.word	0xc8036008
100000a4:	8808f380 	.word	0x8808f380
100000a8:	b5034708 	.word	0xb5034708
100000ac:	20046a99 	.word	0x20046a99
100000b0:	d0fb4201 	.word	0xd0fb4201
100000b4:	42012001 	.word	0x42012001
100000b8:	bd03d1f8 	.word	0xbd03d1f8
100000bc:	6618b502 	.word	0x6618b502
100000c0:	f7ff6618 	.word	0xf7ff6618
100000c4:	6e18fff2 	.word	0x6e18fff2
100000c8:	bd026e18 	.word	0xbd026e18
100000cc:	40020000 	.word	0x40020000
100000d0:	18000000 	.word	0x18000000
100000d4:	00070000 	.word	0x00070000
100000d8:	005f0300 	.word	0x005f0300
100000dc:	00002221 	.word	0x00002221
100000e0:	180000f4 	.word	0x180000f4
100000e4:	a0002022 	.word	0xa0002022
100000e8:	10000100 	.word	0x10000100
100000ec:	e000ed08 	.word	0xe000ed08
	...
100000fc:	7a4eb274 	.word	0x7a4eb274

Disassembly of section .text:

10000100 <__VECTOR_TABLE>:
10000100:	20042000 	.word	0x20042000
10000104:	100001f7 	.word	0x100001f7
10000108:	100001c3 	.word	0x100001c3
1000010c:	100001c5 	.word	0x100001c5
10000110:	100001c1 	.word	0x100001c1
10000114:	100001c1 	.word	0x100001c1
10000118:	100001c1 	.word	0x100001c1
1000011c:	100001c1 	.word	0x100001c1
10000120:	100001c1 	.word	0x100001c1
10000124:	100001c1 	.word	0x100001c1
10000128:	100001c1 	.word	0x100001c1
1000012c:	100001c7 	.word	0x100001c7
10000130:	100001c1 	.word	0x100001c1
10000134:	100001c1 	.word	0x100001c1
10000138:	100001c9 	.word	0x100001c9
1000013c:	100001cb 	.word	0x100001cb
10000140:	100001cd 	.word	0x100001cd
10000144:	100001cd 	.word	0x100001cd
10000148:	100001cd 	.word	0x100001cd
1000014c:	100001cd 	.word	0x100001cd
10000150:	100001cd 	.word	0x100001cd
10000154:	100001cd 	.word	0x100001cd
10000158:	100001cd 	.word	0x100001cd
1000015c:	100001cd 	.word	0x100001cd
10000160:	100001cd 	.word	0x100001cd
10000164:	100001cd 	.word	0x100001cd
10000168:	100001cd 	.word	0x100001cd
1000016c:	100001cd 	.word	0x100001cd
10000170:	100001cd 	.word	0x100001cd
10000174:	100001cd 	.word	0x100001cd
10000178:	100001cd 	.word	0x100001cd
1000017c:	100001cd 	.word	0x100001cd
10000180:	100001cd 	.word	0x100001cd
10000184:	100001cd 	.word	0x100001cd
10000188:	100001cd 	.word	0x100001cd
1000018c:	100001cd 	.word	0x100001cd
10000190:	100001cd 	.word	0x100001cd
10000194:	100001cd 	.word	0x100001cd
10000198:	100001cd 	.word	0x100001cd
1000019c:	100001cd 	.word	0x100001cd
100001a0:	100001cd 	.word	0x100001cd
100001a4:	100001cd 	.word	0x100001cd
100001a8:	100001cd 	.word	0x100001cd
100001ac:	100001cd 	.word	0x100001cd
100001b0:	100001cd 	.word	0x100001cd
100001b4:	100001cd 	.word	0x100001cd
100001b8:	100001cd 	.word	0x100001cd
100001bc:	100001cd 	.word	0x100001cd

100001c0 <isr_invalid>:
100001c0:	be00      	bkpt	0x0000

100001c2 <isr_nmi>:
100001c2:	be00      	bkpt	0x0000

100001c4 <isr_hardfault>:
100001c4:	be00      	bkpt	0x0000

100001c6 <isr_svcall>:
100001c6:	be00      	bkpt	0x0000

100001c8 <isr_pendsv>:
100001c8:	be00      	bkpt	0x0000

100001ca <isr_systick>:
100001ca:	be00      	bkpt	0x0000

100001cc <__unhandled_user_irq>:
100001cc:	f3ef 8005 	mrs	r0, IPSR
100001d0:	3810      	subs	r0, #16

100001d2 <unhandled_user_irq_num_in_r0>:
100001d2:	be00      	bkpt	0x0000

100001d4 <binary_info_header>:
100001d4:	7188ebf2 	.word	0x7188ebf2
100001d8:	10008440 	.word	0x10008440
100001dc:	1000846c 	.word	0x1000846c
100001e0:	10000234 	.word	0x10000234
100001e4:	e71aa390 	.word	0xe71aa390

100001e8 <_entry_point>:
100001e8:	2000      	movs	r0, #0
100001ea:	491f      	ldr	r1, [pc, #124]	; (10000268 <hold_non_core0_in_bootrom+0xa>)
100001ec:	6008      	str	r0, [r1, #0]
100001ee:	c806      	ldmia	r0!, {r1, r2}
100001f0:	f381 8808 	msr	MSP, r1
100001f4:	4710      	bx	r2

100001f6 <_reset_handler>:
100001f6:	481d      	ldr	r0, [pc, #116]	; (1000026c <hold_non_core0_in_bootrom+0xe>)
100001f8:	6800      	ldr	r0, [r0, #0]
100001fa:	2800      	cmp	r0, #0
100001fc:	d12f      	bne.n	1000025e <hold_non_core0_in_bootrom>
100001fe:	a40d      	add	r4, pc, #52	; (adr r4, 10000234 <data_cpy_table>)
10000200:	cc0e      	ldmia	r4!, {r1, r2, r3}
10000202:	2900      	cmp	r1, #0
10000204:	d002      	beq.n	1000020c <_reset_handler+0x16>
10000206:	f000 f812 	bl	1000022e <data_cpy>
1000020a:	e7f9      	b.n	10000200 <_reset_handler+0xa>
1000020c:	4918      	ldr	r1, [pc, #96]	; (10000270 <hold_non_core0_in_bootrom+0x12>)
1000020e:	4a19      	ldr	r2, [pc, #100]	; (10000274 <hold_non_core0_in_bootrom+0x16>)
10000210:	2000      	movs	r0, #0
10000212:	e000      	b.n	10000216 <bss_fill_test>

10000214 <bss_fill_loop>:
10000214:	c101      	stmia	r1!, {r0}

10000216 <bss_fill_test>:
10000216:	4291      	cmp	r1, r2
10000218:	d1fc      	bne.n	10000214 <bss_fill_loop>

1000021a <platform_entry>:
1000021a:	4917      	ldr	r1, [pc, #92]	; (10000278 <hold_non_core0_in_bootrom+0x1a>)
1000021c:	4788      	blx	r1
1000021e:	4917      	ldr	r1, [pc, #92]	; (1000027c <hold_non_core0_in_bootrom+0x1e>)
10000220:	4788      	blx	r1
10000222:	4917      	ldr	r1, [pc, #92]	; (10000280 <hold_non_core0_in_bootrom+0x22>)
10000224:	4788      	blx	r1
10000226:	be00      	bkpt	0x0000
10000228:	e7fd      	b.n	10000226 <platform_entry+0xc>

1000022a <data_cpy_loop>:
1000022a:	c901      	ldmia	r1!, {r0}
1000022c:	c201      	stmia	r2!, {r0}

1000022e <data_cpy>:
1000022e:	429a      	cmp	r2, r3
10000230:	d3fb      	bcc.n	1000022a <data_cpy_loop>
10000232:	4770      	bx	lr

10000234 <data_cpy_table>:
10000234:	1000846c 	.word	0x1000846c
10000238:	200000c0 	.word	0x200000c0
1000023c:	20000cc8 	.word	0x20000cc8
10000240:	10009074 	.word	0x10009074
10000244:	20040000 	.word	0x20040000
10000248:	20040000 	.word	0x20040000
1000024c:	10009074 	.word	0x10009074
10000250:	20041000 	.word	0x20041000
10000254:	20041000 	.word	0x20041000
10000258:	00000000 	.word	0x00000000
1000025c:	4770      	bx	lr

1000025e <hold_non_core0_in_bootrom>:
1000025e:	4809      	ldr	r0, [pc, #36]	; (10000284 <hold_non_core0_in_bootrom+0x26>)
10000260:	f003 fa7e 	bl	10003760 <rom_func_lookup>
10000264:	4700      	bx	r0
10000266:	0000      	.short	0x0000
10000268:	e000ed08 	.word	0xe000ed08
1000026c:	d0000000 	.word	0xd0000000
10000270:	20000cc8 	.word	0x20000cc8
10000274:	20001a5c 	.word	0x20001a5c
10000278:	100024e9 	.word	0x100024e9
1000027c:	100003a9 	.word	0x100003a9
10000280:	100024a5 	.word	0x100024a5
10000284:	00005657 	.word	0x00005657

10000288 <__bi_50>:
10000288:	50520006 5360b3ab 10007d00              ..RP..`S.}..

10000294 <__bi_38>:
10000294:	50520006 02031c86 10007d10              ..RP.....}..

100002a0 <__bi_30>:
100002a0:	50520006 9da22254 10007d20              ..RPT".. }..

100002ac <__bi_22>:
100002ac:	50520005 68f465de 10009074              ..RP.e.ht...

100002b8 <_init>:
100002b8:	b5f8      	push	{r3, r4, r5, r6, r7, lr}
100002ba:	46c0      	nop			; (mov r8, r8)

100002bc <__do_global_dtors_aux>:
100002bc:	b510      	push	{r4, lr}
100002be:	4c06      	ldr	r4, [pc, #24]	; (100002d8 <__do_global_dtors_aux+0x1c>)
100002c0:	7823      	ldrb	r3, [r4, #0]
100002c2:	2b00      	cmp	r3, #0
100002c4:	d107      	bne.n	100002d6 <__do_global_dtors_aux+0x1a>
100002c6:	4b05      	ldr	r3, [pc, #20]	; (100002dc <__do_global_dtors_aux+0x20>)
100002c8:	2b00      	cmp	r3, #0
100002ca:	d002      	beq.n	100002d2 <__do_global_dtors_aux+0x16>
100002cc:	4804      	ldr	r0, [pc, #16]	; (100002e0 <__do_global_dtors_aux+0x24>)
100002ce:	e000      	b.n	100002d2 <__do_global_dtors_aux+0x16>
100002d0:	bf00      	nop
100002d2:	2301      	movs	r3, #1
100002d4:	7023      	strb	r3, [r4, #0]
100002d6:	bd10      	pop	{r4, pc}
100002d8:	20000dd0 	.word	0x20000dd0
100002dc:	00000000 	.word	0x00000000
100002e0:	10006c40 	.word	0x10006c40

100002e4 <frame_dummy>:
100002e4:	4b04      	ldr	r3, [pc, #16]	; (100002f8 <frame_dummy+0x14>)
100002e6:	b510      	push	{r4, lr}
100002e8:	2b00      	cmp	r3, #0
100002ea:	d003      	beq.n	100002f4 <frame_dummy+0x10>
100002ec:	4903      	ldr	r1, [pc, #12]	; (100002fc <frame_dummy+0x18>)
100002ee:	4804      	ldr	r0, [pc, #16]	; (10000300 <frame_dummy+0x1c>)
100002f0:	e000      	b.n	100002f4 <frame_dummy+0x10>
100002f2:	bf00      	nop
100002f4:	bd10      	pop	{r4, pc}
100002f6:	46c0      	nop			; (mov r8, r8)
100002f8:	00000000 	.word	0x00000000
100002fc:	20000dd4 	.word	0x20000dd4
10000300:	10006c40 	.word	0x10006c40

10000304 <test_uart1_tx>:
10000304:	b530      	push	{r4, r5, lr}
10000306:	b083      	sub	sp, #12
10000308:	2300      	movs	r3, #0
1000030a:	4824      	ldr	r0, [pc, #144]	; (1000039c <test_uart1_tx+0x98>)
1000030c:	e015      	b.n	1000033a <test_uart1_tx+0x36>
1000030e:	466b      	mov	r3, sp
10000310:	1dda      	adds	r2, r3, #7
10000312:	7014      	strb	r4, [r2, #0]
10000314:	2100      	movs	r1, #0
10000316:	e008      	b.n	1000032a <test_uart1_tx+0x26>
10000318:	4b21      	ldr	r3, [pc, #132]	; (100003a0 <test_uart1_tx+0x9c>)
1000031a:	699b      	ldr	r3, [r3, #24]
1000031c:	069b      	lsls	r3, r3, #26
1000031e:	d4fb      	bmi.n	10000318 <test_uart1_tx+0x14>
10000320:	7814      	ldrb	r4, [r2, #0]
10000322:	4b1f      	ldr	r3, [pc, #124]	; (100003a0 <test_uart1_tx+0x9c>)
10000324:	601c      	str	r4, [r3, #0]
10000326:	3101      	adds	r1, #1
10000328:	3201      	adds	r2, #1
1000032a:	2900      	cmp	r1, #0
1000032c:	d0f4      	beq.n	10000318 <test_uart1_tx+0x14>
1000032e:	7803      	ldrb	r3, [r0, #0]
10000330:	3b0d      	subs	r3, #13
10000332:	425a      	negs	r2, r3
10000334:	4153      	adcs	r3, r2
10000336:	b2db      	uxtb	r3, r3
10000338:	3001      	adds	r0, #1
1000033a:	7804      	ldrb	r4, [r0, #0]
1000033c:	2c00      	cmp	r4, #0
1000033e:	d027      	beq.n	10000390 <test_uart1_tx+0x8c>
10000340:	2b00      	cmp	r3, #0
10000342:	d1e4      	bne.n	1000030e <test_uart1_tx+0xa>
10000344:	4b17      	ldr	r3, [pc, #92]	; (100003a4 <test_uart1_tx+0xa0>)
10000346:	2200      	movs	r2, #0
10000348:	5e9b      	ldrsh	r3, [r3, r2]
1000034a:	42a3      	cmp	r3, r4
1000034c:	d00f      	beq.n	1000036e <test_uart1_tx+0x6a>
1000034e:	466b      	mov	r3, sp
10000350:	1dda      	adds	r2, r3, #7
10000352:	7014      	strb	r4, [r2, #0]
10000354:	2100      	movs	r1, #0
10000356:	2900      	cmp	r1, #0
10000358:	d1e9      	bne.n	1000032e <test_uart1_tx+0x2a>
1000035a:	4b11      	ldr	r3, [pc, #68]	; (100003a0 <test_uart1_tx+0x9c>)
1000035c:	699b      	ldr	r3, [r3, #24]
1000035e:	069b      	lsls	r3, r3, #26
10000360:	d4fb      	bmi.n	1000035a <test_uart1_tx+0x56>
10000362:	7814      	ldrb	r4, [r2, #0]
10000364:	4b0e      	ldr	r3, [pc, #56]	; (100003a0 <test_uart1_tx+0x9c>)
10000366:	601c      	str	r4, [r3, #0]
10000368:	3101      	adds	r1, #1
1000036a:	3201      	adds	r2, #1
1000036c:	e7f3      	b.n	10000356 <test_uart1_tx+0x52>
1000036e:	466b      	mov	r3, sp
10000370:	1dda      	adds	r2, r3, #7
10000372:	230d      	movs	r3, #13
10000374:	7013      	strb	r3, [r2, #0]
10000376:	2100      	movs	r1, #0
10000378:	2900      	cmp	r1, #0
1000037a:	d1e8      	bne.n	1000034e <test_uart1_tx+0x4a>
1000037c:	4b08      	ldr	r3, [pc, #32]	; (100003a0 <test_uart1_tx+0x9c>)
1000037e:	699b      	ldr	r3, [r3, #24]
10000380:	069b      	lsls	r3, r3, #26
10000382:	d4fb      	bmi.n	1000037c <test_uart1_tx+0x78>
10000384:	7815      	ldrb	r5, [r2, #0]
10000386:	4b06      	ldr	r3, [pc, #24]	; (100003a0 <test_uart1_tx+0x9c>)
10000388:	601d      	str	r5, [r3, #0]
1000038a:	3101      	adds	r1, #1
1000038c:	3201      	adds	r2, #1
1000038e:	e7f3      	b.n	10000378 <test_uart1_tx+0x74>
10000390:	20c8      	movs	r0, #200	; 0xc8
10000392:	f001 f9a3 	bl	100016dc <sleep_ms>
10000396:	b003      	add	sp, #12
10000398:	bd30      	pop	{r4, r5, pc}
1000039a:	46c0      	nop			; (mov r8, r8)
1000039c:	10006c40 	.word	0x10006c40
100003a0:	40034000 	.word	0x40034000
100003a4:	20001a38 	.word	0x20001a38

100003a8 <main>:
100003a8:	b510      	push	{r4, lr}
100003aa:	f003 ff99 	bl	100042e0 <stdio_init_all>
100003ae:	21e1      	movs	r1, #225	; 0xe1
100003b0:	0249      	lsls	r1, r1, #9
100003b2:	4807      	ldr	r0, [pc, #28]	; (100003d0 <main+0x28>)
100003b4:	f001 fe14 	bl	10001fe0 <uart_init>
100003b8:	2102      	movs	r1, #2
100003ba:	2008      	movs	r0, #8
100003bc:	f000 f80a 	bl	100003d4 <gpio_set_function>
100003c0:	2102      	movs	r1, #2
100003c2:	2009      	movs	r0, #9
100003c4:	f000 f806 	bl	100003d4 <gpio_set_function>
100003c8:	f7ff ff9c 	bl	10000304 <test_uart1_tx>
100003cc:	e7fc      	b.n	100003c8 <main+0x20>
100003ce:	46c0      	nop			; (mov r8, r8)
100003d0:	40034000 	.word	0x40034000

100003d4 <gpio_set_function>:
100003d4:	b510      	push	{r4, lr}
100003d6:	0083      	lsls	r3, r0, #2
100003d8:	4a08      	ldr	r2, [pc, #32]	; (100003fc <gpio_set_function+0x28>)
100003da:	4694      	mov	ip, r2
100003dc:	4463      	add	r3, ip
100003de:	681c      	ldr	r4, [r3, #0]
100003e0:	2240      	movs	r2, #64	; 0x40
100003e2:	4062      	eors	r2, r4
100003e4:	24c0      	movs	r4, #192	; 0xc0
100003e6:	4014      	ands	r4, r2
100003e8:	2280      	movs	r2, #128	; 0x80
100003ea:	0152      	lsls	r2, r2, #5
100003ec:	4313      	orrs	r3, r2
100003ee:	601c      	str	r4, [r3, #0]
100003f0:	00c0      	lsls	r0, r0, #3
100003f2:	4b03      	ldr	r3, [pc, #12]	; (10000400 <gpio_set_function+0x2c>)
100003f4:	469c      	mov	ip, r3
100003f6:	4460      	add	r0, ip
100003f8:	6041      	str	r1, [r0, #4]
100003fa:	bd10      	pop	{r4, pc}
100003fc:	4001c004 	.word	0x4001c004
10000400:	40014000 	.word	0x40014000

10000404 <running_on_fpga>:
10000404:	4b03      	ldr	r3, [pc, #12]	; (10000414 <running_on_fpga+0x10>)
10000406:	681b      	ldr	r3, [r3, #0]
10000408:	2002      	movs	r0, #2
1000040a:	4018      	ands	r0, r3
1000040c:	1e43      	subs	r3, r0, #1
1000040e:	4198      	sbcs	r0, r3
10000410:	b2c0      	uxtb	r0, r0
10000412:	4770      	bx	lr
10000414:	4006c000 	.word	0x4006c000

10000418 <hw_claim_lock>:
10000418:	f3ef 8010 	mrs	r0, PRIMASK
1000041c:	b672      	cpsid	i
1000041e:	4b03      	ldr	r3, [pc, #12]	; (1000042c <hw_claim_lock+0x14>)
10000420:	681b      	ldr	r3, [r3, #0]
10000422:	2b00      	cmp	r3, #0
10000424:	d0fb      	beq.n	1000041e <hw_claim_lock+0x6>
10000426:	f3bf 8f5f 	dmb	sy
1000042a:	4770      	bx	lr
1000042c:	d000012c 	.word	0xd000012c

10000430 <hw_claim_unlock>:
10000430:	f3bf 8f5f 	dmb	sy
10000434:	4b02      	ldr	r3, [pc, #8]	; (10000440 <hw_claim_unlock+0x10>)
10000436:	2200      	movs	r2, #0
10000438:	601a      	str	r2, [r3, #0]
1000043a:	f380 8810 	msr	PRIMASK, r0
1000043e:	4770      	bx	lr
10000440:	d000012c 	.word	0xd000012c

10000444 <hw_claim_or_assert>:
10000444:	b5f8      	push	{r3, r4, r5, r6, r7, lr}
10000446:	0006      	movs	r6, r0
10000448:	000c      	movs	r4, r1
1000044a:	0015      	movs	r5, r2
1000044c:	f7ff ffe4 	bl	10000418 <hw_claim_lock>
10000450:	08e3      	lsrs	r3, r4, #3
10000452:	18f7      	adds	r7, r6, r3
10000454:	5cf1      	ldrb	r1, [r6, r3]
10000456:	2207      	movs	r2, #7
10000458:	4022      	ands	r2, r4
1000045a:	2301      	movs	r3, #1
1000045c:	4093      	lsls	r3, r2
1000045e:	420b      	tst	r3, r1
10000460:	d105      	bne.n	1000046e <hw_claim_or_assert+0x2a>
10000462:	b2db      	uxtb	r3, r3
10000464:	430b      	orrs	r3, r1
10000466:	703b      	strb	r3, [r7, #0]
10000468:	f7ff ffe2 	bl	10000430 <hw_claim_unlock>
1000046c:	bdf8      	pop	{r3, r4, r5, r6, r7, pc}
1000046e:	0021      	movs	r1, r4
10000470:	0028      	movs	r0, r5
10000472:	f002 f8b5 	bl	100025e0 <panic>

10000476 <hw_claim_unused_from_range>:
10000476:	b5f0      	push	{r4, r5, r6, r7, lr}
10000478:	b083      	sub	sp, #12
1000047a:	0006      	movs	r6, r0
1000047c:	9101      	str	r1, [sp, #4]
1000047e:	0014      	movs	r4, r2
10000480:	001f      	movs	r7, r3
10000482:	f7ff ffc9 	bl	10000418 <hw_claim_lock>
10000486:	e000      	b.n	1000048a <hw_claim_unused_from_range+0x14>
10000488:	3401      	adds	r4, #1
1000048a:	42bc      	cmp	r4, r7
1000048c:	d80c      	bhi.n	100004a8 <hw_claim_unused_from_range+0x32>
1000048e:	08e3      	lsrs	r3, r4, #3
10000490:	18f5      	adds	r5, r6, r3
10000492:	5cf3      	ldrb	r3, [r6, r3]
10000494:	2107      	movs	r1, #7
10000496:	4021      	ands	r1, r4
10000498:	2201      	movs	r2, #1
1000049a:	408a      	lsls	r2, r1
1000049c:	421a      	tst	r2, r3
1000049e:	d1f3      	bne.n	10000488 <hw_claim_unused_from_range+0x12>
100004a0:	b2d2      	uxtb	r2, r2
100004a2:	431a      	orrs	r2, r3
100004a4:	702a      	strb	r2, [r5, #0]
100004a6:	e001      	b.n	100004ac <hw_claim_unused_from_range+0x36>
100004a8:	2401      	movs	r4, #1
100004aa:	4264      	negs	r4, r4
100004ac:	f7ff ffc0 	bl	10000430 <hw_claim_unlock>
100004b0:	2c00      	cmp	r4, #0
100004b2:	db02      	blt.n	100004ba <hw_claim_unused_from_range+0x44>
100004b4:	0020      	movs	r0, r4
100004b6:	b003      	add	sp, #12
100004b8:	bdf0      	pop	{r4, r5, r6, r7, pc}
100004ba:	9b01      	ldr	r3, [sp, #4]
100004bc:	2b00      	cmp	r3, #0
100004be:	d0f9      	beq.n	100004b4 <hw_claim_unused_from_range+0x3e>
100004c0:	9808      	ldr	r0, [sp, #32]
100004c2:	f002 f88d 	bl	100025e0 <panic>
	...

100004c8 <spin_locks_reset>:
100004c8:	2300      	movs	r3, #0
100004ca:	e007      	b.n	100004dc <spin_locks_reset+0x14>
100004cc:	4a05      	ldr	r2, [pc, #20]	; (100004e4 <spin_locks_reset+0x1c>)
100004ce:	189a      	adds	r2, r3, r2
100004d0:	0092      	lsls	r2, r2, #2
100004d2:	f3bf 8f5f 	dmb	sy
100004d6:	2100      	movs	r1, #0
100004d8:	6011      	str	r1, [r2, #0]
100004da:	3301      	adds	r3, #1
100004dc:	2b1f      	cmp	r3, #31
100004de:	d9f5      	bls.n	100004cc <spin_locks_reset+0x4>
100004e0:	4770      	bx	lr
100004e2:	46c0      	nop			; (mov r8, r8)
100004e4:	34000040 	.word	0x34000040

100004e8 <next_striped_spin_lock_num>:
100004e8:	4a05      	ldr	r2, [pc, #20]	; (10000500 <next_striped_spin_lock_num+0x18>)
100004ea:	7810      	ldrb	r0, [r2, #0]
100004ec:	1c43      	adds	r3, r0, #1
100004ee:	b2db      	uxtb	r3, r3
100004f0:	7013      	strb	r3, [r2, #0]
100004f2:	2b17      	cmp	r3, #23
100004f4:	d902      	bls.n	100004fc <next_striped_spin_lock_num+0x14>
100004f6:	0013      	movs	r3, r2
100004f8:	2210      	movs	r2, #16
100004fa:	701a      	strb	r2, [r3, #0]
100004fc:	4770      	bx	lr
100004fe:	46c0      	nop			; (mov r8, r8)
10000500:	20000bb0 	.word	0x20000bb0

10000504 <spin_lock_claim_unused>:
10000504:	b500      	push	{lr}
10000506:	b083      	sub	sp, #12
10000508:	0001      	movs	r1, r0
1000050a:	4b04      	ldr	r3, [pc, #16]	; (1000051c <spin_lock_claim_unused+0x18>)
1000050c:	9300      	str	r3, [sp, #0]
1000050e:	231f      	movs	r3, #31
10000510:	2218      	movs	r2, #24
10000512:	4803      	ldr	r0, [pc, #12]	; (10000520 <spin_lock_claim_unused+0x1c>)
10000514:	f7ff ffaf 	bl	10000476 <hw_claim_unused_from_range>
10000518:	b003      	add	sp, #12
1000051a:	bd00      	pop	{pc}
1000051c:	10006c54 	.word	0x10006c54
10000520:	20001350 	.word	0x20001350

10000524 <set_raw_irq_handler_and_unlock>:
10000524:	4b07      	ldr	r3, [pc, #28]	; (10000544 <set_raw_irq_handler_and_unlock+0x20>)
10000526:	689b      	ldr	r3, [r3, #8]
10000528:	3010      	adds	r0, #16
1000052a:	0080      	lsls	r0, r0, #2
1000052c:	5019      	str	r1, [r3, r0]
1000052e:	f3bf 8f5f 	dmb	sy
10000532:	f3bf 8f5f 	dmb	sy
10000536:	4b04      	ldr	r3, [pc, #16]	; (10000548 <set_raw_irq_handler_and_unlock+0x24>)
10000538:	2100      	movs	r1, #0
1000053a:	6019      	str	r1, [r3, #0]
1000053c:	f382 8810 	msr	PRIMASK, r2
10000540:	4770      	bx	lr
10000542:	46c0      	nop			; (mov r8, r8)
10000544:	e000ed00 	.word	0xe000ed00
10000548:	d0000124 	.word	0xd0000124

1000054c <make_branch>:
1000054c:	b510      	push	{r4, lr}
1000054e:	1a09      	subs	r1, r1, r0
10000550:	1f08      	subs	r0, r1, #4
10000552:	4b0a      	ldr	r3, [pc, #40]	; (1000057c <make_branch+0x30>)
10000554:	469c      	mov	ip, r3
10000556:	4461      	add	r1, ip
10000558:	4a09      	ldr	r2, [pc, #36]	; (10000580 <make_branch+0x34>)
1000055a:	4291      	cmp	r1, r2
1000055c:	d808      	bhi.n	10000570 <make_branch+0x24>
1000055e:	07c3      	lsls	r3, r0, #31
10000560:	d406      	bmi.n	10000570 <make_branch+0x24>
10000562:	1040      	asrs	r0, r0, #1
10000564:	0540      	lsls	r0, r0, #21
10000566:	0d40      	lsrs	r0, r0, #21
10000568:	4b06      	ldr	r3, [pc, #24]	; (10000584 <make_branch+0x38>)
1000056a:	4318      	orrs	r0, r3
1000056c:	b280      	uxth	r0, r0
1000056e:	bd10      	pop	{r4, pc}
10000570:	4b05      	ldr	r3, [pc, #20]	; (10000588 <make_branch+0x3c>)
10000572:	4a06      	ldr	r2, [pc, #24]	; (1000058c <make_branch+0x40>)
10000574:	21a3      	movs	r1, #163	; 0xa3
10000576:	4806      	ldr	r0, [pc, #24]	; (10000590 <make_branch+0x44>)
10000578:	f001 ff98 	bl	100024ac <__assert_func>
1000057c:	000007fc 	.word	0x000007fc
10000580:	00000ffe 	.word	0x00000ffe
10000584:	ffffe000 	.word	0xffffe000
10000588:	10006c70 	.word	0x10006c70
1000058c:	10006efc 	.word	0x10006efc
10000590:	10006ca0 	.word	0x10006ca0

10000594 <insert_branch_and_link>:
10000594:	b510      	push	{r4, lr}
10000596:	1a09      	subs	r1, r1, r0
10000598:	3904      	subs	r1, #4
1000059a:	084c      	lsrs	r4, r1, #1
1000059c:	0b09      	lsrs	r1, r1, #12
1000059e:	d108      	bne.n	100005b2 <insert_branch_and_link+0x1e>
100005a0:	0549      	lsls	r1, r1, #21
100005a2:	0d49      	lsrs	r1, r1, #21
100005a4:	4a06      	ldr	r2, [pc, #24]	; (100005c0 <insert_branch_and_link+0x2c>)
100005a6:	4311      	orrs	r1, r2
100005a8:	8001      	strh	r1, [r0, #0]
100005aa:	4b06      	ldr	r3, [pc, #24]	; (100005c4 <insert_branch_and_link+0x30>)
100005ac:	4323      	orrs	r3, r4
100005ae:	8043      	strh	r3, [r0, #2]
100005b0:	bd10      	pop	{r4, pc}
100005b2:	4b05      	ldr	r3, [pc, #20]	; (100005c8 <insert_branch_and_link+0x34>)
100005b4:	4a05      	ldr	r2, [pc, #20]	; (100005cc <insert_branch_and_link+0x38>)
100005b6:	21ab      	movs	r1, #171	; 0xab
100005b8:	4805      	ldr	r0, [pc, #20]	; (100005d0 <insert_branch_and_link+0x3c>)
100005ba:	f001 ff77 	bl	100024ac <__assert_func>
100005be:	46c0      	nop			; (mov r8, r8)
100005c0:	fffff000 	.word	0xfffff000
100005c4:	fffff800 	.word	0xfffff800
100005c8:	10006cfc 	.word	0x10006cfc
100005cc:	10006ed0 	.word	0x10006ed0
100005d0:	10006ca0 	.word	0x10006ca0

100005d4 <irq_is_enabled>:
100005d4:	2301      	movs	r3, #1
100005d6:	4083      	lsls	r3, r0
100005d8:	4a03      	ldr	r2, [pc, #12]	; (100005e8 <irq_is_enabled+0x14>)
100005da:	6810      	ldr	r0, [r2, #0]
100005dc:	4018      	ands	r0, r3
100005de:	1e43      	subs	r3, r0, #1
100005e0:	4198      	sbcs	r0, r3
100005e2:	b2c0      	uxtb	r0, r0
100005e4:	4770      	bx	lr
100005e6:	46c0      	nop			; (mov r8, r8)
100005e8:	e000e100 	.word	0xe000e100

100005ec <irq_set_mask_enabled>:
100005ec:	2900      	cmp	r1, #0
100005ee:	d004      	beq.n	100005fa <irq_set_mask_enabled+0xe>
100005f0:	4b03      	ldr	r3, [pc, #12]	; (10000600 <irq_set_mask_enabled+0x14>)
100005f2:	6018      	str	r0, [r3, #0]
100005f4:	4b03      	ldr	r3, [pc, #12]	; (10000604 <irq_set_mask_enabled+0x18>)
100005f6:	6018      	str	r0, [r3, #0]
100005f8:	4770      	bx	lr
100005fa:	4b03      	ldr	r3, [pc, #12]	; (10000608 <irq_set_mask_enabled+0x1c>)
100005fc:	6018      	str	r0, [r3, #0]
100005fe:	e7fb      	b.n	100005f8 <irq_set_mask_enabled+0xc>
10000600:	e000e280 	.word	0xe000e280
10000604:	e000e100 	.word	0xe000e100
10000608:	e000e180 	.word	0xe000e180

1000060c <irq_set_enabled>:
1000060c:	b510      	push	{r4, lr}
1000060e:	2301      	movs	r3, #1
10000610:	4083      	lsls	r3, r0
10000612:	0018      	movs	r0, r3
10000614:	f7ff ffea 	bl	100005ec <irq_set_mask_enabled>
10000618:	bd10      	pop	{r4, pc}
	...

1000061c <irq_set_pending>:
1000061c:	2301      	movs	r3, #1
1000061e:	4083      	lsls	r3, r0
10000620:	4a01      	ldr	r2, [pc, #4]	; (10000628 <irq_set_pending+0xc>)
10000622:	6013      	str	r3, [r2, #0]
10000624:	4770      	bx	lr
10000626:	46c0      	nop			; (mov r8, r8)
10000628:	e000e200 	.word	0xe000e200

1000062c <irq_get_vtable_handler>:
1000062c:	4b02      	ldr	r3, [pc, #8]	; (10000638 <irq_get_vtable_handler+0xc>)
1000062e:	689b      	ldr	r3, [r3, #8]
10000630:	3010      	adds	r0, #16
10000632:	0080      	lsls	r0, r0, #2
10000634:	58c0      	ldr	r0, [r0, r3]
10000636:	4770      	bx	lr
10000638:	e000ed00 	.word	0xe000ed00

1000063c <irq_has_shared_handler>:
1000063c:	b510      	push	{r4, lr}
1000063e:	f7ff fff5 	bl	1000062c <irq_get_vtable_handler>
10000642:	2800      	cmp	r0, #0
10000644:	d005      	beq.n	10000652 <irq_has_shared_handler+0x16>
10000646:	4b05      	ldr	r3, [pc, #20]	; (1000065c <irq_has_shared_handler+0x20>)
10000648:	1ac0      	subs	r0, r0, r3
1000064a:	282f      	cmp	r0, #47	; 0x2f
1000064c:	d803      	bhi.n	10000656 <irq_has_shared_handler+0x1a>
1000064e:	2001      	movs	r0, #1
10000650:	bd10      	pop	{r4, pc}
10000652:	2000      	movs	r0, #0
10000654:	e7fc      	b.n	10000650 <irq_has_shared_handler+0x14>
10000656:	2000      	movs	r0, #0
10000658:	e7fa      	b.n	10000650 <irq_has_shared_handler+0x14>
1000065a:	46c0      	nop			; (mov r8, r8)
1000065c:	20000bb4 	.word	0x20000bb4

10000660 <irq_set_exclusive_handler>:
10000660:	b570      	push	{r4, r5, r6, lr}
10000662:	0004      	movs	r4, r0
10000664:	000d      	movs	r5, r1
10000666:	f3ef 8610 	mrs	r6, PRIMASK
1000066a:	b672      	cpsid	i
1000066c:	4b0c      	ldr	r3, [pc, #48]	; (100006a0 <irq_set_exclusive_handler+0x40>)
1000066e:	681b      	ldr	r3, [r3, #0]
10000670:	2b00      	cmp	r3, #0
10000672:	d0fb      	beq.n	1000066c <irq_set_exclusive_handler+0xc>
10000674:	f3bf 8f5f 	dmb	sy
10000678:	0020      	movs	r0, r4
1000067a:	f7ff ffd7 	bl	1000062c <irq_get_vtable_handler>
1000067e:	4b09      	ldr	r3, [pc, #36]	; (100006a4 <irq_set_exclusive_handler+0x44>)
10000680:	4298      	cmp	r0, r3
10000682:	d001      	beq.n	10000688 <irq_set_exclusive_handler+0x28>
10000684:	42a8      	cmp	r0, r5
10000686:	d105      	bne.n	10000694 <irq_set_exclusive_handler+0x34>
10000688:	0032      	movs	r2, r6
1000068a:	0029      	movs	r1, r5
1000068c:	0020      	movs	r0, r4
1000068e:	f7ff ff49 	bl	10000524 <set_raw_irq_handler_and_unlock>
10000692:	bd70      	pop	{r4, r5, r6, pc}
10000694:	4b04      	ldr	r3, [pc, #16]	; (100006a8 <irq_set_exclusive_handler+0x48>)
10000696:	4a05      	ldr	r2, [pc, #20]	; (100006ac <irq_set_exclusive_handler+0x4c>)
10000698:	2186      	movs	r1, #134	; 0x86
1000069a:	4805      	ldr	r0, [pc, #20]	; (100006b0 <irq_set_exclusive_handler+0x50>)
1000069c:	f001 ff06 	bl	100024ac <__assert_func>
100006a0:	d0000124 	.word	0xd0000124
100006a4:	100001cd 	.word	0x100001cd
100006a8:	10006d0c 	.word	0x10006d0c
100006ac:	10006f30 	.word	0x10006f30
100006b0:	10006ca0 	.word	0x10006ca0

100006b4 <irq_add_shared_handler>:
100006b4:	b5f0      	push	{r4, r5, r6, r7, lr}
100006b6:	46de      	mov	lr, fp
100006b8:	4657      	mov	r7, sl
100006ba:	464e      	mov	r6, r9
100006bc:	4645      	mov	r5, r8
100006be:	b5e0      	push	{r5, r6, r7, lr}
100006c0:	b089      	sub	sp, #36	; 0x24
100006c2:	4681      	mov	r9, r0
100006c4:	9101      	str	r1, [sp, #4]
100006c6:	0015      	movs	r5, r2
100006c8:	f3ef 8a10 	mrs	sl, PRIMASK
100006cc:	b672      	cpsid	i
100006ce:	4b74      	ldr	r3, [pc, #464]	; (100008a0 <irq_add_shared_handler+0x1ec>)
100006d0:	681b      	ldr	r3, [r3, #0]
100006d2:	2b00      	cmp	r3, #0
100006d4:	d0fb      	beq.n	100006ce <irq_add_shared_handler+0x1a>
100006d6:	f3bf 8f5f 	dmb	sy
100006da:	4b72      	ldr	r3, [pc, #456]	; (100008a4 <irq_add_shared_handler+0x1f0>)
100006dc:	2700      	movs	r7, #0
100006de:	57df      	ldrsb	r7, [r3, r7]
100006e0:	2f00      	cmp	r7, #0
100006e2:	db40      	blt.n	10000766 <irq_add_shared_handler+0xb2>
100006e4:	007c      	lsls	r4, r7, #1
100006e6:	19e4      	adds	r4, r4, r7
100006e8:	00a4      	lsls	r4, r4, #2
100006ea:	486f      	ldr	r0, [pc, #444]	; (100008a8 <irq_add_shared_handler+0x1f4>)
100006ec:	1824      	adds	r4, r4, r0
100006ee:	2206      	movs	r2, #6
100006f0:	56a2      	ldrsb	r2, [r4, r2]
100006f2:	4b6c      	ldr	r3, [pc, #432]	; (100008a4 <irq_add_shared_handler+0x1f0>)
100006f4:	701a      	strb	r2, [r3, #0]
100006f6:	4b6d      	ldr	r3, [pc, #436]	; (100008ac <irq_add_shared_handler+0x1f8>)
100006f8:	689a      	ldr	r2, [r3, #8]
100006fa:	464b      	mov	r3, r9
100006fc:	3310      	adds	r3, #16
100006fe:	009b      	lsls	r3, r3, #2
10000700:	58d3      	ldr	r3, [r2, r3]
10000702:	4698      	mov	r8, r3
10000704:	001e      	movs	r6, r3
10000706:	1a1b      	subs	r3, r3, r0
10000708:	2b2f      	cmp	r3, #47	; 0x2f
1000070a:	d938      	bls.n	1000077e <irq_add_shared_handler+0xca>
1000070c:	4b68      	ldr	r3, [pc, #416]	; (100008b0 <irq_add_shared_handler+0x1fc>)
1000070e:	4598      	cmp	r8, r3
10000710:	d12f      	bne.n	10000772 <irq_add_shared_handler+0xbe>
10000712:	ae05      	add	r6, sp, #20
10000714:	4b67      	ldr	r3, [pc, #412]	; (100008b4 <irq_add_shared_handler+0x200>)
10000716:	8033      	strh	r3, [r6, #0]
10000718:	007b      	lsls	r3, r7, #1
1000071a:	469b      	mov	fp, r3
1000071c:	19d8      	adds	r0, r3, r7
1000071e:	0080      	lsls	r0, r0, #2
10000720:	4b61      	ldr	r3, [pc, #388]	; (100008a8 <irq_add_shared_handler+0x1f4>)
10000722:	4698      	mov	r8, r3
10000724:	4440      	add	r0, r8
10000726:	3002      	adds	r0, #2
10000728:	4963      	ldr	r1, [pc, #396]	; (100008b8 <irq_add_shared_handler+0x204>)
1000072a:	f7ff ff0f 	bl	1000054c <make_branch>
1000072e:	8070      	strh	r0, [r6, #2]
10000730:	4b62      	ldr	r3, [pc, #392]	; (100008bc <irq_add_shared_handler+0x208>)
10000732:	80b3      	strh	r3, [r6, #4]
10000734:	23ff      	movs	r3, #255	; 0xff
10000736:	71b3      	strb	r3, [r6, #6]
10000738:	71f5      	strb	r5, [r6, #7]
1000073a:	9b01      	ldr	r3, [sp, #4]
1000073c:	9307      	str	r3, [sp, #28]
1000073e:	445f      	add	r7, fp
10000740:	00bf      	lsls	r7, r7, #2
10000742:	4447      	add	r7, r8
10000744:	ce0e      	ldmia	r6!, {r1, r2, r3}
10000746:	c70e      	stmia	r7!, {r1, r2, r3}
10000748:	2301      	movs	r3, #1
1000074a:	431c      	orrs	r4, r3
1000074c:	46a0      	mov	r8, r4
1000074e:	4652      	mov	r2, sl
10000750:	4641      	mov	r1, r8
10000752:	4648      	mov	r0, r9
10000754:	f7ff fee6 	bl	10000524 <set_raw_irq_handler_and_unlock>
10000758:	b009      	add	sp, #36	; 0x24
1000075a:	bcf0      	pop	{r4, r5, r6, r7}
1000075c:	46bb      	mov	fp, r7
1000075e:	46b2      	mov	sl, r6
10000760:	46a9      	mov	r9, r5
10000762:	46a0      	mov	r8, r4
10000764:	bdf0      	pop	{r4, r5, r6, r7, pc}
10000766:	4b56      	ldr	r3, [pc, #344]	; (100008c0 <irq_add_shared_handler+0x20c>)
10000768:	4a56      	ldr	r2, [pc, #344]	; (100008c4 <irq_add_shared_handler+0x210>)
1000076a:	21d7      	movs	r1, #215	; 0xd7
1000076c:	4856      	ldr	r0, [pc, #344]	; (100008c8 <irq_add_shared_handler+0x214>)
1000076e:	f001 fe9d 	bl	100024ac <__assert_func>
10000772:	4b56      	ldr	r3, [pc, #344]	; (100008cc <irq_add_shared_handler+0x218>)
10000774:	4a53      	ldr	r2, [pc, #332]	; (100008c4 <irq_add_shared_handler+0x210>)
10000776:	21de      	movs	r1, #222	; 0xde
10000778:	4853      	ldr	r0, [pc, #332]	; (100008c8 <irq_add_shared_handler+0x214>)
1000077a:	f001 fe97 	bl	100024ac <__assert_func>
1000077e:	43c0      	mvns	r0, r0
10000780:	4440      	add	r0, r8
10000782:	210c      	movs	r1, #12
10000784:	f003 f840 	bl	10003808 <__wrap___aeabi_uidiv>
10000788:	2900      	cmp	r1, #0
1000078a:	d112      	bne.n	100007b2 <irq_add_shared_handler+0xfe>
1000078c:	2301      	movs	r3, #1
1000078e:	439e      	bics	r6, r3
10000790:	46b3      	mov	fp, r6
10000792:	0033      	movs	r3, r6
10000794:	2600      	movs	r6, #0
10000796:	79da      	ldrb	r2, [r3, #7]
10000798:	42aa      	cmp	r2, r5
1000079a:	d911      	bls.n	100007c0 <irq_add_shared_handler+0x10c>
1000079c:	2106      	movs	r1, #6
1000079e:	5659      	ldrsb	r1, [r3, r1]
100007a0:	2900      	cmp	r1, #0
100007a2:	db0c      	blt.n	100007be <irq_add_shared_handler+0x10a>
100007a4:	004a      	lsls	r2, r1, #1
100007a6:	1852      	adds	r2, r2, r1
100007a8:	0092      	lsls	r2, r2, #2
100007aa:	001e      	movs	r6, r3
100007ac:	4b3e      	ldr	r3, [pc, #248]	; (100008a8 <irq_add_shared_handler+0x1f4>)
100007ae:	189b      	adds	r3, r3, r2
100007b0:	e7f1      	b.n	10000796 <irq_add_shared_handler+0xe2>
100007b2:	4b47      	ldr	r3, [pc, #284]	; (100008d0 <irq_add_shared_handler+0x21c>)
100007b4:	4a43      	ldr	r2, [pc, #268]	; (100008c4 <irq_add_shared_handler+0x210>)
100007b6:	21ea      	movs	r1, #234	; 0xea
100007b8:	4843      	ldr	r0, [pc, #268]	; (100008c8 <irq_add_shared_handler+0x214>)
100007ba:	f001 fe77 	bl	100024ac <__assert_func>
100007be:	001e      	movs	r6, r3
100007c0:	2e00      	cmp	r6, #0
100007c2:	d03a      	beq.n	1000083a <irq_add_shared_handler+0x186>
100007c4:	ab05      	add	r3, sp, #20
100007c6:	4a43      	ldr	r2, [pc, #268]	; (100008d4 <irq_add_shared_handler+0x220>)
100007c8:	801a      	strh	r2, [r3, #0]
100007ca:	3a81      	subs	r2, #129	; 0x81
100007cc:	805a      	strh	r2, [r3, #2]
100007ce:	2306      	movs	r3, #6
100007d0:	56f3      	ldrsb	r3, [r6, r3]
100007d2:	9302      	str	r3, [sp, #8]
100007d4:	2b00      	cmp	r3, #0
100007d6:	da17      	bge.n	10000808 <irq_add_shared_handler+0x154>
100007d8:	483f      	ldr	r0, [pc, #252]	; (100008d8 <irq_add_shared_handler+0x224>)
100007da:	ab05      	add	r3, sp, #20
100007dc:	469b      	mov	fp, r3
100007de:	8098      	strh	r0, [r3, #4]
100007e0:	9a02      	ldr	r2, [sp, #8]
100007e2:	719a      	strb	r2, [r3, #6]
100007e4:	71dd      	strb	r5, [r3, #7]
100007e6:	9a01      	ldr	r2, [sp, #4]
100007e8:	9207      	str	r2, [sp, #28]
100007ea:	1d30      	adds	r0, r6, #4
100007ec:	0021      	movs	r1, r4
100007ee:	f7ff fead 	bl	1000054c <make_branch>
100007f2:	80b0      	strh	r0, [r6, #4]
100007f4:	71b7      	strb	r7, [r6, #6]
100007f6:	007b      	lsls	r3, r7, #1
100007f8:	19db      	adds	r3, r3, r7
100007fa:	009b      	lsls	r3, r3, #2
100007fc:	4f2a      	ldr	r7, [pc, #168]	; (100008a8 <irq_add_shared_handler+0x1f4>)
100007fe:	18ff      	adds	r7, r7, r3
10000800:	465b      	mov	r3, fp
10000802:	cb07      	ldmia	r3!, {r0, r1, r2}
10000804:	c707      	stmia	r7!, {r0, r1, r2}
10000806:	e7a2      	b.n	1000074e <irq_add_shared_handler+0x9a>
10000808:	0078      	lsls	r0, r7, #1
1000080a:	19c0      	adds	r0, r0, r7
1000080c:	0080      	lsls	r0, r0, #2
1000080e:	4b26      	ldr	r3, [pc, #152]	; (100008a8 <irq_add_shared_handler+0x1f4>)
10000810:	18c0      	adds	r0, r0, r3
10000812:	3004      	adds	r0, #4
10000814:	1d32      	adds	r2, r6, #4
10000816:	88b3      	ldrh	r3, [r6, #4]
10000818:	0ad9      	lsrs	r1, r3, #11
1000081a:	291c      	cmp	r1, #28
1000081c:	d107      	bne.n	1000082e <irq_add_shared_handler+0x17a>
1000081e:	055b      	lsls	r3, r3, #21
10000820:	1559      	asrs	r1, r3, #21
10000822:	3102      	adds	r1, #2
10000824:	0049      	lsls	r1, r1, #1
10000826:	1851      	adds	r1, r2, r1
10000828:	f7ff fe90 	bl	1000054c <make_branch>
1000082c:	e7d5      	b.n	100007da <irq_add_shared_handler+0x126>
1000082e:	4b2b      	ldr	r3, [pc, #172]	; (100008dc <irq_add_shared_handler+0x228>)
10000830:	4a2b      	ldr	r2, [pc, #172]	; (100008e0 <irq_add_shared_handler+0x22c>)
10000832:	21b1      	movs	r1, #177	; 0xb1
10000834:	4824      	ldr	r0, [pc, #144]	; (100008c8 <irq_add_shared_handler+0x214>)
10000836:	f001 fe39 	bl	100024ac <__assert_func>
1000083a:	ae05      	add	r6, sp, #20
1000083c:	4b1d      	ldr	r3, [pc, #116]	; (100008b4 <irq_add_shared_handler+0x200>)
1000083e:	8033      	strh	r3, [r6, #0]
10000840:	007b      	lsls	r3, r7, #1
10000842:	9302      	str	r3, [sp, #8]
10000844:	19d8      	adds	r0, r3, r7
10000846:	0080      	lsls	r0, r0, #2
10000848:	4a17      	ldr	r2, [pc, #92]	; (100008a8 <irq_add_shared_handler+0x1f4>)
1000084a:	4690      	mov	r8, r2
1000084c:	0002      	movs	r2, r0
1000084e:	4442      	add	r2, r8
10000850:	9203      	str	r2, [sp, #12]
10000852:	1c90      	adds	r0, r2, #2
10000854:	4918      	ldr	r1, [pc, #96]	; (100008b8 <irq_add_shared_handler+0x204>)
10000856:	f7ff fe79 	bl	1000054c <make_branch>
1000085a:	8070      	strh	r0, [r6, #2]
1000085c:	9a03      	ldr	r2, [sp, #12]
1000085e:	1d10      	adds	r0, r2, #4
10000860:	4659      	mov	r1, fp
10000862:	f7ff fe73 	bl	1000054c <make_branch>
10000866:	80b0      	strh	r0, [r6, #4]
10000868:	4b1e      	ldr	r3, [pc, #120]	; (100008e4 <irq_add_shared_handler+0x230>)
1000086a:	465a      	mov	r2, fp
1000086c:	4641      	mov	r1, r8
1000086e:	1a52      	subs	r2, r2, r1
10000870:	4152      	adcs	r2, r2
10000872:	4353      	muls	r3, r2
10000874:	0d1b      	lsrs	r3, r3, #20
10000876:	71b3      	strb	r3, [r6, #6]
10000878:	71f5      	strb	r5, [r6, #7]
1000087a:	9a01      	ldr	r2, [sp, #4]
1000087c:	9207      	str	r2, [sp, #28]
1000087e:	9b02      	ldr	r3, [sp, #8]
10000880:	469c      	mov	ip, r3
10000882:	4467      	add	r7, ip
10000884:	00bf      	lsls	r7, r7, #2
10000886:	4447      	add	r7, r8
10000888:	ce0e      	ldmia	r6!, {r1, r2, r3}
1000088a:	c70e      	stmia	r7!, {r1, r2, r3}
1000088c:	4b11      	ldr	r3, [pc, #68]	; (100008d4 <irq_add_shared_handler+0x220>)
1000088e:	465a      	mov	r2, fp
10000890:	8013      	strh	r3, [r2, #0]
10000892:	3b81      	subs	r3, #129	; 0x81
10000894:	8053      	strh	r3, [r2, #2]
10000896:	2301      	movs	r3, #1
10000898:	431c      	orrs	r4, r3
1000089a:	46a0      	mov	r8, r4
1000089c:	e757      	b.n	1000074e <irq_add_shared_handler+0x9a>
1000089e:	46c0      	nop			; (mov r8, r8)
100008a0:	d0000124 	.word	0xd0000124
100008a4:	20001a55 	.word	0x20001a55
100008a8:	20000bb4 	.word	0x20000bb4
100008ac:	e000ed00 	.word	0xe000ed00
100008b0:	100001cd 	.word	0x100001cd
100008b4:	ffffa100 	.word	0xffffa100
100008b8:	20000be4 	.word	0x20000be4
100008bc:	ffffbd01 	.word	0xffffbd01
100008c0:	10006d44 	.word	0x10006d44
100008c4:	10006f18 	.word	0x10006f18
100008c8:	10006ca0 	.word	0x10006ca0
100008cc:	10006d6c 	.word	0x10006d6c
100008d0:	10006d94 	.word	0x10006d94
100008d4:	00004801 	.word	0x00004801
100008d8:	0000bd01 	.word	0x0000bd01
100008dc:	10006e08 	.word	0x10006e08
100008e0:	10006f08 	.word	0x10006f08
100008e4:	0000aaaa 	.word	0x0000aaaa

100008e8 <irq_remove_handler>:
100008e8:	b5f0      	push	{r4, r5, r6, r7, lr}
100008ea:	46ce      	mov	lr, r9
100008ec:	4647      	mov	r7, r8
100008ee:	b580      	push	{r7, lr}
100008f0:	b083      	sub	sp, #12
100008f2:	0006      	movs	r6, r0
100008f4:	000d      	movs	r5, r1
100008f6:	f3ef 8810 	mrs	r8, PRIMASK
100008fa:	b672      	cpsid	i
100008fc:	4b56      	ldr	r3, [pc, #344]	; (10000a58 <irq_remove_handler+0x170>)
100008fe:	681b      	ldr	r3, [r3, #0]
10000900:	2b00      	cmp	r3, #0
10000902:	d0fb      	beq.n	100008fc <irq_remove_handler+0x14>
10000904:	f3bf 8f5f 	dmb	sy
10000908:	4b54      	ldr	r3, [pc, #336]	; (10000a5c <irq_remove_handler+0x174>)
1000090a:	689a      	ldr	r2, [r3, #8]
1000090c:	0034      	movs	r4, r6
1000090e:	3410      	adds	r4, #16
10000910:	00a3      	lsls	r3, r4, #2
10000912:	58d7      	ldr	r7, [r2, r3]
10000914:	4b52      	ldr	r3, [pc, #328]	; (10000a60 <irq_remove_handler+0x178>)
10000916:	429f      	cmp	r7, r3
10000918:	d007      	beq.n	1000092a <irq_remove_handler+0x42>
1000091a:	42af      	cmp	r7, r5
1000091c:	d100      	bne.n	10000920 <irq_remove_handler+0x38>
1000091e:	e098      	b.n	10000a52 <irq_remove_handler+0x16a>
10000920:	9701      	str	r7, [sp, #4]
10000922:	4b50      	ldr	r3, [pc, #320]	; (10000a64 <irq_remove_handler+0x17c>)
10000924:	1afb      	subs	r3, r7, r3
10000926:	2b2f      	cmp	r3, #47	; 0x2f
10000928:	d909      	bls.n	1000093e <irq_remove_handler+0x56>
1000092a:	4642      	mov	r2, r8
1000092c:	0039      	movs	r1, r7
1000092e:	0030      	movs	r0, r6
10000930:	f7ff fdf8 	bl	10000524 <set_raw_irq_handler_and_unlock>
10000934:	b003      	add	sp, #12
10000936:	bcc0      	pop	{r6, r7}
10000938:	46b9      	mov	r9, r7
1000093a:	46b0      	mov	r8, r6
1000093c:	bdf0      	pop	{r4, r5, r6, r7, pc}
1000093e:	0030      	movs	r0, r6
10000940:	f7ff fe48 	bl	100005d4 <irq_is_enabled>
10000944:	4681      	mov	r9, r0
10000946:	2100      	movs	r1, #0
10000948:	0030      	movs	r0, r6
1000094a:	f7ff fe5f 	bl	1000060c <irq_set_enabled>
1000094e:	f3bf 8f5f 	dmb	sy
10000952:	f3ef 8105 	mrs	r1, IPSR
10000956:	2900      	cmp	r1, #0
10000958:	d001      	beq.n	1000095e <irq_remove_handler+0x76>
1000095a:	428c      	cmp	r4, r1
1000095c:	d111      	bne.n	10000982 <irq_remove_handler+0x9a>
1000095e:	2301      	movs	r3, #1
10000960:	9c01      	ldr	r4, [sp, #4]
10000962:	439c      	bics	r4, r3
10000964:	2200      	movs	r2, #0
10000966:	68a3      	ldr	r3, [r4, #8]
10000968:	42ab      	cmp	r3, r5
1000096a:	d012      	beq.n	10000992 <irq_remove_handler+0xaa>
1000096c:	2206      	movs	r2, #6
1000096e:	56a2      	ldrsb	r2, [r4, r2]
10000970:	2a00      	cmp	r2, #0
10000972:	db0d      	blt.n	10000990 <irq_remove_handler+0xa8>
10000974:	0053      	lsls	r3, r2, #1
10000976:	189b      	adds	r3, r3, r2
10000978:	009b      	lsls	r3, r3, #2
1000097a:	0022      	movs	r2, r4
1000097c:	4c39      	ldr	r4, [pc, #228]	; (10000a64 <irq_remove_handler+0x17c>)
1000097e:	18e4      	adds	r4, r4, r3
10000980:	e7f1      	b.n	10000966 <irq_remove_handler+0x7e>
10000982:	2136      	movs	r1, #54	; 0x36
10000984:	4b38      	ldr	r3, [pc, #224]	; (10000a68 <irq_remove_handler+0x180>)
10000986:	4a39      	ldr	r2, [pc, #228]	; (10000a6c <irq_remove_handler+0x184>)
10000988:	31ff      	adds	r1, #255	; 0xff
1000098a:	4839      	ldr	r0, [pc, #228]	; (10000a70 <irq_remove_handler+0x188>)
1000098c:	f001 fd8e 	bl	100024ac <__assert_func>
10000990:	0022      	movs	r2, r4
10000992:	42ab      	cmp	r3, r5
10000994:	d156      	bne.n	10000a44 <irq_remove_handler+0x15c>
10000996:	2506      	movs	r5, #6
10000998:	5765      	ldrsb	r5, [r4, r5]
1000099a:	2d00      	cmp	r5, #0
1000099c:	db38      	blt.n	10000a10 <irq_remove_handler+0x128>
1000099e:	006b      	lsls	r3, r5, #1
100009a0:	195b      	adds	r3, r3, r5
100009a2:	009a      	lsls	r2, r3, #2
100009a4:	4b2f      	ldr	r3, [pc, #188]	; (10000a64 <irq_remove_handler+0x17c>)
100009a6:	189b      	adds	r3, r3, r2
100009a8:	689a      	ldr	r2, [r3, #8]
100009aa:	60a2      	str	r2, [r4, #8]
100009ac:	79da      	ldrb	r2, [r3, #7]
100009ae:	71e2      	strb	r2, [r4, #7]
100009b0:	2206      	movs	r2, #6
100009b2:	569a      	ldrsb	r2, [r3, r2]
100009b4:	71a2      	strb	r2, [r4, #6]
100009b6:	799b      	ldrb	r3, [r3, #6]
100009b8:	b25b      	sxtb	r3, r3
100009ba:	2b00      	cmp	r3, #0
100009bc:	da0f      	bge.n	100009de <irq_remove_handler+0xf6>
100009be:	482d      	ldr	r0, [pc, #180]	; (10000a74 <irq_remove_handler+0x18c>)
100009c0:	80a0      	strh	r0, [r4, #4]
100009c2:	006b      	lsls	r3, r5, #1
100009c4:	195b      	adds	r3, r3, r5
100009c6:	009b      	lsls	r3, r3, #2
100009c8:	4a26      	ldr	r2, [pc, #152]	; (10000a64 <irq_remove_handler+0x17c>)
100009ca:	18d3      	adds	r3, r2, r3
100009cc:	4a2a      	ldr	r2, [pc, #168]	; (10000a78 <irq_remove_handler+0x190>)
100009ce:	7811      	ldrb	r1, [r2, #0]
100009d0:	7199      	strb	r1, [r3, #6]
100009d2:	7015      	strb	r5, [r2, #0]
100009d4:	4649      	mov	r1, r9
100009d6:	0030      	movs	r0, r6
100009d8:	f7ff fe18 	bl	1000060c <irq_set_enabled>
100009dc:	e7a5      	b.n	1000092a <irq_remove_handler+0x42>
100009de:	1d20      	adds	r0, r4, #4
100009e0:	006b      	lsls	r3, r5, #1
100009e2:	195b      	adds	r3, r3, r5
100009e4:	009b      	lsls	r3, r3, #2
100009e6:	4a1f      	ldr	r2, [pc, #124]	; (10000a64 <irq_remove_handler+0x17c>)
100009e8:	189b      	adds	r3, r3, r2
100009ea:	1d1a      	adds	r2, r3, #4
100009ec:	889b      	ldrh	r3, [r3, #4]
100009ee:	0ad9      	lsrs	r1, r3, #11
100009f0:	291c      	cmp	r1, #28
100009f2:	d107      	bne.n	10000a04 <irq_remove_handler+0x11c>
100009f4:	055b      	lsls	r3, r3, #21
100009f6:	155b      	asrs	r3, r3, #21
100009f8:	3302      	adds	r3, #2
100009fa:	0059      	lsls	r1, r3, #1
100009fc:	1851      	adds	r1, r2, r1
100009fe:	f7ff fda5 	bl	1000054c <make_branch>
10000a02:	e7dd      	b.n	100009c0 <irq_remove_handler+0xd8>
10000a04:	4b1d      	ldr	r3, [pc, #116]	; (10000a7c <irq_remove_handler+0x194>)
10000a06:	4a1e      	ldr	r2, [pc, #120]	; (10000a80 <irq_remove_handler+0x198>)
10000a08:	21b1      	movs	r1, #177	; 0xb1
10000a0a:	4819      	ldr	r0, [pc, #100]	; (10000a70 <irq_remove_handler+0x188>)
10000a0c:	f001 fd4e 	bl	100024ac <__assert_func>
10000a10:	2900      	cmp	r1, #0
10000a12:	d112      	bne.n	10000a3a <irq_remove_handler+0x152>
10000a14:	2a00      	cmp	r2, #0
10000a16:	d00e      	beq.n	10000a36 <irq_remove_handler+0x14e>
10000a18:	23ff      	movs	r3, #255	; 0xff
10000a1a:	7193      	strb	r3, [r2, #6]
10000a1c:	4b19      	ldr	r3, [pc, #100]	; (10000a84 <irq_remove_handler+0x19c>)
10000a1e:	8093      	strh	r3, [r2, #4]
10000a20:	4a15      	ldr	r2, [pc, #84]	; (10000a78 <irq_remove_handler+0x190>)
10000a22:	7813      	ldrb	r3, [r2, #0]
10000a24:	71a3      	strb	r3, [r4, #6]
10000a26:	4b18      	ldr	r3, [pc, #96]	; (10000a88 <irq_remove_handler+0x1a0>)
10000a28:	490e      	ldr	r1, [pc, #56]	; (10000a64 <irq_remove_handler+0x17c>)
10000a2a:	1a64      	subs	r4, r4, r1
10000a2c:	4164      	adcs	r4, r4
10000a2e:	4363      	muls	r3, r4
10000a30:	0d1b      	lsrs	r3, r3, #20
10000a32:	7013      	strb	r3, [r2, #0]
10000a34:	e7ce      	b.n	100009d4 <irq_remove_handler+0xec>
10000a36:	4f0a      	ldr	r7, [pc, #40]	; (10000a60 <irq_remove_handler+0x178>)
10000a38:	e7f2      	b.n	10000a20 <irq_remove_handler+0x138>
10000a3a:	1d20      	adds	r0, r4, #4
10000a3c:	4913      	ldr	r1, [pc, #76]	; (10000a8c <irq_remove_handler+0x1a4>)
10000a3e:	f7ff fda9 	bl	10000594 <insert_branch_and_link>
10000a42:	e7c7      	b.n	100009d4 <irq_remove_handler+0xec>
10000a44:	216a      	movs	r1, #106	; 0x6a
10000a46:	4b12      	ldr	r3, [pc, #72]	; (10000a90 <irq_remove_handler+0x1a8>)
10000a48:	4a08      	ldr	r2, [pc, #32]	; (10000a6c <irq_remove_handler+0x184>)
10000a4a:	31ff      	adds	r1, #255	; 0xff
10000a4c:	4808      	ldr	r0, [pc, #32]	; (10000a70 <irq_remove_handler+0x188>)
10000a4e:	f001 fd2d 	bl	100024ac <__assert_func>
10000a52:	4f03      	ldr	r7, [pc, #12]	; (10000a60 <irq_remove_handler+0x178>)
10000a54:	e769      	b.n	1000092a <irq_remove_handler+0x42>
10000a56:	46c0      	nop			; (mov r8, r8)
10000a58:	d0000124 	.word	0xd0000124
10000a5c:	e000ed00 	.word	0xe000ed00
10000a60:	100001cd 	.word	0x100001cd
10000a64:	20000bb4 	.word	0x20000bb4
10000a68:	10006e20 	.word	0x10006e20
10000a6c:	10006ee8 	.word	0x10006ee8
10000a70:	10006ca0 	.word	0x10006ca0
10000a74:	0000bd01 	.word	0x0000bd01
10000a78:	20001a55 	.word	0x20001a55
10000a7c:	10006e08 	.word	0x10006e08
10000a80:	10006f08 	.word	0x10006f08
10000a84:	ffffbd01 	.word	0xffffbd01
10000a88:	0000aaaa 	.word	0x0000aaaa
10000a8c:	20000bee 	.word	0x20000bee
10000a90:	10006e54 	.word	0x10006e54

10000a94 <irq_add_tail_to_free_list>:
10000a94:	b570      	push	{r4, r5, r6, lr}
10000a96:	2101      	movs	r1, #1
10000a98:	4301      	orrs	r1, r0
10000a9a:	4b2e      	ldr	r3, [pc, #184]	; (10000b54 <irq_add_tail_to_free_list+0xc0>)
10000a9c:	1acb      	subs	r3, r1, r3
10000a9e:	2b2f      	cmp	r3, #47	; 0x2f
10000aa0:	d828      	bhi.n	10000af4 <irq_add_tail_to_free_list+0x60>
10000aa2:	f3ef 8305 	mrs	r3, IPSR
10000aa6:	2b00      	cmp	r3, #0
10000aa8:	d02b      	beq.n	10000b02 <irq_add_tail_to_free_list+0x6e>
10000aaa:	f3ef 8c10 	mrs	ip, PRIMASK
10000aae:	b672      	cpsid	i
10000ab0:	4a29      	ldr	r2, [pc, #164]	; (10000b58 <irq_add_tail_to_free_list+0xc4>)
10000ab2:	6812      	ldr	r2, [r2, #0]
10000ab4:	2a00      	cmp	r2, #0
10000ab6:	d0fb      	beq.n	10000ab0 <irq_add_tail_to_free_list+0x1c>
10000ab8:	f3bf 8f5f 	dmb	sy
10000abc:	4a27      	ldr	r2, [pc, #156]	; (10000b5c <irq_add_tail_to_free_list+0xc8>)
10000abe:	0004      	movs	r4, r0
10000ac0:	4d24      	ldr	r5, [pc, #144]	; (10000b54 <irq_add_tail_to_free_list+0xc0>)
10000ac2:	1b64      	subs	r4, r4, r5
10000ac4:	4164      	adcs	r4, r4
10000ac6:	4362      	muls	r2, r4
10000ac8:	0d12      	lsrs	r2, r2, #20
10000aca:	b254      	sxtb	r4, r2
10000acc:	4a24      	ldr	r2, [pc, #144]	; (10000b60 <irq_add_tail_to_free_list+0xcc>)
10000ace:	6892      	ldr	r2, [r2, #8]
10000ad0:	009b      	lsls	r3, r3, #2
10000ad2:	58d2      	ldr	r2, [r2, r3]
10000ad4:	428a      	cmp	r2, r1
10000ad6:	d01b      	beq.n	10000b10 <irq_add_tail_to_free_list+0x7c>
10000ad8:	2200      	movs	r2, #0
10000ada:	2a03      	cmp	r2, #3
10000adc:	d832      	bhi.n	10000b44 <irq_add_tail_to_free_list+0xb0>
10000ade:	0053      	lsls	r3, r2, #1
10000ae0:	189b      	adds	r3, r3, r2
10000ae2:	009b      	lsls	r3, r3, #2
10000ae4:	491b      	ldr	r1, [pc, #108]	; (10000b54 <irq_add_tail_to_free_list+0xc0>)
10000ae6:	18cb      	adds	r3, r1, r3
10000ae8:	799b      	ldrb	r3, [r3, #6]
10000aea:	b25b      	sxtb	r3, r3
10000aec:	42a3      	cmp	r3, r4
10000aee:	d01f      	beq.n	10000b30 <irq_add_tail_to_free_list+0x9c>
10000af0:	3201      	adds	r2, #1
10000af2:	e7f2      	b.n	10000ada <irq_add_tail_to_free_list+0x46>
10000af4:	21c7      	movs	r1, #199	; 0xc7
10000af6:	4b1b      	ldr	r3, [pc, #108]	; (10000b64 <irq_add_tail_to_free_list+0xd0>)
10000af8:	4a1b      	ldr	r2, [pc, #108]	; (10000b68 <irq_add_tail_to_free_list+0xd4>)
10000afa:	0049      	lsls	r1, r1, #1
10000afc:	481b      	ldr	r0, [pc, #108]	; (10000b6c <irq_add_tail_to_free_list+0xd8>)
10000afe:	f001 fcd5 	bl	100024ac <__assert_func>
10000b02:	2192      	movs	r1, #146	; 0x92
10000b04:	4b1a      	ldr	r3, [pc, #104]	; (10000b70 <irq_add_tail_to_free_list+0xdc>)
10000b06:	4a18      	ldr	r2, [pc, #96]	; (10000b68 <irq_add_tail_to_free_list+0xd4>)
10000b08:	31ff      	adds	r1, #255	; 0xff
10000b0a:	4818      	ldr	r0, [pc, #96]	; (10000b6c <irq_add_tail_to_free_list+0xd8>)
10000b0c:	f001 fcce 	bl	100024ac <__assert_func>
10000b10:	4a13      	ldr	r2, [pc, #76]	; (10000b60 <irq_add_tail_to_free_list+0xcc>)
10000b12:	6892      	ldr	r2, [r2, #8]
10000b14:	4917      	ldr	r1, [pc, #92]	; (10000b74 <irq_add_tail_to_free_list+0xe0>)
10000b16:	50d1      	str	r1, [r2, r3]
10000b18:	4b17      	ldr	r3, [pc, #92]	; (10000b78 <irq_add_tail_to_free_list+0xe4>)
10000b1a:	781a      	ldrb	r2, [r3, #0]
10000b1c:	7182      	strb	r2, [r0, #6]
10000b1e:	701c      	strb	r4, [r3, #0]
10000b20:	f3bf 8f5f 	dmb	sy
10000b24:	4b0c      	ldr	r3, [pc, #48]	; (10000b58 <irq_add_tail_to_free_list+0xc4>)
10000b26:	2200      	movs	r2, #0
10000b28:	601a      	str	r2, [r3, #0]
10000b2a:	f38c 8810 	msr	PRIMASK, ip
10000b2e:	bd70      	pop	{r4, r5, r6, pc}
10000b30:	000d      	movs	r5, r1
10000b32:	0053      	lsls	r3, r2, #1
10000b34:	1899      	adds	r1, r3, r2
10000b36:	0089      	lsls	r1, r1, #2
10000b38:	1869      	adds	r1, r5, r1
10000b3a:	26ff      	movs	r6, #255	; 0xff
10000b3c:	718e      	strb	r6, [r1, #6]
10000b3e:	4a0f      	ldr	r2, [pc, #60]	; (10000b7c <irq_add_tail_to_free_list+0xe8>)
10000b40:	808a      	strh	r2, [r1, #4]
10000b42:	e7e9      	b.n	10000b18 <irq_add_tail_to_free_list+0x84>
10000b44:	21d1      	movs	r1, #209	; 0xd1
10000b46:	4b0e      	ldr	r3, [pc, #56]	; (10000b80 <irq_add_tail_to_free_list+0xec>)
10000b48:	4a07      	ldr	r2, [pc, #28]	; (10000b68 <irq_add_tail_to_free_list+0xd4>)
10000b4a:	0049      	lsls	r1, r1, #1
10000b4c:	4807      	ldr	r0, [pc, #28]	; (10000b6c <irq_add_tail_to_free_list+0xd8>)
10000b4e:	f001 fcad 	bl	100024ac <__assert_func>
10000b52:	46c0      	nop			; (mov r8, r8)
10000b54:	20000bb4 	.word	0x20000bb4
10000b58:	d0000124 	.word	0xd0000124
10000b5c:	0000aaaa 	.word	0x0000aaaa
10000b60:	e000ed00 	.word	0xe000ed00
10000b64:	10006e5c 	.word	0x10006e5c
10000b68:	10006eb4 	.word	0x10006eb4
10000b6c:	10006ca0 	.word	0x10006ca0
10000b70:	10006e84 	.word	0x10006e84
10000b74:	100001cd 	.word	0x100001cd
10000b78:	20001a55 	.word	0x20001a55
10000b7c:	ffffbd01 	.word	0xffffbd01
10000b80:	10006e90 	.word	0x10006e90

10000b84 <irq_init_priorities>:
10000b84:	2200      	movs	r2, #0
10000b86:	4b04      	ldr	r3, [pc, #16]	; (10000b98 <irq_init_priorities+0x14>)
10000b88:	e002      	b.n	10000b90 <irq_init_priorities+0xc>
10000b8a:	4904      	ldr	r1, [pc, #16]	; (10000b9c <irq_init_priorities+0x18>)
10000b8c:	c302      	stmia	r3!, {r1}
10000b8e:	3201      	adds	r2, #1
10000b90:	2a07      	cmp	r2, #7
10000b92:	d9fa      	bls.n	10000b8a <irq_init_priorities+0x6>
10000b94:	4770      	bx	lr
10000b96:	46c0      	nop			; (mov r8, r8)
10000b98:	e000e400 	.word	0xe000e400
10000b9c:	80808080 	.word	0x80808080

10000ba0 <user_irq_claim_unused>:
10000ba0:	b500      	push	{lr}
10000ba2:	b083      	sub	sp, #12
10000ba4:	0001      	movs	r1, r0
10000ba6:	4b06      	ldr	r3, [pc, #24]	; (10000bc0 <user_irq_claim_unused+0x20>)
10000ba8:	9300      	str	r3, [sp, #0]
10000baa:	2305      	movs	r3, #5
10000bac:	2200      	movs	r2, #0
10000bae:	4805      	ldr	r0, [pc, #20]	; (10000bc4 <user_irq_claim_unused+0x24>)
10000bb0:	f7ff fc61 	bl	10000476 <hw_claim_unused_from_range>
10000bb4:	2800      	cmp	r0, #0
10000bb6:	db01      	blt.n	10000bbc <user_irq_claim_unused+0x1c>
10000bb8:	231f      	movs	r3, #31
10000bba:	1a18      	subs	r0, r3, r0
10000bbc:	b003      	add	sp, #12
10000bbe:	bd00      	pop	{pc}
10000bc0:	10006e98 	.word	0x10006e98
10000bc4:	20001a5a 	.word	0x20001a5a

10000bc8 <lock_init>:
10000bc8:	4b02      	ldr	r3, [pc, #8]	; (10000bd4 <lock_init+0xc>)
10000bca:	469c      	mov	ip, r3
10000bcc:	4461      	add	r1, ip
10000bce:	0089      	lsls	r1, r1, #2
10000bd0:	6001      	str	r1, [r0, #0]
10000bd2:	4770      	bx	lr
10000bd4:	34000040 	.word	0x34000040

10000bd8 <mutex_init>:
10000bd8:	b510      	push	{r4, lr}
10000bda:	0004      	movs	r4, r0
10000bdc:	f7ff fc84 	bl	100004e8 <next_striped_spin_lock_num>
10000be0:	0001      	movs	r1, r0
10000be2:	0020      	movs	r0, r4
10000be4:	f7ff fff0 	bl	10000bc8 <lock_init>
10000be8:	23ff      	movs	r3, #255	; 0xff
10000bea:	7123      	strb	r3, [r4, #4]
10000bec:	f3bf 8f5f 	dmb	sy
10000bf0:	bd10      	pop	{r4, pc}

10000bf2 <recursive_mutex_init>:
10000bf2:	b510      	push	{r4, lr}
10000bf4:	0004      	movs	r4, r0
10000bf6:	f7ff fc77 	bl	100004e8 <next_striped_spin_lock_num>
10000bfa:	0001      	movs	r1, r0
10000bfc:	0020      	movs	r0, r4
10000bfe:	f7ff ffe3 	bl	10000bc8 <lock_init>
10000c02:	23ff      	movs	r3, #255	; 0xff
10000c04:	7123      	strb	r3, [r4, #4]
10000c06:	2300      	movs	r3, #0
10000c08:	7163      	strb	r3, [r4, #5]
10000c0a:	f3bf 8f5f 	dmb	sy
10000c0e:	bd10      	pop	{r4, pc}

10000c10 <critical_section_init_with_lock_num>:
10000c10:	4b03      	ldr	r3, [pc, #12]	; (10000c20 <critical_section_init_with_lock_num+0x10>)
10000c12:	469c      	mov	ip, r3
10000c14:	4461      	add	r1, ip
10000c16:	0089      	lsls	r1, r1, #2
10000c18:	6001      	str	r1, [r0, #0]
10000c1a:	f3bf 8f5f 	dmb	sy
10000c1e:	4770      	bx	lr
10000c20:	34000040 	.word	0x34000040

10000c24 <critical_section_init>:
10000c24:	b510      	push	{r4, lr}
10000c26:	0004      	movs	r4, r0
10000c28:	2001      	movs	r0, #1
10000c2a:	f7ff fc6b 	bl	10000504 <spin_lock_claim_unused>
10000c2e:	0001      	movs	r1, r0
10000c30:	0020      	movs	r0, r4
10000c32:	f7ff ffed 	bl	10000c10 <critical_section_init_with_lock_num>
10000c36:	bd10      	pop	{r4, pc}

10000c38 <alarm_pool_post_alloc_init>:
10000c38:	b570      	push	{r4, r5, r6, lr}
10000c3a:	0005      	movs	r5, r0
10000c3c:	000c      	movs	r4, r1
10000c3e:	0008      	movs	r0, r1
10000c40:	f000 ff00 	bl	10001a44 <hardware_alarm_cancel>
10000c44:	4909      	ldr	r1, [pc, #36]	; (10000c6c <alarm_pool_post_alloc_init+0x34>)
10000c46:	0020      	movs	r0, r4
10000c48:	f000 fe40 	bl	100018cc <hardware_alarm_set_callback>
10000c4c:	f7ff fc4c 	bl	100004e8 <next_striped_spin_lock_num>
10000c50:	4b07      	ldr	r3, [pc, #28]	; (10000c70 <alarm_pool_post_alloc_init+0x38>)
10000c52:	469c      	mov	ip, r3
10000c54:	4460      	add	r0, ip
10000c56:	0080      	lsls	r0, r0, #2
10000c58:	6068      	str	r0, [r5, #4]
10000c5a:	752c      	strb	r4, [r5, #20]
10000c5c:	23d0      	movs	r3, #208	; 0xd0
10000c5e:	061b      	lsls	r3, r3, #24
10000c60:	781b      	ldrb	r3, [r3, #0]
10000c62:	756b      	strb	r3, [r5, #21]
10000c64:	00a4      	lsls	r4, r4, #2
10000c66:	4b03      	ldr	r3, [pc, #12]	; (10000c74 <alarm_pool_post_alloc_init+0x3c>)
10000c68:	50e5      	str	r5, [r4, r3]
10000c6a:	bd70      	pop	{r4, r5, r6, pc}
10000c6c:	10000f7d 	.word	0x10000f7d
10000c70:	34000040 	.word	0x34000040
10000c74:	20001800 	.word	0x20001800

10000c78 <sleep_until_callback>:
10000c78:	4b0a      	ldr	r3, [pc, #40]	; (10000ca4 <sleep_until_callback+0x2c>)
10000c7a:	681a      	ldr	r2, [r3, #0]
10000c7c:	f3ef 8110 	mrs	r1, PRIMASK
10000c80:	b672      	cpsid	i
10000c82:	6813      	ldr	r3, [r2, #0]
10000c84:	2b00      	cmp	r3, #0
10000c86:	d0fc      	beq.n	10000c82 <sleep_until_callback+0xa>
10000c88:	f3bf 8f5f 	dmb	sy
10000c8c:	4b05      	ldr	r3, [pc, #20]	; (10000ca4 <sleep_until_callback+0x2c>)
10000c8e:	681b      	ldr	r3, [r3, #0]
10000c90:	f3bf 8f5f 	dmb	sy
10000c94:	2200      	movs	r2, #0
10000c96:	601a      	str	r2, [r3, #0]
10000c98:	f381 8810 	msr	PRIMASK, r1
10000c9c:	bf40      	sev
10000c9e:	2000      	movs	r0, #0
10000ca0:	2100      	movs	r1, #0
10000ca2:	4770      	bx	lr
10000ca4:	20001a1c 	.word	0x20001a1c

10000ca8 <timer_pool_entry_comparator>:
10000ca8:	b510      	push	{r4, lr}
10000caa:	2900      	cmp	r1, #0
10000cac:	d022      	beq.n	10000cf4 <timer_pool_entry_comparator+0x4c>
10000cae:	6803      	ldr	r3, [r0, #0]
10000cb0:	7b1b      	ldrb	r3, [r3, #12]
10000cb2:	4299      	cmp	r1, r3
10000cb4:	d81e      	bhi.n	10000cf4 <timer_pool_entry_comparator+0x4c>
10000cb6:	4b17      	ldr	r3, [pc, #92]	; (10000d14 <timer_pool_entry_comparator+0x6c>)
10000cb8:	469c      	mov	ip, r3
10000cba:	4461      	add	r1, ip
10000cbc:	0109      	lsls	r1, r1, #4
10000cbe:	6883      	ldr	r3, [r0, #8]
10000cc0:	469c      	mov	ip, r3
10000cc2:	4461      	add	r1, ip
10000cc4:	680c      	ldr	r4, [r1, #0]
10000cc6:	6849      	ldr	r1, [r1, #4]
10000cc8:	2a00      	cmp	r2, #0
10000cca:	d019      	beq.n	10000d00 <timer_pool_entry_comparator+0x58>
10000ccc:	6803      	ldr	r3, [r0, #0]
10000cce:	7b1b      	ldrb	r3, [r3, #12]
10000cd0:	429a      	cmp	r2, r3
10000cd2:	d815      	bhi.n	10000d00 <timer_pool_entry_comparator+0x58>
10000cd4:	6883      	ldr	r3, [r0, #8]
10000cd6:	480f      	ldr	r0, [pc, #60]	; (10000d14 <timer_pool_entry_comparator+0x6c>)
10000cd8:	4684      	mov	ip, r0
10000cda:	4462      	add	r2, ip
10000cdc:	0112      	lsls	r2, r2, #4
10000cde:	189a      	adds	r2, r3, r2
10000ce0:	6810      	ldr	r0, [r2, #0]
10000ce2:	6853      	ldr	r3, [r2, #4]
10000ce4:	0002      	movs	r2, r0
10000ce6:	2001      	movs	r0, #1
10000ce8:	428b      	cmp	r3, r1
10000cea:	d801      	bhi.n	10000cf0 <timer_pool_entry_comparator+0x48>
10000cec:	d00e      	beq.n	10000d0c <timer_pool_entry_comparator+0x64>
10000cee:	2000      	movs	r0, #0
10000cf0:	b2c0      	uxtb	r0, r0
10000cf2:	bd10      	pop	{r4, pc}
10000cf4:	4b08      	ldr	r3, [pc, #32]	; (10000d18 <timer_pool_entry_comparator+0x70>)
10000cf6:	4a09      	ldr	r2, [pc, #36]	; (10000d1c <timer_pool_entry_comparator+0x74>)
10000cf8:	213c      	movs	r1, #60	; 0x3c
10000cfa:	4809      	ldr	r0, [pc, #36]	; (10000d20 <timer_pool_entry_comparator+0x78>)
10000cfc:	f001 fbd6 	bl	100024ac <__assert_func>
10000d00:	4b05      	ldr	r3, [pc, #20]	; (10000d18 <timer_pool_entry_comparator+0x70>)
10000d02:	4a06      	ldr	r2, [pc, #24]	; (10000d1c <timer_pool_entry_comparator+0x74>)
10000d04:	213c      	movs	r1, #60	; 0x3c
10000d06:	4806      	ldr	r0, [pc, #24]	; (10000d20 <timer_pool_entry_comparator+0x78>)
10000d08:	f001 fbd0 	bl	100024ac <__assert_func>
10000d0c:	42a2      	cmp	r2, r4
10000d0e:	d8ef      	bhi.n	10000cf0 <timer_pool_entry_comparator+0x48>
10000d10:	e7ed      	b.n	10000cee <timer_pool_entry_comparator+0x46>
10000d12:	46c0      	nop			; (mov r8, r8)
10000d14:	0fffffff 	.word	0x0fffffff
10000d18:	10007118 	.word	0x10007118
10000d1c:	10007398 	.word	0x10007398
10000d20:	100070c4 	.word	0x100070c4

10000d24 <ph_add_child_node>:
10000d24:	b510      	push	{r4, lr}
10000d26:	2900      	cmp	r1, #0
10000d28:	d01e      	beq.n	10000d68 <ph_add_child_node+0x44>
10000d2a:	7b03      	ldrb	r3, [r0, #12]
10000d2c:	4299      	cmp	r1, r3
10000d2e:	d81b      	bhi.n	10000d68 <ph_add_child_node+0x44>
10000d30:	004b      	lsls	r3, r1, #1
10000d32:	185b      	adds	r3, r3, r1
10000d34:	3b03      	subs	r3, #3
10000d36:	6804      	ldr	r4, [r0, #0]
10000d38:	46a4      	mov	ip, r4
10000d3a:	4463      	add	r3, ip
10000d3c:	2900      	cmp	r1, #0
10000d3e:	d019      	beq.n	10000d74 <ph_add_child_node+0x50>
10000d40:	2a00      	cmp	r2, #0
10000d42:	d01d      	beq.n	10000d80 <ph_add_child_node+0x5c>
10000d44:	4291      	cmp	r1, r2
10000d46:	d021      	beq.n	10000d8c <ph_add_child_node+0x68>
10000d48:	2a00      	cmp	r2, #0
10000d4a:	d025      	beq.n	10000d98 <ph_add_child_node+0x74>
10000d4c:	7b04      	ldrb	r4, [r0, #12]
10000d4e:	42a2      	cmp	r2, r4
10000d50:	d822      	bhi.n	10000d98 <ph_add_child_node+0x74>
10000d52:	6804      	ldr	r4, [r0, #0]
10000d54:	0050      	lsls	r0, r2, #1
10000d56:	1880      	adds	r0, r0, r2
10000d58:	3803      	subs	r0, #3
10000d5a:	1820      	adds	r0, r4, r0
10000d5c:	7081      	strb	r1, [r0, #2]
10000d5e:	7819      	ldrb	r1, [r3, #0]
10000d60:	2900      	cmp	r1, #0
10000d62:	d11f      	bne.n	10000da4 <ph_add_child_node+0x80>
10000d64:	701a      	strb	r2, [r3, #0]
10000d66:	bd10      	pop	{r4, pc}
10000d68:	4b10      	ldr	r3, [pc, #64]	; (10000dac <ph_add_child_node+0x88>)
10000d6a:	4a11      	ldr	r2, [pc, #68]	; (10000db0 <ph_add_child_node+0x8c>)
10000d6c:	2168      	movs	r1, #104	; 0x68
10000d6e:	4811      	ldr	r0, [pc, #68]	; (10000db4 <ph_add_child_node+0x90>)
10000d70:	f001 fb9c 	bl	100024ac <__assert_func>
10000d74:	4b10      	ldr	r3, [pc, #64]	; (10000db8 <ph_add_child_node+0x94>)
10000d76:	4a11      	ldr	r2, [pc, #68]	; (10000dbc <ph_add_child_node+0x98>)
10000d78:	316f      	adds	r1, #111	; 0x6f
10000d7a:	480e      	ldr	r0, [pc, #56]	; (10000db4 <ph_add_child_node+0x90>)
10000d7c:	f001 fb96 	bl	100024ac <__assert_func>
10000d80:	4b0f      	ldr	r3, [pc, #60]	; (10000dc0 <ph_add_child_node+0x9c>)
10000d82:	4a0e      	ldr	r2, [pc, #56]	; (10000dbc <ph_add_child_node+0x98>)
10000d84:	2170      	movs	r1, #112	; 0x70
10000d86:	480b      	ldr	r0, [pc, #44]	; (10000db4 <ph_add_child_node+0x90>)
10000d88:	f001 fb90 	bl	100024ac <__assert_func>
10000d8c:	4b0d      	ldr	r3, [pc, #52]	; (10000dc4 <ph_add_child_node+0xa0>)
10000d8e:	4a0b      	ldr	r2, [pc, #44]	; (10000dbc <ph_add_child_node+0x98>)
10000d90:	2171      	movs	r1, #113	; 0x71
10000d92:	4808      	ldr	r0, [pc, #32]	; (10000db4 <ph_add_child_node+0x90>)
10000d94:	f001 fb8a 	bl	100024ac <__assert_func>
10000d98:	4b04      	ldr	r3, [pc, #16]	; (10000dac <ph_add_child_node+0x88>)
10000d9a:	4a05      	ldr	r2, [pc, #20]	; (10000db0 <ph_add_child_node+0x8c>)
10000d9c:	2168      	movs	r1, #104	; 0x68
10000d9e:	4805      	ldr	r0, [pc, #20]	; (10000db4 <ph_add_child_node+0x90>)
10000da0:	f001 fb84 	bl	100024ac <__assert_func>
10000da4:	7041      	strb	r1, [r0, #1]
10000da6:	701a      	strb	r2, [r3, #0]
10000da8:	e7dd      	b.n	10000d66 <ph_add_child_node+0x42>
10000daa:	46c0      	nop			; (mov r8, r8)
10000dac:	1000713c 	.word	0x1000713c
10000db0:	10007404 	.word	0x10007404
10000db4:	10007158 	.word	0x10007158
10000db8:	100071c0 	.word	0x100071c0
10000dbc:	100073e0 	.word	0x100073e0
10000dc0:	100071cc 	.word	0x100071cc
10000dc4:	100071d8 	.word	0x100071d8

10000dc8 <ph_merge_nodes>:
10000dc8:	b570      	push	{r4, r5, r6, lr}
10000dca:	0006      	movs	r6, r0
10000dcc:	000d      	movs	r5, r1
10000dce:	0014      	movs	r4, r2
10000dd0:	2900      	cmp	r1, #0
10000dd2:	d014      	beq.n	10000dfe <ph_merge_nodes+0x36>
10000dd4:	2a00      	cmp	r2, #0
10000dd6:	d014      	beq.n	10000e02 <ph_merge_nodes+0x3a>
10000dd8:	6880      	ldr	r0, [r0, #8]
10000dda:	6873      	ldr	r3, [r6, #4]
10000ddc:	4798      	blx	r3
10000dde:	2800      	cmp	r0, #0
10000de0:	d006      	beq.n	10000df0 <ph_merge_nodes+0x28>
10000de2:	0022      	movs	r2, r4
10000de4:	0029      	movs	r1, r5
10000de6:	0030      	movs	r0, r6
10000de8:	f7ff ff9c 	bl	10000d24 <ph_add_child_node>
10000dec:	0028      	movs	r0, r5
10000dee:	e007      	b.n	10000e00 <ph_merge_nodes+0x38>
10000df0:	002a      	movs	r2, r5
10000df2:	0021      	movs	r1, r4
10000df4:	0030      	movs	r0, r6
10000df6:	f7ff ff95 	bl	10000d24 <ph_add_child_node>
10000dfa:	0020      	movs	r0, r4
10000dfc:	e000      	b.n	10000e00 <ph_merge_nodes+0x38>
10000dfe:	0010      	movs	r0, r2
10000e00:	bd70      	pop	{r4, r5, r6, pc}
10000e02:	0008      	movs	r0, r1
10000e04:	e7fc      	b.n	10000e00 <ph_merge_nodes+0x38>
	...

10000e08 <add_alarm_under_lock>:
10000e08:	b5f0      	push	{r4, r5, r6, r7, lr}
10000e0a:	b083      	sub	sp, #12
10000e0c:	0005      	movs	r5, r0
10000e0e:	9200      	str	r2, [sp, #0]
10000e10:	9301      	str	r3, [sp, #4]
10000e12:	ab0a      	add	r3, sp, #40	; 0x28
10000e14:	781c      	ldrb	r4, [r3, #0]
10000e16:	ab0b      	add	r3, sp, #44	; 0x2c
10000e18:	781f      	ldrb	r7, [r3, #0]
10000e1a:	2c00      	cmp	r4, #0
10000e1c:	d026      	beq.n	10000e6c <add_alarm_under_lock+0x64>
10000e1e:	6803      	ldr	r3, [r0, #0]
10000e20:	7b5a      	ldrb	r2, [r3, #13]
10000e22:	4294      	cmp	r4, r2
10000e24:	d107      	bne.n	10000e36 <add_alarm_under_lock+0x2e>
10000e26:	2301      	movs	r3, #1
10000e28:	2b00      	cmp	r3, #0
10000e2a:	d119      	bne.n	10000e60 <add_alarm_under_lock+0x58>
10000e2c:	2c00      	cmp	r4, #0
10000e2e:	d13b      	bne.n	10000ea8 <add_alarm_under_lock+0xa0>
10000e30:	0020      	movs	r0, r4
10000e32:	b003      	add	sp, #12
10000e34:	bdf0      	pop	{r4, r5, r6, r7, pc}
10000e36:	2c00      	cmp	r4, #0
10000e38:	d00c      	beq.n	10000e54 <add_alarm_under_lock+0x4c>
10000e3a:	7b1a      	ldrb	r2, [r3, #12]
10000e3c:	4294      	cmp	r4, r2
10000e3e:	d809      	bhi.n	10000e54 <add_alarm_under_lock+0x4c>
10000e40:	681a      	ldr	r2, [r3, #0]
10000e42:	0063      	lsls	r3, r4, #1
10000e44:	191b      	adds	r3, r3, r4
10000e46:	3b03      	subs	r3, #3
10000e48:	18d3      	adds	r3, r2, r3
10000e4a:	789b      	ldrb	r3, [r3, #2]
10000e4c:	2b00      	cmp	r3, #0
10000e4e:	d0eb      	beq.n	10000e28 <add_alarm_under_lock+0x20>
10000e50:	2301      	movs	r3, #1
10000e52:	e7e9      	b.n	10000e28 <add_alarm_under_lock+0x20>
10000e54:	4b3e      	ldr	r3, [pc, #248]	; (10000f50 <add_alarm_under_lock+0x148>)
10000e56:	4a3f      	ldr	r2, [pc, #252]	; (10000f54 <add_alarm_under_lock+0x14c>)
10000e58:	2168      	movs	r1, #104	; 0x68
10000e5a:	483f      	ldr	r0, [pc, #252]	; (10000f58 <add_alarm_under_lock+0x150>)
10000e5c:	f001 fb26 	bl	100024ac <__assert_func>
10000e60:	4b3e      	ldr	r3, [pc, #248]	; (10000f5c <add_alarm_under_lock+0x154>)
10000e62:	4a3f      	ldr	r2, [pc, #252]	; (10000f60 <add_alarm_under_lock+0x158>)
10000e64:	2167      	movs	r1, #103	; 0x67
10000e66:	483f      	ldr	r0, [pc, #252]	; (10000f64 <add_alarm_under_lock+0x15c>)
10000e68:	f001 fb20 	bl	100024ac <__assert_func>
10000e6c:	6803      	ldr	r3, [r0, #0]
10000e6e:	7b9c      	ldrb	r4, [r3, #14]
10000e70:	2c00      	cmp	r4, #0
10000e72:	d0db      	beq.n	10000e2c <add_alarm_under_lock+0x24>
10000e74:	d012      	beq.n	10000e9c <add_alarm_under_lock+0x94>
10000e76:	7b1a      	ldrb	r2, [r3, #12]
10000e78:	4294      	cmp	r4, r2
10000e7a:	d80f      	bhi.n	10000e9c <add_alarm_under_lock+0x94>
10000e7c:	0062      	lsls	r2, r4, #1
10000e7e:	1912      	adds	r2, r2, r4
10000e80:	3a03      	subs	r2, #3
10000e82:	6819      	ldr	r1, [r3, #0]
10000e84:	468c      	mov	ip, r1
10000e86:	4462      	add	r2, ip
10000e88:	7851      	ldrb	r1, [r2, #1]
10000e8a:	7399      	strb	r1, [r3, #14]
10000e8c:	2900      	cmp	r1, #0
10000e8e:	d100      	bne.n	10000e92 <add_alarm_under_lock+0x8a>
10000e90:	73d9      	strb	r1, [r3, #15]
10000e92:	2300      	movs	r3, #0
10000e94:	7093      	strb	r3, [r2, #2]
10000e96:	7053      	strb	r3, [r2, #1]
10000e98:	7013      	strb	r3, [r2, #0]
10000e9a:	e7c7      	b.n	10000e2c <add_alarm_under_lock+0x24>
10000e9c:	4b2c      	ldr	r3, [pc, #176]	; (10000f50 <add_alarm_under_lock+0x148>)
10000e9e:	4a2d      	ldr	r2, [pc, #180]	; (10000f54 <add_alarm_under_lock+0x14c>)
10000ea0:	2168      	movs	r1, #104	; 0x68
10000ea2:	482d      	ldr	r0, [pc, #180]	; (10000f58 <add_alarm_under_lock+0x150>)
10000ea4:	f001 fb02 	bl	100024ac <__assert_func>
10000ea8:	2c00      	cmp	r4, #0
10000eaa:	d03a      	beq.n	10000f22 <add_alarm_under_lock+0x11a>
10000eac:	682b      	ldr	r3, [r5, #0]
10000eae:	7b1b      	ldrb	r3, [r3, #12]
10000eb0:	429c      	cmp	r4, r3
10000eb2:	d836      	bhi.n	10000f22 <add_alarm_under_lock+0x11a>
10000eb4:	4b2c      	ldr	r3, [pc, #176]	; (10000f68 <add_alarm_under_lock+0x160>)
10000eb6:	18e3      	adds	r3, r4, r3
10000eb8:	011b      	lsls	r3, r3, #4
10000eba:	68aa      	ldr	r2, [r5, #8]
10000ebc:	4694      	mov	ip, r2
10000ebe:	4463      	add	r3, ip
10000ec0:	9a00      	ldr	r2, [sp, #0]
10000ec2:	601a      	str	r2, [r3, #0]
10000ec4:	9a01      	ldr	r2, [sp, #4]
10000ec6:	605a      	str	r2, [r3, #4]
10000ec8:	9a08      	ldr	r2, [sp, #32]
10000eca:	609a      	str	r2, [r3, #8]
10000ecc:	9a09      	ldr	r2, [sp, #36]	; 0x24
10000ece:	60da      	str	r2, [r3, #12]
10000ed0:	682e      	ldr	r6, [r5, #0]
10000ed2:	2c00      	cmp	r4, #0
10000ed4:	d02b      	beq.n	10000f2e <add_alarm_under_lock+0x126>
10000ed6:	d030      	beq.n	10000f3a <add_alarm_under_lock+0x132>
10000ed8:	7b33      	ldrb	r3, [r6, #12]
10000eda:	429c      	cmp	r4, r3
10000edc:	d82d      	bhi.n	10000f3a <add_alarm_under_lock+0x132>
10000ede:	0063      	lsls	r3, r4, #1
10000ee0:	191b      	adds	r3, r3, r4
10000ee2:	3b03      	subs	r3, #3
10000ee4:	6832      	ldr	r2, [r6, #0]
10000ee6:	4694      	mov	ip, r2
10000ee8:	4463      	add	r3, ip
10000eea:	2200      	movs	r2, #0
10000eec:	709a      	strb	r2, [r3, #2]
10000eee:	705a      	strb	r2, [r3, #1]
10000ef0:	701a      	strb	r2, [r3, #0]
10000ef2:	7b71      	ldrb	r1, [r6, #13]
10000ef4:	0022      	movs	r2, r4
10000ef6:	0030      	movs	r0, r6
10000ef8:	f7ff ff66 	bl	10000dc8 <ph_merge_nodes>
10000efc:	7370      	strb	r0, [r6, #13]
10000efe:	4284      	cmp	r4, r0
10000f00:	d000      	beq.n	10000f04 <add_alarm_under_lock+0xfc>
10000f02:	e795      	b.n	10000e30 <add_alarm_under_lock+0x28>
10000f04:	7d28      	ldrb	r0, [r5, #20]
10000f06:	9a00      	ldr	r2, [sp, #0]
10000f08:	9b01      	ldr	r3, [sp, #4]
10000f0a:	f000 fd27 	bl	1000195c <hardware_alarm_set_target>
10000f0e:	1e06      	subs	r6, r0, #0
10000f10:	d001      	beq.n	10000f16 <add_alarm_under_lock+0x10e>
10000f12:	2f00      	cmp	r7, #0
10000f14:	d017      	beq.n	10000f46 <add_alarm_under_lock+0x13e>
10000f16:	9b0c      	ldr	r3, [sp, #48]	; 0x30
10000f18:	2b00      	cmp	r3, #0
10000f1a:	d100      	bne.n	10000f1e <add_alarm_under_lock+0x116>
10000f1c:	e788      	b.n	10000e30 <add_alarm_under_lock+0x28>
10000f1e:	701e      	strb	r6, [r3, #0]
10000f20:	e786      	b.n	10000e30 <add_alarm_under_lock+0x28>
10000f22:	4b12      	ldr	r3, [pc, #72]	; (10000f6c <add_alarm_under_lock+0x164>)
10000f24:	4a12      	ldr	r2, [pc, #72]	; (10000f70 <add_alarm_under_lock+0x168>)
10000f26:	213c      	movs	r1, #60	; 0x3c
10000f28:	480e      	ldr	r0, [pc, #56]	; (10000f64 <add_alarm_under_lock+0x15c>)
10000f2a:	f001 fabf 	bl	100024ac <__assert_func>
10000f2e:	4b11      	ldr	r3, [pc, #68]	; (10000f74 <add_alarm_under_lock+0x16c>)
10000f30:	4a11      	ldr	r2, [pc, #68]	; (10000f78 <add_alarm_under_lock+0x170>)
10000f32:	21a5      	movs	r1, #165	; 0xa5
10000f34:	4808      	ldr	r0, [pc, #32]	; (10000f58 <add_alarm_under_lock+0x150>)
10000f36:	f001 fab9 	bl	100024ac <__assert_func>
10000f3a:	4b05      	ldr	r3, [pc, #20]	; (10000f50 <add_alarm_under_lock+0x148>)
10000f3c:	4a05      	ldr	r2, [pc, #20]	; (10000f54 <add_alarm_under_lock+0x14c>)
10000f3e:	2168      	movs	r1, #104	; 0x68
10000f40:	4805      	ldr	r0, [pc, #20]	; (10000f58 <add_alarm_under_lock+0x150>)
10000f42:	f001 fab3 	bl	100024ac <__assert_func>
10000f46:	6828      	ldr	r0, [r5, #0]
10000f48:	0021      	movs	r1, r4
10000f4a:	f000 ff3f 	bl	10001dcc <ph_remove_and_free_node>
10000f4e:	e7e2      	b.n	10000f16 <add_alarm_under_lock+0x10e>
10000f50:	1000713c 	.word	0x1000713c
10000f54:	10007404 	.word	0x10007404
10000f58:	10007158 	.word	0x10007158
10000f5c:	100071f0 	.word	0x100071f0
10000f60:	10007410 	.word	0x10007410
10000f64:	100070c4 	.word	0x100070c4
10000f68:	0fffffff 	.word	0x0fffffff
10000f6c:	10007118 	.word	0x10007118
10000f70:	10007398 	.word	0x10007398
10000f74:	100070c0 	.word	0x100070c0
10000f78:	100073f4 	.word	0x100073f4

10000f7c <alarm_pool_alarm_callback>:
10000f7c:	b5f0      	push	{r4, r5, r6, r7, lr}
10000f7e:	46de      	mov	lr, fp
10000f80:	4657      	mov	r7, sl
10000f82:	464e      	mov	r6, r9
10000f84:	4645      	mov	r5, r8
10000f86:	b5e0      	push	{r5, r6, r7, lr}
10000f88:	b08b      	sub	sp, #44	; 0x2c
10000f8a:	9009      	str	r0, [sp, #36]	; 0x24
10000f8c:	2300      	movs	r3, #0
10000f8e:	9308      	str	r3, [sp, #32]
10000f90:	0082      	lsls	r2, r0, #2
10000f92:	4bb5      	ldr	r3, [pc, #724]	; (10001268 <alarm_pool_alarm_callback+0x2ec>)
10000f94:	58d6      	ldr	r6, [r2, r3]
10000f96:	0037      	movs	r7, r6
10000f98:	e052      	b.n	10001040 <alarm_pool_alarm_callback+0xc4>
10000f9a:	4bb4      	ldr	r3, [pc, #720]	; (1000126c <alarm_pool_alarm_callback+0x2f0>)
10000f9c:	4ab4      	ldr	r2, [pc, #720]	; (10001270 <alarm_pool_alarm_callback+0x2f4>)
10000f9e:	213f      	movs	r1, #63	; 0x3f
10000fa0:	48b4      	ldr	r0, [pc, #720]	; (10001274 <alarm_pool_alarm_callback+0x2f8>)
10000fa2:	f001 fa83 	bl	100024ac <__assert_func>
10000fa6:	4bb4      	ldr	r3, [pc, #720]	; (10001278 <alarm_pool_alarm_callback+0x2fc>)
10000fa8:	4ab4      	ldr	r2, [pc, #720]	; (1000127c <alarm_pool_alarm_callback+0x300>)
10000faa:	213c      	movs	r1, #60	; 0x3c
10000fac:	48b4      	ldr	r0, [pc, #720]	; (10001280 <alarm_pool_alarm_callback+0x304>)
10000fae:	f001 fa7d 	bl	100024ac <__assert_func>
10000fb2:	2900      	cmp	r1, #0
10000fb4:	d101      	bne.n	10000fba <alarm_pool_alarm_callback+0x3e>
10000fb6:	2800      	cmp	r0, #0
10000fb8:	d169      	bne.n	1000108e <alarm_pool_alarm_callback+0x112>
10000fba:	2100      	movs	r1, #0
10000fbc:	4640      	mov	r0, r8
10000fbe:	f000 fefb 	bl	10001db8 <ph_remove_head>
10000fc2:	42a0      	cmp	r0, r4
10000fc4:	d119      	bne.n	10000ffa <alarm_pool_alarm_callback+0x7e>
10000fc6:	682a      	ldr	r2, [r5, #0]
10000fc8:	686b      	ldr	r3, [r5, #4]
10000fca:	9206      	str	r2, [sp, #24]
10000fcc:	9307      	str	r3, [sp, #28]
10000fce:	68ab      	ldr	r3, [r5, #8]
10000fd0:	4698      	mov	r8, r3
10000fd2:	68eb      	ldr	r3, [r5, #12]
10000fd4:	469a      	mov	sl, r3
10000fd6:	4643      	mov	r3, r8
10000fd8:	2b00      	cmp	r3, #0
10000fda:	d014      	beq.n	10001006 <alarm_pool_alarm_callback+0x8a>
10000fdc:	2c00      	cmp	r4, #0
10000fde:	d018      	beq.n	10001012 <alarm_pool_alarm_callback+0x96>
10000fe0:	683b      	ldr	r3, [r7, #0]
10000fe2:	7b1b      	ldrb	r3, [r3, #12]
10000fe4:	429c      	cmp	r4, r3
10000fe6:	d814      	bhi.n	10001012 <alarm_pool_alarm_callback+0x96>
10000fe8:	1e63      	subs	r3, r4, #1
10000fea:	68fa      	ldr	r2, [r7, #12]
10000fec:	5cd3      	ldrb	r3, [r2, r3]
10000fee:	9308      	str	r3, [sp, #32]
10000ff0:	021b      	lsls	r3, r3, #8
10000ff2:	4318      	orrs	r0, r3
10000ff4:	6138      	str	r0, [r7, #16]
10000ff6:	2000      	movs	r0, #0
10000ff8:	e015      	b.n	10001026 <alarm_pool_alarm_callback+0xaa>
10000ffa:	4ba2      	ldr	r3, [pc, #648]	; (10001284 <alarm_pool_alarm_callback+0x308>)
10000ffc:	4aa2      	ldr	r2, [pc, #648]	; (10001288 <alarm_pool_alarm_callback+0x30c>)
10000ffe:	218e      	movs	r1, #142	; 0x8e
10001000:	489f      	ldr	r0, [pc, #636]	; (10001280 <alarm_pool_alarm_callback+0x304>)
10001002:	f001 fa53 	bl	100024ac <__assert_func>
10001006:	4ba1      	ldr	r3, [pc, #644]	; (1000128c <alarm_pool_alarm_callback+0x310>)
10001008:	4a9f      	ldr	r2, [pc, #636]	; (10001288 <alarm_pool_alarm_callback+0x30c>)
1000100a:	2192      	movs	r1, #146	; 0x92
1000100c:	489c      	ldr	r0, [pc, #624]	; (10001280 <alarm_pool_alarm_callback+0x304>)
1000100e:	f001 fa4d 	bl	100024ac <__assert_func>
10001012:	4b99      	ldr	r3, [pc, #612]	; (10001278 <alarm_pool_alarm_callback+0x2fc>)
10001014:	4a9e      	ldr	r2, [pc, #632]	; (10001290 <alarm_pool_alarm_callback+0x314>)
10001016:	2141      	movs	r1, #65	; 0x41
10001018:	4899      	ldr	r0, [pc, #612]	; (10001280 <alarm_pool_alarm_callback+0x304>)
1000101a:	f001 fa47 	bl	100024ac <__assert_func>
1000101e:	2300      	movs	r3, #0
10001020:	469a      	mov	sl, r3
10001022:	4698      	mov	r8, r3
10001024:	2000      	movs	r0, #0
10001026:	687b      	ldr	r3, [r7, #4]
10001028:	f3bf 8f5f 	dmb	sy
1000102c:	2200      	movs	r2, #0
1000102e:	601a      	str	r2, [r3, #0]
10001030:	f386 8810 	msr	PRIMASK, r6
10001034:	4643      	mov	r3, r8
10001036:	2b00      	cmp	r3, #0
10001038:	d132      	bne.n	100010a0 <alarm_pool_alarm_callback+0x124>
1000103a:	2800      	cmp	r0, #0
1000103c:	d100      	bne.n	10001040 <alarm_pool_alarm_callback+0xc4>
1000103e:	e10c      	b.n	1000125a <alarm_pool_alarm_callback+0x2de>
10001040:	f000 fc00 	bl	10001844 <time_us_64>
10001044:	0002      	movs	r2, r0
10001046:	1e0b      	subs	r3, r1, #0
10001048:	dba7      	blt.n	10000f9a <alarm_pool_alarm_callback+0x1e>
1000104a:	2000      	movs	r0, #0
1000104c:	2100      	movs	r1, #0
1000104e:	9006      	str	r0, [sp, #24]
10001050:	9107      	str	r1, [sp, #28]
10001052:	6878      	ldr	r0, [r7, #4]
10001054:	f3ef 8610 	mrs	r6, PRIMASK
10001058:	b672      	cpsid	i
1000105a:	6801      	ldr	r1, [r0, #0]
1000105c:	2900      	cmp	r1, #0
1000105e:	d0fc      	beq.n	1000105a <alarm_pool_alarm_callback+0xde>
10001060:	f3bf 8f5f 	dmb	sy
10001064:	6839      	ldr	r1, [r7, #0]
10001066:	4688      	mov	r8, r1
10001068:	7b4c      	ldrb	r4, [r1, #13]
1000106a:	2c00      	cmp	r4, #0
1000106c:	d0d7      	beq.n	1000101e <alarm_pool_alarm_callback+0xa2>
1000106e:	d09a      	beq.n	10000fa6 <alarm_pool_alarm_callback+0x2a>
10001070:	7b09      	ldrb	r1, [r1, #12]
10001072:	428c      	cmp	r4, r1
10001074:	d897      	bhi.n	10000fa6 <alarm_pool_alarm_callback+0x2a>
10001076:	4987      	ldr	r1, [pc, #540]	; (10001294 <alarm_pool_alarm_callback+0x318>)
10001078:	1865      	adds	r5, r4, r1
1000107a:	012d      	lsls	r5, r5, #4
1000107c:	68b9      	ldr	r1, [r7, #8]
1000107e:	468c      	mov	ip, r1
10001080:	4465      	add	r5, ip
10001082:	6828      	ldr	r0, [r5, #0]
10001084:	6869      	ldr	r1, [r5, #4]
10001086:	1a80      	subs	r0, r0, r2
10001088:	4199      	sbcs	r1, r3
1000108a:	2900      	cmp	r1, #0
1000108c:	dd91      	ble.n	10000fb2 <alarm_pool_alarm_callback+0x36>
1000108e:	682a      	ldr	r2, [r5, #0]
10001090:	686b      	ldr	r3, [r5, #4]
10001092:	9809      	ldr	r0, [sp, #36]	; 0x24
10001094:	f000 fc62 	bl	1000195c <hardware_alarm_set_target>
10001098:	2300      	movs	r3, #0
1000109a:	469a      	mov	sl, r3
1000109c:	4698      	mov	r8, r3
1000109e:	e7c2      	b.n	10001026 <alarm_pool_alarm_callback+0xaa>
100010a0:	9b08      	ldr	r3, [sp, #32]
100010a2:	021b      	lsls	r3, r3, #8
100010a4:	4323      	orrs	r3, r4
100010a6:	4699      	mov	r9, r3
100010a8:	4651      	mov	r1, sl
100010aa:	0018      	movs	r0, r3
100010ac:	47c0      	blx	r8
100010ae:	0005      	movs	r5, r0
100010b0:	000e      	movs	r6, r1
100010b2:	687a      	ldr	r2, [r7, #4]
100010b4:	f3ef 8b10 	mrs	fp, PRIMASK
100010b8:	b672      	cpsid	i
100010ba:	6813      	ldr	r3, [r2, #0]
100010bc:	4259      	negs	r1, r3
100010be:	414b      	adcs	r3, r1
100010c0:	b2d9      	uxtb	r1, r3
100010c2:	2b00      	cmp	r3, #0
100010c4:	d1f9      	bne.n	100010ba <alarm_pool_alarm_callback+0x13e>
100010c6:	f3bf 8f5f 	dmb	sy
100010ca:	2e00      	cmp	r6, #0
100010cc:	db1e      	blt.n	1000110c <alarm_pool_alarm_callback+0x190>
100010ce:	2e00      	cmp	r6, #0
100010d0:	dd46      	ble.n	10001160 <alarm_pool_alarm_callback+0x1e4>
100010d2:	693b      	ldr	r3, [r7, #16]
100010d4:	2b00      	cmp	r3, #0
100010d6:	d047      	beq.n	10001168 <alarm_pool_alarm_callback+0x1ec>
100010d8:	454b      	cmp	r3, r9
100010da:	d16d      	bne.n	100011b8 <alarm_pool_alarm_callback+0x23c>
100010dc:	f000 fbb2 	bl	10001844 <time_us_64>
100010e0:	0002      	movs	r2, r0
100010e2:	1e0b      	subs	r3, r1, #0
100010e4:	db6e      	blt.n	100011c4 <alarm_pool_alarm_callback+0x248>
100010e6:	1952      	adds	r2, r2, r5
100010e8:	4173      	adcs	r3, r6
100010ea:	2b00      	cmp	r3, #0
100010ec:	db70      	blt.n	100011d0 <alarm_pool_alarm_callback+0x254>
100010ee:	2b00      	cmp	r3, #0
100010f0:	db72      	blt.n	100011d8 <alarm_pool_alarm_callback+0x25c>
100010f2:	2100      	movs	r1, #0
100010f4:	9104      	str	r1, [sp, #16]
100010f6:	3101      	adds	r1, #1
100010f8:	9103      	str	r1, [sp, #12]
100010fa:	9402      	str	r4, [sp, #8]
100010fc:	4651      	mov	r1, sl
100010fe:	9101      	str	r1, [sp, #4]
10001100:	4641      	mov	r1, r8
10001102:	9100      	str	r1, [sp, #0]
10001104:	0038      	movs	r0, r7
10001106:	f7ff fe7f 	bl	10000e08 <add_alarm_under_lock>
1000110a:	e04c      	b.n	100011a6 <alarm_pool_alarm_callback+0x22a>
1000110c:	693b      	ldr	r3, [r7, #16]
1000110e:	2b00      	cmp	r3, #0
10001110:	d0dd      	beq.n	100010ce <alarm_pool_alarm_callback+0x152>
10001112:	454b      	cmp	r3, r9
10001114:	d114      	bne.n	10001140 <alarm_pool_alarm_callback+0x1c4>
10001116:	9a06      	ldr	r2, [sp, #24]
10001118:	9b07      	ldr	r3, [sp, #28]
1000111a:	1b52      	subs	r2, r2, r5
1000111c:	41b3      	sbcs	r3, r6
1000111e:	2b00      	cmp	r3, #0
10001120:	db14      	blt.n	1000114c <alarm_pool_alarm_callback+0x1d0>
10001122:	2b00      	cmp	r3, #0
10001124:	db16      	blt.n	10001154 <alarm_pool_alarm_callback+0x1d8>
10001126:	2100      	movs	r1, #0
10001128:	9104      	str	r1, [sp, #16]
1000112a:	3101      	adds	r1, #1
1000112c:	9103      	str	r1, [sp, #12]
1000112e:	9402      	str	r4, [sp, #8]
10001130:	4651      	mov	r1, sl
10001132:	9101      	str	r1, [sp, #4]
10001134:	4641      	mov	r1, r8
10001136:	9100      	str	r1, [sp, #0]
10001138:	0038      	movs	r0, r7
1000113a:	f7ff fe65 	bl	10000e08 <add_alarm_under_lock>
1000113e:	e032      	b.n	100011a6 <alarm_pool_alarm_callback+0x22a>
10001140:	4b55      	ldr	r3, [pc, #340]	; (10001298 <alarm_pool_alarm_callback+0x31c>)
10001142:	4a51      	ldr	r2, [pc, #324]	; (10001288 <alarm_pool_alarm_callback+0x30c>)
10001144:	21a1      	movs	r1, #161	; 0xa1
10001146:	484e      	ldr	r0, [pc, #312]	; (10001280 <alarm_pool_alarm_callback+0x304>)
10001148:	f001 f9b0 	bl	100024ac <__assert_func>
1000114c:	2201      	movs	r2, #1
1000114e:	4252      	negs	r2, r2
10001150:	4b52      	ldr	r3, [pc, #328]	; (1000129c <alarm_pool_alarm_callback+0x320>)
10001152:	e7e6      	b.n	10001122 <alarm_pool_alarm_callback+0x1a6>
10001154:	4b45      	ldr	r3, [pc, #276]	; (1000126c <alarm_pool_alarm_callback+0x2f0>)
10001156:	4a46      	ldr	r2, [pc, #280]	; (10001270 <alarm_pool_alarm_callback+0x2f4>)
10001158:	213f      	movs	r1, #63	; 0x3f
1000115a:	4846      	ldr	r0, [pc, #280]	; (10001274 <alarm_pool_alarm_callback+0x2f8>)
1000115c:	f001 f9a6 	bl	100024ac <__assert_func>
10001160:	2e00      	cmp	r6, #0
10001162:	d101      	bne.n	10001168 <alarm_pool_alarm_callback+0x1ec>
10001164:	2d00      	cmp	r5, #0
10001166:	d1b4      	bne.n	100010d2 <alarm_pool_alarm_callback+0x156>
10001168:	683b      	ldr	r3, [r7, #0]
1000116a:	2c00      	cmp	r4, #0
1000116c:	d050      	beq.n	10001210 <alarm_pool_alarm_callback+0x294>
1000116e:	7b5a      	ldrb	r2, [r3, #13]
10001170:	4294      	cmp	r4, r2
10001172:	d137      	bne.n	100011e4 <alarm_pool_alarm_callback+0x268>
10001174:	2101      	movs	r1, #1
10001176:	2900      	cmp	r1, #0
10001178:	d14a      	bne.n	10001210 <alarm_pool_alarm_callback+0x294>
1000117a:	7bda      	ldrb	r2, [r3, #15]
1000117c:	2a00      	cmp	r2, #0
1000117e:	d14d      	bne.n	1000121c <alarm_pool_alarm_callback+0x2a0>
10001180:	7b9a      	ldrb	r2, [r3, #14]
10001182:	2a00      	cmp	r2, #0
10001184:	d103      	bne.n	1000118e <alarm_pool_alarm_callback+0x212>
10001186:	7bda      	ldrb	r2, [r3, #15]
10001188:	2a00      	cmp	r2, #0
1000118a:	d15a      	bne.n	10001242 <alarm_pool_alarm_callback+0x2c6>
1000118c:	739c      	strb	r4, [r3, #14]
1000118e:	73dc      	strb	r4, [r3, #15]
10001190:	2c00      	cmp	r4, #0
10001192:	d05c      	beq.n	1000124e <alarm_pool_alarm_callback+0x2d2>
10001194:	683b      	ldr	r3, [r7, #0]
10001196:	7b1b      	ldrb	r3, [r3, #12]
10001198:	429c      	cmp	r4, r3
1000119a:	d858      	bhi.n	1000124e <alarm_pool_alarm_callback+0x2d2>
1000119c:	68fa      	ldr	r2, [r7, #12]
1000119e:	3c01      	subs	r4, #1
100011a0:	5d13      	ldrb	r3, [r2, r4]
100011a2:	3301      	adds	r3, #1
100011a4:	5513      	strb	r3, [r2, r4]
100011a6:	2300      	movs	r3, #0
100011a8:	613b      	str	r3, [r7, #16]
100011aa:	687a      	ldr	r2, [r7, #4]
100011ac:	f3bf 8f5f 	dmb	sy
100011b0:	6013      	str	r3, [r2, #0]
100011b2:	f38b 8810 	msr	PRIMASK, fp
100011b6:	e743      	b.n	10001040 <alarm_pool_alarm_callback+0xc4>
100011b8:	4b37      	ldr	r3, [pc, #220]	; (10001298 <alarm_pool_alarm_callback+0x31c>)
100011ba:	4a33      	ldr	r2, [pc, #204]	; (10001288 <alarm_pool_alarm_callback+0x30c>)
100011bc:	21a4      	movs	r1, #164	; 0xa4
100011be:	4830      	ldr	r0, [pc, #192]	; (10001280 <alarm_pool_alarm_callback+0x304>)
100011c0:	f001 f974 	bl	100024ac <__assert_func>
100011c4:	4b29      	ldr	r3, [pc, #164]	; (1000126c <alarm_pool_alarm_callback+0x2f0>)
100011c6:	4a2a      	ldr	r2, [pc, #168]	; (10001270 <alarm_pool_alarm_callback+0x2f4>)
100011c8:	213f      	movs	r1, #63	; 0x3f
100011ca:	482a      	ldr	r0, [pc, #168]	; (10001274 <alarm_pool_alarm_callback+0x2f8>)
100011cc:	f001 f96e 	bl	100024ac <__assert_func>
100011d0:	2201      	movs	r2, #1
100011d2:	4252      	negs	r2, r2
100011d4:	4b31      	ldr	r3, [pc, #196]	; (1000129c <alarm_pool_alarm_callback+0x320>)
100011d6:	e78a      	b.n	100010ee <alarm_pool_alarm_callback+0x172>
100011d8:	4b24      	ldr	r3, [pc, #144]	; (1000126c <alarm_pool_alarm_callback+0x2f0>)
100011da:	4a25      	ldr	r2, [pc, #148]	; (10001270 <alarm_pool_alarm_callback+0x2f4>)
100011dc:	213f      	movs	r1, #63	; 0x3f
100011de:	4825      	ldr	r0, [pc, #148]	; (10001274 <alarm_pool_alarm_callback+0x2f8>)
100011e0:	f001 f964 	bl	100024ac <__assert_func>
100011e4:	2c00      	cmp	r4, #0
100011e6:	d00d      	beq.n	10001204 <alarm_pool_alarm_callback+0x288>
100011e8:	7b1a      	ldrb	r2, [r3, #12]
100011ea:	4294      	cmp	r4, r2
100011ec:	d80a      	bhi.n	10001204 <alarm_pool_alarm_callback+0x288>
100011ee:	0062      	lsls	r2, r4, #1
100011f0:	1912      	adds	r2, r2, r4
100011f2:	3a03      	subs	r2, #3
100011f4:	6818      	ldr	r0, [r3, #0]
100011f6:	4684      	mov	ip, r0
100011f8:	4462      	add	r2, ip
100011fa:	7892      	ldrb	r2, [r2, #2]
100011fc:	2a00      	cmp	r2, #0
100011fe:	d0ba      	beq.n	10001176 <alarm_pool_alarm_callback+0x1fa>
10001200:	2101      	movs	r1, #1
10001202:	e7b8      	b.n	10001176 <alarm_pool_alarm_callback+0x1fa>
10001204:	4b26      	ldr	r3, [pc, #152]	; (100012a0 <alarm_pool_alarm_callback+0x324>)
10001206:	4a27      	ldr	r2, [pc, #156]	; (100012a4 <alarm_pool_alarm_callback+0x328>)
10001208:	2168      	movs	r1, #104	; 0x68
1000120a:	4827      	ldr	r0, [pc, #156]	; (100012a8 <alarm_pool_alarm_callback+0x32c>)
1000120c:	f001 f94e 	bl	100024ac <__assert_func>
10001210:	4b26      	ldr	r3, [pc, #152]	; (100012ac <alarm_pool_alarm_callback+0x330>)
10001212:	4a27      	ldr	r2, [pc, #156]	; (100012b0 <alarm_pool_alarm_callback+0x334>)
10001214:	21f6      	movs	r1, #246	; 0xf6
10001216:	4824      	ldr	r0, [pc, #144]	; (100012a8 <alarm_pool_alarm_callback+0x32c>)
10001218:	f001 f948 	bl	100024ac <__assert_func>
1000121c:	2a00      	cmp	r2, #0
1000121e:	d00a      	beq.n	10001236 <alarm_pool_alarm_callback+0x2ba>
10001220:	7b19      	ldrb	r1, [r3, #12]
10001222:	428a      	cmp	r2, r1
10001224:	d807      	bhi.n	10001236 <alarm_pool_alarm_callback+0x2ba>
10001226:	0051      	lsls	r1, r2, #1
10001228:	188a      	adds	r2, r1, r2
1000122a:	3a03      	subs	r2, #3
1000122c:	6819      	ldr	r1, [r3, #0]
1000122e:	468c      	mov	ip, r1
10001230:	4462      	add	r2, ip
10001232:	7054      	strb	r4, [r2, #1]
10001234:	e7a4      	b.n	10001180 <alarm_pool_alarm_callback+0x204>
10001236:	4b1a      	ldr	r3, [pc, #104]	; (100012a0 <alarm_pool_alarm_callback+0x324>)
10001238:	4a1a      	ldr	r2, [pc, #104]	; (100012a4 <alarm_pool_alarm_callback+0x328>)
1000123a:	2168      	movs	r1, #104	; 0x68
1000123c:	481a      	ldr	r0, [pc, #104]	; (100012a8 <alarm_pool_alarm_callback+0x32c>)
1000123e:	f001 f935 	bl	100024ac <__assert_func>
10001242:	4b1c      	ldr	r3, [pc, #112]	; (100012b4 <alarm_pool_alarm_callback+0x338>)
10001244:	4a1a      	ldr	r2, [pc, #104]	; (100012b0 <alarm_pool_alarm_callback+0x334>)
10001246:	21fb      	movs	r1, #251	; 0xfb
10001248:	4817      	ldr	r0, [pc, #92]	; (100012a8 <alarm_pool_alarm_callback+0x32c>)
1000124a:	f001 f92f 	bl	100024ac <__assert_func>
1000124e:	4b0a      	ldr	r3, [pc, #40]	; (10001278 <alarm_pool_alarm_callback+0x2fc>)
10001250:	4a0f      	ldr	r2, [pc, #60]	; (10001290 <alarm_pool_alarm_callback+0x314>)
10001252:	2141      	movs	r1, #65	; 0x41
10001254:	480a      	ldr	r0, [pc, #40]	; (10001280 <alarm_pool_alarm_callback+0x304>)
10001256:	f001 f929 	bl	100024ac <__assert_func>
1000125a:	b00b      	add	sp, #44	; 0x2c
1000125c:	bcf0      	pop	{r4, r5, r6, r7}
1000125e:	46bb      	mov	fp, r7
10001260:	46b2      	mov	sl, r6
10001262:	46a9      	mov	r9, r5
10001264:	46a0      	mov	r8, r4
10001266:	bdf0      	pop	{r4, r5, r6, r7, pc}
10001268:	20001800 	.word	0x20001800
1000126c:	10006fbc 	.word	0x10006fbc
10001270:	10007364 	.word	0x10007364
10001274:	10006fd8 	.word	0x10006fd8
10001278:	10007118 	.word	0x10007118
1000127c:	10007398 	.word	0x10007398
10001280:	100070c4 	.word	0x100070c4
10001284:	10007218 	.word	0x10007218
10001288:	1000737c 	.word	0x1000737c
1000128c:	10007230 	.word	0x10007230
10001290:	100073bc 	.word	0x100073bc
10001294:	0fffffff 	.word	0x0fffffff
10001298:	1000723c 	.word	0x1000723c
1000129c:	7fffffff 	.word	0x7fffffff
100012a0:	1000713c 	.word	0x1000713c
100012a4:	10007404 	.word	0x10007404
100012a8:	10007158 	.word	0x10007158
100012ac:	10007278 	.word	0x10007278
100012b0:	100073d0 	.word	0x100073d0
100012b4:	1000729c 	.word	0x1000729c

100012b8 <alarm_pool_init_default>:
100012b8:	b510      	push	{r4, lr}
100012ba:	4b0c      	ldr	r3, [pc, #48]	; (100012ec <alarm_pool_init_default+0x34>)
100012bc:	685b      	ldr	r3, [r3, #4]
100012be:	2b00      	cmp	r3, #0
100012c0:	d004      	beq.n	100012cc <alarm_pool_init_default+0x14>
100012c2:	210a      	movs	r1, #10
100012c4:	480a      	ldr	r0, [pc, #40]	; (100012f0 <alarm_pool_init_default+0x38>)
100012c6:	f7ff fc7f 	bl	10000bc8 <lock_init>
100012ca:	bd10      	pop	{r4, pc}
100012cc:	4c07      	ldr	r4, [pc, #28]	; (100012ec <alarm_pool_init_default+0x34>)
100012ce:	0023      	movs	r3, r4
100012d0:	4a08      	ldr	r2, [pc, #32]	; (100012f4 <alarm_pool_init_default+0x3c>)
100012d2:	2110      	movs	r1, #16
100012d4:	6820      	ldr	r0, [r4, #0]
100012d6:	f000 fc7f 	bl	10001bd8 <ph_post_alloc_init>
100012da:	2003      	movs	r0, #3
100012dc:	f000 faa6 	bl	1000182c <hardware_alarm_claim>
100012e0:	2103      	movs	r1, #3
100012e2:	0020      	movs	r0, r4
100012e4:	f7ff fca8 	bl	10000c38 <alarm_pool_post_alloc_init>
100012e8:	e7eb      	b.n	100012c2 <alarm_pool_init_default+0xa>
100012ea:	46c0      	nop			; (mov r8, r8)
100012ec:	20000bfc 	.word	0x20000bfc
100012f0:	20001a1c 	.word	0x20001a1c
100012f4:	10000ca9 	.word	0x10000ca9

100012f8 <alarm_pool_get_default>:
100012f8:	b510      	push	{r4, lr}
100012fa:	4b06      	ldr	r3, [pc, #24]	; (10001314 <alarm_pool_get_default+0x1c>)
100012fc:	685b      	ldr	r3, [r3, #4]
100012fe:	2b00      	cmp	r3, #0
10001300:	d001      	beq.n	10001306 <alarm_pool_get_default+0xe>
10001302:	4804      	ldr	r0, [pc, #16]	; (10001314 <alarm_pool_get_default+0x1c>)
10001304:	bd10      	pop	{r4, pc}
10001306:	4b04      	ldr	r3, [pc, #16]	; (10001318 <alarm_pool_get_default+0x20>)
10001308:	4a04      	ldr	r2, [pc, #16]	; (1000131c <alarm_pool_get_default+0x24>)
1000130a:	215e      	movs	r1, #94	; 0x5e
1000130c:	4804      	ldr	r0, [pc, #16]	; (10001320 <alarm_pool_get_default+0x28>)
1000130e:	f001 f8cd 	bl	100024ac <__assert_func>
10001312:	46c0      	nop			; (mov r8, r8)
10001314:	20000bfc 	.word	0x20000bfc
10001318:	100072b0 	.word	0x100072b0
1000131c:	100073a4 	.word	0x100073a4
10001320:	100070c4 	.word	0x100070c4

10001324 <alarm_pool_add_alarm_at>:
10001324:	b5f0      	push	{r4, r5, r6, r7, lr}
10001326:	46de      	mov	lr, fp
10001328:	4657      	mov	r7, sl
1000132a:	464e      	mov	r6, r9
1000132c:	4645      	mov	r5, r8
1000132e:	b5e0      	push	{r5, r6, r7, lr}
10001330:	b08b      	sub	sp, #44	; 0x2c
10001332:	4680      	mov	r8, r0
10001334:	0016      	movs	r6, r2
10001336:	001f      	movs	r7, r3
10001338:	9b14      	ldr	r3, [sp, #80]	; 0x50
1000133a:	469a      	mov	sl, r3
1000133c:	9b15      	ldr	r3, [sp, #84]	; 0x54
1000133e:	4699      	mov	r9, r3
10001340:	ab16      	add	r3, sp, #88	; 0x58
10001342:	781b      	ldrb	r3, [r3, #0]
10001344:	469b      	mov	fp, r3
10001346:	231f      	movs	r3, #31
10001348:	aa02      	add	r2, sp, #8
1000134a:	4694      	mov	ip, r2
1000134c:	4463      	add	r3, ip
1000134e:	2200      	movs	r2, #0
10001350:	701a      	strb	r2, [r3, #0]
10001352:	e02b      	b.n	100013ac <alarm_pool_add_alarm_at+0x88>
10001354:	2800      	cmp	r0, #0
10001356:	d009      	beq.n	1000136c <alarm_pool_add_alarm_at+0x48>
10001358:	4642      	mov	r2, r8
1000135a:	6812      	ldr	r2, [r2, #0]
1000135c:	7b12      	ldrb	r2, [r2, #12]
1000135e:	4290      	cmp	r0, r2
10001360:	d804      	bhi.n	1000136c <alarm_pool_add_alarm_at+0x48>
10001362:	1e42      	subs	r2, r0, #1
10001364:	4641      	mov	r1, r8
10001366:	68c9      	ldr	r1, [r1, #12]
10001368:	5c8a      	ldrb	r2, [r1, r2]
1000136a:	e041      	b.n	100013f0 <alarm_pool_add_alarm_at+0xcc>
1000136c:	4b40      	ldr	r3, [pc, #256]	; (10001470 <alarm_pool_add_alarm_at+0x14c>)
1000136e:	4a41      	ldr	r2, [pc, #260]	; (10001474 <alarm_pool_add_alarm_at+0x150>)
10001370:	2141      	movs	r1, #65	; 0x41
10001372:	4841      	ldr	r0, [pc, #260]	; (10001478 <alarm_pool_add_alarm_at+0x154>)
10001374:	f001 f89a 	bl	100024ac <__assert_func>
10001378:	9807      	ldr	r0, [sp, #28]
1000137a:	e04c      	b.n	10001416 <alarm_pool_add_alarm_at+0xf2>
1000137c:	1b36      	subs	r6, r6, r4
1000137e:	41af      	sbcs	r7, r5
10001380:	2f00      	cmp	r7, #0
10001382:	db07      	blt.n	10001394 <alarm_pool_add_alarm_at+0x70>
10001384:	2f00      	cmp	r7, #0
10001386:	da11      	bge.n	100013ac <alarm_pool_add_alarm_at+0x88>
10001388:	4b3c      	ldr	r3, [pc, #240]	; (1000147c <alarm_pool_add_alarm_at+0x158>)
1000138a:	4a3d      	ldr	r2, [pc, #244]	; (10001480 <alarm_pool_add_alarm_at+0x15c>)
1000138c:	213f      	movs	r1, #63	; 0x3f
1000138e:	483d      	ldr	r0, [pc, #244]	; (10001484 <alarm_pool_add_alarm_at+0x160>)
10001390:	f001 f88c 	bl	100024ac <__assert_func>
10001394:	2601      	movs	r6, #1
10001396:	4276      	negs	r6, r6
10001398:	4f3b      	ldr	r7, [pc, #236]	; (10001488 <alarm_pool_add_alarm_at+0x164>)
1000139a:	e7f3      	b.n	10001384 <alarm_pool_add_alarm_at+0x60>
1000139c:	4b37      	ldr	r3, [pc, #220]	; (1000147c <alarm_pool_add_alarm_at+0x158>)
1000139e:	4a38      	ldr	r2, [pc, #224]	; (10001480 <alarm_pool_add_alarm_at+0x15c>)
100013a0:	213f      	movs	r1, #63	; 0x3f
100013a2:	4838      	ldr	r0, [pc, #224]	; (10001484 <alarm_pool_add_alarm_at+0x160>)
100013a4:	f001 f882 	bl	100024ac <__assert_func>
100013a8:	2f00      	cmp	r7, #0
100013aa:	db4f      	blt.n	1000144c <alarm_pool_add_alarm_at+0x128>
100013ac:	4643      	mov	r3, r8
100013ae:	685a      	ldr	r2, [r3, #4]
100013b0:	f3ef 8410 	mrs	r4, PRIMASK
100013b4:	b672      	cpsid	i
100013b6:	6813      	ldr	r3, [r2, #0]
100013b8:	4259      	negs	r1, r3
100013ba:	414b      	adcs	r3, r1
100013bc:	b2d9      	uxtb	r1, r3
100013be:	9107      	str	r1, [sp, #28]
100013c0:	2b00      	cmp	r3, #0
100013c2:	d1f8      	bne.n	100013b6 <alarm_pool_add_alarm_at+0x92>
100013c4:	f3bf 8f5f 	dmb	sy
100013c8:	331f      	adds	r3, #31
100013ca:	aa02      	add	r2, sp, #8
100013cc:	4694      	mov	ip, r2
100013ce:	4463      	add	r3, ip
100013d0:	9304      	str	r3, [sp, #16]
100013d2:	2300      	movs	r3, #0
100013d4:	9303      	str	r3, [sp, #12]
100013d6:	9302      	str	r3, [sp, #8]
100013d8:	464b      	mov	r3, r9
100013da:	9301      	str	r3, [sp, #4]
100013dc:	4653      	mov	r3, sl
100013de:	9300      	str	r3, [sp, #0]
100013e0:	0032      	movs	r2, r6
100013e2:	003b      	movs	r3, r7
100013e4:	4640      	mov	r0, r8
100013e6:	f7ff fd0f 	bl	10000e08 <add_alarm_under_lock>
100013ea:	1e03      	subs	r3, r0, #0
100013ec:	d1b2      	bne.n	10001354 <alarm_pool_add_alarm_at+0x30>
100013ee:	0002      	movs	r2, r0
100013f0:	4641      	mov	r1, r8
100013f2:	6849      	ldr	r1, [r1, #4]
100013f4:	f3bf 8f5f 	dmb	sy
100013f8:	2500      	movs	r5, #0
100013fa:	600d      	str	r5, [r1, #0]
100013fc:	f384 8810 	msr	PRIMASK, r4
10001400:	2b00      	cmp	r3, #0
10001402:	d029      	beq.n	10001458 <alarm_pool_add_alarm_at+0x134>
10001404:	231f      	movs	r3, #31
10001406:	a902      	add	r1, sp, #8
10001408:	468c      	mov	ip, r1
1000140a:	4463      	add	r3, ip
1000140c:	781b      	ldrb	r3, [r3, #0]
1000140e:	2b00      	cmp	r3, #0
10001410:	d1b2      	bne.n	10001378 <alarm_pool_add_alarm_at+0x54>
10001412:	0212      	lsls	r2, r2, #8
10001414:	4310      	orrs	r0, r2
10001416:	2b00      	cmp	r3, #0
10001418:	d020      	beq.n	1000145c <alarm_pool_add_alarm_at+0x138>
1000141a:	465b      	mov	r3, fp
1000141c:	2b00      	cmp	r3, #0
1000141e:	d01d      	beq.n	1000145c <alarm_pool_add_alarm_at+0x138>
10001420:	4649      	mov	r1, r9
10001422:	47d0      	blx	sl
10001424:	0004      	movs	r4, r0
10001426:	000d      	movs	r5, r1
10001428:	0003      	movs	r3, r0
1000142a:	430b      	orrs	r3, r1
1000142c:	d01d      	beq.n	1000146a <alarm_pool_add_alarm_at+0x146>
1000142e:	2900      	cmp	r1, #0
10001430:	dba4      	blt.n	1000137c <alarm_pool_add_alarm_at+0x58>
10001432:	f000 fa07 	bl	10001844 <time_us_64>
10001436:	0006      	movs	r6, r0
10001438:	1e0f      	subs	r7, r1, #0
1000143a:	dbaf      	blt.n	1000139c <alarm_pool_add_alarm_at+0x78>
1000143c:	1936      	adds	r6, r6, r4
1000143e:	416f      	adcs	r7, r5
10001440:	2f00      	cmp	r7, #0
10001442:	dab1      	bge.n	100013a8 <alarm_pool_add_alarm_at+0x84>
10001444:	2601      	movs	r6, #1
10001446:	4276      	negs	r6, r6
10001448:	4f0f      	ldr	r7, [pc, #60]	; (10001488 <alarm_pool_add_alarm_at+0x164>)
1000144a:	e7ad      	b.n	100013a8 <alarm_pool_add_alarm_at+0x84>
1000144c:	4b0b      	ldr	r3, [pc, #44]	; (1000147c <alarm_pool_add_alarm_at+0x158>)
1000144e:	4a0c      	ldr	r2, [pc, #48]	; (10001480 <alarm_pool_add_alarm_at+0x15c>)
10001450:	213f      	movs	r1, #63	; 0x3f
10001452:	480c      	ldr	r0, [pc, #48]	; (10001484 <alarm_pool_add_alarm_at+0x160>)
10001454:	f001 f82a 	bl	100024ac <__assert_func>
10001458:	2001      	movs	r0, #1
1000145a:	4240      	negs	r0, r0
1000145c:	b00b      	add	sp, #44	; 0x2c
1000145e:	bcf0      	pop	{r4, r5, r6, r7}
10001460:	46bb      	mov	fp, r7
10001462:	46b2      	mov	sl, r6
10001464:	46a9      	mov	r9, r5
10001466:	46a0      	mov	r8, r4
10001468:	bdf0      	pop	{r4, r5, r6, r7, pc}
1000146a:	9807      	ldr	r0, [sp, #28]
1000146c:	e7f6      	b.n	1000145c <alarm_pool_add_alarm_at+0x138>
1000146e:	46c0      	nop			; (mov r8, r8)
10001470:	10007118 	.word	0x10007118
10001474:	100073bc 	.word	0x100073bc
10001478:	100070c4 	.word	0x100070c4
1000147c:	10006fbc 	.word	0x10006fbc
10001480:	10007364 	.word	0x10007364
10001484:	10006fd8 	.word	0x10006fd8
10001488:	7fffffff 	.word	0x7fffffff

1000148c <alarm_pool_cancel_alarm>:
1000148c:	b5f8      	push	{r3, r4, r5, r6, r7, lr}
1000148e:	0004      	movs	r4, r0
10001490:	2900      	cmp	r1, #0
10001492:	d100      	bne.n	10001496 <alarm_pool_cancel_alarm+0xa>
10001494:	e062      	b.n	1000155c <alarm_pool_cancel_alarm+0xd0>
10001496:	6842      	ldr	r2, [r0, #4]
10001498:	f3ef 8510 	mrs	r5, PRIMASK
1000149c:	b672      	cpsid	i
1000149e:	6813      	ldr	r3, [r2, #0]
100014a0:	4258      	negs	r0, r3
100014a2:	4143      	adcs	r3, r0
100014a4:	b2d8      	uxtb	r0, r3
100014a6:	2b00      	cmp	r3, #0
100014a8:	d1f9      	bne.n	1000149e <alarm_pool_cancel_alarm+0x12>
100014aa:	f3bf 8f5f 	dmb	sy
100014ae:	b2cb      	uxtb	r3, r1
100014b0:	6822      	ldr	r2, [r4, #0]
100014b2:	7b56      	ldrb	r6, [r2, #13]
100014b4:	42b3      	cmp	r3, r6
100014b6:	d11b      	bne.n	100014f0 <alarm_pool_cancel_alarm+0x64>
100014b8:	2001      	movs	r0, #1
100014ba:	2800      	cmp	r0, #0
100014bc:	d048      	beq.n	10001550 <alarm_pool_cancel_alarm+0xc4>
100014be:	6920      	ldr	r0, [r4, #16]
100014c0:	4288      	cmp	r0, r1
100014c2:	d02b      	beq.n	1000151c <alarm_pool_cancel_alarm+0x90>
100014c4:	0a09      	lsrs	r1, r1, #8
100014c6:	b2c9      	uxtb	r1, r1
100014c8:	2b00      	cmp	r3, #0
100014ca:	d02e      	beq.n	1000152a <alarm_pool_cancel_alarm+0x9e>
100014cc:	6820      	ldr	r0, [r4, #0]
100014ce:	7b00      	ldrb	r0, [r0, #12]
100014d0:	4283      	cmp	r3, r0
100014d2:	d82a      	bhi.n	1000152a <alarm_pool_cancel_alarm+0x9e>
100014d4:	1e58      	subs	r0, r3, #1
100014d6:	68e6      	ldr	r6, [r4, #12]
100014d8:	5c30      	ldrb	r0, [r6, r0]
100014da:	4288      	cmp	r0, r1
100014dc:	d02b      	beq.n	10001536 <alarm_pool_cancel_alarm+0xaa>
100014de:	2000      	movs	r0, #0
100014e0:	6863      	ldr	r3, [r4, #4]
100014e2:	f3bf 8f5f 	dmb	sy
100014e6:	2200      	movs	r2, #0
100014e8:	601a      	str	r2, [r3, #0]
100014ea:	f385 8810 	msr	PRIMASK, r5
100014ee:	bdf8      	pop	{r3, r4, r5, r6, r7, pc}
100014f0:	2b00      	cmp	r3, #0
100014f2:	d00d      	beq.n	10001510 <alarm_pool_cancel_alarm+0x84>
100014f4:	7b16      	ldrb	r6, [r2, #12]
100014f6:	42b3      	cmp	r3, r6
100014f8:	d80a      	bhi.n	10001510 <alarm_pool_cancel_alarm+0x84>
100014fa:	005e      	lsls	r6, r3, #1
100014fc:	18f6      	adds	r6, r6, r3
100014fe:	3e03      	subs	r6, #3
10001500:	6817      	ldr	r7, [r2, #0]
10001502:	46bc      	mov	ip, r7
10001504:	4466      	add	r6, ip
10001506:	78b6      	ldrb	r6, [r6, #2]
10001508:	2e00      	cmp	r6, #0
1000150a:	d0d6      	beq.n	100014ba <alarm_pool_cancel_alarm+0x2e>
1000150c:	2001      	movs	r0, #1
1000150e:	e7d4      	b.n	100014ba <alarm_pool_cancel_alarm+0x2e>
10001510:	4b13      	ldr	r3, [pc, #76]	; (10001560 <alarm_pool_cancel_alarm+0xd4>)
10001512:	4a14      	ldr	r2, [pc, #80]	; (10001564 <alarm_pool_cancel_alarm+0xd8>)
10001514:	2168      	movs	r1, #104	; 0x68
10001516:	4814      	ldr	r0, [pc, #80]	; (10001568 <alarm_pool_cancel_alarm+0xdc>)
10001518:	f000 ffc8 	bl	100024ac <__assert_func>
1000151c:	212c      	movs	r1, #44	; 0x2c
1000151e:	4b13      	ldr	r3, [pc, #76]	; (1000156c <alarm_pool_cancel_alarm+0xe0>)
10001520:	4a13      	ldr	r2, [pc, #76]	; (10001570 <alarm_pool_cancel_alarm+0xe4>)
10001522:	31ff      	adds	r1, #255	; 0xff
10001524:	4813      	ldr	r0, [pc, #76]	; (10001574 <alarm_pool_cancel_alarm+0xe8>)
10001526:	f000 ffc1 	bl	100024ac <__assert_func>
1000152a:	4b13      	ldr	r3, [pc, #76]	; (10001578 <alarm_pool_cancel_alarm+0xec>)
1000152c:	4a13      	ldr	r2, [pc, #76]	; (1000157c <alarm_pool_cancel_alarm+0xf0>)
1000152e:	2141      	movs	r1, #65	; 0x41
10001530:	4810      	ldr	r0, [pc, #64]	; (10001574 <alarm_pool_cancel_alarm+0xe8>)
10001532:	f000 ffbb 	bl	100024ac <__assert_func>
10001536:	0019      	movs	r1, r3
10001538:	0010      	movs	r0, r2
1000153a:	f000 fc47 	bl	10001dcc <ph_remove_and_free_node>
1000153e:	2800      	cmp	r0, #0
10001540:	d1ce      	bne.n	100014e0 <alarm_pool_cancel_alarm+0x54>
10001542:	2199      	movs	r1, #153	; 0x99
10001544:	4b0e      	ldr	r3, [pc, #56]	; (10001580 <alarm_pool_cancel_alarm+0xf4>)
10001546:	4a0a      	ldr	r2, [pc, #40]	; (10001570 <alarm_pool_cancel_alarm+0xe4>)
10001548:	0049      	lsls	r1, r1, #1
1000154a:	480a      	ldr	r0, [pc, #40]	; (10001574 <alarm_pool_cancel_alarm+0xe8>)
1000154c:	f000 ffae 	bl	100024ac <__assert_func>
10001550:	6923      	ldr	r3, [r4, #16]
10001552:	428b      	cmp	r3, r1
10001554:	d1c4      	bne.n	100014e0 <alarm_pool_cancel_alarm+0x54>
10001556:	2300      	movs	r3, #0
10001558:	6123      	str	r3, [r4, #16]
1000155a:	e7c1      	b.n	100014e0 <alarm_pool_cancel_alarm+0x54>
1000155c:	2000      	movs	r0, #0
1000155e:	e7c6      	b.n	100014ee <alarm_pool_cancel_alarm+0x62>
10001560:	1000713c 	.word	0x1000713c
10001564:	10007404 	.word	0x10007404
10001568:	10007158 	.word	0x10007158
1000156c:	100072d4 	.word	0x100072d4
10001570:	1000734c 	.word	0x1000734c
10001574:	100070c4 	.word	0x100070c4
10001578:	10007118 	.word	0x10007118
1000157c:	100073bc 	.word	0x100073bc
10001580:	100072f8 	.word	0x100072f8

10001584 <alarm_pool_core_num>:
10001584:	7d40      	ldrb	r0, [r0, #21]
10001586:	4770      	bx	lr

10001588 <sleep_until>:
10001588:	b5f0      	push	{r4, r5, r6, r7, lr}
1000158a:	b087      	sub	sp, #28
1000158c:	0006      	movs	r6, r0
1000158e:	000f      	movs	r7, r1
10001590:	f3ef 8305 	mrs	r3, IPSR
10001594:	2b00      	cmp	r3, #0
10001596:	d11f      	bne.n	100015d8 <sleep_until+0x50>
10001598:	2406      	movs	r4, #6
1000159a:	4264      	negs	r4, r4
1000159c:	17e5      	asrs	r5, r4, #31
1000159e:	19a4      	adds	r4, r4, r6
100015a0:	417d      	adcs	r5, r7
100015a2:	428d      	cmp	r5, r1
100015a4:	d802      	bhi.n	100015ac <sleep_until+0x24>
100015a6:	d103      	bne.n	100015b0 <sleep_until+0x28>
100015a8:	4284      	cmp	r4, r0
100015aa:	d901      	bls.n	100015b0 <sleep_until+0x28>
100015ac:	2400      	movs	r4, #0
100015ae:	2500      	movs	r5, #0
100015b0:	2d00      	cmp	r5, #0
100015b2:	db14      	blt.n	100015de <sleep_until+0x56>
100015b4:	9404      	str	r4, [sp, #16]
100015b6:	9505      	str	r5, [sp, #20]
100015b8:	f000 f944 	bl	10001844 <time_us_64>
100015bc:	0002      	movs	r2, r0
100015be:	1e0b      	subs	r3, r1, #0
100015c0:	db13      	blt.n	100015ea <sleep_until+0x62>
100015c2:	1aa4      	subs	r4, r4, r2
100015c4:	419d      	sbcs	r5, r3
100015c6:	2d00      	cmp	r5, #0
100015c8:	dc17      	bgt.n	100015fa <sleep_until+0x72>
100015ca:	d014      	beq.n	100015f6 <sleep_until+0x6e>
100015cc:	0030      	movs	r0, r6
100015ce:	0039      	movs	r1, r7
100015d0:	f000 f944 	bl	1000185c <busy_wait_until>
100015d4:	b007      	add	sp, #28
100015d6:	bdf0      	pop	{r4, r5, r6, r7, pc}
100015d8:	4823      	ldr	r0, [pc, #140]	; (10001668 <sleep_until+0xe0>)
100015da:	f001 f801 	bl	100025e0 <panic>
100015de:	4b23      	ldr	r3, [pc, #140]	; (1000166c <sleep_until+0xe4>)
100015e0:	4a23      	ldr	r2, [pc, #140]	; (10001670 <sleep_until+0xe8>)
100015e2:	213f      	movs	r1, #63	; 0x3f
100015e4:	4823      	ldr	r0, [pc, #140]	; (10001674 <sleep_until+0xec>)
100015e6:	f000 ff61 	bl	100024ac <__assert_func>
100015ea:	4b20      	ldr	r3, [pc, #128]	; (1000166c <sleep_until+0xe4>)
100015ec:	4a20      	ldr	r2, [pc, #128]	; (10001670 <sleep_until+0xe8>)
100015ee:	213f      	movs	r1, #63	; 0x3f
100015f0:	4820      	ldr	r0, [pc, #128]	; (10001674 <sleep_until+0xec>)
100015f2:	f000 ff5b 	bl	100024ac <__assert_func>
100015f6:	2c00      	cmp	r4, #0
100015f8:	d0e8      	beq.n	100015cc <sleep_until+0x44>
100015fa:	f7ff fe7d 	bl	100012f8 <alarm_pool_get_default>
100015fe:	2300      	movs	r3, #0
10001600:	9302      	str	r3, [sp, #8]
10001602:	9301      	str	r3, [sp, #4]
10001604:	4b1c      	ldr	r3, [pc, #112]	; (10001678 <sleep_until+0xf0>)
10001606:	9300      	str	r3, [sp, #0]
10001608:	9a04      	ldr	r2, [sp, #16]
1000160a:	9b05      	ldr	r3, [sp, #20]
1000160c:	f7ff fe8a 	bl	10001324 <alarm_pool_add_alarm_at>
10001610:	2800      	cmp	r0, #0
10001612:	da18      	bge.n	10001646 <sleep_until+0xbe>
10001614:	e7da      	b.n	100015cc <sleep_until+0x44>
10001616:	2300      	movs	r3, #0
10001618:	e000      	b.n	1000161c <sleep_until+0x94>
1000161a:	2300      	movs	r3, #0
1000161c:	2b00      	cmp	r3, #0
1000161e:	d1d5      	bne.n	100015cc <sleep_until+0x44>
10001620:	4b16      	ldr	r3, [pc, #88]	; (1000167c <sleep_until+0xf4>)
10001622:	681a      	ldr	r2, [r3, #0]
10001624:	f3ef 8110 	mrs	r1, PRIMASK
10001628:	b672      	cpsid	i
1000162a:	6813      	ldr	r3, [r2, #0]
1000162c:	2b00      	cmp	r3, #0
1000162e:	d0fc      	beq.n	1000162a <sleep_until+0xa2>
10001630:	f3bf 8f5f 	dmb	sy
10001634:	4b11      	ldr	r3, [pc, #68]	; (1000167c <sleep_until+0xf4>)
10001636:	681b      	ldr	r3, [r3, #0]
10001638:	f3bf 8f5f 	dmb	sy
1000163c:	2200      	movs	r2, #0
1000163e:	601a      	str	r2, [r3, #0]
10001640:	f381 8810 	msr	PRIMASK, r1
10001644:	bf20      	wfe
10001646:	9904      	ldr	r1, [sp, #16]
10001648:	9a05      	ldr	r2, [sp, #20]
1000164a:	4b0d      	ldr	r3, [pc, #52]	; (10001680 <sleep_until+0xf8>)
1000164c:	6a5b      	ldr	r3, [r3, #36]	; 0x24
1000164e:	429a      	cmp	r2, r3
10001650:	d8e3      	bhi.n	1000161a <sleep_until+0x92>
10001652:	480b      	ldr	r0, [pc, #44]	; (10001680 <sleep_until+0xf8>)
10001654:	6a80      	ldr	r0, [r0, #40]	; 0x28
10001656:	4288      	cmp	r0, r1
10001658:	d203      	bcs.n	10001662 <sleep_until+0xda>
1000165a:	429a      	cmp	r2, r3
1000165c:	d0db      	beq.n	10001616 <sleep_until+0x8e>
1000165e:	2301      	movs	r3, #1
10001660:	e7dc      	b.n	1000161c <sleep_until+0x94>
10001662:	2301      	movs	r3, #1
10001664:	e7da      	b.n	1000161c <sleep_until+0x94>
10001666:	46c0      	nop			; (mov r8, r8)
10001668:	100072fc 	.word	0x100072fc
1000166c:	10006fbc 	.word	0x10006fbc
10001670:	10007364 	.word	0x10007364
10001674:	10006fd8 	.word	0x10006fd8
10001678:	10000c79 	.word	0x10000c79
1000167c:	20001a1c 	.word	0x20001a1c
10001680:	40054000 	.word	0x40054000

10001684 <sleep_us>:
10001684:	b570      	push	{r4, r5, r6, lr}
10001686:	0004      	movs	r4, r0
10001688:	000d      	movs	r5, r1
1000168a:	f000 f8db 	bl	10001844 <time_us_64>
1000168e:	0002      	movs	r2, r0
10001690:	1e0b      	subs	r3, r1, #0
10001692:	db0a      	blt.n	100016aa <sleep_us+0x26>
10001694:	0020      	movs	r0, r4
10001696:	0029      	movs	r1, r5
10001698:	1880      	adds	r0, r0, r2
1000169a:	4159      	adcs	r1, r3
1000169c:	2900      	cmp	r1, #0
1000169e:	db0a      	blt.n	100016b6 <sleep_us+0x32>
100016a0:	2900      	cmp	r1, #0
100016a2:	db0c      	blt.n	100016be <sleep_us+0x3a>
100016a4:	f7ff ff70 	bl	10001588 <sleep_until>
100016a8:	bd70      	pop	{r4, r5, r6, pc}
100016aa:	4b08      	ldr	r3, [pc, #32]	; (100016cc <sleep_us+0x48>)
100016ac:	4a08      	ldr	r2, [pc, #32]	; (100016d0 <sleep_us+0x4c>)
100016ae:	213f      	movs	r1, #63	; 0x3f
100016b0:	4808      	ldr	r0, [pc, #32]	; (100016d4 <sleep_us+0x50>)
100016b2:	f000 fefb 	bl	100024ac <__assert_func>
100016b6:	2001      	movs	r0, #1
100016b8:	4240      	negs	r0, r0
100016ba:	4907      	ldr	r1, [pc, #28]	; (100016d8 <sleep_us+0x54>)
100016bc:	e7f0      	b.n	100016a0 <sleep_us+0x1c>
100016be:	4b03      	ldr	r3, [pc, #12]	; (100016cc <sleep_us+0x48>)
100016c0:	4a03      	ldr	r2, [pc, #12]	; (100016d0 <sleep_us+0x4c>)
100016c2:	213f      	movs	r1, #63	; 0x3f
100016c4:	4803      	ldr	r0, [pc, #12]	; (100016d4 <sleep_us+0x50>)
100016c6:	f000 fef1 	bl	100024ac <__assert_func>
100016ca:	46c0      	nop			; (mov r8, r8)
100016cc:	10006fbc 	.word	0x10006fbc
100016d0:	10007364 	.word	0x10007364
100016d4:	10006fd8 	.word	0x10006fd8
100016d8:	7fffffff 	.word	0x7fffffff

100016dc <sleep_ms>:
100016dc:	b510      	push	{r4, lr}
100016de:	22fa      	movs	r2, #250	; 0xfa
100016e0:	0092      	lsls	r2, r2, #2
100016e2:	2300      	movs	r3, #0
100016e4:	2100      	movs	r1, #0
100016e6:	f002 fc25 	bl	10003f34 <__wrap___aeabi_lmul>
100016ea:	f7ff ffcb 	bl	10001684 <sleep_us>
100016ee:	bd10      	pop	{r4, pc}

100016f0 <best_effort_wfe_or_timeout>:
100016f0:	b570      	push	{r4, r5, r6, lr}
100016f2:	b084      	sub	sp, #16
100016f4:	0005      	movs	r5, r0
100016f6:	000c      	movs	r4, r1
100016f8:	f3ef 8305 	mrs	r3, IPSR
100016fc:	2b00      	cmp	r3, #0
100016fe:	d11e      	bne.n	1000173e <best_effort_wfe_or_timeout+0x4e>
10001700:	f7ff fdfa 	bl	100012f8 <alarm_pool_get_default>
10001704:	2300      	movs	r3, #0
10001706:	9302      	str	r3, [sp, #8]
10001708:	9301      	str	r3, [sp, #4]
1000170a:	4b22      	ldr	r3, [pc, #136]	; (10001794 <best_effort_wfe_or_timeout+0xa4>)
1000170c:	9300      	str	r3, [sp, #0]
1000170e:	002a      	movs	r2, r5
10001710:	0023      	movs	r3, r4
10001712:	f7ff fe07 	bl	10001324 <alarm_pool_add_alarm_at>
10001716:	1e06      	subs	r6, r0, #0
10001718:	dd23      	ble.n	10001762 <best_effort_wfe_or_timeout+0x72>
1000171a:	bf20      	wfe
1000171c:	f7ff fdec 	bl	100012f8 <alarm_pool_get_default>
10001720:	0031      	movs	r1, r6
10001722:	f7ff feb3 	bl	1000148c <alarm_pool_cancel_alarm>
10001726:	4b1c      	ldr	r3, [pc, #112]	; (10001798 <best_effort_wfe_or_timeout+0xa8>)
10001728:	6a5b      	ldr	r3, [r3, #36]	; 0x24
1000172a:	429c      	cmp	r4, r3
1000172c:	d82d      	bhi.n	1000178a <best_effort_wfe_or_timeout+0x9a>
1000172e:	4a1a      	ldr	r2, [pc, #104]	; (10001798 <best_effort_wfe_or_timeout+0xa8>)
10001730:	6a92      	ldr	r2, [r2, #40]	; 0x28
10001732:	42aa      	cmp	r2, r5
10001734:	d22c      	bcs.n	10001790 <best_effort_wfe_or_timeout+0xa0>
10001736:	429c      	cmp	r4, r3
10001738:	d025      	beq.n	10001786 <best_effort_wfe_or_timeout+0x96>
1000173a:	2001      	movs	r0, #1
1000173c:	e026      	b.n	1000178c <best_effort_wfe_or_timeout+0x9c>
1000173e:	4b16      	ldr	r3, [pc, #88]	; (10001798 <best_effort_wfe_or_timeout+0xa8>)
10001740:	6a5b      	ldr	r3, [r3, #36]	; 0x24
10001742:	4299      	cmp	r1, r3
10001744:	d809      	bhi.n	1000175a <best_effort_wfe_or_timeout+0x6a>
10001746:	4a14      	ldr	r2, [pc, #80]	; (10001798 <best_effort_wfe_or_timeout+0xa8>)
10001748:	6a92      	ldr	r2, [r2, #40]	; 0x28
1000174a:	4282      	cmp	r2, r0
1000174c:	d207      	bcs.n	1000175e <best_effort_wfe_or_timeout+0x6e>
1000174e:	4299      	cmp	r1, r3
10001750:	d001      	beq.n	10001756 <best_effort_wfe_or_timeout+0x66>
10001752:	2001      	movs	r0, #1
10001754:	e01a      	b.n	1000178c <best_effort_wfe_or_timeout+0x9c>
10001756:	2000      	movs	r0, #0
10001758:	e018      	b.n	1000178c <best_effort_wfe_or_timeout+0x9c>
1000175a:	2000      	movs	r0, #0
1000175c:	e016      	b.n	1000178c <best_effort_wfe_or_timeout+0x9c>
1000175e:	2001      	movs	r0, #1
10001760:	e014      	b.n	1000178c <best_effort_wfe_or_timeout+0x9c>
10001762:	4b0d      	ldr	r3, [pc, #52]	; (10001798 <best_effort_wfe_or_timeout+0xa8>)
10001764:	6a5b      	ldr	r3, [r3, #36]	; 0x24
10001766:	429c      	cmp	r4, r3
10001768:	d809      	bhi.n	1000177e <best_effort_wfe_or_timeout+0x8e>
1000176a:	4a0b      	ldr	r2, [pc, #44]	; (10001798 <best_effort_wfe_or_timeout+0xa8>)
1000176c:	6a92      	ldr	r2, [r2, #40]	; 0x28
1000176e:	42aa      	cmp	r2, r5
10001770:	d207      	bcs.n	10001782 <best_effort_wfe_or_timeout+0x92>
10001772:	429c      	cmp	r4, r3
10001774:	d001      	beq.n	1000177a <best_effort_wfe_or_timeout+0x8a>
10001776:	2001      	movs	r0, #1
10001778:	e008      	b.n	1000178c <best_effort_wfe_or_timeout+0x9c>
1000177a:	2000      	movs	r0, #0
1000177c:	e006      	b.n	1000178c <best_effort_wfe_or_timeout+0x9c>
1000177e:	2000      	movs	r0, #0
10001780:	e004      	b.n	1000178c <best_effort_wfe_or_timeout+0x9c>
10001782:	2001      	movs	r0, #1
10001784:	e002      	b.n	1000178c <best_effort_wfe_or_timeout+0x9c>
10001786:	2000      	movs	r0, #0
10001788:	e000      	b.n	1000178c <best_effort_wfe_or_timeout+0x9c>
1000178a:	2000      	movs	r0, #0
1000178c:	b004      	add	sp, #16
1000178e:	bd70      	pop	{r4, r5, r6, pc}
10001790:	2001      	movs	r0, #1
10001792:	e7fb      	b.n	1000178c <best_effort_wfe_or_timeout+0x9c>
10001794:	10000c79 	.word	0x10000c79
10001798:	40054000 	.word	0x40054000

1000179c <hardware_alarm_irq_handler>:
1000179c:	b570      	push	{r4, r5, r6, lr}
1000179e:	f3ef 8005 	mrs	r0, IPSR
100017a2:	3810      	subs	r0, #16
100017a4:	f3ef 8c10 	mrs	ip, PRIMASK
100017a8:	b672      	cpsid	i
100017aa:	4b1a      	ldr	r3, [pc, #104]	; (10001814 <hardware_alarm_irq_handler+0x78>)
100017ac:	681b      	ldr	r3, [r3, #0]
100017ae:	2b00      	cmp	r3, #0
100017b0:	d0fb      	beq.n	100017aa <hardware_alarm_irq_handler+0xe>
100017b2:	f3bf 8f5f 	dmb	sy
100017b6:	2201      	movs	r2, #1
100017b8:	0013      	movs	r3, r2
100017ba:	4083      	lsls	r3, r0
100017bc:	4916      	ldr	r1, [pc, #88]	; (10001818 <hardware_alarm_irq_handler+0x7c>)
100017be:	634b      	str	r3, [r1, #52]	; 0x34
100017c0:	4916      	ldr	r1, [pc, #88]	; (1000181c <hardware_alarm_irq_handler+0x80>)
100017c2:	600b      	str	r3, [r1, #0]
100017c4:	4916      	ldr	r1, [pc, #88]	; (10001820 <hardware_alarm_irq_handler+0x84>)
100017c6:	7809      	ldrb	r1, [r1, #0]
100017c8:	000c      	movs	r4, r1
100017ca:	40c4      	lsrs	r4, r0
100017cc:	4222      	tst	r2, r4
100017ce:	d014      	beq.n	100017fa <hardware_alarm_irq_handler+0x5e>
100017d0:	4a11      	ldr	r2, [pc, #68]	; (10001818 <hardware_alarm_irq_handler+0x7c>)
100017d2:	6a54      	ldr	r4, [r2, #36]	; 0x24
100017d4:	0082      	lsls	r2, r0, #2
100017d6:	4d13      	ldr	r5, [pc, #76]	; (10001824 <hardware_alarm_irq_handler+0x88>)
100017d8:	5952      	ldr	r2, [r2, r5]
100017da:	4294      	cmp	r4, r2
100017dc:	d306      	bcc.n	100017ec <hardware_alarm_irq_handler+0x50>
100017de:	0082      	lsls	r2, r0, #2
100017e0:	4c11      	ldr	r4, [pc, #68]	; (10001828 <hardware_alarm_irq_handler+0x8c>)
100017e2:	5912      	ldr	r2, [r2, r4]
100017e4:	4399      	bics	r1, r3
100017e6:	4b0e      	ldr	r3, [pc, #56]	; (10001820 <hardware_alarm_irq_handler+0x84>)
100017e8:	7019      	strb	r1, [r3, #0]
100017ea:	e007      	b.n	100017fc <hardware_alarm_irq_handler+0x60>
100017ec:	4a0a      	ldr	r2, [pc, #40]	; (10001818 <hardware_alarm_irq_handler+0x7c>)
100017ee:	1d03      	adds	r3, r0, #4
100017f0:	009b      	lsls	r3, r3, #2
100017f2:	5899      	ldr	r1, [r3, r2]
100017f4:	5099      	str	r1, [r3, r2]
100017f6:	2200      	movs	r2, #0
100017f8:	e000      	b.n	100017fc <hardware_alarm_irq_handler+0x60>
100017fa:	2200      	movs	r2, #0
100017fc:	f3bf 8f5f 	dmb	sy
10001800:	4b04      	ldr	r3, [pc, #16]	; (10001814 <hardware_alarm_irq_handler+0x78>)
10001802:	2100      	movs	r1, #0
10001804:	6019      	str	r1, [r3, #0]
10001806:	f38c 8810 	msr	PRIMASK, ip
1000180a:	2a00      	cmp	r2, #0
1000180c:	d000      	beq.n	10001810 <hardware_alarm_irq_handler+0x74>
1000180e:	4790      	blx	r2
10001810:	bd70      	pop	{r4, r5, r6, pc}
10001812:	46c0      	nop			; (mov r8, r8)
10001814:	d0000128 	.word	0xd0000128
10001818:	40054000 	.word	0x40054000
1000181c:	4005703c 	.word	0x4005703c
10001820:	20001a59 	.word	0x20001a59
10001824:	20001a28 	.word	0x20001a28
10001828:	20001230 	.word	0x20001230

1000182c <hardware_alarm_claim>:
1000182c:	b510      	push	{r4, lr}
1000182e:	0001      	movs	r1, r0
10001830:	4a02      	ldr	r2, [pc, #8]	; (1000183c <hardware_alarm_claim+0x10>)
10001832:	4803      	ldr	r0, [pc, #12]	; (10001840 <hardware_alarm_claim+0x14>)
10001834:	f7fe fe06 	bl	10000444 <hw_claim_or_assert>
10001838:	bd10      	pop	{r4, pc}
1000183a:	46c0      	nop			; (mov r8, r8)
1000183c:	10007428 	.word	0x10007428
10001840:	20001a54 	.word	0x20001a54

10001844 <time_us_64>:
10001844:	4b04      	ldr	r3, [pc, #16]	; (10001858 <time_us_64+0x14>)
10001846:	6a5b      	ldr	r3, [r3, #36]	; 0x24
10001848:	4a03      	ldr	r2, [pc, #12]	; (10001858 <time_us_64+0x14>)
1000184a:	6a90      	ldr	r0, [r2, #40]	; 0x28
1000184c:	0019      	movs	r1, r3
1000184e:	6a53      	ldr	r3, [r2, #36]	; 0x24
10001850:	4299      	cmp	r1, r3
10001852:	d1f9      	bne.n	10001848 <time_us_64+0x4>
10001854:	4770      	bx	lr
10001856:	46c0      	nop			; (mov r8, r8)
10001858:	40054000 	.word	0x40054000

1000185c <busy_wait_until>:
1000185c:	4b08      	ldr	r3, [pc, #32]	; (10001880 <busy_wait_until+0x24>)
1000185e:	6a5b      	ldr	r3, [r3, #36]	; 0x24
10001860:	e001      	b.n	10001866 <busy_wait_until+0xa>
10001862:	4b07      	ldr	r3, [pc, #28]	; (10001880 <busy_wait_until+0x24>)
10001864:	6a5b      	ldr	r3, [r3, #36]	; 0x24
10001866:	428b      	cmp	r3, r1
10001868:	d3fb      	bcc.n	10001862 <busy_wait_until+0x6>
1000186a:	e001      	b.n	10001870 <busy_wait_until+0x14>
1000186c:	4b04      	ldr	r3, [pc, #16]	; (10001880 <busy_wait_until+0x24>)
1000186e:	6a5b      	ldr	r3, [r3, #36]	; 0x24
10001870:	428b      	cmp	r3, r1
10001872:	d103      	bne.n	1000187c <busy_wait_until+0x20>
10001874:	4b02      	ldr	r3, [pc, #8]	; (10001880 <busy_wait_until+0x24>)
10001876:	6a9b      	ldr	r3, [r3, #40]	; 0x28
10001878:	4283      	cmp	r3, r0
1000187a:	d3f7      	bcc.n	1000186c <busy_wait_until+0x10>
1000187c:	4770      	bx	lr
1000187e:	46c0      	nop			; (mov r8, r8)
10001880:	40054000 	.word	0x40054000

10001884 <busy_wait_us>:
10001884:	b570      	push	{r4, r5, r6, lr}
10001886:	0004      	movs	r4, r0
10001888:	000d      	movs	r5, r1
1000188a:	f7ff ffdb 	bl	10001844 <time_us_64>
1000188e:	0002      	movs	r2, r0
10001890:	000b      	movs	r3, r1
10001892:	0020      	movs	r0, r4
10001894:	0029      	movs	r1, r5
10001896:	1880      	adds	r0, r0, r2
10001898:	4159      	adcs	r1, r3
1000189a:	428b      	cmp	r3, r1
1000189c:	d802      	bhi.n	100018a4 <busy_wait_us+0x20>
1000189e:	d104      	bne.n	100018aa <busy_wait_us+0x26>
100018a0:	4282      	cmp	r2, r0
100018a2:	d902      	bls.n	100018aa <busy_wait_us+0x26>
100018a4:	2001      	movs	r0, #1
100018a6:	4240      	negs	r0, r0
100018a8:	17c1      	asrs	r1, r0, #31
100018aa:	2900      	cmp	r1, #0
100018ac:	db02      	blt.n	100018b4 <busy_wait_us+0x30>
100018ae:	f7ff ffd5 	bl	1000185c <busy_wait_until>
100018b2:	bd70      	pop	{r4, r5, r6, pc}
100018b4:	4b02      	ldr	r3, [pc, #8]	; (100018c0 <busy_wait_us+0x3c>)
100018b6:	4a03      	ldr	r2, [pc, #12]	; (100018c4 <busy_wait_us+0x40>)
100018b8:	213f      	movs	r1, #63	; 0x3f
100018ba:	4803      	ldr	r0, [pc, #12]	; (100018c8 <busy_wait_us+0x44>)
100018bc:	f000 fdf6 	bl	100024ac <__assert_func>
100018c0:	10006fbc 	.word	0x10006fbc
100018c4:	100074ec 	.word	0x100074ec
100018c8:	10006fd8 	.word	0x10006fd8

100018cc <hardware_alarm_set_callback>:
100018cc:	b570      	push	{r4, r5, r6, lr}
100018ce:	0004      	movs	r4, r0
100018d0:	000d      	movs	r5, r1
100018d2:	f3ef 8610 	mrs	r6, PRIMASK
100018d6:	b672      	cpsid	i
100018d8:	4b1b      	ldr	r3, [pc, #108]	; (10001948 <hardware_alarm_set_callback+0x7c>)
100018da:	681b      	ldr	r3, [r3, #0]
100018dc:	2b00      	cmp	r3, #0
100018de:	d0fb      	beq.n	100018d8 <hardware_alarm_set_callback+0xc>
100018e0:	f3bf 8f5f 	dmb	sy
100018e4:	2d00      	cmp	r5, #0
100018e6:	d01c      	beq.n	10001922 <hardware_alarm_set_callback+0x56>
100018e8:	0020      	movs	r0, r4
100018ea:	f7fe fe9f 	bl	1000062c <irq_get_vtable_handler>
100018ee:	4b17      	ldr	r3, [pc, #92]	; (1000194c <hardware_alarm_set_callback+0x80>)
100018f0:	4283      	cmp	r3, r0
100018f2:	d00b      	beq.n	1000190c <hardware_alarm_set_callback+0x40>
100018f4:	0019      	movs	r1, r3
100018f6:	0020      	movs	r0, r4
100018f8:	f7fe feb2 	bl	10000660 <irq_set_exclusive_handler>
100018fc:	2101      	movs	r1, #1
100018fe:	0020      	movs	r0, r4
10001900:	f7fe fe84 	bl	1000060c <irq_set_enabled>
10001904:	2301      	movs	r3, #1
10001906:	40a3      	lsls	r3, r4
10001908:	4a11      	ldr	r2, [pc, #68]	; (10001950 <hardware_alarm_set_callback+0x84>)
1000190a:	6013      	str	r3, [r2, #0]
1000190c:	00a4      	lsls	r4, r4, #2
1000190e:	4b11      	ldr	r3, [pc, #68]	; (10001954 <hardware_alarm_set_callback+0x88>)
10001910:	50e5      	str	r5, [r4, r3]
10001912:	f3bf 8f5f 	dmb	sy
10001916:	4b0c      	ldr	r3, [pc, #48]	; (10001948 <hardware_alarm_set_callback+0x7c>)
10001918:	2200      	movs	r2, #0
1000191a:	601a      	str	r2, [r3, #0]
1000191c:	f386 8810 	msr	PRIMASK, r6
10001920:	bd70      	pop	{r4, r5, r6, pc}
10001922:	00a2      	lsls	r2, r4, #2
10001924:	4b0b      	ldr	r3, [pc, #44]	; (10001954 <hardware_alarm_set_callback+0x88>)
10001926:	2100      	movs	r1, #0
10001928:	50d1      	str	r1, [r2, r3]
1000192a:	2201      	movs	r2, #1
1000192c:	40a2      	lsls	r2, r4
1000192e:	490a      	ldr	r1, [pc, #40]	; (10001958 <hardware_alarm_set_callback+0x8c>)
10001930:	780b      	ldrb	r3, [r1, #0]
10001932:	4393      	bics	r3, r2
10001934:	700b      	strb	r3, [r1, #0]
10001936:	4905      	ldr	r1, [pc, #20]	; (1000194c <hardware_alarm_set_callback+0x80>)
10001938:	0020      	movs	r0, r4
1000193a:	f7fe ffd5 	bl	100008e8 <irq_remove_handler>
1000193e:	2100      	movs	r1, #0
10001940:	0020      	movs	r0, r4
10001942:	f7fe fe63 	bl	1000060c <irq_set_enabled>
10001946:	e7e4      	b.n	10001912 <hardware_alarm_set_callback+0x46>
10001948:	d0000128 	.word	0xd0000128
1000194c:	1000179d 	.word	0x1000179d
10001950:	40056038 	.word	0x40056038
10001954:	20001230 	.word	0x20001230
10001958:	20001a59 	.word	0x20001a59

1000195c <hardware_alarm_set_target>:
1000195c:	b5f0      	push	{r4, r5, r6, r7, lr}
1000195e:	46de      	mov	lr, fp
10001960:	b500      	push	{lr}
10001962:	b084      	sub	sp, #16
10001964:	0004      	movs	r4, r0
10001966:	0015      	movs	r5, r2
10001968:	9201      	str	r2, [sp, #4]
1000196a:	001e      	movs	r6, r3
1000196c:	9302      	str	r3, [sp, #8]
1000196e:	f7ff ff69 	bl	10001844 <time_us_64>
10001972:	9503      	str	r5, [sp, #12]
10001974:	428e      	cmp	r6, r1
10001976:	d802      	bhi.n	1000197e <hardware_alarm_set_target+0x22>
10001978:	d14e      	bne.n	10001a18 <hardware_alarm_set_target+0xbc>
1000197a:	4285      	cmp	r5, r0
1000197c:	d94c      	bls.n	10001a18 <hardware_alarm_set_target+0xbc>
1000197e:	f3ef 8b10 	mrs	fp, PRIMASK
10001982:	b672      	cpsid	i
10001984:	4b27      	ldr	r3, [pc, #156]	; (10001a24 <hardware_alarm_set_target+0xc8>)
10001986:	681b      	ldr	r3, [r3, #0]
10001988:	2b00      	cmp	r3, #0
1000198a:	d0fb      	beq.n	10001984 <hardware_alarm_set_target+0x28>
1000198c:	f3bf 8f5f 	dmb	sy
10001990:	4a25      	ldr	r2, [pc, #148]	; (10001a28 <hardware_alarm_set_target+0xcc>)
10001992:	7817      	ldrb	r7, [r2, #0]
10001994:	2501      	movs	r5, #1
10001996:	40a5      	lsls	r5, r4
10001998:	b2eb      	uxtb	r3, r5
1000199a:	433b      	orrs	r3, r7
1000199c:	7013      	strb	r3, [r2, #0]
1000199e:	4b23      	ldr	r3, [pc, #140]	; (10001a2c <hardware_alarm_set_target+0xd0>)
100019a0:	635d      	str	r5, [r3, #52]	; 0x34
100019a2:	1d22      	adds	r2, r4, #4
100019a4:	0092      	lsls	r2, r2, #2
100019a6:	9901      	ldr	r1, [sp, #4]
100019a8:	50d1      	str	r1, [r2, r3]
100019aa:	00a2      	lsls	r2, r4, #2
100019ac:	4920      	ldr	r1, [pc, #128]	; (10001a30 <hardware_alarm_set_target+0xd4>)
100019ae:	9802      	ldr	r0, [sp, #8]
100019b0:	5050      	str	r0, [r2, r1]
100019b2:	6a1b      	ldr	r3, [r3, #32]
100019b4:	422b      	tst	r3, r5
100019b6:	d112      	bne.n	100019de <hardware_alarm_set_target+0x82>
100019b8:	4b1c      	ldr	r3, [pc, #112]	; (10001a2c <hardware_alarm_set_target+0xd0>)
100019ba:	6c1b      	ldr	r3, [r3, #64]	; 0x40
100019bc:	422b      	tst	r3, r5
100019be:	d008      	beq.n	100019d2 <hardware_alarm_set_target+0x76>
100019c0:	2000      	movs	r0, #0
100019c2:	f3bf 8f5f 	dmb	sy
100019c6:	4b17      	ldr	r3, [pc, #92]	; (10001a24 <hardware_alarm_set_target+0xc8>)
100019c8:	2200      	movs	r2, #0
100019ca:	601a      	str	r2, [r3, #0]
100019cc:	f38b 8810 	msr	PRIMASK, fp
100019d0:	e023      	b.n	10001a1a <hardware_alarm_set_target+0xbe>
100019d2:	4b18      	ldr	r3, [pc, #96]	; (10001a34 <hardware_alarm_set_target+0xd8>)
100019d4:	4a18      	ldr	r2, [pc, #96]	; (10001a38 <hardware_alarm_set_target+0xdc>)
100019d6:	21c5      	movs	r1, #197	; 0xc5
100019d8:	4818      	ldr	r0, [pc, #96]	; (10001a3c <hardware_alarm_set_target+0xe0>)
100019da:	f000 fd67 	bl	100024ac <__assert_func>
100019de:	f7ff ff31 	bl	10001844 <time_us_64>
100019e2:	428e      	cmp	r6, r1
100019e4:	d814      	bhi.n	10001a10 <hardware_alarm_set_target+0xb4>
100019e6:	d102      	bne.n	100019ee <hardware_alarm_set_target+0x92>
100019e8:	9b03      	ldr	r3, [sp, #12]
100019ea:	4283      	cmp	r3, r0
100019ec:	d810      	bhi.n	10001a10 <hardware_alarm_set_target+0xb4>
100019ee:	4b0e      	ldr	r3, [pc, #56]	; (10001a28 <hardware_alarm_set_target+0xcc>)
100019f0:	781b      	ldrb	r3, [r3, #0]
100019f2:	42bb      	cmp	r3, r7
100019f4:	d00e      	beq.n	10001a14 <hardware_alarm_set_target+0xb8>
100019f6:	4b0d      	ldr	r3, [pc, #52]	; (10001a2c <hardware_alarm_set_target+0xd0>)
100019f8:	621d      	str	r5, [r3, #32]
100019fa:	635d      	str	r5, [r3, #52]	; 0x34
100019fc:	201f      	movs	r0, #31
100019fe:	4004      	ands	r4, r0
10001a00:	2301      	movs	r3, #1
10001a02:	40a3      	lsls	r3, r4
10001a04:	4a0e      	ldr	r2, [pc, #56]	; (10001a40 <hardware_alarm_set_target+0xe4>)
10001a06:	6013      	str	r3, [r2, #0]
10001a08:	4b07      	ldr	r3, [pc, #28]	; (10001a28 <hardware_alarm_set_target+0xcc>)
10001a0a:	701f      	strb	r7, [r3, #0]
10001a0c:	381e      	subs	r0, #30
10001a0e:	e7d8      	b.n	100019c2 <hardware_alarm_set_target+0x66>
10001a10:	2000      	movs	r0, #0
10001a12:	e7d6      	b.n	100019c2 <hardware_alarm_set_target+0x66>
10001a14:	2001      	movs	r0, #1
10001a16:	e7d4      	b.n	100019c2 <hardware_alarm_set_target+0x66>
10001a18:	2001      	movs	r0, #1
10001a1a:	b004      	add	sp, #16
10001a1c:	bc80      	pop	{r7}
10001a1e:	46bb      	mov	fp, r7
10001a20:	bdf0      	pop	{r4, r5, r6, r7, pc}
10001a22:	46c0      	nop			; (mov r8, r8)
10001a24:	d0000128 	.word	0xd0000128
10001a28:	20001a59 	.word	0x20001a59
10001a2c:	40054000 	.word	0x40054000
10001a30:	20001a28 	.word	0x20001a28
10001a34:	1000744c 	.word	0x1000744c
10001a38:	100074d0 	.word	0x100074d0
10001a3c:	10007470 	.word	0x10007470
10001a40:	e000e280 	.word	0xe000e280

10001a44 <hardware_alarm_cancel>:
10001a44:	f3ef 8c10 	mrs	ip, PRIMASK
10001a48:	b672      	cpsid	i
10001a4a:	4b0b      	ldr	r3, [pc, #44]	; (10001a78 <hardware_alarm_cancel+0x34>)
10001a4c:	681b      	ldr	r3, [r3, #0]
10001a4e:	2b00      	cmp	r3, #0
10001a50:	d0fb      	beq.n	10001a4a <hardware_alarm_cancel+0x6>
10001a52:	f3bf 8f5f 	dmb	sy
10001a56:	2301      	movs	r3, #1
10001a58:	4083      	lsls	r3, r0
10001a5a:	4a08      	ldr	r2, [pc, #32]	; (10001a7c <hardware_alarm_cancel+0x38>)
10001a5c:	6213      	str	r3, [r2, #32]
10001a5e:	4908      	ldr	r1, [pc, #32]	; (10001a80 <hardware_alarm_cancel+0x3c>)
10001a60:	780a      	ldrb	r2, [r1, #0]
10001a62:	439a      	bics	r2, r3
10001a64:	700a      	strb	r2, [r1, #0]
10001a66:	f3bf 8f5f 	dmb	sy
10001a6a:	4b03      	ldr	r3, [pc, #12]	; (10001a78 <hardware_alarm_cancel+0x34>)
10001a6c:	2200      	movs	r2, #0
10001a6e:	601a      	str	r2, [r3, #0]
10001a70:	f38c 8810 	msr	PRIMASK, ip
10001a74:	4770      	bx	lr
10001a76:	46c0      	nop			; (mov r8, r8)
10001a78:	d0000128 	.word	0xd0000128
10001a7c:	40054000 	.word	0x40054000
10001a80:	20001a59 	.word	0x20001a59

10001a84 <ph_add_child_node>:
10001a84:	b510      	push	{r4, lr}
10001a86:	2900      	cmp	r1, #0
10001a88:	d01e      	beq.n	10001ac8 <ph_add_child_node+0x44>
10001a8a:	7b03      	ldrb	r3, [r0, #12]
10001a8c:	4299      	cmp	r1, r3
10001a8e:	d81b      	bhi.n	10001ac8 <ph_add_child_node+0x44>
10001a90:	004b      	lsls	r3, r1, #1
10001a92:	185b      	adds	r3, r3, r1
10001a94:	3b03      	subs	r3, #3
10001a96:	6804      	ldr	r4, [r0, #0]
10001a98:	46a4      	mov	ip, r4
10001a9a:	4463      	add	r3, ip
10001a9c:	2900      	cmp	r1, #0
10001a9e:	d019      	beq.n	10001ad4 <ph_add_child_node+0x50>
10001aa0:	2a00      	cmp	r2, #0
10001aa2:	d01d      	beq.n	10001ae0 <ph_add_child_node+0x5c>
10001aa4:	4291      	cmp	r1, r2
10001aa6:	d021      	beq.n	10001aec <ph_add_child_node+0x68>
10001aa8:	2a00      	cmp	r2, #0
10001aaa:	d025      	beq.n	10001af8 <ph_add_child_node+0x74>
10001aac:	7b04      	ldrb	r4, [r0, #12]
10001aae:	42a2      	cmp	r2, r4
10001ab0:	d822      	bhi.n	10001af8 <ph_add_child_node+0x74>
10001ab2:	6804      	ldr	r4, [r0, #0]
10001ab4:	0050      	lsls	r0, r2, #1
10001ab6:	1880      	adds	r0, r0, r2
10001ab8:	3803      	subs	r0, #3
10001aba:	1820      	adds	r0, r4, r0
10001abc:	7081      	strb	r1, [r0, #2]
10001abe:	7819      	ldrb	r1, [r3, #0]
10001ac0:	2900      	cmp	r1, #0
10001ac2:	d11f      	bne.n	10001b04 <ph_add_child_node+0x80>
10001ac4:	701a      	strb	r2, [r3, #0]
10001ac6:	bd10      	pop	{r4, pc}
10001ac8:	4b10      	ldr	r3, [pc, #64]	; (10001b0c <ph_add_child_node+0x88>)
10001aca:	4a11      	ldr	r2, [pc, #68]	; (10001b10 <ph_add_child_node+0x8c>)
10001acc:	2168      	movs	r1, #104	; 0x68
10001ace:	4811      	ldr	r0, [pc, #68]	; (10001b14 <ph_add_child_node+0x90>)
10001ad0:	f000 fcec 	bl	100024ac <__assert_func>
10001ad4:	4b10      	ldr	r3, [pc, #64]	; (10001b18 <ph_add_child_node+0x94>)
10001ad6:	4a11      	ldr	r2, [pc, #68]	; (10001b1c <ph_add_child_node+0x98>)
10001ad8:	316f      	adds	r1, #111	; 0x6f
10001ada:	480e      	ldr	r0, [pc, #56]	; (10001b14 <ph_add_child_node+0x90>)
10001adc:	f000 fce6 	bl	100024ac <__assert_func>
10001ae0:	4b0f      	ldr	r3, [pc, #60]	; (10001b20 <ph_add_child_node+0x9c>)
10001ae2:	4a0e      	ldr	r2, [pc, #56]	; (10001b1c <ph_add_child_node+0x98>)
10001ae4:	2170      	movs	r1, #112	; 0x70
10001ae6:	480b      	ldr	r0, [pc, #44]	; (10001b14 <ph_add_child_node+0x90>)
10001ae8:	f000 fce0 	bl	100024ac <__assert_func>
10001aec:	4b0d      	ldr	r3, [pc, #52]	; (10001b24 <ph_add_child_node+0xa0>)
10001aee:	4a0b      	ldr	r2, [pc, #44]	; (10001b1c <ph_add_child_node+0x98>)
10001af0:	2171      	movs	r1, #113	; 0x71
10001af2:	4808      	ldr	r0, [pc, #32]	; (10001b14 <ph_add_child_node+0x90>)
10001af4:	f000 fcda 	bl	100024ac <__assert_func>
10001af8:	4b04      	ldr	r3, [pc, #16]	; (10001b0c <ph_add_child_node+0x88>)
10001afa:	4a05      	ldr	r2, [pc, #20]	; (10001b10 <ph_add_child_node+0x8c>)
10001afc:	2168      	movs	r1, #104	; 0x68
10001afe:	4805      	ldr	r0, [pc, #20]	; (10001b14 <ph_add_child_node+0x90>)
10001b00:	f000 fcd4 	bl	100024ac <__assert_func>
10001b04:	7041      	strb	r1, [r0, #1]
10001b06:	701a      	strb	r2, [r3, #0]
10001b08:	e7dd      	b.n	10001ac6 <ph_add_child_node+0x42>
10001b0a:	46c0      	nop			; (mov r8, r8)
10001b0c:	1000713c 	.word	0x1000713c
10001b10:	1000760c 	.word	0x1000760c
10001b14:	10007158 	.word	0x10007158
10001b18:	100071c0 	.word	0x100071c0
10001b1c:	100075f8 	.word	0x100075f8
10001b20:	100071cc 	.word	0x100071cc
10001b24:	100071d8 	.word	0x100071d8

10001b28 <ph_merge_nodes>:
10001b28:	b570      	push	{r4, r5, r6, lr}
10001b2a:	0006      	movs	r6, r0
10001b2c:	000d      	movs	r5, r1
10001b2e:	0014      	movs	r4, r2
10001b30:	2900      	cmp	r1, #0
10001b32:	d014      	beq.n	10001b5e <ph_merge_nodes+0x36>
10001b34:	2a00      	cmp	r2, #0
10001b36:	d014      	beq.n	10001b62 <ph_merge_nodes+0x3a>
10001b38:	6880      	ldr	r0, [r0, #8]
10001b3a:	6873      	ldr	r3, [r6, #4]
10001b3c:	4798      	blx	r3
10001b3e:	2800      	cmp	r0, #0
10001b40:	d006      	beq.n	10001b50 <ph_merge_nodes+0x28>
10001b42:	0022      	movs	r2, r4
10001b44:	0029      	movs	r1, r5
10001b46:	0030      	movs	r0, r6
10001b48:	f7ff ff9c 	bl	10001a84 <ph_add_child_node>
10001b4c:	0028      	movs	r0, r5
10001b4e:	e007      	b.n	10001b60 <ph_merge_nodes+0x38>
10001b50:	002a      	movs	r2, r5
10001b52:	0021      	movs	r1, r4
10001b54:	0030      	movs	r0, r6
10001b56:	f7ff ff95 	bl	10001a84 <ph_add_child_node>
10001b5a:	0020      	movs	r0, r4
10001b5c:	e000      	b.n	10001b60 <ph_merge_nodes+0x38>
10001b5e:	0010      	movs	r0, r2
10001b60:	bd70      	pop	{r4, r5, r6, pc}
10001b62:	0008      	movs	r0, r1
10001b64:	e7fc      	b.n	10001b60 <ph_merge_nodes+0x38>
	...

10001b68 <ph_clear>:
10001b68:	b510      	push	{r4, lr}
10001b6a:	2300      	movs	r3, #0
10001b6c:	7343      	strb	r3, [r0, #13]
10001b6e:	3301      	adds	r3, #1
10001b70:	7383      	strb	r3, [r0, #14]
10001b72:	7b03      	ldrb	r3, [r0, #12]
10001b74:	73c3      	strb	r3, [r0, #15]
10001b76:	2301      	movs	r3, #1
10001b78:	7b02      	ldrb	r2, [r0, #12]
10001b7a:	429a      	cmp	r2, r3
10001b7c:	d914      	bls.n	10001ba8 <ph_clear+0x40>
10001b7e:	2b00      	cmp	r3, #0
10001b80:	d00c      	beq.n	10001b9c <ph_clear+0x34>
10001b82:	7b02      	ldrb	r2, [r0, #12]
10001b84:	4293      	cmp	r3, r2
10001b86:	d809      	bhi.n	10001b9c <ph_clear+0x34>
10001b88:	005a      	lsls	r2, r3, #1
10001b8a:	18d2      	adds	r2, r2, r3
10001b8c:	3a03      	subs	r2, #3
10001b8e:	6801      	ldr	r1, [r0, #0]
10001b90:	468c      	mov	ip, r1
10001b92:	4462      	add	r2, ip
10001b94:	3301      	adds	r3, #1
10001b96:	b2db      	uxtb	r3, r3
10001b98:	7053      	strb	r3, [r2, #1]
10001b9a:	e7ed      	b.n	10001b78 <ph_clear+0x10>
10001b9c:	4b0b      	ldr	r3, [pc, #44]	; (10001bcc <ph_clear+0x64>)
10001b9e:	4a0c      	ldr	r2, [pc, #48]	; (10001bd0 <ph_clear+0x68>)
10001ba0:	2168      	movs	r1, #104	; 0x68
10001ba2:	480c      	ldr	r0, [pc, #48]	; (10001bd4 <ph_clear+0x6c>)
10001ba4:	f000 fc82 	bl	100024ac <__assert_func>
10001ba8:	2a00      	cmp	r2, #0
10001baa:	d009      	beq.n	10001bc0 <ph_clear+0x58>
10001bac:	4292      	cmp	r2, r2
10001bae:	d807      	bhi.n	10001bc0 <ph_clear+0x58>
10001bb0:	6801      	ldr	r1, [r0, #0]
10001bb2:	0053      	lsls	r3, r2, #1
10001bb4:	189a      	adds	r2, r3, r2
10001bb6:	3a03      	subs	r2, #3
10001bb8:	188a      	adds	r2, r1, r2
10001bba:	2300      	movs	r3, #0
10001bbc:	7053      	strb	r3, [r2, #1]
10001bbe:	bd10      	pop	{r4, pc}
10001bc0:	4b02      	ldr	r3, [pc, #8]	; (10001bcc <ph_clear+0x64>)
10001bc2:	4a03      	ldr	r2, [pc, #12]	; (10001bd0 <ph_clear+0x68>)
10001bc4:	2168      	movs	r1, #104	; 0x68
10001bc6:	4803      	ldr	r0, [pc, #12]	; (10001bd4 <ph_clear+0x6c>)
10001bc8:	f000 fc70 	bl	100024ac <__assert_func>
10001bcc:	1000713c 	.word	0x1000713c
10001bd0:	1000760c 	.word	0x1000760c
10001bd4:	10007158 	.word	0x10007158

10001bd8 <ph_post_alloc_init>:
10001bd8:	b510      	push	{r4, lr}
10001bda:	7301      	strb	r1, [r0, #12]
10001bdc:	6042      	str	r2, [r0, #4]
10001bde:	6083      	str	r3, [r0, #8]
10001be0:	f7ff ffc2 	bl	10001b68 <ph_clear>
10001be4:	bd10      	pop	{r4, pc}
	...

10001be8 <ph_merge_two_pass>:
10001be8:	b570      	push	{r4, r5, r6, lr}
10001bea:	0004      	movs	r4, r0
10001bec:	1e08      	subs	r0, r1, #0
10001bee:	d100      	bne.n	10001bf2 <ph_merge_two_pass+0xa>
10001bf0:	bd70      	pop	{r4, r5, r6, pc}
10001bf2:	2900      	cmp	r1, #0
10001bf4:	d034      	beq.n	10001c60 <ph_merge_two_pass+0x78>
10001bf6:	7b23      	ldrb	r3, [r4, #12]
10001bf8:	4299      	cmp	r1, r3
10001bfa:	d831      	bhi.n	10001c60 <ph_merge_two_pass+0x78>
10001bfc:	004b      	lsls	r3, r1, #1
10001bfe:	185b      	adds	r3, r3, r1
10001c00:	3b03      	subs	r3, #3
10001c02:	6822      	ldr	r2, [r4, #0]
10001c04:	4694      	mov	ip, r2
10001c06:	4463      	add	r3, ip
10001c08:	785a      	ldrb	r2, [r3, #1]
10001c0a:	2a00      	cmp	r2, #0
10001c0c:	d0f0      	beq.n	10001bf0 <ph_merge_two_pass+0x8>
10001c0e:	d02d      	beq.n	10001c6c <ph_merge_two_pass+0x84>
10001c10:	7b23      	ldrb	r3, [r4, #12]
10001c12:	429a      	cmp	r2, r3
10001c14:	d82a      	bhi.n	10001c6c <ph_merge_two_pass+0x84>
10001c16:	0053      	lsls	r3, r2, #1
10001c18:	189b      	adds	r3, r3, r2
10001c1a:	3b03      	subs	r3, #3
10001c1c:	6821      	ldr	r1, [r4, #0]
10001c1e:	468c      	mov	ip, r1
10001c20:	4463      	add	r3, ip
10001c22:	785d      	ldrb	r5, [r3, #1]
10001c24:	2100      	movs	r1, #0
10001c26:	7059      	strb	r1, [r3, #1]
10001c28:	2800      	cmp	r0, #0
10001c2a:	d025      	beq.n	10001c78 <ph_merge_two_pass+0x90>
10001c2c:	7b23      	ldrb	r3, [r4, #12]
10001c2e:	4298      	cmp	r0, r3
10001c30:	d822      	bhi.n	10001c78 <ph_merge_two_pass+0x90>
10001c32:	0043      	lsls	r3, r0, #1
10001c34:	181b      	adds	r3, r3, r0
10001c36:	3b03      	subs	r3, #3
10001c38:	6821      	ldr	r1, [r4, #0]
10001c3a:	468c      	mov	ip, r1
10001c3c:	4463      	add	r3, ip
10001c3e:	2100      	movs	r1, #0
10001c40:	7059      	strb	r1, [r3, #1]
10001c42:	0001      	movs	r1, r0
10001c44:	0020      	movs	r0, r4
10001c46:	f7ff ff6f 	bl	10001b28 <ph_merge_nodes>
10001c4a:	0006      	movs	r6, r0
10001c4c:	0029      	movs	r1, r5
10001c4e:	0020      	movs	r0, r4
10001c50:	f7ff ffca 	bl	10001be8 <ph_merge_two_pass>
10001c54:	0002      	movs	r2, r0
10001c56:	0031      	movs	r1, r6
10001c58:	0020      	movs	r0, r4
10001c5a:	f7ff ff65 	bl	10001b28 <ph_merge_nodes>
10001c5e:	e7c7      	b.n	10001bf0 <ph_merge_two_pass+0x8>
10001c60:	4b08      	ldr	r3, [pc, #32]	; (10001c84 <ph_merge_two_pass+0x9c>)
10001c62:	4a09      	ldr	r2, [pc, #36]	; (10001c88 <ph_merge_two_pass+0xa0>)
10001c64:	2168      	movs	r1, #104	; 0x68
10001c66:	4809      	ldr	r0, [pc, #36]	; (10001c8c <ph_merge_two_pass+0xa4>)
10001c68:	f000 fc20 	bl	100024ac <__assert_func>
10001c6c:	4b05      	ldr	r3, [pc, #20]	; (10001c84 <ph_merge_two_pass+0x9c>)
10001c6e:	4a06      	ldr	r2, [pc, #24]	; (10001c88 <ph_merge_two_pass+0xa0>)
10001c70:	2168      	movs	r1, #104	; 0x68
10001c72:	4806      	ldr	r0, [pc, #24]	; (10001c8c <ph_merge_two_pass+0xa4>)
10001c74:	f000 fc1a 	bl	100024ac <__assert_func>
10001c78:	4b02      	ldr	r3, [pc, #8]	; (10001c84 <ph_merge_two_pass+0x9c>)
10001c7a:	4a03      	ldr	r2, [pc, #12]	; (10001c88 <ph_merge_two_pass+0xa0>)
10001c7c:	2168      	movs	r1, #104	; 0x68
10001c7e:	4803      	ldr	r0, [pc, #12]	; (10001c8c <ph_merge_two_pass+0xa4>)
10001c80:	f000 fc14 	bl	100024ac <__assert_func>
10001c84:	1000713c 	.word	0x1000713c
10001c88:	1000760c 	.word	0x1000760c
10001c8c:	10007158 	.word	0x10007158

10001c90 <ph_remove_any_head>:
10001c90:	b570      	push	{r4, r5, r6, lr}
10001c92:	0005      	movs	r5, r0
10001c94:	000c      	movs	r4, r1
10001c96:	0016      	movs	r6, r2
10001c98:	2900      	cmp	r1, #0
10001c9a:	d02f      	beq.n	10001cfc <ph_remove_any_head+0x6c>
10001c9c:	d034      	beq.n	10001d08 <ph_remove_any_head+0x78>
10001c9e:	7b03      	ldrb	r3, [r0, #12]
10001ca0:	4299      	cmp	r1, r3
10001ca2:	d831      	bhi.n	10001d08 <ph_remove_any_head+0x78>
10001ca4:	004b      	lsls	r3, r1, #1
10001ca6:	185b      	adds	r3, r3, r1
10001ca8:	3b03      	subs	r3, #3
10001caa:	6802      	ldr	r2, [r0, #0]
10001cac:	4694      	mov	ip, r2
10001cae:	4463      	add	r3, ip
10001cb0:	785a      	ldrb	r2, [r3, #1]
10001cb2:	2a00      	cmp	r2, #0
10001cb4:	d12e      	bne.n	10001d14 <ph_remove_any_head+0x84>
10001cb6:	789a      	ldrb	r2, [r3, #2]
10001cb8:	2a00      	cmp	r2, #0
10001cba:	d131      	bne.n	10001d20 <ph_remove_any_head+0x90>
10001cbc:	7819      	ldrb	r1, [r3, #0]
10001cbe:	f7ff ff93 	bl	10001be8 <ph_merge_two_pass>
10001cc2:	0003      	movs	r3, r0
10001cc4:	2e00      	cmp	r6, #0
10001cc6:	d00a      	beq.n	10001cde <ph_remove_any_head+0x4e>
10001cc8:	7bea      	ldrb	r2, [r5, #15]
10001cca:	2a00      	cmp	r2, #0
10001ccc:	d12e      	bne.n	10001d2c <ph_remove_any_head+0x9c>
10001cce:	7baa      	ldrb	r2, [r5, #14]
10001cd0:	2a00      	cmp	r2, #0
10001cd2:	d103      	bne.n	10001cdc <ph_remove_any_head+0x4c>
10001cd4:	7bea      	ldrb	r2, [r5, #15]
10001cd6:	2a00      	cmp	r2, #0
10001cd8:	d13b      	bne.n	10001d52 <ph_remove_any_head+0xc2>
10001cda:	73ac      	strb	r4, [r5, #14]
10001cdc:	73ec      	strb	r4, [r5, #15]
10001cde:	2b00      	cmp	r3, #0
10001ce0:	d13d      	bne.n	10001d5e <ph_remove_any_head+0xce>
10001ce2:	2c00      	cmp	r4, #0
10001ce4:	d04f      	beq.n	10001d86 <ph_remove_any_head+0xf6>
10001ce6:	7b2b      	ldrb	r3, [r5, #12]
10001ce8:	429c      	cmp	r4, r3
10001cea:	d84c      	bhi.n	10001d86 <ph_remove_any_head+0xf6>
10001cec:	682b      	ldr	r3, [r5, #0]
10001cee:	0061      	lsls	r1, r4, #1
10001cf0:	190c      	adds	r4, r1, r4
10001cf2:	3c03      	subs	r4, #3
10001cf4:	191c      	adds	r4, r3, r4
10001cf6:	2300      	movs	r3, #0
10001cf8:	7063      	strb	r3, [r4, #1]
10001cfa:	bd70      	pop	{r4, r5, r6, pc}
10001cfc:	4b25      	ldr	r3, [pc, #148]	; (10001d94 <ph_remove_any_head+0x104>)
10001cfe:	4a26      	ldr	r2, [pc, #152]	; (10001d98 <ph_remove_any_head+0x108>)
10001d00:	2138      	movs	r1, #56	; 0x38
10001d02:	4826      	ldr	r0, [pc, #152]	; (10001d9c <ph_remove_any_head+0x10c>)
10001d04:	f000 fbd2 	bl	100024ac <__assert_func>
10001d08:	4b25      	ldr	r3, [pc, #148]	; (10001da0 <ph_remove_any_head+0x110>)
10001d0a:	4a26      	ldr	r2, [pc, #152]	; (10001da4 <ph_remove_any_head+0x114>)
10001d0c:	2168      	movs	r1, #104	; 0x68
10001d0e:	4826      	ldr	r0, [pc, #152]	; (10001da8 <ph_remove_any_head+0x118>)
10001d10:	f000 fbcc 	bl	100024ac <__assert_func>
10001d14:	4b25      	ldr	r3, [pc, #148]	; (10001dac <ph_remove_any_head+0x11c>)
10001d16:	4a20      	ldr	r2, [pc, #128]	; (10001d98 <ph_remove_any_head+0x108>)
10001d18:	213a      	movs	r1, #58	; 0x3a
10001d1a:	4820      	ldr	r0, [pc, #128]	; (10001d9c <ph_remove_any_head+0x10c>)
10001d1c:	f000 fbc6 	bl	100024ac <__assert_func>
10001d20:	4b23      	ldr	r3, [pc, #140]	; (10001db0 <ph_remove_any_head+0x120>)
10001d22:	4a1d      	ldr	r2, [pc, #116]	; (10001d98 <ph_remove_any_head+0x108>)
10001d24:	213b      	movs	r1, #59	; 0x3b
10001d26:	481d      	ldr	r0, [pc, #116]	; (10001d9c <ph_remove_any_head+0x10c>)
10001d28:	f000 fbc0 	bl	100024ac <__assert_func>
10001d2c:	2a00      	cmp	r2, #0
10001d2e:	d00a      	beq.n	10001d46 <ph_remove_any_head+0xb6>
10001d30:	7b29      	ldrb	r1, [r5, #12]
10001d32:	428a      	cmp	r2, r1
10001d34:	d807      	bhi.n	10001d46 <ph_remove_any_head+0xb6>
10001d36:	0051      	lsls	r1, r2, #1
10001d38:	188a      	adds	r2, r1, r2
10001d3a:	3a03      	subs	r2, #3
10001d3c:	6829      	ldr	r1, [r5, #0]
10001d3e:	468c      	mov	ip, r1
10001d40:	4462      	add	r2, ip
10001d42:	7054      	strb	r4, [r2, #1]
10001d44:	e7c3      	b.n	10001cce <ph_remove_any_head+0x3e>
10001d46:	4b16      	ldr	r3, [pc, #88]	; (10001da0 <ph_remove_any_head+0x110>)
10001d48:	4a16      	ldr	r2, [pc, #88]	; (10001da4 <ph_remove_any_head+0x114>)
10001d4a:	2168      	movs	r1, #104	; 0x68
10001d4c:	4816      	ldr	r0, [pc, #88]	; (10001da8 <ph_remove_any_head+0x118>)
10001d4e:	f000 fbad 	bl	100024ac <__assert_func>
10001d52:	4b18      	ldr	r3, [pc, #96]	; (10001db4 <ph_remove_any_head+0x124>)
10001d54:	4a10      	ldr	r2, [pc, #64]	; (10001d98 <ph_remove_any_head+0x108>)
10001d56:	2142      	movs	r1, #66	; 0x42
10001d58:	4810      	ldr	r0, [pc, #64]	; (10001d9c <ph_remove_any_head+0x10c>)
10001d5a:	f000 fba7 	bl	100024ac <__assert_func>
10001d5e:	2b00      	cmp	r3, #0
10001d60:	d00b      	beq.n	10001d7a <ph_remove_any_head+0xea>
10001d62:	7b2a      	ldrb	r2, [r5, #12]
10001d64:	4293      	cmp	r3, r2
10001d66:	d808      	bhi.n	10001d7a <ph_remove_any_head+0xea>
10001d68:	0043      	lsls	r3, r0, #1
10001d6a:	181b      	adds	r3, r3, r0
10001d6c:	3b03      	subs	r3, #3
10001d6e:	682a      	ldr	r2, [r5, #0]
10001d70:	4694      	mov	ip, r2
10001d72:	4463      	add	r3, ip
10001d74:	2200      	movs	r2, #0
10001d76:	709a      	strb	r2, [r3, #2]
10001d78:	e7b3      	b.n	10001ce2 <ph_remove_any_head+0x52>
10001d7a:	4b09      	ldr	r3, [pc, #36]	; (10001da0 <ph_remove_any_head+0x110>)
10001d7c:	4a09      	ldr	r2, [pc, #36]	; (10001da4 <ph_remove_any_head+0x114>)
10001d7e:	2168      	movs	r1, #104	; 0x68
10001d80:	4809      	ldr	r0, [pc, #36]	; (10001da8 <ph_remove_any_head+0x118>)
10001d82:	f000 fb93 	bl	100024ac <__assert_func>
10001d86:	4b06      	ldr	r3, [pc, #24]	; (10001da0 <ph_remove_any_head+0x110>)
10001d88:	4a06      	ldr	r2, [pc, #24]	; (10001da4 <ph_remove_any_head+0x114>)
10001d8a:	2168      	movs	r1, #104	; 0x68
10001d8c:	4806      	ldr	r0, [pc, #24]	; (10001da8 <ph_remove_any_head+0x118>)
10001d8e:	f000 fb8d 	bl	100024ac <__assert_func>
10001d92:	46c0      	nop			; (mov r8, r8)
10001d94:	10007504 	.word	0x10007504
10001d98:	100075e4 	.word	0x100075e4
10001d9c:	1000750c 	.word	0x1000750c
10001da0:	1000713c 	.word	0x1000713c
10001da4:	1000760c 	.word	0x1000760c
10001da8:	10007158 	.word	0x10007158
10001dac:	10007560 	.word	0x10007560
10001db0:	10007588 	.word	0x10007588
10001db4:	1000729c 	.word	0x1000729c

10001db8 <ph_remove_head>:
10001db8:	b570      	push	{r4, r5, r6, lr}
10001dba:	0004      	movs	r4, r0
10001dbc:	000a      	movs	r2, r1
10001dbe:	7b45      	ldrb	r5, [r0, #13]
10001dc0:	0029      	movs	r1, r5
10001dc2:	f7ff ff65 	bl	10001c90 <ph_remove_any_head>
10001dc6:	7360      	strb	r0, [r4, #13]
10001dc8:	0028      	movs	r0, r5
10001dca:	bd70      	pop	{r4, r5, r6, pc}

10001dcc <ph_remove_and_free_node>:
10001dcc:	b570      	push	{r4, r5, r6, lr}
10001dce:	0004      	movs	r4, r0
10001dd0:	2900      	cmp	r1, #0
10001dd2:	d067      	beq.n	10001ea4 <ph_remove_and_free_node+0xd8>
10001dd4:	7b43      	ldrb	r3, [r0, #13]
10001dd6:	428b      	cmp	r3, r1
10001dd8:	d00e      	beq.n	10001df8 <ph_remove_and_free_node+0x2c>
10001dda:	2900      	cmp	r1, #0
10001ddc:	d011      	beq.n	10001e02 <ph_remove_and_free_node+0x36>
10001dde:	7b03      	ldrb	r3, [r0, #12]
10001de0:	4299      	cmp	r1, r3
10001de2:	d80e      	bhi.n	10001e02 <ph_remove_and_free_node+0x36>
10001de4:	004b      	lsls	r3, r1, #1
10001de6:	185b      	adds	r3, r3, r1
10001de8:	3b03      	subs	r3, #3
10001dea:	6802      	ldr	r2, [r0, #0]
10001dec:	18d0      	adds	r0, r2, r3
10001dee:	7883      	ldrb	r3, [r0, #2]
10001df0:	2b00      	cmp	r3, #0
10001df2:	d10c      	bne.n	10001e0e <ph_remove_and_free_node+0x42>
10001df4:	2000      	movs	r0, #0
10001df6:	e056      	b.n	10001ea6 <ph_remove_and_free_node+0xda>
10001df8:	2101      	movs	r1, #1
10001dfa:	f7ff ffdd 	bl	10001db8 <ph_remove_head>
10001dfe:	2001      	movs	r0, #1
10001e00:	e051      	b.n	10001ea6 <ph_remove_and_free_node+0xda>
10001e02:	4b29      	ldr	r3, [pc, #164]	; (10001ea8 <ph_remove_and_free_node+0xdc>)
10001e04:	4a29      	ldr	r2, [pc, #164]	; (10001eac <ph_remove_and_free_node+0xe0>)
10001e06:	2168      	movs	r1, #104	; 0x68
10001e08:	4829      	ldr	r0, [pc, #164]	; (10001eb0 <ph_remove_and_free_node+0xe4>)
10001e0a:	f000 fb4f 	bl	100024ac <__assert_func>
10001e0e:	2b00      	cmp	r3, #0
10001e10:	d020      	beq.n	10001e54 <ph_remove_and_free_node+0x88>
10001e12:	7b22      	ldrb	r2, [r4, #12]
10001e14:	4293      	cmp	r3, r2
10001e16:	d81d      	bhi.n	10001e54 <ph_remove_and_free_node+0x88>
10001e18:	005a      	lsls	r2, r3, #1
10001e1a:	18d3      	adds	r3, r2, r3
10001e1c:	3b03      	subs	r3, #3
10001e1e:	6822      	ldr	r2, [r4, #0]
10001e20:	18d2      	adds	r2, r2, r3
10001e22:	6825      	ldr	r5, [r4, #0]
10001e24:	5ceb      	ldrb	r3, [r5, r3]
10001e26:	428b      	cmp	r3, r1
10001e28:	d01a      	beq.n	10001e60 <ph_remove_and_free_node+0x94>
10001e2a:	2b00      	cmp	r3, #0
10001e2c:	d01b      	beq.n	10001e66 <ph_remove_and_free_node+0x9a>
10001e2e:	7b22      	ldrb	r2, [r4, #12]
10001e30:	4293      	cmp	r3, r2
10001e32:	d818      	bhi.n	10001e66 <ph_remove_and_free_node+0x9a>
10001e34:	005a      	lsls	r2, r3, #1
10001e36:	18d3      	adds	r3, r2, r3
10001e38:	3b03      	subs	r3, #3
10001e3a:	6822      	ldr	r2, [r4, #0]
10001e3c:	18d2      	adds	r2, r2, r3
10001e3e:	7853      	ldrb	r3, [r2, #1]
10001e40:	428b      	cmp	r3, r1
10001e42:	d016      	beq.n	10001e72 <ph_remove_and_free_node+0xa6>
10001e44:	2b00      	cmp	r3, #0
10001e46:	d1f0      	bne.n	10001e2a <ph_remove_and_free_node+0x5e>
10001e48:	4b1a      	ldr	r3, [pc, #104]	; (10001eb4 <ph_remove_and_free_node+0xe8>)
10001e4a:	4a1b      	ldr	r2, [pc, #108]	; (10001eb8 <ph_remove_and_free_node+0xec>)
10001e4c:	216b      	movs	r1, #107	; 0x6b
10001e4e:	481b      	ldr	r0, [pc, #108]	; (10001ebc <ph_remove_and_free_node+0xf0>)
10001e50:	f000 fb2c 	bl	100024ac <__assert_func>
10001e54:	4b14      	ldr	r3, [pc, #80]	; (10001ea8 <ph_remove_and_free_node+0xdc>)
10001e56:	4a15      	ldr	r2, [pc, #84]	; (10001eac <ph_remove_and_free_node+0xe0>)
10001e58:	2168      	movs	r1, #104	; 0x68
10001e5a:	4815      	ldr	r0, [pc, #84]	; (10001eb0 <ph_remove_and_free_node+0xe4>)
10001e5c:	f000 fb26 	bl	100024ac <__assert_func>
10001e60:	7843      	ldrb	r3, [r0, #1]
10001e62:	7013      	strb	r3, [r2, #0]
10001e64:	e007      	b.n	10001e76 <ph_remove_and_free_node+0xaa>
10001e66:	4b10      	ldr	r3, [pc, #64]	; (10001ea8 <ph_remove_and_free_node+0xdc>)
10001e68:	4a10      	ldr	r2, [pc, #64]	; (10001eac <ph_remove_and_free_node+0xe0>)
10001e6a:	2168      	movs	r1, #104	; 0x68
10001e6c:	4810      	ldr	r0, [pc, #64]	; (10001eb0 <ph_remove_and_free_node+0xe4>)
10001e6e:	f000 fb1d 	bl	100024ac <__assert_func>
10001e72:	7843      	ldrb	r3, [r0, #1]
10001e74:	7053      	strb	r3, [r2, #1]
10001e76:	2300      	movs	r3, #0
10001e78:	7083      	strb	r3, [r0, #2]
10001e7a:	7043      	strb	r3, [r0, #1]
10001e7c:	2201      	movs	r2, #1
10001e7e:	0020      	movs	r0, r4
10001e80:	f7ff ff06 	bl	10001c90 <ph_remove_any_head>
10001e84:	0002      	movs	r2, r0
10001e86:	7b61      	ldrb	r1, [r4, #13]
10001e88:	4281      	cmp	r1, r0
10001e8a:	d005      	beq.n	10001e98 <ph_remove_and_free_node+0xcc>
10001e8c:	0020      	movs	r0, r4
10001e8e:	f7ff fe4b 	bl	10001b28 <ph_merge_nodes>
10001e92:	7360      	strb	r0, [r4, #13]
10001e94:	2001      	movs	r0, #1
10001e96:	e006      	b.n	10001ea6 <ph_remove_and_free_node+0xda>
10001e98:	4b09      	ldr	r3, [pc, #36]	; (10001ec0 <ph_remove_and_free_node+0xf4>)
10001e9a:	4a07      	ldr	r2, [pc, #28]	; (10001eb8 <ph_remove_and_free_node+0xec>)
10001e9c:	2171      	movs	r1, #113	; 0x71
10001e9e:	4807      	ldr	r0, [pc, #28]	; (10001ebc <ph_remove_and_free_node+0xf0>)
10001ea0:	f000 fb04 	bl	100024ac <__assert_func>
10001ea4:	2000      	movs	r0, #0
10001ea6:	bd70      	pop	{r4, r5, r6, pc}
10001ea8:	1000713c 	.word	0x1000713c
10001eac:	1000760c 	.word	0x1000760c
10001eb0:	10007158 	.word	0x10007158
10001eb4:	10006e90 	.word	0x10006e90
10001eb8:	100075cc 	.word	0x100075cc
10001ebc:	1000750c 	.word	0x1000750c
10001ec0:	100075ac 	.word	0x100075ac

10001ec4 <uart_disable_before_lcr_write>:
10001ec4:	b570      	push	{r4, r5, r6, lr}
10001ec6:	6b04      	ldr	r4, [r0, #48]	; 0x30
10001ec8:	07e3      	lsls	r3, r4, #31
10001eca:	d401      	bmi.n	10001ed0 <uart_disable_before_lcr_write+0xc>
10001ecc:	0020      	movs	r0, r4
10001ece:	bd70      	pop	{r4, r5, r6, pc}
10001ed0:	0002      	movs	r2, r0
10001ed2:	3230      	adds	r2, #48	; 0x30
10001ed4:	23c0      	movs	r3, #192	; 0xc0
10001ed6:	019b      	lsls	r3, r3, #6
10001ed8:	4313      	orrs	r3, r2
10001eda:	4a0a      	ldr	r2, [pc, #40]	; (10001f04 <uart_disable_before_lcr_write+0x40>)
10001edc:	601a      	str	r2, [r3, #0]
10001ede:	6a45      	ldr	r5, [r0, #36]	; 0x24
10001ee0:	6a82      	ldr	r2, [r0, #40]	; 0x28
10001ee2:	01ad      	lsls	r5, r5, #6
10001ee4:	18ad      	adds	r5, r5, r2
10001ee6:	02ad      	lsls	r5, r5, #10
10001ee8:	2006      	movs	r0, #6
10001eea:	f000 f9bd 	bl	10002268 <clock_get_hz>
10001eee:	4906      	ldr	r1, [pc, #24]	; (10001f08 <uart_disable_before_lcr_write+0x44>)
10001ef0:	f001 fc8a 	bl	10003808 <__wrap___aeabi_uidiv>
10001ef4:	0001      	movs	r1, r0
10001ef6:	0028      	movs	r0, r5
10001ef8:	f001 fc86 	bl	10003808 <__wrap___aeabi_uidiv>
10001efc:	2100      	movs	r1, #0
10001efe:	f7ff fcc1 	bl	10001884 <busy_wait_us>
10001f02:	e7e3      	b.n	10001ecc <uart_disable_before_lcr_write+0x8>
10001f04:	00000301 	.word	0x00000301
10001f08:	00000e4e 	.word	0x00000e4e

10001f0c <uart_write_lcr_bits_masked>:
10001f0c:	b570      	push	{r4, r5, r6, lr}
10001f0e:	0004      	movs	r4, r0
10001f10:	000e      	movs	r6, r1
10001f12:	0015      	movs	r5, r2
10001f14:	f7ff ffd6 	bl	10001ec4 <uart_disable_before_lcr_write>
10001f18:	0022      	movs	r2, r4
10001f1a:	322c      	adds	r2, #44	; 0x2c
10001f1c:	6ae1      	ldr	r1, [r4, #44]	; 0x2c
10001f1e:	404e      	eors	r6, r1
10001f20:	4035      	ands	r5, r6
10001f22:	2380      	movs	r3, #128	; 0x80
10001f24:	015b      	lsls	r3, r3, #5
10001f26:	4313      	orrs	r3, r2
10001f28:	601d      	str	r5, [r3, #0]
10001f2a:	6320      	str	r0, [r4, #48]	; 0x30
10001f2c:	bd70      	pop	{r4, r5, r6, pc}
	...

10001f30 <uart_set_baudrate>:
10001f30:	b570      	push	{r4, r5, r6, lr}
10001f32:	0005      	movs	r5, r0
10001f34:	000c      	movs	r4, r1
10001f36:	2006      	movs	r0, #6
10001f38:	f000 f996 	bl	10002268 <clock_get_hz>
10001f3c:	00c0      	lsls	r0, r0, #3
10001f3e:	0021      	movs	r1, r4
10001f40:	f001 fc62 	bl	10003808 <__wrap___aeabi_uidiv>
10001f44:	09c6      	lsrs	r6, r0, #7
10001f46:	d008      	beq.n	10001f5a <uart_set_baudrate+0x2a>
10001f48:	4b0e      	ldr	r3, [pc, #56]	; (10001f84 <uart_set_baudrate+0x54>)
10001f4a:	429e      	cmp	r6, r3
10001f4c:	d816      	bhi.n	10001f7c <uart_set_baudrate+0x4c>
10001f4e:	237f      	movs	r3, #127	; 0x7f
10001f50:	4018      	ands	r0, r3
10001f52:	3001      	adds	r0, #1
10001f54:	0034      	movs	r4, r6
10001f56:	0846      	lsrs	r6, r0, #1
10001f58:	e000      	b.n	10001f5c <uart_set_baudrate+0x2c>
10001f5a:	2401      	movs	r4, #1
10001f5c:	626c      	str	r4, [r5, #36]	; 0x24
10001f5e:	62ae      	str	r6, [r5, #40]	; 0x28
10001f60:	2200      	movs	r2, #0
10001f62:	2100      	movs	r1, #0
10001f64:	0028      	movs	r0, r5
10001f66:	f7ff ffd1 	bl	10001f0c <uart_write_lcr_bits_masked>
10001f6a:	2006      	movs	r0, #6
10001f6c:	f000 f97c 	bl	10002268 <clock_get_hz>
10001f70:	0080      	lsls	r0, r0, #2
10001f72:	01a1      	lsls	r1, r4, #6
10001f74:	1989      	adds	r1, r1, r6
10001f76:	f001 fc47 	bl	10003808 <__wrap___aeabi_uidiv>
10001f7a:	bd70      	pop	{r4, r5, r6, pc}
10001f7c:	2600      	movs	r6, #0
10001f7e:	4c02      	ldr	r4, [pc, #8]	; (10001f88 <uart_set_baudrate+0x58>)
10001f80:	e7ec      	b.n	10001f5c <uart_set_baudrate+0x2c>
10001f82:	46c0      	nop			; (mov r8, r8)
10001f84:	0000fffe 	.word	0x0000fffe
10001f88:	0000ffff 	.word	0x0000ffff

10001f8c <uart_set_format>:
10001f8c:	b510      	push	{r4, lr}
10001f8e:	3905      	subs	r1, #5
10001f90:	0149      	lsls	r1, r1, #5
10001f92:	3a01      	subs	r2, #1
10001f94:	00d2      	lsls	r2, r2, #3
10001f96:	4311      	orrs	r1, r2
10001f98:	2b00      	cmp	r3, #0
10001f9a:	d009      	beq.n	10001fb0 <uart_set_format+0x24>
10001f9c:	2202      	movs	r2, #2
10001f9e:	430a      	orrs	r2, r1
10001fa0:	2b01      	cmp	r3, #1
10001fa2:	d007      	beq.n	10001fb4 <uart_set_format+0x28>
10001fa4:	2100      	movs	r1, #0
10001fa6:	4311      	orrs	r1, r2
10001fa8:	226e      	movs	r2, #110	; 0x6e
10001faa:	f7ff ffaf 	bl	10001f0c <uart_write_lcr_bits_masked>
10001fae:	bd10      	pop	{r4, pc}
10001fb0:	2200      	movs	r2, #0
10001fb2:	e7f4      	b.n	10001f9e <uart_set_format+0x12>
10001fb4:	2104      	movs	r1, #4
10001fb6:	e7f6      	b.n	10001fa6 <uart_set_format+0x1a>

10001fb8 <uart_set_translate_crlf>:
10001fb8:	2900      	cmp	r1, #0
10001fba:	d009      	beq.n	10001fd0 <uart_set_translate_crlf+0x18>
10001fbc:	220a      	movs	r2, #10
10001fbe:	4b06      	ldr	r3, [pc, #24]	; (10001fd8 <uart_set_translate_crlf+0x20>)
10001fc0:	469c      	mov	ip, r3
10001fc2:	4460      	add	r0, ip
10001fc4:	4243      	negs	r3, r0
10001fc6:	4158      	adcs	r0, r3
10001fc8:	0040      	lsls	r0, r0, #1
10001fca:	4b04      	ldr	r3, [pc, #16]	; (10001fdc <uart_set_translate_crlf+0x24>)
10001fcc:	52c2      	strh	r2, [r0, r3]
10001fce:	4770      	bx	lr
10001fd0:	2280      	movs	r2, #128	; 0x80
10001fd2:	0052      	lsls	r2, r2, #1
10001fd4:	e7f3      	b.n	10001fbe <uart_set_translate_crlf+0x6>
10001fd6:	46c0      	nop			; (mov r8, r8)
10001fd8:	bffc8000 	.word	0xbffc8000
10001fdc:	20001a38 	.word	0x20001a38

10001fe0 <uart_init>:
10001fe0:	b570      	push	{r4, r5, r6, lr}
10001fe2:	0005      	movs	r5, r0
10001fe4:	000c      	movs	r4, r1
10001fe6:	2006      	movs	r0, #6
10001fe8:	f000 f93e 	bl	10002268 <clock_get_hz>
10001fec:	1e06      	subs	r6, r0, #0
10001fee:	d027      	beq.n	10002040 <uart_init+0x60>
10001ff0:	4b16      	ldr	r3, [pc, #88]	; (1000204c <uart_init+0x6c>)
10001ff2:	429d      	cmp	r5, r3
10001ff4:	d026      	beq.n	10002044 <uart_init+0x64>
10001ff6:	2280      	movs	r2, #128	; 0x80
10001ff8:	03d2      	lsls	r2, r2, #15
10001ffa:	4b15      	ldr	r3, [pc, #84]	; (10002050 <uart_init+0x70>)
10001ffc:	601a      	str	r2, [r3, #0]
10001ffe:	4b15      	ldr	r3, [pc, #84]	; (10002054 <uart_init+0x74>)
10002000:	601a      	str	r2, [r3, #0]
10002002:	4b15      	ldr	r3, [pc, #84]	; (10002058 <uart_init+0x78>)
10002004:	689b      	ldr	r3, [r3, #8]
10002006:	0011      	movs	r1, r2
10002008:	4399      	bics	r1, r3
1000200a:	d1fa      	bne.n	10002002 <uart_init+0x22>
1000200c:	2100      	movs	r1, #0
1000200e:	0028      	movs	r0, r5
10002010:	f7ff ffd2 	bl	10001fb8 <uart_set_translate_crlf>
10002014:	0021      	movs	r1, r4
10002016:	0028      	movs	r0, r5
10002018:	f7ff ff8a 	bl	10001f30 <uart_set_baudrate>
1000201c:	0006      	movs	r6, r0
1000201e:	2300      	movs	r3, #0
10002020:	2201      	movs	r2, #1
10002022:	2108      	movs	r1, #8
10002024:	0028      	movs	r0, r5
10002026:	f7ff ffb1 	bl	10001f8c <uart_set_format>
1000202a:	002a      	movs	r2, r5
1000202c:	322c      	adds	r2, #44	; 0x2c
1000202e:	2380      	movs	r3, #128	; 0x80
10002030:	019b      	lsls	r3, r3, #6
10002032:	4313      	orrs	r3, r2
10002034:	2210      	movs	r2, #16
10002036:	601a      	str	r2, [r3, #0]
10002038:	4b08      	ldr	r3, [pc, #32]	; (1000205c <uart_init+0x7c>)
1000203a:	632b      	str	r3, [r5, #48]	; 0x30
1000203c:	2303      	movs	r3, #3
1000203e:	64ab      	str	r3, [r5, #72]	; 0x48
10002040:	0030      	movs	r0, r6
10002042:	bd70      	pop	{r4, r5, r6, pc}
10002044:	2280      	movs	r2, #128	; 0x80
10002046:	0412      	lsls	r2, r2, #16
10002048:	e7d7      	b.n	10001ffa <uart_init+0x1a>
1000204a:	46c0      	nop			; (mov r8, r8)
1000204c:	40038000 	.word	0x40038000
10002050:	4000e000 	.word	0x4000e000
10002054:	4000f000 	.word	0x4000f000
10002058:	4000c000 	.word	0x4000c000
1000205c:	00000301 	.word	0x00000301

10002060 <clock_configure>:
10002060:	b5f8      	push	{r3, r4, r5, r6, r7, lr}
10002062:	46de      	mov	lr, fp
10002064:	4657      	mov	r7, sl
10002066:	464e      	mov	r6, r9
10002068:	4645      	mov	r5, r8
1000206a:	b5e0      	push	{r5, r6, r7, lr}
1000206c:	0005      	movs	r5, r0
1000206e:	000f      	movs	r7, r1
10002070:	4692      	mov	sl, r2
10002072:	9a0a      	ldr	r2, [sp, #40]	; 0x28
10002074:	4293      	cmp	r3, r2
10002076:	d350      	bcc.n	1000211a <clock_configure+0xba>
10002078:	0e1a      	lsrs	r2, r3, #24
1000207a:	4691      	mov	r9, r2
1000207c:	021e      	lsls	r6, r3, #8
1000207e:	9a0a      	ldr	r2, [sp, #40]	; 0x28
10002080:	2300      	movs	r3, #0
10002082:	0030      	movs	r0, r6
10002084:	4649      	mov	r1, r9
10002086:	f001 fbfd 	bl	10003884 <__wrap___aeabi_uldivmod>
1000208a:	4680      	mov	r8, r0
1000208c:	006c      	lsls	r4, r5, #1
1000208e:	1964      	adds	r4, r4, r5
10002090:	00a4      	lsls	r4, r4, #2
10002092:	4b30      	ldr	r3, [pc, #192]	; (10002154 <clock_configure+0xf4>)
10002094:	469c      	mov	ip, r3
10002096:	4464      	add	r4, ip
10002098:	6863      	ldr	r3, [r4, #4]
1000209a:	4283      	cmp	r3, r0
1000209c:	d200      	bcs.n	100020a0 <clock_configure+0x40>
1000209e:	6060      	str	r0, [r4, #4]
100020a0:	1f2b      	subs	r3, r5, #4
100020a2:	b2db      	uxtb	r3, r3
100020a4:	469b      	mov	fp, r3
100020a6:	2b01      	cmp	r3, #1
100020a8:	d93d      	bls.n	10002126 <clock_configure+0xc6>
100020aa:	23c0      	movs	r3, #192	; 0xc0
100020ac:	019b      	lsls	r3, r3, #6
100020ae:	4323      	orrs	r3, r4
100020b0:	2280      	movs	r2, #128	; 0x80
100020b2:	0112      	lsls	r2, r2, #4
100020b4:	601a      	str	r2, [r3, #0]
100020b6:	00ab      	lsls	r3, r5, #2
100020b8:	4a27      	ldr	r2, [pc, #156]	; (10002158 <clock_configure+0xf8>)
100020ba:	5899      	ldr	r1, [r3, r2]
100020bc:	2900      	cmp	r1, #0
100020be:	d007      	beq.n	100020d0 <clock_configure+0x70>
100020c0:	6950      	ldr	r0, [r2, #20]
100020c2:	f001 fba1 	bl	10003808 <__wrap___aeabi_uidiv>
100020c6:	1c43      	adds	r3, r0, #1
100020c8:	0058      	lsls	r0, r3, #1
100020ca:	18c0      	adds	r0, r0, r3
100020cc:	3803      	subs	r0, #3
100020ce:	d2fd      	bcs.n	100020cc <clock_configure+0x6c>
100020d0:	4653      	mov	r3, sl
100020d2:	015a      	lsls	r2, r3, #5
100020d4:	6823      	ldr	r3, [r4, #0]
100020d6:	405a      	eors	r2, r3
100020d8:	23e0      	movs	r3, #224	; 0xe0
100020da:	401a      	ands	r2, r3
100020dc:	2380      	movs	r3, #128	; 0x80
100020de:	015b      	lsls	r3, r3, #5
100020e0:	4323      	orrs	r3, r4
100020e2:	601a      	str	r2, [r3, #0]
100020e4:	465a      	mov	r2, fp
100020e6:	2a01      	cmp	r2, #1
100020e8:	d928      	bls.n	1000213c <clock_configure+0xdc>
100020ea:	2380      	movs	r3, #128	; 0x80
100020ec:	019b      	lsls	r3, r3, #6
100020ee:	4323      	orrs	r3, r4
100020f0:	2280      	movs	r2, #128	; 0x80
100020f2:	0112      	lsls	r2, r2, #4
100020f4:	601a      	str	r2, [r3, #0]
100020f6:	4643      	mov	r3, r8
100020f8:	6063      	str	r3, [r4, #4]
100020fa:	4642      	mov	r2, r8
100020fc:	2300      	movs	r3, #0
100020fe:	0030      	movs	r0, r6
10002100:	4649      	mov	r1, r9
10002102:	f001 fbbf 	bl	10003884 <__wrap___aeabi_uldivmod>
10002106:	00ad      	lsls	r5, r5, #2
10002108:	4b13      	ldr	r3, [pc, #76]	; (10002158 <clock_configure+0xf8>)
1000210a:	5158      	str	r0, [r3, r5]
1000210c:	2001      	movs	r0, #1
1000210e:	bcf0      	pop	{r4, r5, r6, r7}
10002110:	46bb      	mov	fp, r7
10002112:	46b2      	mov	sl, r6
10002114:	46a9      	mov	r9, r5
10002116:	46a0      	mov	r8, r4
10002118:	bdf8      	pop	{r3, r4, r5, r6, r7, pc}
1000211a:	4b10      	ldr	r3, [pc, #64]	; (1000215c <clock_configure+0xfc>)
1000211c:	4a10      	ldr	r2, [pc, #64]	; (10002160 <clock_configure+0x100>)
1000211e:	2133      	movs	r1, #51	; 0x33
10002120:	4810      	ldr	r0, [pc, #64]	; (10002164 <clock_configure+0x104>)
10002122:	f000 f9c3 	bl	100024ac <__assert_func>
10002126:	2f01      	cmp	r7, #1
10002128:	d1bf      	bne.n	100020aa <clock_configure+0x4a>
1000212a:	23c0      	movs	r3, #192	; 0xc0
1000212c:	019b      	lsls	r3, r3, #6
1000212e:	4323      	orrs	r3, r4
10002130:	2203      	movs	r2, #3
10002132:	601a      	str	r2, [r3, #0]
10002134:	68a3      	ldr	r3, [r4, #8]
10002136:	07db      	lsls	r3, r3, #31
10002138:	d5fc      	bpl.n	10002134 <clock_configure+0xd4>
1000213a:	e7c9      	b.n	100020d0 <clock_configure+0x70>
1000213c:	6821      	ldr	r1, [r4, #0]
1000213e:	4079      	eors	r1, r7
10002140:	2203      	movs	r2, #3
10002142:	400a      	ands	r2, r1
10002144:	601a      	str	r2, [r3, #0]
10002146:	68a2      	ldr	r2, [r4, #8]
10002148:	2301      	movs	r3, #1
1000214a:	40bb      	lsls	r3, r7
1000214c:	4213      	tst	r3, r2
1000214e:	d0fa      	beq.n	10002146 <clock_configure+0xe6>
10002150:	e7cb      	b.n	100020ea <clock_configure+0x8a>
10002152:	46c0      	nop			; (mov r8, r8)
10002154:	40008000 	.word	0x40008000
10002158:	20001354 	.word	0x20001354
1000215c:	10007618 	.word	0x10007618
10002160:	1000768c 	.word	0x1000768c
10002164:	1000762c 	.word	0x1000762c

10002168 <clocks_init>:
10002168:	b530      	push	{r4, r5, lr}
1000216a:	b083      	sub	sp, #12
1000216c:	200c      	movs	r0, #12
1000216e:	f000 f911 	bl	10002394 <watchdog_start_tick>
10002172:	f7fe f947 	bl	10000404 <running_on_fpga>
10002176:	2800      	cmp	r0, #0
10002178:	d00d      	beq.n	10002196 <clocks_init+0x2e>
1000217a:	2300      	movs	r3, #0
1000217c:	e004      	b.n	10002188 <clocks_init+0x20>
1000217e:	0099      	lsls	r1, r3, #2
10002180:	4a2d      	ldr	r2, [pc, #180]	; (10002238 <clocks_init+0xd0>)
10002182:	482e      	ldr	r0, [pc, #184]	; (1000223c <clocks_init+0xd4>)
10002184:	5088      	str	r0, [r1, r2]
10002186:	3301      	adds	r3, #1
10002188:	2b09      	cmp	r3, #9
1000218a:	d9f8      	bls.n	1000217e <clocks_init+0x16>
1000218c:	4b2a      	ldr	r3, [pc, #168]	; (10002238 <clocks_init+0xd0>)
1000218e:	4a2c      	ldr	r2, [pc, #176]	; (10002240 <clocks_init+0xd8>)
10002190:	625a      	str	r2, [r3, #36]	; 0x24
10002192:	b003      	add	sp, #12
10002194:	bd30      	pop	{r4, r5, pc}
10002196:	4b2b      	ldr	r3, [pc, #172]	; (10002244 <clocks_init+0xdc>)
10002198:	2200      	movs	r2, #0
1000219a:	679a      	str	r2, [r3, #120]	; 0x78
1000219c:	f000 f96c 	bl	10002478 <xosc_init>
100021a0:	4b29      	ldr	r3, [pc, #164]	; (10002248 <clocks_init+0xe0>)
100021a2:	2201      	movs	r2, #1
100021a4:	601a      	str	r2, [r3, #0]
100021a6:	4b27      	ldr	r3, [pc, #156]	; (10002244 <clocks_init+0xdc>)
100021a8:	6c5b      	ldr	r3, [r3, #68]	; 0x44
100021aa:	2b01      	cmp	r3, #1
100021ac:	d1fb      	bne.n	100021a6 <clocks_init+0x3e>
100021ae:	4b27      	ldr	r3, [pc, #156]	; (1000224c <clocks_init+0xe4>)
100021b0:	2203      	movs	r2, #3
100021b2:	601a      	str	r2, [r3, #0]
100021b4:	4b23      	ldr	r3, [pc, #140]	; (10002244 <clocks_init+0xdc>)
100021b6:	6b9b      	ldr	r3, [r3, #56]	; 0x38
100021b8:	2b01      	cmp	r3, #1
100021ba:	d1fb      	bne.n	100021b4 <clocks_init+0x4c>
100021bc:	3301      	adds	r3, #1
100021be:	9300      	str	r3, [sp, #0]
100021c0:	3304      	adds	r3, #4
100021c2:	4a23      	ldr	r2, [pc, #140]	; (10002250 <clocks_init+0xe8>)
100021c4:	2101      	movs	r1, #1
100021c6:	4823      	ldr	r0, [pc, #140]	; (10002254 <clocks_init+0xec>)
100021c8:	f000 f854 	bl	10002274 <pll_init>
100021cc:	2305      	movs	r3, #5
100021ce:	9300      	str	r3, [sp, #0]
100021d0:	4a21      	ldr	r2, [pc, #132]	; (10002258 <clocks_init+0xf0>)
100021d2:	2101      	movs	r1, #1
100021d4:	4821      	ldr	r0, [pc, #132]	; (1000225c <clocks_init+0xf4>)
100021d6:	f000 f84d 	bl	10002274 <pll_init>
100021da:	4b21      	ldr	r3, [pc, #132]	; (10002260 <clocks_init+0xf8>)
100021dc:	9300      	str	r3, [sp, #0]
100021de:	2200      	movs	r2, #0
100021e0:	2102      	movs	r1, #2
100021e2:	2004      	movs	r0, #4
100021e4:	f7ff ff3c 	bl	10002060 <clock_configure>
100021e8:	4d1e      	ldr	r5, [pc, #120]	; (10002264 <clocks_init+0xfc>)
100021ea:	9500      	str	r5, [sp, #0]
100021ec:	002b      	movs	r3, r5
100021ee:	2200      	movs	r2, #0
100021f0:	2101      	movs	r1, #1
100021f2:	2005      	movs	r0, #5
100021f4:	f7ff ff34 	bl	10002060 <clock_configure>
100021f8:	4c10      	ldr	r4, [pc, #64]	; (1000223c <clocks_init+0xd4>)
100021fa:	9400      	str	r4, [sp, #0]
100021fc:	0023      	movs	r3, r4
100021fe:	2200      	movs	r2, #0
10002200:	2100      	movs	r1, #0
10002202:	2007      	movs	r0, #7
10002204:	f7ff ff2c 	bl	10002060 <clock_configure>
10002208:	9400      	str	r4, [sp, #0]
1000220a:	0023      	movs	r3, r4
1000220c:	2200      	movs	r2, #0
1000220e:	2100      	movs	r1, #0
10002210:	2008      	movs	r0, #8
10002212:	f7ff ff25 	bl	10002060 <clock_configure>
10002216:	4b0a      	ldr	r3, [pc, #40]	; (10002240 <clocks_init+0xd8>)
10002218:	9300      	str	r3, [sp, #0]
1000221a:	0023      	movs	r3, r4
1000221c:	2200      	movs	r2, #0
1000221e:	2100      	movs	r1, #0
10002220:	2009      	movs	r0, #9
10002222:	f7ff ff1d 	bl	10002060 <clock_configure>
10002226:	9500      	str	r5, [sp, #0]
10002228:	002b      	movs	r3, r5
1000222a:	2200      	movs	r2, #0
1000222c:	2100      	movs	r1, #0
1000222e:	2006      	movs	r0, #6
10002230:	f7ff ff16 	bl	10002060 <clock_configure>
10002234:	e7ad      	b.n	10002192 <clocks_init+0x2a>
10002236:	46c0      	nop			; (mov r8, r8)
10002238:	20001354 	.word	0x20001354
1000223c:	02dc6c00 	.word	0x02dc6c00
10002240:	0000b71b 	.word	0x0000b71b
10002244:	40008000 	.word	0x40008000
10002248:	4000b03c 	.word	0x4000b03c
1000224c:	4000b030 	.word	0x4000b030
10002250:	59682f00 	.word	0x59682f00
10002254:	40028000 	.word	0x40028000
10002258:	47868c00 	.word	0x47868c00
1000225c:	4002c000 	.word	0x4002c000
10002260:	00b71b00 	.word	0x00b71b00
10002264:	07735940 	.word	0x07735940

10002268 <clock_get_hz>:
10002268:	0080      	lsls	r0, r0, #2
1000226a:	4b01      	ldr	r3, [pc, #4]	; (10002270 <clock_get_hz+0x8>)
1000226c:	58c0      	ldr	r0, [r0, r3]
1000226e:	4770      	bx	lr
10002270:	20001354 	.word	0x20001354

10002274 <pll_init>:
10002274:	b5f0      	push	{r4, r5, r6, r7, lr}
10002276:	46c6      	mov	lr, r8
10002278:	b500      	push	{lr}
1000227a:	0004      	movs	r4, r0
1000227c:	000e      	movs	r6, r1
1000227e:	0017      	movs	r7, r2
10002280:	001d      	movs	r5, r3
10002282:	4837      	ldr	r0, [pc, #220]	; (10002360 <pll_init+0xec>)
10002284:	f001 fac0 	bl	10003808 <__wrap___aeabi_uidiv>
10002288:	4680      	mov	r8, r0
1000228a:	4b36      	ldr	r3, [pc, #216]	; (10002364 <pll_init+0xf0>)
1000228c:	18fa      	adds	r2, r7, r3
1000228e:	4b36      	ldr	r3, [pc, #216]	; (10002368 <pll_init+0xf4>)
10002290:	429a      	cmp	r2, r3
10002292:	d839      	bhi.n	10002308 <pll_init+0x94>
10002294:	0001      	movs	r1, r0
10002296:	0038      	movs	r0, r7
10002298:	f001 fab6 	bl	10003808 <__wrap___aeabi_uidiv>
1000229c:	0002      	movs	r2, r0
1000229e:	3a10      	subs	r2, #16
100022a0:	2398      	movs	r3, #152	; 0x98
100022a2:	005b      	lsls	r3, r3, #1
100022a4:	429a      	cmp	r2, r3
100022a6:	d835      	bhi.n	10002314 <pll_init+0xa0>
100022a8:	1e6b      	subs	r3, r5, #1
100022aa:	2b06      	cmp	r3, #6
100022ac:	d838      	bhi.n	10002320 <pll_init+0xac>
100022ae:	9b06      	ldr	r3, [sp, #24]
100022b0:	3b01      	subs	r3, #1
100022b2:	2b06      	cmp	r3, #6
100022b4:	d834      	bhi.n	10002320 <pll_init+0xac>
100022b6:	093f      	lsrs	r7, r7, #4
100022b8:	4547      	cmp	r7, r8
100022ba:	d337      	bcc.n	1000232c <pll_init+0xb8>
100022bc:	042d      	lsls	r5, r5, #16
100022be:	9b06      	ldr	r3, [sp, #24]
100022c0:	031a      	lsls	r2, r3, #12
100022c2:	4315      	orrs	r5, r2
100022c4:	6823      	ldr	r3, [r4, #0]
100022c6:	2b00      	cmp	r3, #0
100022c8:	db36      	blt.n	10002338 <pll_init+0xc4>
100022ca:	4b28      	ldr	r3, [pc, #160]	; (1000236c <pll_init+0xf8>)
100022cc:	429c      	cmp	r4, r3
100022ce:	d044      	beq.n	1000235a <pll_init+0xe6>
100022d0:	2280      	movs	r2, #128	; 0x80
100022d2:	0152      	lsls	r2, r2, #5
100022d4:	4b26      	ldr	r3, [pc, #152]	; (10002370 <pll_init+0xfc>)
100022d6:	601a      	str	r2, [r3, #0]
100022d8:	4b26      	ldr	r3, [pc, #152]	; (10002374 <pll_init+0x100>)
100022da:	601a      	str	r2, [r3, #0]
100022dc:	4b26      	ldr	r3, [pc, #152]	; (10002378 <pll_init+0x104>)
100022de:	689b      	ldr	r3, [r3, #8]
100022e0:	0011      	movs	r1, r2
100022e2:	4399      	bics	r1, r3
100022e4:	d1fa      	bne.n	100022dc <pll_init+0x68>
100022e6:	6026      	str	r6, [r4, #0]
100022e8:	60a0      	str	r0, [r4, #8]
100022ea:	1d23      	adds	r3, r4, #4
100022ec:	22c0      	movs	r2, #192	; 0xc0
100022ee:	0192      	lsls	r2, r2, #6
100022f0:	431a      	orrs	r2, r3
100022f2:	2321      	movs	r3, #33	; 0x21
100022f4:	6013      	str	r3, [r2, #0]
100022f6:	6823      	ldr	r3, [r4, #0]
100022f8:	2b00      	cmp	r3, #0
100022fa:	dafc      	bge.n	100022f6 <pll_init+0x82>
100022fc:	60e5      	str	r5, [r4, #12]
100022fe:	2308      	movs	r3, #8
10002300:	6013      	str	r3, [r2, #0]
10002302:	bc80      	pop	{r7}
10002304:	46b8      	mov	r8, r7
10002306:	bdf0      	pop	{r4, r5, r6, r7, pc}
10002308:	4b1c      	ldr	r3, [pc, #112]	; (1000237c <pll_init+0x108>)
1000230a:	4a1d      	ldr	r2, [pc, #116]	; (10002380 <pll_init+0x10c>)
1000230c:	2111      	movs	r1, #17
1000230e:	481d      	ldr	r0, [pc, #116]	; (10002384 <pll_init+0x110>)
10002310:	f000 f8cc 	bl	100024ac <__assert_func>
10002314:	4b1c      	ldr	r3, [pc, #112]	; (10002388 <pll_init+0x114>)
10002316:	4a1a      	ldr	r2, [pc, #104]	; (10002380 <pll_init+0x10c>)
10002318:	2119      	movs	r1, #25
1000231a:	481a      	ldr	r0, [pc, #104]	; (10002384 <pll_init+0x110>)
1000231c:	f000 f8c6 	bl	100024ac <__assert_func>
10002320:	4b1a      	ldr	r3, [pc, #104]	; (1000238c <pll_init+0x118>)
10002322:	4a17      	ldr	r2, [pc, #92]	; (10002380 <pll_init+0x10c>)
10002324:	211c      	movs	r1, #28
10002326:	4817      	ldr	r0, [pc, #92]	; (10002384 <pll_init+0x110>)
10002328:	f000 f8c0 	bl	100024ac <__assert_func>
1000232c:	4b18      	ldr	r3, [pc, #96]	; (10002390 <pll_init+0x11c>)
1000232e:	4a14      	ldr	r2, [pc, #80]	; (10002380 <pll_init+0x10c>)
10002330:	2123      	movs	r1, #35	; 0x23
10002332:	4814      	ldr	r0, [pc, #80]	; (10002384 <pll_init+0x110>)
10002334:	f000 f8ba 	bl	100024ac <__assert_func>
10002338:	6822      	ldr	r2, [r4, #0]
1000233a:	233f      	movs	r3, #63	; 0x3f
1000233c:	4013      	ands	r3, r2
1000233e:	42b3      	cmp	r3, r6
10002340:	d1c3      	bne.n	100022ca <pll_init+0x56>
10002342:	68a3      	ldr	r3, [r4, #8]
10002344:	051b      	lsls	r3, r3, #20
10002346:	0d1b      	lsrs	r3, r3, #20
10002348:	4283      	cmp	r3, r0
1000234a:	d1be      	bne.n	100022ca <pll_init+0x56>
1000234c:	68e3      	ldr	r3, [r4, #12]
1000234e:	22ee      	movs	r2, #238	; 0xee
10002350:	02d2      	lsls	r2, r2, #11
10002352:	4013      	ands	r3, r2
10002354:	42ab      	cmp	r3, r5
10002356:	d1b8      	bne.n	100022ca <pll_init+0x56>
10002358:	e7d3      	b.n	10002302 <pll_init+0x8e>
1000235a:	2280      	movs	r2, #128	; 0x80
1000235c:	0192      	lsls	r2, r2, #6
1000235e:	e7b9      	b.n	100022d4 <pll_init+0x60>
10002360:	00b71b00 	.word	0x00b71b00
10002364:	d34be880 	.word	0xd34be880
10002368:	32a9f880 	.word	0x32a9f880
1000236c:	4002c000 	.word	0x4002c000
10002370:	4000e000 	.word	0x4000e000
10002374:	4000f000 	.word	0x4000f000
10002378:	4000c000 	.word	0x4000c000
1000237c:	1000769c 	.word	0x1000769c
10002380:	100077dc 	.word	0x100077dc
10002384:	100076fc 	.word	0x100076fc
10002388:	10007758 	.word	0x10007758
1000238c:	10007774 	.word	0x10007774
10002390:	100077c0 	.word	0x100077c0

10002394 <watchdog_start_tick>:
10002394:	2380      	movs	r3, #128	; 0x80
10002396:	009b      	lsls	r3, r3, #2
10002398:	4303      	orrs	r3, r0
1000239a:	4a01      	ldr	r2, [pc, #4]	; (100023a0 <watchdog_start_tick+0xc>)
1000239c:	62d3      	str	r3, [r2, #44]	; 0x2c
1000239e:	4770      	bx	lr
100023a0:	40058000 	.word	0x40058000

100023a4 <watchdog_update>:
100023a4:	4b02      	ldr	r3, [pc, #8]	; (100023b0 <watchdog_update+0xc>)
100023a6:	681a      	ldr	r2, [r3, #0]
100023a8:	4b02      	ldr	r3, [pc, #8]	; (100023b4 <watchdog_update+0x10>)
100023aa:	605a      	str	r2, [r3, #4]
100023ac:	4770      	bx	lr
100023ae:	46c0      	nop			; (mov r8, r8)
100023b0:	200017f0 	.word	0x200017f0
100023b4:	40058000 	.word	0x40058000

100023b8 <_watchdog_enable>:
100023b8:	b510      	push	{r4, lr}
100023ba:	0002      	movs	r2, r0
100023bc:	4b16      	ldr	r3, [pc, #88]	; (10002418 <_watchdog_enable+0x60>)
100023be:	2080      	movs	r0, #128	; 0x80
100023c0:	05c0      	lsls	r0, r0, #23
100023c2:	6018      	str	r0, [r3, #0]
100023c4:	4b15      	ldr	r3, [pc, #84]	; (1000241c <_watchdog_enable+0x64>)
100023c6:	4816      	ldr	r0, [pc, #88]	; (10002420 <_watchdog_enable+0x68>)
100023c8:	6018      	str	r0, [r3, #0]
100023ca:	2900      	cmp	r1, #0
100023cc:	d00a      	beq.n	100023e4 <_watchdog_enable+0x2c>
100023ce:	4b15      	ldr	r3, [pc, #84]	; (10002424 <_watchdog_enable+0x6c>)
100023d0:	21e0      	movs	r1, #224	; 0xe0
100023d2:	04c9      	lsls	r1, r1, #19
100023d4:	6019      	str	r1, [r3, #0]
100023d6:	2a00      	cmp	r2, #0
100023d8:	d109      	bne.n	100023ee <_watchdog_enable+0x36>
100023da:	4b12      	ldr	r3, [pc, #72]	; (10002424 <_watchdog_enable+0x6c>)
100023dc:	2280      	movs	r2, #128	; 0x80
100023de:	0612      	lsls	r2, r2, #24
100023e0:	601a      	str	r2, [r3, #0]
100023e2:	bd10      	pop	{r4, pc}
100023e4:	4b0c      	ldr	r3, [pc, #48]	; (10002418 <_watchdog_enable+0x60>)
100023e6:	21e0      	movs	r1, #224	; 0xe0
100023e8:	04c9      	lsls	r1, r1, #19
100023ea:	6019      	str	r1, [r3, #0]
100023ec:	e7f3      	b.n	100023d6 <_watchdog_enable+0x1e>
100023ee:	0153      	lsls	r3, r2, #5
100023f0:	1a9b      	subs	r3, r3, r2
100023f2:	0098      	lsls	r0, r3, #2
100023f4:	1880      	adds	r0, r0, r2
100023f6:	0100      	lsls	r0, r0, #4
100023f8:	4b0b      	ldr	r3, [pc, #44]	; (10002428 <_watchdog_enable+0x70>)
100023fa:	6018      	str	r0, [r3, #0]
100023fc:	2380      	movs	r3, #128	; 0x80
100023fe:	045b      	lsls	r3, r3, #17
10002400:	4298      	cmp	r0, r3
10002402:	d302      	bcc.n	1000240a <_watchdog_enable+0x52>
10002404:	4b08      	ldr	r3, [pc, #32]	; (10002428 <_watchdog_enable+0x70>)
10002406:	4a09      	ldr	r2, [pc, #36]	; (1000242c <_watchdog_enable+0x74>)
10002408:	601a      	str	r2, [r3, #0]
1000240a:	f7ff ffcb 	bl	100023a4 <watchdog_update>
1000240e:	4b05      	ldr	r3, [pc, #20]	; (10002424 <_watchdog_enable+0x6c>)
10002410:	2280      	movs	r2, #128	; 0x80
10002412:	05d2      	lsls	r2, r2, #23
10002414:	601a      	str	r2, [r3, #0]
10002416:	e7e4      	b.n	100023e2 <_watchdog_enable+0x2a>
10002418:	4005b000 	.word	0x4005b000
1000241c:	40012008 	.word	0x40012008
10002420:	0001fffc 	.word	0x0001fffc
10002424:	4005a000 	.word	0x4005a000
10002428:	200017f0 	.word	0x200017f0
1000242c:	00ffffff 	.word	0x00ffffff

10002430 <watchdog_reboot>:
10002430:	b510      	push	{r4, lr}
10002432:	0003      	movs	r3, r0
10002434:	0010      	movs	r0, r2
10002436:	4a0c      	ldr	r2, [pc, #48]	; (10002468 <watchdog_reboot+0x38>)
10002438:	2480      	movs	r4, #128	; 0x80
1000243a:	05e4      	lsls	r4, r4, #23
1000243c:	6014      	str	r4, [r2, #0]
1000243e:	2b00      	cmp	r3, #0
10002440:	d00d      	beq.n	1000245e <watchdog_reboot+0x2e>
10002442:	2201      	movs	r2, #1
10002444:	4313      	orrs	r3, r2
10002446:	4a09      	ldr	r2, [pc, #36]	; (1000246c <watchdog_reboot+0x3c>)
10002448:	4c09      	ldr	r4, [pc, #36]	; (10002470 <watchdog_reboot+0x40>)
1000244a:	61d4      	str	r4, [r2, #28]
1000244c:	4c09      	ldr	r4, [pc, #36]	; (10002474 <watchdog_reboot+0x44>)
1000244e:	405c      	eors	r4, r3
10002450:	6214      	str	r4, [r2, #32]
10002452:	6251      	str	r1, [r2, #36]	; 0x24
10002454:	6293      	str	r3, [r2, #40]	; 0x28
10002456:	2100      	movs	r1, #0
10002458:	f7ff ffae 	bl	100023b8 <_watchdog_enable>
1000245c:	bd10      	pop	{r4, pc}
1000245e:	4b03      	ldr	r3, [pc, #12]	; (1000246c <watchdog_reboot+0x3c>)
10002460:	2200      	movs	r2, #0
10002462:	61da      	str	r2, [r3, #28]
10002464:	e7f7      	b.n	10002456 <watchdog_reboot+0x26>
10002466:	46c0      	nop			; (mov r8, r8)
10002468:	4005b000 	.word	0x4005b000
1000246c:	40058000 	.word	0x40058000
10002470:	b007c0d3 	.word	0xb007c0d3
10002474:	4ff83f2d 	.word	0x4ff83f2d

10002478 <xosc_init>:
10002478:	4b06      	ldr	r3, [pc, #24]	; (10002494 <xosc_init+0x1c>)
1000247a:	22aa      	movs	r2, #170	; 0xaa
1000247c:	0112      	lsls	r2, r2, #4
1000247e:	601a      	str	r2, [r3, #0]
10002480:	222f      	movs	r2, #47	; 0x2f
10002482:	60da      	str	r2, [r3, #12]
10002484:	4b04      	ldr	r3, [pc, #16]	; (10002498 <xosc_init+0x20>)
10002486:	4a05      	ldr	r2, [pc, #20]	; (1000249c <xosc_init+0x24>)
10002488:	601a      	str	r2, [r3, #0]
1000248a:	4b02      	ldr	r3, [pc, #8]	; (10002494 <xosc_init+0x1c>)
1000248c:	685b      	ldr	r3, [r3, #4]
1000248e:	2b00      	cmp	r3, #0
10002490:	dafb      	bge.n	1000248a <xosc_init+0x12>
10002492:	4770      	bx	lr
10002494:	40024000 	.word	0x40024000
10002498:	40026000 	.word	0x40026000
1000249c:	00fab000 	.word	0x00fab000

100024a0 <_exit>:
100024a0:	be00      	bkpt	0x0000
100024a2:	e7fd      	b.n	100024a0 <_exit>

100024a4 <exit>:
100024a4:	b510      	push	{r4, lr}
100024a6:	f7ff fffb 	bl	100024a0 <_exit>
	...

100024ac <__assert_func>:
100024ac:	b510      	push	{r4, lr}
100024ae:	b082      	sub	sp, #8
100024b0:	000c      	movs	r4, r1
100024b2:	0019      	movs	r1, r3
100024b4:	2a00      	cmp	r2, #0
100024b6:	d00c      	beq.n	100024d2 <__assert_func+0x26>
100024b8:	4b08      	ldr	r3, [pc, #32]	; (100024dc <__assert_func+0x30>)
100024ba:	2a00      	cmp	r2, #0
100024bc:	d00b      	beq.n	100024d6 <__assert_func+0x2a>
100024be:	9201      	str	r2, [sp, #4]
100024c0:	9300      	str	r3, [sp, #0]
100024c2:	0023      	movs	r3, r4
100024c4:	0002      	movs	r2, r0
100024c6:	4806      	ldr	r0, [pc, #24]	; (100024e0 <__assert_func+0x34>)
100024c8:	f001 fefe 	bl	100042c8 <__wrap_printf>
100024cc:	2001      	movs	r0, #1
100024ce:	f7ff ffe7 	bl	100024a0 <_exit>
100024d2:	4b04      	ldr	r3, [pc, #16]	; (100024e4 <__assert_func+0x38>)
100024d4:	e7f1      	b.n	100024ba <__assert_func+0xe>
100024d6:	4a03      	ldr	r2, [pc, #12]	; (100024e4 <__assert_func+0x38>)
100024d8:	e7f1      	b.n	100024be <__assert_func+0x12>
100024da:	46c0      	nop			; (mov r8, r8)
100024dc:	100077e8 	.word	0x100077e8
100024e0:	100077f8 	.word	0x100077f8
100024e4:	100077f4 	.word	0x100077f4

100024e8 <runtime_init>:
100024e8:	b570      	push	{r4, r5, r6, lr}
100024ea:	4b2b      	ldr	r3, [pc, #172]	; (10002598 <runtime_init+0xb0>)
100024ec:	4a2b      	ldr	r2, [pc, #172]	; (1000259c <runtime_init+0xb4>)
100024ee:	601a      	str	r2, [r3, #0]
100024f0:	4b2b      	ldr	r3, [pc, #172]	; (100025a0 <runtime_init+0xb8>)
100024f2:	4a2c      	ldr	r2, [pc, #176]	; (100025a4 <runtime_init+0xbc>)
100024f4:	601a      	str	r2, [r3, #0]
100024f6:	4b2c      	ldr	r3, [pc, #176]	; (100025a8 <runtime_init+0xc0>)
100024f8:	689a      	ldr	r2, [r3, #8]
100024fa:	4b2a      	ldr	r3, [pc, #168]	; (100025a4 <runtime_init+0xbc>)
100024fc:	4393      	bics	r3, r2
100024fe:	d1fa      	bne.n	100024f6 <runtime_init+0xe>
10002500:	4c2a      	ldr	r4, [pc, #168]	; (100025ac <runtime_init+0xc4>)
10002502:	e001      	b.n	10002508 <runtime_init+0x20>
10002504:	cc08      	ldmia	r4!, {r3}
10002506:	4798      	blx	r3
10002508:	4b29      	ldr	r3, [pc, #164]	; (100025b0 <runtime_init+0xc8>)
1000250a:	429c      	cmp	r4, r3
1000250c:	d3fa      	bcc.n	10002504 <runtime_init+0x1c>
1000250e:	f7ff fe2b 	bl	10002168 <clocks_init>
10002512:	4b23      	ldr	r3, [pc, #140]	; (100025a0 <runtime_init+0xb8>)
10002514:	4a27      	ldr	r2, [pc, #156]	; (100025b4 <runtime_init+0xcc>)
10002516:	601a      	str	r2, [r3, #0]
10002518:	4b23      	ldr	r3, [pc, #140]	; (100025a8 <runtime_init+0xc0>)
1000251a:	689b      	ldr	r3, [r3, #8]
1000251c:	43db      	mvns	r3, r3
1000251e:	01db      	lsls	r3, r3, #7
10002520:	d1fa      	bne.n	10002518 <runtime_init+0x30>
10002522:	4b25      	ldr	r3, [pc, #148]	; (100025b8 <runtime_init+0xd0>)
10002524:	2240      	movs	r2, #64	; 0x40
10002526:	679a      	str	r2, [r3, #120]	; 0x78
10002528:	675a      	str	r2, [r3, #116]	; 0x74
1000252a:	671a      	str	r2, [r3, #112]	; 0x70
1000252c:	66da      	str	r2, [r3, #108]	; 0x6c
1000252e:	4c23      	ldr	r4, [pc, #140]	; (100025bc <runtime_init+0xd4>)
10002530:	e009      	b.n	10002546 <runtime_init+0x5e>
10002532:	4b23      	ldr	r3, [pc, #140]	; (100025c0 <runtime_init+0xd8>)
10002534:	4a23      	ldr	r2, [pc, #140]	; (100025c4 <runtime_init+0xdc>)
10002536:	2187      	movs	r1, #135	; 0x87
10002538:	4823      	ldr	r0, [pc, #140]	; (100025c8 <runtime_init+0xe0>)
1000253a:	f7ff ffb7 	bl	100024ac <__assert_func>
1000253e:	0020      	movs	r0, r4
10002540:	f7fe fb4a 	bl	10000bd8 <mutex_init>
10002544:	3408      	adds	r4, #8
10002546:	4b21      	ldr	r3, [pc, #132]	; (100025cc <runtime_init+0xe4>)
10002548:	429c      	cmp	r4, r3
1000254a:	d209      	bcs.n	10002560 <runtime_init+0x78>
1000254c:	6823      	ldr	r3, [r4, #0]
1000254e:	2b00      	cmp	r3, #0
10002550:	d0f5      	beq.n	1000253e <runtime_init+0x56>
10002552:	2b01      	cmp	r3, #1
10002554:	d1ed      	bne.n	10002532 <runtime_init+0x4a>
10002556:	0020      	movs	r0, r4
10002558:	f7fe fb4b 	bl	10000bf2 <recursive_mutex_init>
1000255c:	3408      	adds	r4, #8
1000255e:	e7f2      	b.n	10002546 <runtime_init+0x5e>
10002560:	4c1b      	ldr	r4, [pc, #108]	; (100025d0 <runtime_init+0xe8>)
10002562:	68a1      	ldr	r1, [r4, #8]
10002564:	4d1b      	ldr	r5, [pc, #108]	; (100025d4 <runtime_init+0xec>)
10002566:	22c0      	movs	r2, #192	; 0xc0
10002568:	0028      	movs	r0, r5
1000256a:	f001 fd55 	bl	10004018 <__wrap___aeabi_memcpy>
1000256e:	60a5      	str	r5, [r4, #8]
10002570:	f3ef 8305 	mrs	r3, IPSR
10002574:	2b00      	cmp	r3, #0
10002576:	d000      	beq.n	1000257a <runtime_init+0x92>
10002578:	be00      	bkpt	0x0000
1000257a:	f7fd ffa5 	bl	100004c8 <spin_locks_reset>
1000257e:	f7fe fb01 	bl	10000b84 <irq_init_priorities>
10002582:	f7fe fe99 	bl	100012b8 <alarm_pool_init_default>
10002586:	4c14      	ldr	r4, [pc, #80]	; (100025d8 <runtime_init+0xf0>)
10002588:	e001      	b.n	1000258e <runtime_init+0xa6>
1000258a:	cc08      	ldmia	r4!, {r3}
1000258c:	4798      	blx	r3
1000258e:	4b13      	ldr	r3, [pc, #76]	; (100025dc <runtime_init+0xf4>)
10002590:	429c      	cmp	r4, r3
10002592:	d3fa      	bcc.n	1000258a <runtime_init+0xa2>
10002594:	bd70      	pop	{r4, r5, r6, pc}
10002596:	46c0      	nop			; (mov r8, r8)
10002598:	4000e000 	.word	0x4000e000
1000259c:	fefbcdbf 	.word	0xfefbcdbf
100025a0:	4000f000 	.word	0x4000f000
100025a4:	003c7ffe 	.word	0x003c7ffe
100025a8:	4000c000 	.word	0x4000c000
100025ac:	20000cb0 	.word	0x20000cb0
100025b0:	20000cc0 	.word	0x20000cc0
100025b4:	01ffffff 	.word	0x01ffffff
100025b8:	4001f000 	.word	0x4001f000
100025bc:	20000ca8 	.word	0x20000ca8
100025c0:	10007828 	.word	0x10007828
100025c4:	100078bc 	.word	0x100078bc
100025c8:	10007848 	.word	0x10007848
100025cc:	20000cb0 	.word	0x20000cb0
100025d0:	e000ed00 	.word	0xe000ed00
100025d4:	20000000 	.word	0x20000000
100025d8:	20000cc0 	.word	0x20000cc0
100025dc:	20000cc8 	.word	0x20000cc8

100025e0 <panic>:
100025e0:	b40f      	push	{r0, r1, r2, r3}
100025e2:	b500      	push	{lr}
100025e4:	b083      	sub	sp, #12
100025e6:	4808      	ldr	r0, [pc, #32]	; (10002608 <panic+0x28>)
100025e8:	f001 fe3e 	bl	10004268 <__wrap_puts>
100025ec:	9b04      	ldr	r3, [sp, #16]
100025ee:	2b00      	cmp	r3, #0
100025f0:	d007      	beq.n	10002602 <panic+0x22>
100025f2:	a905      	add	r1, sp, #20
100025f4:	9101      	str	r1, [sp, #4]
100025f6:	0018      	movs	r0, r3
100025f8:	f001 fe46 	bl	10004288 <__wrap_vprintf>
100025fc:	4803      	ldr	r0, [pc, #12]	; (1000260c <panic+0x2c>)
100025fe:	f001 fe33 	bl	10004268 <__wrap_puts>
10002602:	2001      	movs	r0, #1
10002604:	f7ff ff4c 	bl	100024a0 <_exit>
10002608:	100078a8 	.word	0x100078a8
1000260c:	100078b8 	.word	0x100078b8

10002610 <_out_null>:
10002610:	4770      	bx	lr

10002612 <_out_fct>:
10002612:	b510      	push	{r4, lr}
10002614:	2800      	cmp	r0, #0
10002616:	d002      	beq.n	1000261e <_out_fct+0xc>
10002618:	680b      	ldr	r3, [r1, #0]
1000261a:	6849      	ldr	r1, [r1, #4]
1000261c:	4798      	blx	r3
1000261e:	bd10      	pop	{r4, pc}

10002620 <_atoi>:
10002620:	0001      	movs	r1, r0
10002622:	2000      	movs	r0, #0
10002624:	e007      	b.n	10002636 <_atoi+0x16>
10002626:	0083      	lsls	r3, r0, #2
10002628:	181b      	adds	r3, r3, r0
1000262a:	005b      	lsls	r3, r3, #1
1000262c:	1c50      	adds	r0, r2, #1
1000262e:	6008      	str	r0, [r1, #0]
10002630:	7810      	ldrb	r0, [r2, #0]
10002632:	18c0      	adds	r0, r0, r3
10002634:	3830      	subs	r0, #48	; 0x30
10002636:	680a      	ldr	r2, [r1, #0]
10002638:	7813      	ldrb	r3, [r2, #0]
1000263a:	3b30      	subs	r3, #48	; 0x30
1000263c:	b2db      	uxtb	r3, r3
1000263e:	2b09      	cmp	r3, #9
10002640:	d9f1      	bls.n	10002626 <_atoi+0x6>
10002642:	4770      	bx	lr

10002644 <_out_rev>:
10002644:	b5f0      	push	{r4, r5, r6, r7, lr}
10002646:	46de      	mov	lr, fp
10002648:	4657      	mov	r7, sl
1000264a:	464e      	mov	r6, r9
1000264c:	4645      	mov	r5, r8
1000264e:	b5e0      	push	{r5, r6, r7, lr}
10002650:	b083      	sub	sp, #12
10002652:	4693      	mov	fp, r2
10002654:	001f      	movs	r7, r3
10002656:	9b0c      	ldr	r3, [sp, #48]	; 0x30
10002658:	469a      	mov	sl, r3
1000265a:	9c0d      	ldr	r4, [sp, #52]	; 0x34
1000265c:	9b0e      	ldr	r3, [sp, #56]	; 0x38
1000265e:	4699      	mov	r9, r3
10002660:	9b0f      	ldr	r3, [sp, #60]	; 0x3c
10002662:	079b      	lsls	r3, r3, #30
10002664:	d003      	beq.n	1000266e <_out_rev+0x2a>
10002666:	46b8      	mov	r8, r7
10002668:	000f      	movs	r7, r1
1000266a:	0006      	movs	r6, r0
1000266c:	e022      	b.n	100026b4 <_out_rev+0x70>
1000266e:	9201      	str	r2, [sp, #4]
10002670:	46a3      	mov	fp, r4
10002672:	4688      	mov	r8, r1
10002674:	464e      	mov	r6, r9
10002676:	46b9      	mov	r9, r7
10002678:	0007      	movs	r7, r0
1000267a:	42b4      	cmp	r4, r6
1000267c:	d207      	bcs.n	1000268e <_out_rev+0x4a>
1000267e:	1c55      	adds	r5, r2, #1
10002680:	464b      	mov	r3, r9
10002682:	4641      	mov	r1, r8
10002684:	2020      	movs	r0, #32
10002686:	47b8      	blx	r7
10002688:	3401      	adds	r4, #1
1000268a:	002a      	movs	r2, r5
1000268c:	e7f5      	b.n	1000267a <_out_rev+0x36>
1000268e:	003d      	movs	r5, r7
10002690:	464f      	mov	r7, r9
10002692:	465c      	mov	r4, fp
10002694:	9b01      	ldr	r3, [sp, #4]
10002696:	469b      	mov	fp, r3
10002698:	46b1      	mov	r9, r6
1000269a:	4646      	mov	r6, r8
1000269c:	46b8      	mov	r8, r7
1000269e:	0037      	movs	r7, r6
100026a0:	002e      	movs	r6, r5
100026a2:	e007      	b.n	100026b4 <_out_rev+0x70>
100026a4:	3c01      	subs	r4, #1
100026a6:	1c55      	adds	r5, r2, #1
100026a8:	4653      	mov	r3, sl
100026aa:	5d18      	ldrb	r0, [r3, r4]
100026ac:	4643      	mov	r3, r8
100026ae:	0039      	movs	r1, r7
100026b0:	47b0      	blx	r6
100026b2:	002a      	movs	r2, r5
100026b4:	2c00      	cmp	r4, #0
100026b6:	d1f5      	bne.n	100026a4 <_out_rev+0x60>
100026b8:	0035      	movs	r5, r6
100026ba:	003e      	movs	r6, r7
100026bc:	4647      	mov	r7, r8
100026be:	9b0f      	ldr	r3, [sp, #60]	; 0x3c
100026c0:	079b      	lsls	r3, r3, #30
100026c2:	d407      	bmi.n	100026d4 <_out_rev+0x90>
100026c4:	0010      	movs	r0, r2
100026c6:	b003      	add	sp, #12
100026c8:	bcf0      	pop	{r4, r5, r6, r7}
100026ca:	46bb      	mov	fp, r7
100026cc:	46b2      	mov	sl, r6
100026ce:	46a9      	mov	r9, r5
100026d0:	46a0      	mov	r8, r4
100026d2:	bdf0      	pop	{r4, r5, r6, r7, pc}
100026d4:	46b0      	mov	r8, r6
100026d6:	464e      	mov	r6, r9
100026d8:	46b9      	mov	r9, r7
100026da:	002f      	movs	r7, r5
100026dc:	465d      	mov	r5, fp
100026de:	1b53      	subs	r3, r2, r5
100026e0:	42b3      	cmp	r3, r6
100026e2:	d2ef      	bcs.n	100026c4 <_out_rev+0x80>
100026e4:	1c54      	adds	r4, r2, #1
100026e6:	464b      	mov	r3, r9
100026e8:	4641      	mov	r1, r8
100026ea:	2020      	movs	r0, #32
100026ec:	47b8      	blx	r7
100026ee:	0022      	movs	r2, r4
100026f0:	e7f5      	b.n	100026de <_out_rev+0x9a>

100026f2 <_ntoa_format>:
100026f2:	b5f0      	push	{r4, r5, r6, r7, lr}
100026f4:	46ce      	mov	lr, r9
100026f6:	4647      	mov	r7, r8
100026f8:	b580      	push	{r7, lr}
100026fa:	b085      	sub	sp, #20
100026fc:	4694      	mov	ip, r2
100026fe:	4698      	mov	r8, r3
10002700:	9d0c      	ldr	r5, [sp, #48]	; 0x30
10002702:	9c0d      	ldr	r4, [sp, #52]	; 0x34
10002704:	ab0e      	add	r3, sp, #56	; 0x38
10002706:	781b      	ldrb	r3, [r3, #0]
10002708:	4699      	mov	r9, r3
1000270a:	9a10      	ldr	r2, [sp, #64]	; 0x40
1000270c:	9b11      	ldr	r3, [sp, #68]	; 0x44
1000270e:	9e12      	ldr	r6, [sp, #72]	; 0x48
10002710:	07b7      	lsls	r7, r6, #30
10002712:	d41c      	bmi.n	1000274e <_ntoa_format+0x5c>
10002714:	2b00      	cmp	r3, #0
10002716:	d00c      	beq.n	10002732 <_ntoa_format+0x40>
10002718:	07f7      	lsls	r7, r6, #31
1000271a:	d50a      	bpl.n	10002732 <_ntoa_format+0x40>
1000271c:	464f      	mov	r7, r9
1000271e:	2f00      	cmp	r7, #0
10002720:	d102      	bne.n	10002728 <_ntoa_format+0x36>
10002722:	370c      	adds	r7, #12
10002724:	4237      	tst	r7, r6
10002726:	d004      	beq.n	10002732 <_ntoa_format+0x40>
10002728:	3b01      	subs	r3, #1
1000272a:	e002      	b.n	10002732 <_ntoa_format+0x40>
1000272c:	2730      	movs	r7, #48	; 0x30
1000272e:	552f      	strb	r7, [r5, r4]
10002730:	3401      	adds	r4, #1
10002732:	4294      	cmp	r4, r2
10002734:	d201      	bcs.n	1000273a <_ntoa_format+0x48>
10002736:	2c1f      	cmp	r4, #31
10002738:	d9f8      	bls.n	1000272c <_ntoa_format+0x3a>
1000273a:	07f7      	lsls	r7, r6, #31
1000273c:	d507      	bpl.n	1000274e <_ntoa_format+0x5c>
1000273e:	429c      	cmp	r4, r3
10002740:	d205      	bcs.n	1000274e <_ntoa_format+0x5c>
10002742:	2c1f      	cmp	r4, #31
10002744:	d803      	bhi.n	1000274e <_ntoa_format+0x5c>
10002746:	2730      	movs	r7, #48	; 0x30
10002748:	552f      	strb	r7, [r5, r4]
1000274a:	3401      	adds	r4, #1
1000274c:	e7f5      	b.n	1000273a <_ntoa_format+0x48>
1000274e:	06f7      	lsls	r7, r6, #27
10002750:	d515      	bpl.n	1000277e <_ntoa_format+0x8c>
10002752:	0577      	lsls	r7, r6, #21
10002754:	d405      	bmi.n	10002762 <_ntoa_format+0x70>
10002756:	2c00      	cmp	r4, #0
10002758:	d003      	beq.n	10002762 <_ntoa_format+0x70>
1000275a:	4294      	cmp	r4, r2
1000275c:	d024      	beq.n	100027a8 <_ntoa_format+0xb6>
1000275e:	429c      	cmp	r4, r3
10002760:	d022      	beq.n	100027a8 <_ntoa_format+0xb6>
10002762:	9a0f      	ldr	r2, [sp, #60]	; 0x3c
10002764:	2a10      	cmp	r2, #16
10002766:	d02b      	beq.n	100027c0 <_ntoa_format+0xce>
10002768:	9a0f      	ldr	r2, [sp, #60]	; 0x3c
1000276a:	2a10      	cmp	r2, #16
1000276c:	d030      	beq.n	100027d0 <_ntoa_format+0xde>
1000276e:	9a0f      	ldr	r2, [sp, #60]	; 0x3c
10002770:	2a02      	cmp	r2, #2
10002772:	d035      	beq.n	100027e0 <_ntoa_format+0xee>
10002774:	2c1f      	cmp	r4, #31
10002776:	d802      	bhi.n	1000277e <_ntoa_format+0x8c>
10002778:	2230      	movs	r2, #48	; 0x30
1000277a:	552a      	strb	r2, [r5, r4]
1000277c:	3401      	adds	r4, #1
1000277e:	2c1f      	cmp	r4, #31
10002780:	d805      	bhi.n	1000278e <_ntoa_format+0x9c>
10002782:	464a      	mov	r2, r9
10002784:	2a00      	cmp	r2, #0
10002786:	d031      	beq.n	100027ec <_ntoa_format+0xfa>
10002788:	222d      	movs	r2, #45	; 0x2d
1000278a:	552a      	strb	r2, [r5, r4]
1000278c:	3401      	adds	r4, #1
1000278e:	9603      	str	r6, [sp, #12]
10002790:	9302      	str	r3, [sp, #8]
10002792:	9401      	str	r4, [sp, #4]
10002794:	9500      	str	r5, [sp, #0]
10002796:	4643      	mov	r3, r8
10002798:	4662      	mov	r2, ip
1000279a:	f7ff ff53 	bl	10002644 <_out_rev>
1000279e:	b005      	add	sp, #20
100027a0:	bcc0      	pop	{r6, r7}
100027a2:	46b9      	mov	r9, r7
100027a4:	46b0      	mov	r8, r6
100027a6:	bdf0      	pop	{r4, r5, r6, r7, pc}
100027a8:	1e62      	subs	r2, r4, #1
100027aa:	2c01      	cmp	r4, #1
100027ac:	d006      	beq.n	100027bc <_ntoa_format+0xca>
100027ae:	9f0f      	ldr	r7, [sp, #60]	; 0x3c
100027b0:	2f10      	cmp	r7, #16
100027b2:	d001      	beq.n	100027b8 <_ntoa_format+0xc6>
100027b4:	0014      	movs	r4, r2
100027b6:	e7d4      	b.n	10002762 <_ntoa_format+0x70>
100027b8:	3c02      	subs	r4, #2
100027ba:	e7d2      	b.n	10002762 <_ntoa_format+0x70>
100027bc:	0014      	movs	r4, r2
100027be:	e7d0      	b.n	10002762 <_ntoa_format+0x70>
100027c0:	06b2      	lsls	r2, r6, #26
100027c2:	d4d1      	bmi.n	10002768 <_ntoa_format+0x76>
100027c4:	2c1f      	cmp	r4, #31
100027c6:	d8cf      	bhi.n	10002768 <_ntoa_format+0x76>
100027c8:	2278      	movs	r2, #120	; 0x78
100027ca:	552a      	strb	r2, [r5, r4]
100027cc:	3401      	adds	r4, #1
100027ce:	e7d1      	b.n	10002774 <_ntoa_format+0x82>
100027d0:	06b2      	lsls	r2, r6, #26
100027d2:	d5cc      	bpl.n	1000276e <_ntoa_format+0x7c>
100027d4:	2c1f      	cmp	r4, #31
100027d6:	d8ca      	bhi.n	1000276e <_ntoa_format+0x7c>
100027d8:	2258      	movs	r2, #88	; 0x58
100027da:	552a      	strb	r2, [r5, r4]
100027dc:	3401      	adds	r4, #1
100027de:	e7c9      	b.n	10002774 <_ntoa_format+0x82>
100027e0:	2c1f      	cmp	r4, #31
100027e2:	d8c7      	bhi.n	10002774 <_ntoa_format+0x82>
100027e4:	3260      	adds	r2, #96	; 0x60
100027e6:	552a      	strb	r2, [r5, r4]
100027e8:	3401      	adds	r4, #1
100027ea:	e7c3      	b.n	10002774 <_ntoa_format+0x82>
100027ec:	0772      	lsls	r2, r6, #29
100027ee:	d503      	bpl.n	100027f8 <_ntoa_format+0x106>
100027f0:	222b      	movs	r2, #43	; 0x2b
100027f2:	552a      	strb	r2, [r5, r4]
100027f4:	3401      	adds	r4, #1
100027f6:	e7ca      	b.n	1000278e <_ntoa_format+0x9c>
100027f8:	0732      	lsls	r2, r6, #28
100027fa:	d5c8      	bpl.n	1000278e <_ntoa_format+0x9c>
100027fc:	2220      	movs	r2, #32
100027fe:	552a      	strb	r2, [r5, r4]
10002800:	3401      	adds	r4, #1
10002802:	e7c4      	b.n	1000278e <_ntoa_format+0x9c>

10002804 <_ntoa_long>:
10002804:	b5f0      	push	{r4, r5, r6, r7, lr}
10002806:	46de      	mov	lr, fp
10002808:	4657      	mov	r7, sl
1000280a:	464e      	mov	r6, r9
1000280c:	4645      	mov	r5, r8
1000280e:	b5e0      	push	{r5, r6, r7, lr}
10002810:	b093      	sub	sp, #76	; 0x4c
10002812:	4681      	mov	r9, r0
10002814:	468a      	mov	sl, r1
10002816:	9208      	str	r2, [sp, #32]
10002818:	9309      	str	r3, [sp, #36]	; 0x24
1000281a:	ab1c      	add	r3, sp, #112	; 0x70
1000281c:	cb10      	ldmia	r3!, {r4}
1000281e:	781b      	ldrb	r3, [r3, #0]
10002820:	469b      	mov	fp, r3
10002822:	9d1e      	ldr	r5, [sp, #120]	; 0x78
10002824:	9b21      	ldr	r3, [sp, #132]	; 0x84
10002826:	4698      	mov	r8, r3
10002828:	2c00      	cmp	r4, #0
1000282a:	d103      	bne.n	10002834 <_ntoa_long+0x30>
1000282c:	2310      	movs	r3, #16
1000282e:	4642      	mov	r2, r8
10002830:	439a      	bics	r2, r3
10002832:	4690      	mov	r8, r2
10002834:	2380      	movs	r3, #128	; 0x80
10002836:	00db      	lsls	r3, r3, #3
10002838:	4646      	mov	r6, r8
1000283a:	401e      	ands	r6, r3
1000283c:	4642      	mov	r2, r8
1000283e:	421a      	tst	r2, r3
10002840:	d012      	beq.n	10002868 <_ntoa_long+0x64>
10002842:	2c00      	cmp	r4, #0
10002844:	d022      	beq.n	1000288c <_ntoa_long+0x88>
10002846:	2600      	movs	r6, #0
10002848:	e00e      	b.n	10002868 <_ntoa_long+0x64>
1000284a:	3330      	adds	r3, #48	; 0x30
1000284c:	b2d9      	uxtb	r1, r3
1000284e:	1c77      	adds	r7, r6, #1
10002850:	ab0a      	add	r3, sp, #40	; 0x28
10002852:	5599      	strb	r1, [r3, r6]
10002854:	0029      	movs	r1, r5
10002856:	0020      	movs	r0, r4
10002858:	f000 ffd6 	bl	10003808 <__wrap___aeabi_uidiv>
1000285c:	42ac      	cmp	r4, r5
1000285e:	d316      	bcc.n	1000288e <_ntoa_long+0x8a>
10002860:	2f1f      	cmp	r7, #31
10002862:	d814      	bhi.n	1000288e <_ntoa_long+0x8a>
10002864:	003e      	movs	r6, r7
10002866:	0004      	movs	r4, r0
10002868:	0029      	movs	r1, r5
1000286a:	0020      	movs	r0, r4
1000286c:	f000 ffcc 	bl	10003808 <__wrap___aeabi_uidiv>
10002870:	b2cb      	uxtb	r3, r1
10002872:	2b09      	cmp	r3, #9
10002874:	d9e9      	bls.n	1000284a <_ntoa_long+0x46>
10002876:	4642      	mov	r2, r8
10002878:	0692      	lsls	r2, r2, #26
1000287a:	d505      	bpl.n	10002888 <_ntoa_long+0x84>
1000287c:	2141      	movs	r1, #65	; 0x41
1000287e:	18c9      	adds	r1, r1, r3
10002880:	b2c9      	uxtb	r1, r1
10002882:	390a      	subs	r1, #10
10002884:	b2c9      	uxtb	r1, r1
10002886:	e7e2      	b.n	1000284e <_ntoa_long+0x4a>
10002888:	2161      	movs	r1, #97	; 0x61
1000288a:	e7f8      	b.n	1000287e <_ntoa_long+0x7a>
1000288c:	0027      	movs	r7, r4
1000288e:	4643      	mov	r3, r8
10002890:	9306      	str	r3, [sp, #24]
10002892:	9b20      	ldr	r3, [sp, #128]	; 0x80
10002894:	9305      	str	r3, [sp, #20]
10002896:	9b1f      	ldr	r3, [sp, #124]	; 0x7c
10002898:	9304      	str	r3, [sp, #16]
1000289a:	9503      	str	r5, [sp, #12]
1000289c:	465b      	mov	r3, fp
1000289e:	9302      	str	r3, [sp, #8]
100028a0:	9701      	str	r7, [sp, #4]
100028a2:	ab0a      	add	r3, sp, #40	; 0x28
100028a4:	9300      	str	r3, [sp, #0]
100028a6:	9b09      	ldr	r3, [sp, #36]	; 0x24
100028a8:	9a08      	ldr	r2, [sp, #32]
100028aa:	4651      	mov	r1, sl
100028ac:	4648      	mov	r0, r9
100028ae:	f7ff ff20 	bl	100026f2 <_ntoa_format>
100028b2:	b013      	add	sp, #76	; 0x4c
100028b4:	bcf0      	pop	{r4, r5, r6, r7}
100028b6:	46bb      	mov	fp, r7
100028b8:	46b2      	mov	sl, r6
100028ba:	46a9      	mov	r9, r5
100028bc:	46a0      	mov	r8, r4
100028be:	bdf0      	pop	{r4, r5, r6, r7, pc}

100028c0 <_ntoa_long_long>:
100028c0:	b5f0      	push	{r4, r5, r6, r7, lr}
100028c2:	46de      	mov	lr, fp
100028c4:	4657      	mov	r7, sl
100028c6:	464e      	mov	r6, r9
100028c8:	4645      	mov	r5, r8
100028ca:	b5e0      	push	{r5, r6, r7, lr}
100028cc:	b095      	sub	sp, #84	; 0x54
100028ce:	9008      	str	r0, [sp, #32]
100028d0:	9109      	str	r1, [sp, #36]	; 0x24
100028d2:	920a      	str	r2, [sp, #40]	; 0x28
100028d4:	930b      	str	r3, [sp, #44]	; 0x2c
100028d6:	9e1e      	ldr	r6, [sp, #120]	; 0x78
100028d8:	9c1f      	ldr	r4, [sp, #124]	; 0x7c
100028da:	ab20      	add	r3, sp, #128	; 0x80
100028dc:	781b      	ldrb	r3, [r3, #0]
100028de:	469b      	mov	fp, r3
100028e0:	9b22      	ldr	r3, [sp, #136]	; 0x88
100028e2:	4699      	mov	r9, r3
100028e4:	9d23      	ldr	r5, [sp, #140]	; 0x8c
100028e6:	9b26      	ldr	r3, [sp, #152]	; 0x98
100028e8:	469a      	mov	sl, r3
100028ea:	0033      	movs	r3, r6
100028ec:	4323      	orrs	r3, r4
100028ee:	d103      	bne.n	100028f8 <_ntoa_long_long+0x38>
100028f0:	3310      	adds	r3, #16
100028f2:	4652      	mov	r2, sl
100028f4:	439a      	bics	r2, r3
100028f6:	4692      	mov	sl, r2
100028f8:	2380      	movs	r3, #128	; 0x80
100028fa:	00db      	lsls	r3, r3, #3
100028fc:	4657      	mov	r7, sl
100028fe:	401f      	ands	r7, r3
10002900:	4652      	mov	r2, sl
10002902:	421a      	tst	r2, r3
10002904:	d019      	beq.n	1000293a <_ntoa_long_long+0x7a>
10002906:	0033      	movs	r3, r6
10002908:	4323      	orrs	r3, r4
1000290a:	d02d      	beq.n	10002968 <_ntoa_long_long+0xa8>
1000290c:	2700      	movs	r7, #0
1000290e:	e014      	b.n	1000293a <_ntoa_long_long+0x7a>
10002910:	3330      	adds	r3, #48	; 0x30
10002912:	b2da      	uxtb	r2, r3
10002914:	1c7b      	adds	r3, r7, #1
10002916:	4698      	mov	r8, r3
10002918:	ab0c      	add	r3, sp, #48	; 0x30
1000291a:	55da      	strb	r2, [r3, r7]
1000291c:	464a      	mov	r2, r9
1000291e:	002b      	movs	r3, r5
10002920:	0030      	movs	r0, r6
10002922:	0021      	movs	r1, r4
10002924:	f000 ffae 	bl	10003884 <__wrap___aeabi_uldivmod>
10002928:	42a5      	cmp	r5, r4
1000292a:	d81f      	bhi.n	1000296c <_ntoa_long_long+0xac>
1000292c:	d019      	beq.n	10002962 <_ntoa_long_long+0xa2>
1000292e:	4643      	mov	r3, r8
10002930:	2b1f      	cmp	r3, #31
10002932:	d81b      	bhi.n	1000296c <_ntoa_long_long+0xac>
10002934:	4647      	mov	r7, r8
10002936:	0006      	movs	r6, r0
10002938:	000c      	movs	r4, r1
1000293a:	464a      	mov	r2, r9
1000293c:	002b      	movs	r3, r5
1000293e:	0030      	movs	r0, r6
10002940:	0021      	movs	r1, r4
10002942:	f000 ff9f 	bl	10003884 <__wrap___aeabi_uldivmod>
10002946:	b2d3      	uxtb	r3, r2
10002948:	2b09      	cmp	r3, #9
1000294a:	d9e1      	bls.n	10002910 <_ntoa_long_long+0x50>
1000294c:	4652      	mov	r2, sl
1000294e:	0692      	lsls	r2, r2, #26
10002950:	d505      	bpl.n	1000295e <_ntoa_long_long+0x9e>
10002952:	2241      	movs	r2, #65	; 0x41
10002954:	18d2      	adds	r2, r2, r3
10002956:	b2d2      	uxtb	r2, r2
10002958:	3a0a      	subs	r2, #10
1000295a:	b2d2      	uxtb	r2, r2
1000295c:	e7da      	b.n	10002914 <_ntoa_long_long+0x54>
1000295e:	2261      	movs	r2, #97	; 0x61
10002960:	e7f8      	b.n	10002954 <_ntoa_long_long+0x94>
10002962:	45b1      	cmp	r9, r6
10002964:	d9e3      	bls.n	1000292e <_ntoa_long_long+0x6e>
10002966:	e001      	b.n	1000296c <_ntoa_long_long+0xac>
10002968:	2300      	movs	r3, #0
1000296a:	4698      	mov	r8, r3
1000296c:	4653      	mov	r3, sl
1000296e:	9306      	str	r3, [sp, #24]
10002970:	9b25      	ldr	r3, [sp, #148]	; 0x94
10002972:	9305      	str	r3, [sp, #20]
10002974:	9b24      	ldr	r3, [sp, #144]	; 0x90
10002976:	9304      	str	r3, [sp, #16]
10002978:	464b      	mov	r3, r9
1000297a:	9303      	str	r3, [sp, #12]
1000297c:	465b      	mov	r3, fp
1000297e:	9302      	str	r3, [sp, #8]
10002980:	4643      	mov	r3, r8
10002982:	9301      	str	r3, [sp, #4]
10002984:	ab0c      	add	r3, sp, #48	; 0x30
10002986:	9300      	str	r3, [sp, #0]
10002988:	9b0b      	ldr	r3, [sp, #44]	; 0x2c
1000298a:	9a0a      	ldr	r2, [sp, #40]	; 0x28
1000298c:	9909      	ldr	r1, [sp, #36]	; 0x24
1000298e:	9808      	ldr	r0, [sp, #32]
10002990:	f7ff feaf 	bl	100026f2 <_ntoa_format>
10002994:	b015      	add	sp, #84	; 0x54
10002996:	bcf0      	pop	{r4, r5, r6, r7}
10002998:	46bb      	mov	fp, r7
1000299a:	46b2      	mov	sl, r6
1000299c:	46a9      	mov	r9, r5
1000299e:	46a0      	mov	r8, r4
100029a0:	bdf0      	pop	{r4, r5, r6, r7, pc}
	...

100029a4 <_etoa>:
100029a4:	b5f0      	push	{r4, r5, r6, r7, lr}
100029a6:	46de      	mov	lr, fp
100029a8:	4657      	mov	r7, sl
100029aa:	464e      	mov	r6, r9
100029ac:	4645      	mov	r5, r8
100029ae:	b5e0      	push	{r5, r6, r7, lr}
100029b0:	b091      	sub	sp, #68	; 0x44
100029b2:	4683      	mov	fp, r0
100029b4:	468a      	mov	sl, r1
100029b6:	920c      	str	r2, [sp, #48]	; 0x30
100029b8:	4698      	mov	r8, r3
100029ba:	9c1a      	ldr	r4, [sp, #104]	; 0x68
100029bc:	9408      	str	r4, [sp, #32]
100029be:	9d1b      	ldr	r5, [sp, #108]	; 0x6c
100029c0:	9509      	str	r5, [sp, #36]	; 0x24
100029c2:	0022      	movs	r2, r4
100029c4:	002b      	movs	r3, r5
100029c6:	0020      	movs	r0, r4
100029c8:	0029      	movs	r1, r5
100029ca:	f001 f9d6 	bl	10003d7a <__wrap___aeabi_dcmpun>
100029ce:	2800      	cmp	r0, #0
100029d0:	d000      	beq.n	100029d4 <_etoa+0x30>
100029d2:	e0e5      	b.n	10002ba0 <_etoa+0x1fc>
100029d4:	2201      	movs	r2, #1
100029d6:	4252      	negs	r2, r2
100029d8:	4bd7      	ldr	r3, [pc, #860]	; (10002d38 <_etoa+0x394>)
100029da:	0020      	movs	r0, r4
100029dc:	0029      	movs	r1, r5
100029de:	f001 f9c7 	bl	10003d70 <__wrap___aeabi_dcmpgt>
100029e2:	2800      	cmp	r0, #0
100029e4:	d000      	beq.n	100029e8 <_etoa+0x44>
100029e6:	e0db      	b.n	10002ba0 <_etoa+0x1fc>
100029e8:	2201      	movs	r2, #1
100029ea:	4252      	negs	r2, r2
100029ec:	4bd3      	ldr	r3, [pc, #844]	; (10002d3c <_etoa+0x398>)
100029ee:	0020      	movs	r0, r4
100029f0:	0029      	movs	r1, r5
100029f2:	f001 f9a7 	bl	10003d44 <__wrap___aeabi_dcmplt>
100029f6:	2800      	cmp	r0, #0
100029f8:	d000      	beq.n	100029fc <_etoa+0x58>
100029fa:	e0d1      	b.n	10002ba0 <_etoa+0x1fc>
100029fc:	2200      	movs	r2, #0
100029fe:	2300      	movs	r3, #0
10002a00:	9e08      	ldr	r6, [sp, #32]
10002a02:	0030      	movs	r0, r6
10002a04:	9d09      	ldr	r5, [sp, #36]	; 0x24
10002a06:	0029      	movs	r1, r5
10002a08:	f001 f99c 	bl	10003d44 <__wrap___aeabi_dcmplt>
10002a0c:	2800      	cmp	r0, #0
10002a0e:	d000      	beq.n	10002a12 <_etoa+0x6e>
10002a10:	e0dd      	b.n	10002bce <_etoa+0x22a>
10002a12:	9808      	ldr	r0, [sp, #32]
10002a14:	9909      	ldr	r1, [sp, #36]	; 0x24
10002a16:	9006      	str	r0, [sp, #24]
10002a18:	9107      	str	r1, [sp, #28]
10002a1a:	2380      	movs	r3, #128	; 0x80
10002a1c:	00db      	lsls	r3, r3, #3
10002a1e:	9a1e      	ldr	r2, [sp, #120]	; 0x78
10002a20:	401a      	ands	r2, r3
10002a22:	920d      	str	r2, [sp, #52]	; 0x34
10002a24:	9a1e      	ldr	r2, [sp, #120]	; 0x78
10002a26:	421a      	tst	r2, r3
10002a28:	d101      	bne.n	10002a2e <_etoa+0x8a>
10002a2a:	2306      	movs	r3, #6
10002a2c:	931c      	str	r3, [sp, #112]	; 0x70
10002a2e:	9806      	ldr	r0, [sp, #24]
10002a30:	9907      	ldr	r1, [sp, #28]
10002a32:	0004      	movs	r4, r0
10002a34:	000d      	movs	r5, r1
10002a36:	000a      	movs	r2, r1
10002a38:	0006      	movs	r6, r0
10002a3a:	4302      	orrs	r2, r0
10002a3c:	d100      	bne.n	10002a40 <_etoa+0x9c>
10002a3e:	e0d1      	b.n	10002be4 <_etoa+0x240>
10002a40:	0d08      	lsrs	r0, r1, #20
10002a42:	0540      	lsls	r0, r0, #21
10002a44:	0d40      	lsrs	r0, r0, #21
10002a46:	4cbe      	ldr	r4, [pc, #760]	; (10002d40 <_etoa+0x39c>)
10002a48:	46a4      	mov	ip, r4
10002a4a:	4460      	add	r0, ip
10002a4c:	030a      	lsls	r2, r1, #12
10002a4e:	0b12      	lsrs	r2, r2, #12
10002a50:	4bbc      	ldr	r3, [pc, #752]	; (10002d44 <_etoa+0x3a0>)
10002a52:	4313      	orrs	r3, r2
10002a54:	001f      	movs	r7, r3
10002a56:	f001 f9a3 	bl	10003da0 <__wrap___aeabi_i2d>
10002a5a:	4abb      	ldr	r2, [pc, #748]	; (10002d48 <_etoa+0x3a4>)
10002a5c:	4bbb      	ldr	r3, [pc, #748]	; (10002d4c <_etoa+0x3a8>)
10002a5e:	f001 f932 	bl	10003cc6 <__wrap___aeabi_dmul>
10002a62:	4abb      	ldr	r2, [pc, #748]	; (10002d50 <_etoa+0x3ac>)
10002a64:	4bbb      	ldr	r3, [pc, #748]	; (10002d54 <_etoa+0x3b0>)
10002a66:	f001 f90f 	bl	10003c88 <__wrap___aeabi_dadd>
10002a6a:	0004      	movs	r4, r0
10002a6c:	000d      	movs	r5, r1
10002a6e:	2200      	movs	r2, #0
10002a70:	4bb9      	ldr	r3, [pc, #740]	; (10002d58 <_etoa+0x3b4>)
10002a72:	0030      	movs	r0, r6
10002a74:	0039      	movs	r1, r7
10002a76:	f001 f902 	bl	10003c7e <__wrap___aeabi_dsub>
10002a7a:	4ab8      	ldr	r2, [pc, #736]	; (10002d5c <_etoa+0x3b8>)
10002a7c:	4bb8      	ldr	r3, [pc, #736]	; (10002d60 <_etoa+0x3bc>)
10002a7e:	f001 f922 	bl	10003cc6 <__wrap___aeabi_dmul>
10002a82:	0002      	movs	r2, r0
10002a84:	000b      	movs	r3, r1
10002a86:	0020      	movs	r0, r4
10002a88:	0029      	movs	r1, r5
10002a8a:	f001 f8fd 	bl	10003c88 <__wrap___aeabi_dadd>
10002a8e:	f001 f99f 	bl	10003dd0 <__wrap___aeabi_d2iz>
10002a92:	4681      	mov	r9, r0
10002a94:	f001 f984 	bl	10003da0 <__wrap___aeabi_i2d>
10002a98:	0004      	movs	r4, r0
10002a9a:	000d      	movs	r5, r1
10002a9c:	4ab1      	ldr	r2, [pc, #708]	; (10002d64 <_etoa+0x3c0>)
10002a9e:	4bb2      	ldr	r3, [pc, #712]	; (10002d68 <_etoa+0x3c4>)
10002aa0:	f001 f911 	bl	10003cc6 <__wrap___aeabi_dmul>
10002aa4:	2200      	movs	r2, #0
10002aa6:	4bb1      	ldr	r3, [pc, #708]	; (10002d6c <_etoa+0x3c8>)
10002aa8:	f001 f8ee 	bl	10003c88 <__wrap___aeabi_dadd>
10002aac:	f001 f990 	bl	10003dd0 <__wrap___aeabi_d2iz>
10002ab0:	0006      	movs	r6, r0
10002ab2:	4aaf      	ldr	r2, [pc, #700]	; (10002d70 <_etoa+0x3cc>)
10002ab4:	4baf      	ldr	r3, [pc, #700]	; (10002d74 <_etoa+0x3d0>)
10002ab6:	0020      	movs	r0, r4
10002ab8:	0029      	movs	r1, r5
10002aba:	f001 f904 	bl	10003cc6 <__wrap___aeabi_dmul>
10002abe:	0004      	movs	r4, r0
10002ac0:	000d      	movs	r5, r1
10002ac2:	0030      	movs	r0, r6
10002ac4:	f001 f96c 	bl	10003da0 <__wrap___aeabi_i2d>
10002ac8:	4aab      	ldr	r2, [pc, #684]	; (10002d78 <_etoa+0x3d4>)
10002aca:	4bac      	ldr	r3, [pc, #688]	; (10002d7c <_etoa+0x3d8>)
10002acc:	f001 f8fb 	bl	10003cc6 <__wrap___aeabi_dmul>
10002ad0:	0002      	movs	r2, r0
10002ad2:	000b      	movs	r3, r1
10002ad4:	0020      	movs	r0, r4
10002ad6:	0029      	movs	r1, r5
10002ad8:	f001 f8d1 	bl	10003c7e <__wrap___aeabi_dsub>
10002adc:	0004      	movs	r4, r0
10002ade:	000d      	movs	r5, r1
10002ae0:	0002      	movs	r2, r0
10002ae2:	000b      	movs	r3, r1
10002ae4:	f001 f8ef 	bl	10003cc6 <__wrap___aeabi_dmul>
10002ae8:	900a      	str	r0, [sp, #40]	; 0x28
10002aea:	910b      	str	r1, [sp, #44]	; 0x2c
10002aec:	4ba4      	ldr	r3, [pc, #656]	; (10002d80 <_etoa+0x3dc>)
10002aee:	18f3      	adds	r3, r6, r3
10002af0:	2600      	movs	r6, #0
10002af2:	051f      	lsls	r7, r3, #20
10002af4:	0022      	movs	r2, r4
10002af6:	002b      	movs	r3, r5
10002af8:	0020      	movs	r0, r4
10002afa:	0029      	movs	r1, r5
10002afc:	f001 f8c4 	bl	10003c88 <__wrap___aeabi_dadd>
10002b00:	900e      	str	r0, [sp, #56]	; 0x38
10002b02:	910f      	str	r1, [sp, #60]	; 0x3c
10002b04:	0022      	movs	r2, r4
10002b06:	002b      	movs	r3, r5
10002b08:	2000      	movs	r0, #0
10002b0a:	2180      	movs	r1, #128	; 0x80
10002b0c:	05c9      	lsls	r1, r1, #23
10002b0e:	f001 f8b6 	bl	10003c7e <__wrap___aeabi_dsub>
10002b12:	0004      	movs	r4, r0
10002b14:	000d      	movs	r5, r1
10002b16:	2200      	movs	r2, #0
10002b18:	4b9a      	ldr	r3, [pc, #616]	; (10002d84 <_etoa+0x3e0>)
10002b1a:	980a      	ldr	r0, [sp, #40]	; 0x28
10002b1c:	990b      	ldr	r1, [sp, #44]	; 0x2c
10002b1e:	f001 f8b8 	bl	10003c92 <__wrap___aeabi_ddiv>
10002b22:	2200      	movs	r2, #0
10002b24:	4b98      	ldr	r3, [pc, #608]	; (10002d88 <_etoa+0x3e4>)
10002b26:	f001 f8af 	bl	10003c88 <__wrap___aeabi_dadd>
10002b2a:	0002      	movs	r2, r0
10002b2c:	000b      	movs	r3, r1
10002b2e:	980a      	ldr	r0, [sp, #40]	; 0x28
10002b30:	990b      	ldr	r1, [sp, #44]	; 0x2c
10002b32:	f001 f8ae 	bl	10003c92 <__wrap___aeabi_ddiv>
10002b36:	2200      	movs	r2, #0
10002b38:	4b94      	ldr	r3, [pc, #592]	; (10002d8c <_etoa+0x3e8>)
10002b3a:	f001 f8a5 	bl	10003c88 <__wrap___aeabi_dadd>
10002b3e:	0002      	movs	r2, r0
10002b40:	000b      	movs	r3, r1
10002b42:	980a      	ldr	r0, [sp, #40]	; 0x28
10002b44:	990b      	ldr	r1, [sp, #44]	; 0x2c
10002b46:	f001 f8a4 	bl	10003c92 <__wrap___aeabi_ddiv>
10002b4a:	0002      	movs	r2, r0
10002b4c:	000b      	movs	r3, r1
10002b4e:	0020      	movs	r0, r4
10002b50:	0029      	movs	r1, r5
10002b52:	f001 f899 	bl	10003c88 <__wrap___aeabi_dadd>
10002b56:	0002      	movs	r2, r0
10002b58:	000b      	movs	r3, r1
10002b5a:	980e      	ldr	r0, [sp, #56]	; 0x38
10002b5c:	990f      	ldr	r1, [sp, #60]	; 0x3c
10002b5e:	f001 f898 	bl	10003c92 <__wrap___aeabi_ddiv>
10002b62:	2200      	movs	r2, #0
10002b64:	4b77      	ldr	r3, [pc, #476]	; (10002d44 <_etoa+0x3a0>)
10002b66:	f001 f88f 	bl	10003c88 <__wrap___aeabi_dadd>
10002b6a:	0032      	movs	r2, r6
10002b6c:	003b      	movs	r3, r7
10002b6e:	f001 f8aa 	bl	10003cc6 <__wrap___aeabi_dmul>
10002b72:	0006      	movs	r6, r0
10002b74:	000f      	movs	r7, r1
10002b76:	0004      	movs	r4, r0
10002b78:	000d      	movs	r5, r1
10002b7a:	9a06      	ldr	r2, [sp, #24]
10002b7c:	9b07      	ldr	r3, [sp, #28]
10002b7e:	f001 f8f7 	bl	10003d70 <__wrap___aeabi_dcmpgt>
10002b82:	2800      	cmp	r0, #0
10002b84:	d030      	beq.n	10002be8 <_etoa+0x244>
10002b86:	2301      	movs	r3, #1
10002b88:	425b      	negs	r3, r3
10002b8a:	469c      	mov	ip, r3
10002b8c:	44e1      	add	r9, ip
10002b8e:	2200      	movs	r2, #0
10002b90:	4b7d      	ldr	r3, [pc, #500]	; (10002d88 <_etoa+0x3e4>)
10002b92:	0030      	movs	r0, r6
10002b94:	0039      	movs	r1, r7
10002b96:	f001 f87c 	bl	10003c92 <__wrap___aeabi_ddiv>
10002b9a:	0004      	movs	r4, r0
10002b9c:	000d      	movs	r5, r1
10002b9e:	e023      	b.n	10002be8 <_etoa+0x244>
10002ba0:	9b1e      	ldr	r3, [sp, #120]	; 0x78
10002ba2:	9304      	str	r3, [sp, #16]
10002ba4:	9b1d      	ldr	r3, [sp, #116]	; 0x74
10002ba6:	9303      	str	r3, [sp, #12]
10002ba8:	9b1c      	ldr	r3, [sp, #112]	; 0x70
10002baa:	9302      	str	r3, [sp, #8]
10002bac:	9a08      	ldr	r2, [sp, #32]
10002bae:	9b09      	ldr	r3, [sp, #36]	; 0x24
10002bb0:	9200      	str	r2, [sp, #0]
10002bb2:	9301      	str	r3, [sp, #4]
10002bb4:	4643      	mov	r3, r8
10002bb6:	9a0c      	ldr	r2, [sp, #48]	; 0x30
10002bb8:	4651      	mov	r1, sl
10002bba:	4658      	mov	r0, fp
10002bbc:	f000 f8fc 	bl	10002db8 <_ftoa>
10002bc0:	b011      	add	sp, #68	; 0x44
10002bc2:	bcf0      	pop	{r4, r5, r6, r7}
10002bc4:	46bb      	mov	fp, r7
10002bc6:	46b2      	mov	sl, r6
10002bc8:	46a9      	mov	r9, r5
10002bca:	46a0      	mov	r8, r4
10002bcc:	bdf0      	pop	{r4, r5, r6, r7, pc}
10002bce:	2300      	movs	r3, #0
10002bd0:	2400      	movs	r4, #0
10002bd2:	9306      	str	r3, [sp, #24]
10002bd4:	9407      	str	r4, [sp, #28]
10002bd6:	9606      	str	r6, [sp, #24]
10002bd8:	2380      	movs	r3, #128	; 0x80
10002bda:	061b      	lsls	r3, r3, #24
10002bdc:	469c      	mov	ip, r3
10002bde:	4465      	add	r5, ip
10002be0:	9507      	str	r5, [sp, #28]
10002be2:	e71a      	b.n	10002a1a <_etoa+0x76>
10002be4:	2300      	movs	r3, #0
10002be6:	4699      	mov	r9, r3
10002be8:	464b      	mov	r3, r9
10002bea:	3363      	adds	r3, #99	; 0x63
10002bec:	2bc6      	cmp	r3, #198	; 0xc6
10002bee:	d81e      	bhi.n	10002c2e <_etoa+0x28a>
10002bf0:	2604      	movs	r6, #4
10002bf2:	9b1e      	ldr	r3, [sp, #120]	; 0x78
10002bf4:	051b      	lsls	r3, r3, #20
10002bf6:	d526      	bpl.n	10002c46 <_etoa+0x2a2>
10002bf8:	002b      	movs	r3, r5
10002bfa:	4323      	orrs	r3, r4
10002bfc:	d00f      	beq.n	10002c1e <_etoa+0x27a>
10002bfe:	4a64      	ldr	r2, [pc, #400]	; (10002d90 <_etoa+0x3ec>)
10002c00:	4b64      	ldr	r3, [pc, #400]	; (10002d94 <_etoa+0x3f0>)
10002c02:	9806      	ldr	r0, [sp, #24]
10002c04:	9907      	ldr	r1, [sp, #28]
10002c06:	f001 f8ab 	bl	10003d60 <__wrap___aeabi_dcmpge>
10002c0a:	2800      	cmp	r0, #0
10002c0c:	d079      	beq.n	10002d02 <_etoa+0x35e>
10002c0e:	2200      	movs	r2, #0
10002c10:	4b61      	ldr	r3, [pc, #388]	; (10002d98 <_etoa+0x3f4>)
10002c12:	9806      	ldr	r0, [sp, #24]
10002c14:	9907      	ldr	r1, [sp, #28]
10002c16:	f001 f895 	bl	10003d44 <__wrap___aeabi_dcmplt>
10002c1a:	2800      	cmp	r0, #0
10002c1c:	d071      	beq.n	10002d02 <_etoa+0x35e>
10002c1e:	9b1c      	ldr	r3, [sp, #112]	; 0x70
10002c20:	454b      	cmp	r3, r9
10002c22:	dd06      	ble.n	10002c32 <_etoa+0x28e>
10002c24:	464a      	mov	r2, r9
10002c26:	1a98      	subs	r0, r3, r2
10002c28:	1e43      	subs	r3, r0, #1
10002c2a:	931c      	str	r3, [sp, #112]	; 0x70
10002c2c:	e003      	b.n	10002c36 <_etoa+0x292>
10002c2e:	2605      	movs	r6, #5
10002c30:	e7df      	b.n	10002bf2 <_etoa+0x24e>
10002c32:	2300      	movs	r3, #0
10002c34:	931c      	str	r3, [sp, #112]	; 0x70
10002c36:	2380      	movs	r3, #128	; 0x80
10002c38:	00db      	lsls	r3, r3, #3
10002c3a:	9a1e      	ldr	r2, [sp, #120]	; 0x78
10002c3c:	431a      	orrs	r2, r3
10002c3e:	921e      	str	r2, [sp, #120]	; 0x78
10002c40:	2600      	movs	r6, #0
10002c42:	2300      	movs	r3, #0
10002c44:	4699      	mov	r9, r3
10002c46:	9b1d      	ldr	r3, [sp, #116]	; 0x74
10002c48:	429e      	cmp	r6, r3
10002c4a:	d264      	bcs.n	10002d16 <_etoa+0x372>
10002c4c:	1b9f      	subs	r7, r3, r6
10002c4e:	2302      	movs	r3, #2
10002c50:	9a1e      	ldr	r2, [sp, #120]	; 0x78
10002c52:	401a      	ands	r2, r3
10002c54:	920a      	str	r2, [sp, #40]	; 0x28
10002c56:	9a1e      	ldr	r2, [sp, #120]	; 0x78
10002c58:	4213      	tst	r3, r2
10002c5a:	d002      	beq.n	10002c62 <_etoa+0x2be>
10002c5c:	2e00      	cmp	r6, #0
10002c5e:	d000      	beq.n	10002c62 <_etoa+0x2be>
10002c60:	2700      	movs	r7, #0
10002c62:	464b      	mov	r3, r9
10002c64:	2b00      	cmp	r3, #0
10002c66:	d007      	beq.n	10002c78 <_etoa+0x2d4>
10002c68:	0022      	movs	r2, r4
10002c6a:	002b      	movs	r3, r5
10002c6c:	9806      	ldr	r0, [sp, #24]
10002c6e:	9907      	ldr	r1, [sp, #28]
10002c70:	f001 f80f 	bl	10003c92 <__wrap___aeabi_ddiv>
10002c74:	9006      	str	r0, [sp, #24]
10002c76:	9107      	str	r1, [sp, #28]
10002c78:	2200      	movs	r2, #0
10002c7a:	2300      	movs	r3, #0
10002c7c:	9808      	ldr	r0, [sp, #32]
10002c7e:	9909      	ldr	r1, [sp, #36]	; 0x24
10002c80:	f001 f860 	bl	10003d44 <__wrap___aeabi_dcmplt>
10002c84:	2800      	cmp	r0, #0
10002c86:	d148      	bne.n	10002d1a <_etoa+0x376>
10002c88:	4b44      	ldr	r3, [pc, #272]	; (10002d9c <_etoa+0x3f8>)
10002c8a:	9a1e      	ldr	r2, [sp, #120]	; 0x78
10002c8c:	4013      	ands	r3, r2
10002c8e:	9304      	str	r3, [sp, #16]
10002c90:	9703      	str	r7, [sp, #12]
10002c92:	9b1c      	ldr	r3, [sp, #112]	; 0x70
10002c94:	9302      	str	r3, [sp, #8]
10002c96:	9b06      	ldr	r3, [sp, #24]
10002c98:	9c07      	ldr	r4, [sp, #28]
10002c9a:	9300      	str	r3, [sp, #0]
10002c9c:	9401      	str	r4, [sp, #4]
10002c9e:	4643      	mov	r3, r8
10002ca0:	9a0c      	ldr	r2, [sp, #48]	; 0x30
10002ca2:	4651      	mov	r1, sl
10002ca4:	4658      	mov	r0, fp
10002ca6:	f000 f887 	bl	10002db8 <_ftoa>
10002caa:	2e00      	cmp	r6, #0
10002cac:	d100      	bne.n	10002cb0 <_etoa+0x30c>
10002cae:	e787      	b.n	10002bc0 <_etoa+0x21c>
10002cb0:	9b1e      	ldr	r3, [sp, #120]	; 0x78
10002cb2:	069b      	lsls	r3, r3, #26
10002cb4:	d53d      	bpl.n	10002d32 <_etoa+0x38e>
10002cb6:	2545      	movs	r5, #69	; 0x45
10002cb8:	1c44      	adds	r4, r0, #1
10002cba:	4643      	mov	r3, r8
10002cbc:	0002      	movs	r2, r0
10002cbe:	4651      	mov	r1, sl
10002cc0:	0028      	movs	r0, r5
10002cc2:	47d8      	blx	fp
10002cc4:	464b      	mov	r3, r9
10002cc6:	17da      	asrs	r2, r3, #31
10002cc8:	189b      	adds	r3, r3, r2
10002cca:	4053      	eors	r3, r2
10002ccc:	2205      	movs	r2, #5
10002cce:	9205      	str	r2, [sp, #20]
10002cd0:	3e01      	subs	r6, #1
10002cd2:	9604      	str	r6, [sp, #16]
10002cd4:	2200      	movs	r2, #0
10002cd6:	9203      	str	r2, [sp, #12]
10002cd8:	320a      	adds	r2, #10
10002cda:	9202      	str	r2, [sp, #8]
10002cdc:	464a      	mov	r2, r9
10002cde:	0fd0      	lsrs	r0, r2, #31
10002ce0:	9001      	str	r0, [sp, #4]
10002ce2:	9300      	str	r3, [sp, #0]
10002ce4:	4643      	mov	r3, r8
10002ce6:	0022      	movs	r2, r4
10002ce8:	4651      	mov	r1, sl
10002cea:	4658      	mov	r0, fp
10002cec:	f7ff fd8a 	bl	10002804 <_ntoa_long>
10002cf0:	9b0a      	ldr	r3, [sp, #40]	; 0x28
10002cf2:	2b00      	cmp	r3, #0
10002cf4:	d100      	bne.n	10002cf8 <_etoa+0x354>
10002cf6:	e763      	b.n	10002bc0 <_etoa+0x21c>
10002cf8:	0002      	movs	r2, r0
10002cfa:	465f      	mov	r7, fp
10002cfc:	9e0c      	ldr	r6, [sp, #48]	; 0x30
10002cfe:	9d1d      	ldr	r5, [sp, #116]	; 0x74
10002d00:	e054      	b.n	10002dac <_etoa+0x408>
10002d02:	9b1c      	ldr	r3, [sp, #112]	; 0x70
10002d04:	2b00      	cmp	r3, #0
10002d06:	d09e      	beq.n	10002c46 <_etoa+0x2a2>
10002d08:	9b0d      	ldr	r3, [sp, #52]	; 0x34
10002d0a:	2b00      	cmp	r3, #0
10002d0c:	d09b      	beq.n	10002c46 <_etoa+0x2a2>
10002d0e:	9b1c      	ldr	r3, [sp, #112]	; 0x70
10002d10:	3b01      	subs	r3, #1
10002d12:	931c      	str	r3, [sp, #112]	; 0x70
10002d14:	e797      	b.n	10002c46 <_etoa+0x2a2>
10002d16:	2700      	movs	r7, #0
10002d18:	e799      	b.n	10002c4e <_etoa+0x2aa>
10002d1a:	9c06      	ldr	r4, [sp, #24]
10002d1c:	9d07      	ldr	r5, [sp, #28]
10002d1e:	0022      	movs	r2, r4
10002d20:	0029      	movs	r1, r5
10002d22:	2080      	movs	r0, #128	; 0x80
10002d24:	0600      	lsls	r0, r0, #24
10002d26:	4684      	mov	ip, r0
10002d28:	4461      	add	r1, ip
10002d2a:	000b      	movs	r3, r1
10002d2c:	9206      	str	r2, [sp, #24]
10002d2e:	9307      	str	r3, [sp, #28]
10002d30:	e7aa      	b.n	10002c88 <_etoa+0x2e4>
10002d32:	2565      	movs	r5, #101	; 0x65
10002d34:	e7c0      	b.n	10002cb8 <_etoa+0x314>
10002d36:	46c0      	nop			; (mov r8, r8)
10002d38:	7fefffff 	.word	0x7fefffff
10002d3c:	ffefffff 	.word	0xffefffff
10002d40:	fffffc01 	.word	0xfffffc01
10002d44:	3ff00000 	.word	0x3ff00000
10002d48:	509f79fb 	.word	0x509f79fb
10002d4c:	3fd34413 	.word	0x3fd34413
10002d50:	8b60c8b3 	.word	0x8b60c8b3
10002d54:	3fc68a28 	.word	0x3fc68a28
10002d58:	3ff80000 	.word	0x3ff80000
10002d5c:	636f4361 	.word	0x636f4361
10002d60:	3fd287a7 	.word	0x3fd287a7
10002d64:	0979a371 	.word	0x0979a371
10002d68:	400a934f 	.word	0x400a934f
10002d6c:	3fe00000 	.word	0x3fe00000
10002d70:	bbb55516 	.word	0xbbb55516
10002d74:	40026bb1 	.word	0x40026bb1
10002d78:	fefa39ef 	.word	0xfefa39ef
10002d7c:	3fe62e42 	.word	0x3fe62e42
10002d80:	000003ff 	.word	0x000003ff
10002d84:	402c0000 	.word	0x402c0000
10002d88:	40240000 	.word	0x40240000
10002d8c:	40180000 	.word	0x40180000
10002d90:	eb1c432d 	.word	0xeb1c432d
10002d94:	3f1a36e2 	.word	0x3f1a36e2
10002d98:	412e8480 	.word	0x412e8480
10002d9c:	fffff7ff 	.word	0xfffff7ff
10002da0:	1c54      	adds	r4, r2, #1
10002da2:	4643      	mov	r3, r8
10002da4:	4651      	mov	r1, sl
10002da6:	2020      	movs	r0, #32
10002da8:	47b8      	blx	r7
10002daa:	0022      	movs	r2, r4
10002dac:	1b93      	subs	r3, r2, r6
10002dae:	42ab      	cmp	r3, r5
10002db0:	d3f6      	bcc.n	10002da0 <_etoa+0x3fc>
10002db2:	0010      	movs	r0, r2
10002db4:	e704      	b.n	10002bc0 <_etoa+0x21c>
10002db6:	46c0      	nop			; (mov r8, r8)

10002db8 <_ftoa>:
10002db8:	b5f0      	push	{r4, r5, r6, r7, lr}
10002dba:	46de      	mov	lr, fp
10002dbc:	4657      	mov	r7, sl
10002dbe:	464e      	mov	r6, r9
10002dc0:	4645      	mov	r5, r8
10002dc2:	b5e0      	push	{r5, r6, r7, lr}
10002dc4:	b095      	sub	sp, #84	; 0x54
10002dc6:	9006      	str	r0, [sp, #24]
10002dc8:	9107      	str	r1, [sp, #28]
10002dca:	4693      	mov	fp, r2
10002dcc:	4699      	mov	r9, r3
10002dce:	9f20      	ldr	r7, [sp, #128]	; 0x80
10002dd0:	9a1e      	ldr	r2, [sp, #120]	; 0x78
10002dd2:	9b1f      	ldr	r3, [sp, #124]	; 0x7c
10002dd4:	0010      	movs	r0, r2
10002dd6:	0019      	movs	r1, r3
10002dd8:	f000 ffcf 	bl	10003d7a <__wrap___aeabi_dcmpun>
10002ddc:	2800      	cmp	r0, #0
10002dde:	d131      	bne.n	10002e44 <_ftoa+0x8c>
10002de0:	2201      	movs	r2, #1
10002de2:	4252      	negs	r2, r2
10002de4:	4bbf      	ldr	r3, [pc, #764]	; (100030e4 <_ftoa+0x32c>)
10002de6:	981e      	ldr	r0, [sp, #120]	; 0x78
10002de8:	991f      	ldr	r1, [sp, #124]	; 0x7c
10002dea:	f000 ffab 	bl	10003d44 <__wrap___aeabi_dcmplt>
10002dee:	2800      	cmp	r0, #0
10002df0:	d137      	bne.n	10002e62 <_ftoa+0xaa>
10002df2:	2201      	movs	r2, #1
10002df4:	4252      	negs	r2, r2
10002df6:	4bbc      	ldr	r3, [pc, #752]	; (100030e8 <_ftoa+0x330>)
10002df8:	981e      	ldr	r0, [sp, #120]	; 0x78
10002dfa:	991f      	ldr	r1, [sp, #124]	; 0x7c
10002dfc:	f000 ffb8 	bl	10003d70 <__wrap___aeabi_dcmpgt>
10002e00:	2800      	cmp	r0, #0
10002e02:	d13d      	bne.n	10002e80 <_ftoa+0xc8>
10002e04:	2200      	movs	r2, #0
10002e06:	4bb9      	ldr	r3, [pc, #740]	; (100030ec <_ftoa+0x334>)
10002e08:	981e      	ldr	r0, [sp, #120]	; 0x78
10002e0a:	991f      	ldr	r1, [sp, #124]	; 0x7c
10002e0c:	f000 ffb0 	bl	10003d70 <__wrap___aeabi_dcmpgt>
10002e10:	2800      	cmp	r0, #0
10002e12:	d150      	bne.n	10002eb6 <_ftoa+0xfe>
10002e14:	2200      	movs	r2, #0
10002e16:	4bb6      	ldr	r3, [pc, #728]	; (100030f0 <_ftoa+0x338>)
10002e18:	981e      	ldr	r0, [sp, #120]	; 0x78
10002e1a:	991f      	ldr	r1, [sp, #124]	; 0x7c
10002e1c:	f000 ff92 	bl	10003d44 <__wrap___aeabi_dcmplt>
10002e20:	2800      	cmp	r0, #0
10002e22:	d148      	bne.n	10002eb6 <_ftoa+0xfe>
10002e24:	2200      	movs	r2, #0
10002e26:	2300      	movs	r3, #0
10002e28:	981e      	ldr	r0, [sp, #120]	; 0x78
10002e2a:	991f      	ldr	r1, [sp, #124]	; 0x7c
10002e2c:	f000 ff8a 	bl	10003d44 <__wrap___aeabi_dcmplt>
10002e30:	2800      	cmp	r0, #0
10002e32:	d150      	bne.n	10002ed6 <_ftoa+0x11e>
10002e34:	2300      	movs	r3, #0
10002e36:	4698      	mov	r8, r3
10002e38:	9b22      	ldr	r3, [sp, #136]	; 0x88
10002e3a:	055b      	lsls	r3, r3, #21
10002e3c:	d400      	bmi.n	10002e40 <_ftoa+0x88>
10002e3e:	e0b6      	b.n	10002fae <_ftoa+0x1f6>
10002e40:	2400      	movs	r4, #0
10002e42:	e058      	b.n	10002ef6 <_ftoa+0x13e>
10002e44:	9b22      	ldr	r3, [sp, #136]	; 0x88
10002e46:	9303      	str	r3, [sp, #12]
10002e48:	9b21      	ldr	r3, [sp, #132]	; 0x84
10002e4a:	9302      	str	r3, [sp, #8]
10002e4c:	2303      	movs	r3, #3
10002e4e:	9301      	str	r3, [sp, #4]
10002e50:	4ba8      	ldr	r3, [pc, #672]	; (100030f4 <_ftoa+0x33c>)
10002e52:	9300      	str	r3, [sp, #0]
10002e54:	464b      	mov	r3, r9
10002e56:	465a      	mov	r2, fp
10002e58:	9907      	ldr	r1, [sp, #28]
10002e5a:	9806      	ldr	r0, [sp, #24]
10002e5c:	f7ff fbf2 	bl	10002644 <_out_rev>
10002e60:	e10e      	b.n	10003080 <_ftoa+0x2c8>
10002e62:	9b22      	ldr	r3, [sp, #136]	; 0x88
10002e64:	9303      	str	r3, [sp, #12]
10002e66:	9b21      	ldr	r3, [sp, #132]	; 0x84
10002e68:	9302      	str	r3, [sp, #8]
10002e6a:	2304      	movs	r3, #4
10002e6c:	9301      	str	r3, [sp, #4]
10002e6e:	4ba2      	ldr	r3, [pc, #648]	; (100030f8 <_ftoa+0x340>)
10002e70:	9300      	str	r3, [sp, #0]
10002e72:	464b      	mov	r3, r9
10002e74:	465a      	mov	r2, fp
10002e76:	9907      	ldr	r1, [sp, #28]
10002e78:	9806      	ldr	r0, [sp, #24]
10002e7a:	f7ff fbe3 	bl	10002644 <_out_rev>
10002e7e:	e0ff      	b.n	10003080 <_ftoa+0x2c8>
10002e80:	2304      	movs	r3, #4
10002e82:	9a22      	ldr	r2, [sp, #136]	; 0x88
10002e84:	401a      	ands	r2, r3
10002e86:	9922      	ldr	r1, [sp, #136]	; 0x88
10002e88:	420b      	tst	r3, r1
10002e8a:	d010      	beq.n	10002eae <_ftoa+0xf6>
10002e8c:	4b9b      	ldr	r3, [pc, #620]	; (100030fc <_ftoa+0x344>)
10002e8e:	2a00      	cmp	r2, #0
10002e90:	d00f      	beq.n	10002eb2 <_ftoa+0xfa>
10002e92:	2204      	movs	r2, #4
10002e94:	9922      	ldr	r1, [sp, #136]	; 0x88
10002e96:	9103      	str	r1, [sp, #12]
10002e98:	9921      	ldr	r1, [sp, #132]	; 0x84
10002e9a:	9102      	str	r1, [sp, #8]
10002e9c:	9201      	str	r2, [sp, #4]
10002e9e:	9300      	str	r3, [sp, #0]
10002ea0:	464b      	mov	r3, r9
10002ea2:	465a      	mov	r2, fp
10002ea4:	9907      	ldr	r1, [sp, #28]
10002ea6:	9806      	ldr	r0, [sp, #24]
10002ea8:	f7ff fbcc 	bl	10002644 <_out_rev>
10002eac:	e0e8      	b.n	10003080 <_ftoa+0x2c8>
10002eae:	4b94      	ldr	r3, [pc, #592]	; (10003100 <_ftoa+0x348>)
10002eb0:	e7ed      	b.n	10002e8e <_ftoa+0xd6>
10002eb2:	2203      	movs	r2, #3
10002eb4:	e7ee      	b.n	10002e94 <_ftoa+0xdc>
10002eb6:	9b22      	ldr	r3, [sp, #136]	; 0x88
10002eb8:	9304      	str	r3, [sp, #16]
10002eba:	9b21      	ldr	r3, [sp, #132]	; 0x84
10002ebc:	9303      	str	r3, [sp, #12]
10002ebe:	9702      	str	r7, [sp, #8]
10002ec0:	9b1e      	ldr	r3, [sp, #120]	; 0x78
10002ec2:	9c1f      	ldr	r4, [sp, #124]	; 0x7c
10002ec4:	9300      	str	r3, [sp, #0]
10002ec6:	9401      	str	r4, [sp, #4]
10002ec8:	464b      	mov	r3, r9
10002eca:	465a      	mov	r2, fp
10002ecc:	9907      	ldr	r1, [sp, #28]
10002ece:	9806      	ldr	r0, [sp, #24]
10002ed0:	f7ff fd68 	bl	100029a4 <_etoa>
10002ed4:	e0d4      	b.n	10003080 <_ftoa+0x2c8>
10002ed6:	9a1e      	ldr	r2, [sp, #120]	; 0x78
10002ed8:	9b1f      	ldr	r3, [sp, #124]	; 0x7c
10002eda:	2000      	movs	r0, #0
10002edc:	2100      	movs	r1, #0
10002ede:	f000 fece 	bl	10003c7e <__wrap___aeabi_dsub>
10002ee2:	901e      	str	r0, [sp, #120]	; 0x78
10002ee4:	911f      	str	r1, [sp, #124]	; 0x7c
10002ee6:	2301      	movs	r3, #1
10002ee8:	4698      	mov	r8, r3
10002eea:	e7a5      	b.n	10002e38 <_ftoa+0x80>
10002eec:	ab0c      	add	r3, sp, #48	; 0x30
10002eee:	2230      	movs	r2, #48	; 0x30
10002ef0:	551a      	strb	r2, [r3, r4]
10002ef2:	3f01      	subs	r7, #1
10002ef4:	3401      	adds	r4, #1
10002ef6:	2c1f      	cmp	r4, #31
10002ef8:	d801      	bhi.n	10002efe <_ftoa+0x146>
10002efa:	2f09      	cmp	r7, #9
10002efc:	d8f6      	bhi.n	10002eec <_ftoa+0x134>
10002efe:	981e      	ldr	r0, [sp, #120]	; 0x78
10002f00:	991f      	ldr	r1, [sp, #124]	; 0x7c
10002f02:	f000 ff65 	bl	10003dd0 <__wrap___aeabi_d2iz>
10002f06:	0005      	movs	r5, r0
10002f08:	f000 ff4a 	bl	10003da0 <__wrap___aeabi_i2d>
10002f0c:	0002      	movs	r2, r0
10002f0e:	000b      	movs	r3, r1
10002f10:	981e      	ldr	r0, [sp, #120]	; 0x78
10002f12:	991f      	ldr	r1, [sp, #124]	; 0x7c
10002f14:	f000 feb3 	bl	10003c7e <__wrap___aeabi_dsub>
10002f18:	00fa      	lsls	r2, r7, #3
10002f1a:	4b7a      	ldr	r3, [pc, #488]	; (10003104 <_ftoa+0x34c>)
10002f1c:	189b      	adds	r3, r3, r2
10002f1e:	681a      	ldr	r2, [r3, #0]
10002f20:	685b      	ldr	r3, [r3, #4]
10002f22:	920a      	str	r2, [sp, #40]	; 0x28
10002f24:	930b      	str	r3, [sp, #44]	; 0x2c
10002f26:	f000 fece 	bl	10003cc6 <__wrap___aeabi_dmul>
10002f2a:	9008      	str	r0, [sp, #32]
10002f2c:	9109      	str	r1, [sp, #36]	; 0x24
10002f2e:	f000 ff73 	bl	10003e18 <__wrap___aeabi_d2uiz>
10002f32:	0006      	movs	r6, r0
10002f34:	f000 ff30 	bl	10003d98 <__wrap___aeabi_ui2d>
10002f38:	0002      	movs	r2, r0
10002f3a:	000b      	movs	r3, r1
10002f3c:	9808      	ldr	r0, [sp, #32]
10002f3e:	9909      	ldr	r1, [sp, #36]	; 0x24
10002f40:	f000 fe9d 	bl	10003c7e <__wrap___aeabi_dsub>
10002f44:	9008      	str	r0, [sp, #32]
10002f46:	9109      	str	r1, [sp, #36]	; 0x24
10002f48:	2200      	movs	r2, #0
10002f4a:	4b6f      	ldr	r3, [pc, #444]	; (10003108 <_ftoa+0x350>)
10002f4c:	f000 ff10 	bl	10003d70 <__wrap___aeabi_dcmpgt>
10002f50:	2800      	cmp	r0, #0
10002f52:	d02e      	beq.n	10002fb2 <_ftoa+0x1fa>
10002f54:	3601      	adds	r6, #1
10002f56:	0030      	movs	r0, r6
10002f58:	f000 ff1e 	bl	10003d98 <__wrap___aeabi_ui2d>
10002f5c:	0002      	movs	r2, r0
10002f5e:	000b      	movs	r3, r1
10002f60:	980a      	ldr	r0, [sp, #40]	; 0x28
10002f62:	990b      	ldr	r1, [sp, #44]	; 0x2c
10002f64:	f000 fef4 	bl	10003d50 <__wrap___aeabi_dcmple>
10002f68:	2800      	cmp	r0, #0
10002f6a:	d001      	beq.n	10002f70 <_ftoa+0x1b8>
10002f6c:	3501      	adds	r5, #1
10002f6e:	2600      	movs	r6, #0
10002f70:	2f00      	cmp	r7, #0
10002f72:	d12c      	bne.n	10002fce <_ftoa+0x216>
10002f74:	0028      	movs	r0, r5
10002f76:	f000 ff13 	bl	10003da0 <__wrap___aeabi_i2d>
10002f7a:	0002      	movs	r2, r0
10002f7c:	000b      	movs	r3, r1
10002f7e:	981e      	ldr	r0, [sp, #120]	; 0x78
10002f80:	991f      	ldr	r1, [sp, #124]	; 0x7c
10002f82:	f000 fe7c 	bl	10003c7e <__wrap___aeabi_dsub>
10002f86:	0006      	movs	r6, r0
10002f88:	000f      	movs	r7, r1
10002f8a:	2200      	movs	r2, #0
10002f8c:	4b5e      	ldr	r3, [pc, #376]	; (10003108 <_ftoa+0x350>)
10002f8e:	f000 fed9 	bl	10003d44 <__wrap___aeabi_dcmplt>
10002f92:	2800      	cmp	r0, #0
10002f94:	d146      	bne.n	10003024 <_ftoa+0x26c>
10002f96:	2200      	movs	r2, #0
10002f98:	4b5b      	ldr	r3, [pc, #364]	; (10003108 <_ftoa+0x350>)
10002f9a:	0030      	movs	r0, r6
10002f9c:	0039      	movs	r1, r7
10002f9e:	f000 fee7 	bl	10003d70 <__wrap___aeabi_dcmpgt>
10002fa2:	2800      	cmp	r0, #0
10002fa4:	d13e      	bne.n	10003024 <_ftoa+0x26c>
10002fa6:	07eb      	lsls	r3, r5, #31
10002fa8:	d53c      	bpl.n	10003024 <_ftoa+0x26c>
10002faa:	3501      	adds	r5, #1
10002fac:	e03a      	b.n	10003024 <_ftoa+0x26c>
10002fae:	2706      	movs	r7, #6
10002fb0:	e746      	b.n	10002e40 <_ftoa+0x88>
10002fb2:	2200      	movs	r2, #0
10002fb4:	4b54      	ldr	r3, [pc, #336]	; (10003108 <_ftoa+0x350>)
10002fb6:	9808      	ldr	r0, [sp, #32]
10002fb8:	9909      	ldr	r1, [sp, #36]	; 0x24
10002fba:	f000 fec3 	bl	10003d44 <__wrap___aeabi_dcmplt>
10002fbe:	2800      	cmp	r0, #0
10002fc0:	d1d6      	bne.n	10002f70 <_ftoa+0x1b8>
10002fc2:	2e00      	cmp	r6, #0
10002fc4:	d001      	beq.n	10002fca <_ftoa+0x212>
10002fc6:	07f3      	lsls	r3, r6, #31
10002fc8:	d5d2      	bpl.n	10002f70 <_ftoa+0x1b8>
10002fca:	3601      	adds	r6, #1
10002fcc:	e7d0      	b.n	10002f70 <_ftoa+0x1b8>
10002fce:	46aa      	mov	sl, r5
10002fd0:	2c1f      	cmp	r4, #31
10002fd2:	d811      	bhi.n	10002ff8 <_ftoa+0x240>
10002fd4:	3f01      	subs	r7, #1
10002fd6:	210a      	movs	r1, #10
10002fd8:	0030      	movs	r0, r6
10002fda:	f000 fc15 	bl	10003808 <__wrap___aeabi_uidiv>
10002fde:	1c65      	adds	r5, r4, #1
10002fe0:	3130      	adds	r1, #48	; 0x30
10002fe2:	ab0c      	add	r3, sp, #48	; 0x30
10002fe4:	5519      	strb	r1, [r3, r4]
10002fe6:	210a      	movs	r1, #10
10002fe8:	0030      	movs	r0, r6
10002fea:	f000 fc0d 	bl	10003808 <__wrap___aeabi_uidiv>
10002fee:	2e09      	cmp	r6, #9
10002ff0:	d90e      	bls.n	10003010 <_ftoa+0x258>
10002ff2:	0006      	movs	r6, r0
10002ff4:	002c      	movs	r4, r5
10002ff6:	e7eb      	b.n	10002fd0 <_ftoa+0x218>
10002ff8:	4655      	mov	r5, sl
10002ffa:	2c1f      	cmp	r4, #31
10002ffc:	d80c      	bhi.n	10003018 <_ftoa+0x260>
10002ffe:	1e7b      	subs	r3, r7, #1
10003000:	2f00      	cmp	r7, #0
10003002:	d009      	beq.n	10003018 <_ftoa+0x260>
10003004:	aa0c      	add	r2, sp, #48	; 0x30
10003006:	2130      	movs	r1, #48	; 0x30
10003008:	5511      	strb	r1, [r2, r4]
1000300a:	001f      	movs	r7, r3
1000300c:	3401      	adds	r4, #1
1000300e:	e7f4      	b.n	10002ffa <_ftoa+0x242>
10003010:	002b      	movs	r3, r5
10003012:	4655      	mov	r5, sl
10003014:	001c      	movs	r4, r3
10003016:	e7f0      	b.n	10002ffa <_ftoa+0x242>
10003018:	2c1f      	cmp	r4, #31
1000301a:	d803      	bhi.n	10003024 <_ftoa+0x26c>
1000301c:	ab0c      	add	r3, sp, #48	; 0x30
1000301e:	222e      	movs	r2, #46	; 0x2e
10003020:	551a      	strb	r2, [r3, r4]
10003022:	3401      	adds	r4, #1
10003024:	2c1f      	cmp	r4, #31
10003026:	d810      	bhi.n	1000304a <_ftoa+0x292>
10003028:	210a      	movs	r1, #10
1000302a:	0028      	movs	r0, r5
1000302c:	f000 fbc4 	bl	100037b8 <__wrap___aeabi_idiv>
10003030:	1c66      	adds	r6, r4, #1
10003032:	3130      	adds	r1, #48	; 0x30
10003034:	ab0c      	add	r3, sp, #48	; 0x30
10003036:	5519      	strb	r1, [r3, r4]
10003038:	210a      	movs	r1, #10
1000303a:	0028      	movs	r0, r5
1000303c:	f000 fbbc 	bl	100037b8 <__wrap___aeabi_idiv>
10003040:	1e05      	subs	r5, r0, #0
10003042:	d001      	beq.n	10003048 <_ftoa+0x290>
10003044:	0034      	movs	r4, r6
10003046:	e7ed      	b.n	10003024 <_ftoa+0x26c>
10003048:	0034      	movs	r4, r6
1000304a:	2303      	movs	r3, #3
1000304c:	9a22      	ldr	r2, [sp, #136]	; 0x88
1000304e:	4013      	ands	r3, r2
10003050:	2b01      	cmp	r3, #1
10003052:	d01c      	beq.n	1000308e <_ftoa+0x2d6>
10003054:	2c1f      	cmp	r4, #31
10003056:	d806      	bhi.n	10003066 <_ftoa+0x2ae>
10003058:	4643      	mov	r3, r8
1000305a:	2b00      	cmp	r3, #0
1000305c:	d032      	beq.n	100030c4 <_ftoa+0x30c>
1000305e:	ab0c      	add	r3, sp, #48	; 0x30
10003060:	222d      	movs	r2, #45	; 0x2d
10003062:	551a      	strb	r2, [r3, r4]
10003064:	3401      	adds	r4, #1
10003066:	9b22      	ldr	r3, [sp, #136]	; 0x88
10003068:	9303      	str	r3, [sp, #12]
1000306a:	9b21      	ldr	r3, [sp, #132]	; 0x84
1000306c:	9302      	str	r3, [sp, #8]
1000306e:	9401      	str	r4, [sp, #4]
10003070:	ab0c      	add	r3, sp, #48	; 0x30
10003072:	9300      	str	r3, [sp, #0]
10003074:	464b      	mov	r3, r9
10003076:	465a      	mov	r2, fp
10003078:	9907      	ldr	r1, [sp, #28]
1000307a:	9806      	ldr	r0, [sp, #24]
1000307c:	f7ff fae2 	bl	10002644 <_out_rev>
10003080:	b015      	add	sp, #84	; 0x54
10003082:	bcf0      	pop	{r4, r5, r6, r7}
10003084:	46bb      	mov	fp, r7
10003086:	46b2      	mov	sl, r6
10003088:	46a9      	mov	r9, r5
1000308a:	46a0      	mov	r8, r4
1000308c:	bdf0      	pop	{r4, r5, r6, r7, pc}
1000308e:	9b21      	ldr	r3, [sp, #132]	; 0x84
10003090:	2b00      	cmp	r3, #0
10003092:	d013      	beq.n	100030bc <_ftoa+0x304>
10003094:	4643      	mov	r3, r8
10003096:	2b00      	cmp	r3, #0
10003098:	d102      	bne.n	100030a0 <_ftoa+0x2e8>
1000309a:	330c      	adds	r3, #12
1000309c:	4213      	tst	r3, r2
1000309e:	d00f      	beq.n	100030c0 <_ftoa+0x308>
100030a0:	9b21      	ldr	r3, [sp, #132]	; 0x84
100030a2:	3b01      	subs	r3, #1
100030a4:	9321      	str	r3, [sp, #132]	; 0x84
100030a6:	0019      	movs	r1, r3
100030a8:	e003      	b.n	100030b2 <_ftoa+0x2fa>
100030aa:	ab0c      	add	r3, sp, #48	; 0x30
100030ac:	2230      	movs	r2, #48	; 0x30
100030ae:	551a      	strb	r2, [r3, r4]
100030b0:	3401      	adds	r4, #1
100030b2:	428c      	cmp	r4, r1
100030b4:	d2ce      	bcs.n	10003054 <_ftoa+0x29c>
100030b6:	2c1f      	cmp	r4, #31
100030b8:	d9f7      	bls.n	100030aa <_ftoa+0x2f2>
100030ba:	e7cb      	b.n	10003054 <_ftoa+0x29c>
100030bc:	9921      	ldr	r1, [sp, #132]	; 0x84
100030be:	e7f8      	b.n	100030b2 <_ftoa+0x2fa>
100030c0:	9921      	ldr	r1, [sp, #132]	; 0x84
100030c2:	e7f6      	b.n	100030b2 <_ftoa+0x2fa>
100030c4:	9b22      	ldr	r3, [sp, #136]	; 0x88
100030c6:	075b      	lsls	r3, r3, #29
100030c8:	d504      	bpl.n	100030d4 <_ftoa+0x31c>
100030ca:	ab0c      	add	r3, sp, #48	; 0x30
100030cc:	222b      	movs	r2, #43	; 0x2b
100030ce:	551a      	strb	r2, [r3, r4]
100030d0:	3401      	adds	r4, #1
100030d2:	e7c8      	b.n	10003066 <_ftoa+0x2ae>
100030d4:	9b22      	ldr	r3, [sp, #136]	; 0x88
100030d6:	071b      	lsls	r3, r3, #28
100030d8:	d5c5      	bpl.n	10003066 <_ftoa+0x2ae>
100030da:	ab0c      	add	r3, sp, #48	; 0x30
100030dc:	2220      	movs	r2, #32
100030de:	551a      	strb	r2, [r3, r4]
100030e0:	3401      	adds	r4, #1
100030e2:	e7c0      	b.n	10003066 <_ftoa+0x2ae>
100030e4:	ffefffff 	.word	0xffefffff
100030e8:	7fefffff 	.word	0x7fefffff
100030ec:	41cdcd65 	.word	0x41cdcd65
100030f0:	c1cdcd65 	.word	0xc1cdcd65
100030f4:	100078d8 	.word	0x100078d8
100030f8:	100078dc 	.word	0x100078dc
100030fc:	100078d0 	.word	0x100078d0
10003100:	100078cc 	.word	0x100078cc
10003104:	10007ac8 	.word	0x10007ac8
10003108:	3fe00000 	.word	0x3fe00000

1000310c <_vsnprintf>:
1000310c:	b5f0      	push	{r4, r5, r6, r7, lr}
1000310e:	46de      	mov	lr, fp
10003110:	4657      	mov	r7, sl
10003112:	464e      	mov	r6, r9
10003114:	4645      	mov	r5, r8
10003116:	b5e0      	push	{r5, r6, r7, lr}
10003118:	b093      	sub	sp, #76	; 0x4c
1000311a:	4682      	mov	sl, r0
1000311c:	468b      	mov	fp, r1
1000311e:	4690      	mov	r8, r2
10003120:	9311      	str	r3, [sp, #68]	; 0x44
10003122:	2900      	cmp	r1, #0
10003124:	d100      	bne.n	10003128 <_vsnprintf+0x1c>
10003126:	e2eb      	b.n	10003700 <_vsnprintf+0x5f4>
10003128:	2700      	movs	r7, #0
1000312a:	4655      	mov	r5, sl
1000312c:	9b11      	ldr	r3, [sp, #68]	; 0x44
1000312e:	7818      	ldrb	r0, [r3, #0]
10003130:	2800      	cmp	r0, #0
10003132:	d100      	bne.n	10003136 <_vsnprintf+0x2a>
10003134:	e2e7      	b.n	10003706 <_vsnprintf+0x5fa>
10003136:	2825      	cmp	r0, #37	; 0x25
10003138:	d009      	beq.n	1000314e <_vsnprintf+0x42>
1000313a:	1c7c      	adds	r4, r7, #1
1000313c:	4643      	mov	r3, r8
1000313e:	003a      	movs	r2, r7
10003140:	4659      	mov	r1, fp
10003142:	47a8      	blx	r5
10003144:	9b11      	ldr	r3, [sp, #68]	; 0x44
10003146:	3301      	adds	r3, #1
10003148:	9311      	str	r3, [sp, #68]	; 0x44
1000314a:	0027      	movs	r7, r4
1000314c:	e7ee      	b.n	1000312c <_vsnprintf+0x20>
1000314e:	3301      	adds	r3, #1
10003150:	9311      	str	r3, [sp, #68]	; 0x44
10003152:	2400      	movs	r4, #0
10003154:	9a11      	ldr	r2, [sp, #68]	; 0x44
10003156:	7811      	ldrb	r1, [r2, #0]
10003158:	000b      	movs	r3, r1
1000315a:	3b20      	subs	r3, #32
1000315c:	b2d8      	uxtb	r0, r3
1000315e:	2810      	cmp	r0, #16
10003160:	d803      	bhi.n	1000316a <_vsnprintf+0x5e>
10003162:	0083      	lsls	r3, r0, #2
10003164:	48d0      	ldr	r0, [pc, #832]	; (100034a8 <_vsnprintf+0x39c>)
10003166:	58c3      	ldr	r3, [r0, r3]
10003168:	469f      	mov	pc, r3
1000316a:	000b      	movs	r3, r1
1000316c:	3b30      	subs	r3, #48	; 0x30
1000316e:	b2db      	uxtb	r3, r3
10003170:	2b09      	cmp	r3, #9
10003172:	d92c      	bls.n	100031ce <_vsnprintf+0xc2>
10003174:	292a      	cmp	r1, #42	; 0x2a
10003176:	d02f      	beq.n	100031d8 <_vsnprintf+0xcc>
10003178:	2300      	movs	r3, #0
1000317a:	930a      	str	r3, [sp, #40]	; 0x28
1000317c:	9b11      	ldr	r3, [sp, #68]	; 0x44
1000317e:	781a      	ldrb	r2, [r3, #0]
10003180:	2a2e      	cmp	r2, #46	; 0x2e
10003182:	d039      	beq.n	100031f8 <_vsnprintf+0xec>
10003184:	2300      	movs	r3, #0
10003186:	469a      	mov	sl, r3
10003188:	9a11      	ldr	r2, [sp, #68]	; 0x44
1000318a:	7813      	ldrb	r3, [r2, #0]
1000318c:	3b68      	subs	r3, #104	; 0x68
1000318e:	b2d9      	uxtb	r1, r3
10003190:	2912      	cmp	r1, #18
10003192:	d876      	bhi.n	10003282 <_vsnprintf+0x176>
10003194:	008b      	lsls	r3, r1, #2
10003196:	49c5      	ldr	r1, [pc, #788]	; (100034ac <_vsnprintf+0x3a0>)
10003198:	58cb      	ldr	r3, [r1, r3]
1000319a:	469f      	mov	pc, r3
1000319c:	2301      	movs	r3, #1
1000319e:	431c      	orrs	r4, r3
100031a0:	3201      	adds	r2, #1
100031a2:	9211      	str	r2, [sp, #68]	; 0x44
100031a4:	e7d6      	b.n	10003154 <_vsnprintf+0x48>
100031a6:	2302      	movs	r3, #2
100031a8:	431c      	orrs	r4, r3
100031aa:	3201      	adds	r2, #1
100031ac:	9211      	str	r2, [sp, #68]	; 0x44
100031ae:	e7d1      	b.n	10003154 <_vsnprintf+0x48>
100031b0:	2304      	movs	r3, #4
100031b2:	431c      	orrs	r4, r3
100031b4:	3201      	adds	r2, #1
100031b6:	9211      	str	r2, [sp, #68]	; 0x44
100031b8:	e7cc      	b.n	10003154 <_vsnprintf+0x48>
100031ba:	2308      	movs	r3, #8
100031bc:	431c      	orrs	r4, r3
100031be:	3201      	adds	r2, #1
100031c0:	9211      	str	r2, [sp, #68]	; 0x44
100031c2:	e7c7      	b.n	10003154 <_vsnprintf+0x48>
100031c4:	2310      	movs	r3, #16
100031c6:	431c      	orrs	r4, r3
100031c8:	3201      	adds	r2, #1
100031ca:	9211      	str	r2, [sp, #68]	; 0x44
100031cc:	e7c2      	b.n	10003154 <_vsnprintf+0x48>
100031ce:	a811      	add	r0, sp, #68	; 0x44
100031d0:	f7ff fa26 	bl	10002620 <_atoi>
100031d4:	900a      	str	r0, [sp, #40]	; 0x28
100031d6:	e7d1      	b.n	1000317c <_vsnprintf+0x70>
100031d8:	9b1c      	ldr	r3, [sp, #112]	; 0x70
100031da:	1d1a      	adds	r2, r3, #4
100031dc:	921c      	str	r2, [sp, #112]	; 0x70
100031de:	6818      	ldr	r0, [r3, #0]
100031e0:	2800      	cmp	r0, #0
100031e2:	db04      	blt.n	100031ee <_vsnprintf+0xe2>
100031e4:	900a      	str	r0, [sp, #40]	; 0x28
100031e6:	9b11      	ldr	r3, [sp, #68]	; 0x44
100031e8:	3301      	adds	r3, #1
100031ea:	9311      	str	r3, [sp, #68]	; 0x44
100031ec:	e7c6      	b.n	1000317c <_vsnprintf+0x70>
100031ee:	2302      	movs	r3, #2
100031f0:	431c      	orrs	r4, r3
100031f2:	4243      	negs	r3, r0
100031f4:	930a      	str	r3, [sp, #40]	; 0x28
100031f6:	e7f6      	b.n	100031e6 <_vsnprintf+0xda>
100031f8:	2280      	movs	r2, #128	; 0x80
100031fa:	00d2      	lsls	r2, r2, #3
100031fc:	4314      	orrs	r4, r2
100031fe:	1c5a      	adds	r2, r3, #1
10003200:	9211      	str	r2, [sp, #68]	; 0x44
10003202:	785a      	ldrb	r2, [r3, #1]
10003204:	0013      	movs	r3, r2
10003206:	3b30      	subs	r3, #48	; 0x30
10003208:	b2db      	uxtb	r3, r3
1000320a:	2b09      	cmp	r3, #9
1000320c:	d904      	bls.n	10003218 <_vsnprintf+0x10c>
1000320e:	2a2a      	cmp	r2, #42	; 0x2a
10003210:	d007      	beq.n	10003222 <_vsnprintf+0x116>
10003212:	2300      	movs	r3, #0
10003214:	469a      	mov	sl, r3
10003216:	e7b7      	b.n	10003188 <_vsnprintf+0x7c>
10003218:	a811      	add	r0, sp, #68	; 0x44
1000321a:	f7ff fa01 	bl	10002620 <_atoi>
1000321e:	4682      	mov	sl, r0
10003220:	e7b2      	b.n	10003188 <_vsnprintf+0x7c>
10003222:	9b1c      	ldr	r3, [sp, #112]	; 0x70
10003224:	1d1a      	adds	r2, r3, #4
10003226:	921c      	str	r2, [sp, #112]	; 0x70
10003228:	6818      	ldr	r0, [r3, #0]
1000322a:	2800      	cmp	r0, #0
1000322c:	db04      	blt.n	10003238 <_vsnprintf+0x12c>
1000322e:	4682      	mov	sl, r0
10003230:	9b11      	ldr	r3, [sp, #68]	; 0x44
10003232:	3301      	adds	r3, #1
10003234:	9311      	str	r3, [sp, #68]	; 0x44
10003236:	e7a7      	b.n	10003188 <_vsnprintf+0x7c>
10003238:	2000      	movs	r0, #0
1000323a:	e7f8      	b.n	1000322e <_vsnprintf+0x122>
1000323c:	2380      	movs	r3, #128	; 0x80
1000323e:	005b      	lsls	r3, r3, #1
10003240:	4323      	orrs	r3, r4
10003242:	1c51      	adds	r1, r2, #1
10003244:	9111      	str	r1, [sp, #68]	; 0x44
10003246:	7852      	ldrb	r2, [r2, #1]
10003248:	2a6c      	cmp	r2, #108	; 0x6c
1000324a:	d001      	beq.n	10003250 <_vsnprintf+0x144>
1000324c:	001c      	movs	r4, r3
1000324e:	e018      	b.n	10003282 <_vsnprintf+0x176>
10003250:	23c0      	movs	r3, #192	; 0xc0
10003252:	009b      	lsls	r3, r3, #2
10003254:	431c      	orrs	r4, r3
10003256:	3101      	adds	r1, #1
10003258:	9111      	str	r1, [sp, #68]	; 0x44
1000325a:	e012      	b.n	10003282 <_vsnprintf+0x176>
1000325c:	2380      	movs	r3, #128	; 0x80
1000325e:	4323      	orrs	r3, r4
10003260:	1c51      	adds	r1, r2, #1
10003262:	9111      	str	r1, [sp, #68]	; 0x44
10003264:	7852      	ldrb	r2, [r2, #1]
10003266:	2a68      	cmp	r2, #104	; 0x68
10003268:	d001      	beq.n	1000326e <_vsnprintf+0x162>
1000326a:	001c      	movs	r4, r3
1000326c:	e009      	b.n	10003282 <_vsnprintf+0x176>
1000326e:	23c0      	movs	r3, #192	; 0xc0
10003270:	431c      	orrs	r4, r3
10003272:	3101      	adds	r1, #1
10003274:	9111      	str	r1, [sp, #68]	; 0x44
10003276:	e004      	b.n	10003282 <_vsnprintf+0x176>
10003278:	2380      	movs	r3, #128	; 0x80
1000327a:	005b      	lsls	r3, r3, #1
1000327c:	431c      	orrs	r4, r3
1000327e:	3201      	adds	r2, #1
10003280:	9211      	str	r2, [sp, #68]	; 0x44
10003282:	9b11      	ldr	r3, [sp, #68]	; 0x44
10003284:	7818      	ldrb	r0, [r3, #0]
10003286:	0003      	movs	r3, r0
10003288:	3b25      	subs	r3, #37	; 0x25
1000328a:	b2da      	uxtb	r2, r3
1000328c:	2a53      	cmp	r2, #83	; 0x53
1000328e:	d900      	bls.n	10003292 <_vsnprintf+0x186>
10003290:	e22c      	b.n	100036ec <_vsnprintf+0x5e0>
10003292:	0093      	lsls	r3, r2, #2
10003294:	4a86      	ldr	r2, [pc, #536]	; (100034b0 <_vsnprintf+0x3a4>)
10003296:	58d3      	ldr	r3, [r2, r3]
10003298:	469f      	mov	pc, r3
1000329a:	2380      	movs	r3, #128	; 0x80
1000329c:	009b      	lsls	r3, r3, #2
1000329e:	431c      	orrs	r4, r3
100032a0:	3201      	adds	r2, #1
100032a2:	9211      	str	r2, [sp, #68]	; 0x44
100032a4:	e7ed      	b.n	10003282 <_vsnprintf+0x176>
100032a6:	2380      	movs	r3, #128	; 0x80
100032a8:	005b      	lsls	r3, r3, #1
100032aa:	431c      	orrs	r4, r3
100032ac:	3201      	adds	r2, #1
100032ae:	9211      	str	r2, [sp, #68]	; 0x44
100032b0:	e7e7      	b.n	10003282 <_vsnprintf+0x176>
100032b2:	2878      	cmp	r0, #120	; 0x78
100032b4:	d009      	beq.n	100032ca <_vsnprintf+0x1be>
100032b6:	2858      	cmp	r0, #88	; 0x58
100032b8:	d038      	beq.n	1000332c <_vsnprintf+0x220>
100032ba:	286f      	cmp	r0, #111	; 0x6f
100032bc:	d038      	beq.n	10003330 <_vsnprintf+0x224>
100032be:	2862      	cmp	r0, #98	; 0x62
100032c0:	d038      	beq.n	10003334 <_vsnprintf+0x228>
100032c2:	2310      	movs	r3, #16
100032c4:	439c      	bics	r4, r3
100032c6:	260a      	movs	r6, #10
100032c8:	e000      	b.n	100032cc <_vsnprintf+0x1c0>
100032ca:	2610      	movs	r6, #16
100032cc:	2858      	cmp	r0, #88	; 0x58
100032ce:	d033      	beq.n	10003338 <_vsnprintf+0x22c>
100032d0:	2869      	cmp	r0, #105	; 0x69
100032d2:	d003      	beq.n	100032dc <_vsnprintf+0x1d0>
100032d4:	2864      	cmp	r0, #100	; 0x64
100032d6:	d001      	beq.n	100032dc <_vsnprintf+0x1d0>
100032d8:	220c      	movs	r2, #12
100032da:	4394      	bics	r4, r2
100032dc:	0563      	lsls	r3, r4, #21
100032de:	d501      	bpl.n	100032e4 <_vsnprintf+0x1d8>
100032e0:	2201      	movs	r2, #1
100032e2:	4394      	bics	r4, r2
100032e4:	2869      	cmp	r0, #105	; 0x69
100032e6:	d02a      	beq.n	1000333e <_vsnprintf+0x232>
100032e8:	2864      	cmp	r0, #100	; 0x64
100032ea:	d028      	beq.n	1000333e <_vsnprintf+0x232>
100032ec:	05a3      	lsls	r3, r4, #22
100032ee:	d500      	bpl.n	100032f2 <_vsnprintf+0x1e6>
100032f0:	e09f      	b.n	10003432 <_vsnprintf+0x326>
100032f2:	05e3      	lsls	r3, r4, #23
100032f4:	d500      	bpl.n	100032f8 <_vsnprintf+0x1ec>
100032f6:	e0b8      	b.n	1000346a <_vsnprintf+0x35e>
100032f8:	0663      	lsls	r3, r4, #25
100032fa:	d400      	bmi.n	100032fe <_vsnprintf+0x1f2>
100032fc:	e0ca      	b.n	10003494 <_vsnprintf+0x388>
100032fe:	9a1c      	ldr	r2, [sp, #112]	; 0x70
10003300:	1d11      	adds	r1, r2, #4
10003302:	911c      	str	r1, [sp, #112]	; 0x70
10003304:	6811      	ldr	r1, [r2, #0]
10003306:	22ff      	movs	r2, #255	; 0xff
10003308:	400a      	ands	r2, r1
1000330a:	9405      	str	r4, [sp, #20]
1000330c:	9b0a      	ldr	r3, [sp, #40]	; 0x28
1000330e:	9304      	str	r3, [sp, #16]
10003310:	4653      	mov	r3, sl
10003312:	9303      	str	r3, [sp, #12]
10003314:	9602      	str	r6, [sp, #8]
10003316:	2300      	movs	r3, #0
10003318:	9301      	str	r3, [sp, #4]
1000331a:	9200      	str	r2, [sp, #0]
1000331c:	4643      	mov	r3, r8
1000331e:	003a      	movs	r2, r7
10003320:	4659      	mov	r1, fp
10003322:	0028      	movs	r0, r5
10003324:	f7ff fa6e 	bl	10002804 <_ntoa_long>
10003328:	0007      	movs	r7, r0
1000332a:	e027      	b.n	1000337c <_vsnprintf+0x270>
1000332c:	2610      	movs	r6, #16
1000332e:	e7cd      	b.n	100032cc <_vsnprintf+0x1c0>
10003330:	2608      	movs	r6, #8
10003332:	e7cb      	b.n	100032cc <_vsnprintf+0x1c0>
10003334:	2602      	movs	r6, #2
10003336:	e7c9      	b.n	100032cc <_vsnprintf+0x1c0>
10003338:	2220      	movs	r2, #32
1000333a:	4314      	orrs	r4, r2
1000333c:	e7c8      	b.n	100032d0 <_vsnprintf+0x1c4>
1000333e:	05a3      	lsls	r3, r4, #22
10003340:	d420      	bmi.n	10003384 <_vsnprintf+0x278>
10003342:	05e3      	lsls	r3, r4, #23
10003344:	d450      	bmi.n	100033e8 <_vsnprintf+0x2dc>
10003346:	0663      	lsls	r3, r4, #25
10003348:	d566      	bpl.n	10003418 <_vsnprintf+0x30c>
1000334a:	9a1c      	ldr	r2, [sp, #112]	; 0x70
1000334c:	1d11      	adds	r1, r2, #4
1000334e:	911c      	str	r1, [sp, #112]	; 0x70
10003350:	6811      	ldr	r1, [r2, #0]
10003352:	22ff      	movs	r2, #255	; 0xff
10003354:	400a      	ands	r2, r1
10003356:	17d3      	asrs	r3, r2, #31
10003358:	18d1      	adds	r1, r2, r3
1000335a:	4059      	eors	r1, r3
1000335c:	9405      	str	r4, [sp, #20]
1000335e:	9b0a      	ldr	r3, [sp, #40]	; 0x28
10003360:	9304      	str	r3, [sp, #16]
10003362:	4653      	mov	r3, sl
10003364:	9303      	str	r3, [sp, #12]
10003366:	9602      	str	r6, [sp, #8]
10003368:	0fd2      	lsrs	r2, r2, #31
1000336a:	9201      	str	r2, [sp, #4]
1000336c:	9100      	str	r1, [sp, #0]
1000336e:	4643      	mov	r3, r8
10003370:	003a      	movs	r2, r7
10003372:	4659      	mov	r1, fp
10003374:	0028      	movs	r0, r5
10003376:	f7ff fa45 	bl	10002804 <_ntoa_long>
1000337a:	0007      	movs	r7, r0
1000337c:	9b11      	ldr	r3, [sp, #68]	; 0x44
1000337e:	3301      	adds	r3, #1
10003380:	9311      	str	r3, [sp, #68]	; 0x44
10003382:	e6d3      	b.n	1000312c <_vsnprintf+0x20>
10003384:	9b1c      	ldr	r3, [sp, #112]	; 0x70
10003386:	1dda      	adds	r2, r3, #7
10003388:	2107      	movs	r1, #7
1000338a:	438a      	bics	r2, r1
1000338c:	0011      	movs	r1, r2
1000338e:	3108      	adds	r1, #8
10003390:	911c      	str	r1, [sp, #112]	; 0x70
10003392:	6811      	ldr	r1, [r2, #0]
10003394:	6853      	ldr	r3, [r2, #4]
10003396:	469c      	mov	ip, r3
10003398:	17db      	asrs	r3, r3, #31
1000339a:	930c      	str	r3, [sp, #48]	; 0x30
1000339c:	930d      	str	r3, [sp, #52]	; 0x34
1000339e:	9a0c      	ldr	r2, [sp, #48]	; 0x30
100033a0:	9b0d      	ldr	r3, [sp, #52]	; 0x34
100033a2:	0010      	movs	r0, r2
100033a4:	4048      	eors	r0, r1
100033a6:	900e      	str	r0, [sp, #56]	; 0x38
100033a8:	4662      	mov	r2, ip
100033aa:	4053      	eors	r3, r2
100033ac:	930f      	str	r3, [sp, #60]	; 0x3c
100033ae:	980e      	ldr	r0, [sp, #56]	; 0x38
100033b0:	990f      	ldr	r1, [sp, #60]	; 0x3c
100033b2:	9a0c      	ldr	r2, [sp, #48]	; 0x30
100033b4:	9b0d      	ldr	r3, [sp, #52]	; 0x34
100033b6:	1a80      	subs	r0, r0, r2
100033b8:	4199      	sbcs	r1, r3
100033ba:	900e      	str	r0, [sp, #56]	; 0x38
100033bc:	910f      	str	r1, [sp, #60]	; 0x3c
100033be:	9408      	str	r4, [sp, #32]
100033c0:	9b0a      	ldr	r3, [sp, #40]	; 0x28
100033c2:	9307      	str	r3, [sp, #28]
100033c4:	4653      	mov	r3, sl
100033c6:	9306      	str	r3, [sp, #24]
100033c8:	9604      	str	r6, [sp, #16]
100033ca:	2300      	movs	r3, #0
100033cc:	9305      	str	r3, [sp, #20]
100033ce:	4663      	mov	r3, ip
100033d0:	0fda      	lsrs	r2, r3, #31
100033d2:	9202      	str	r2, [sp, #8]
100033d4:	9000      	str	r0, [sp, #0]
100033d6:	9101      	str	r1, [sp, #4]
100033d8:	4643      	mov	r3, r8
100033da:	003a      	movs	r2, r7
100033dc:	4659      	mov	r1, fp
100033de:	0028      	movs	r0, r5
100033e0:	f7ff fa6e 	bl	100028c0 <_ntoa_long_long>
100033e4:	0007      	movs	r7, r0
100033e6:	e7c9      	b.n	1000337c <_vsnprintf+0x270>
100033e8:	9a1c      	ldr	r2, [sp, #112]	; 0x70
100033ea:	1d11      	adds	r1, r2, #4
100033ec:	911c      	str	r1, [sp, #112]	; 0x70
100033ee:	6812      	ldr	r2, [r2, #0]
100033f0:	17d3      	asrs	r3, r2, #31
100033f2:	18d1      	adds	r1, r2, r3
100033f4:	4059      	eors	r1, r3
100033f6:	9405      	str	r4, [sp, #20]
100033f8:	9b0a      	ldr	r3, [sp, #40]	; 0x28
100033fa:	9304      	str	r3, [sp, #16]
100033fc:	4653      	mov	r3, sl
100033fe:	9303      	str	r3, [sp, #12]
10003400:	9602      	str	r6, [sp, #8]
10003402:	0fd2      	lsrs	r2, r2, #31
10003404:	9201      	str	r2, [sp, #4]
10003406:	9100      	str	r1, [sp, #0]
10003408:	4643      	mov	r3, r8
1000340a:	003a      	movs	r2, r7
1000340c:	4659      	mov	r1, fp
1000340e:	0028      	movs	r0, r5
10003410:	f7ff f9f8 	bl	10002804 <_ntoa_long>
10003414:	0007      	movs	r7, r0
10003416:	e7b1      	b.n	1000337c <_vsnprintf+0x270>
10003418:	0623      	lsls	r3, r4, #24
1000341a:	d505      	bpl.n	10003428 <_vsnprintf+0x31c>
1000341c:	9a1c      	ldr	r2, [sp, #112]	; 0x70
1000341e:	1d11      	adds	r1, r2, #4
10003420:	911c      	str	r1, [sp, #112]	; 0x70
10003422:	2300      	movs	r3, #0
10003424:	5ed2      	ldrsh	r2, [r2, r3]
10003426:	e796      	b.n	10003356 <_vsnprintf+0x24a>
10003428:	9a1c      	ldr	r2, [sp, #112]	; 0x70
1000342a:	1d11      	adds	r1, r2, #4
1000342c:	911c      	str	r1, [sp, #112]	; 0x70
1000342e:	6812      	ldr	r2, [r2, #0]
10003430:	e791      	b.n	10003356 <_vsnprintf+0x24a>
10003432:	9b1c      	ldr	r3, [sp, #112]	; 0x70
10003434:	1dda      	adds	r2, r3, #7
10003436:	2107      	movs	r1, #7
10003438:	438a      	bics	r2, r1
1000343a:	0011      	movs	r1, r2
1000343c:	3108      	adds	r1, #8
1000343e:	911c      	str	r1, [sp, #112]	; 0x70
10003440:	9408      	str	r4, [sp, #32]
10003442:	9b0a      	ldr	r3, [sp, #40]	; 0x28
10003444:	9307      	str	r3, [sp, #28]
10003446:	4653      	mov	r3, sl
10003448:	9306      	str	r3, [sp, #24]
1000344a:	9604      	str	r6, [sp, #16]
1000344c:	2300      	movs	r3, #0
1000344e:	9305      	str	r3, [sp, #20]
10003450:	9302      	str	r3, [sp, #8]
10003452:	6813      	ldr	r3, [r2, #0]
10003454:	6854      	ldr	r4, [r2, #4]
10003456:	9300      	str	r3, [sp, #0]
10003458:	9401      	str	r4, [sp, #4]
1000345a:	4643      	mov	r3, r8
1000345c:	003a      	movs	r2, r7
1000345e:	4659      	mov	r1, fp
10003460:	0028      	movs	r0, r5
10003462:	f7ff fa2d 	bl	100028c0 <_ntoa_long_long>
10003466:	0007      	movs	r7, r0
10003468:	e788      	b.n	1000337c <_vsnprintf+0x270>
1000346a:	9a1c      	ldr	r2, [sp, #112]	; 0x70
1000346c:	1d11      	adds	r1, r2, #4
1000346e:	911c      	str	r1, [sp, #112]	; 0x70
10003470:	9405      	str	r4, [sp, #20]
10003472:	9b0a      	ldr	r3, [sp, #40]	; 0x28
10003474:	9304      	str	r3, [sp, #16]
10003476:	4653      	mov	r3, sl
10003478:	9303      	str	r3, [sp, #12]
1000347a:	9602      	str	r6, [sp, #8]
1000347c:	2300      	movs	r3, #0
1000347e:	9301      	str	r3, [sp, #4]
10003480:	6813      	ldr	r3, [r2, #0]
10003482:	9300      	str	r3, [sp, #0]
10003484:	4643      	mov	r3, r8
10003486:	003a      	movs	r2, r7
10003488:	4659      	mov	r1, fp
1000348a:	0028      	movs	r0, r5
1000348c:	f7ff f9ba 	bl	10002804 <_ntoa_long>
10003490:	0007      	movs	r7, r0
10003492:	e773      	b.n	1000337c <_vsnprintf+0x270>
10003494:	0623      	lsls	r3, r4, #24
10003496:	d50d      	bpl.n	100034b4 <_vsnprintf+0x3a8>
10003498:	9a1c      	ldr	r2, [sp, #112]	; 0x70
1000349a:	1d11      	adds	r1, r2, #4
1000349c:	911c      	str	r1, [sp, #112]	; 0x70
1000349e:	6812      	ldr	r2, [r2, #0]
100034a0:	0412      	lsls	r2, r2, #16
100034a2:	0c12      	lsrs	r2, r2, #16
100034a4:	e731      	b.n	1000330a <_vsnprintf+0x1fe>
100034a6:	46c0      	nop			; (mov r8, r8)
100034a8:	100078e4 	.word	0x100078e4
100034ac:	10007928 	.word	0x10007928
100034b0:	10007974 	.word	0x10007974
100034b4:	9a1c      	ldr	r2, [sp, #112]	; 0x70
100034b6:	1d11      	adds	r1, r2, #4
100034b8:	911c      	str	r1, [sp, #112]	; 0x70
100034ba:	6812      	ldr	r2, [r2, #0]
100034bc:	e725      	b.n	1000330a <_vsnprintf+0x1fe>
100034be:	2846      	cmp	r0, #70	; 0x46
100034c0:	d01a      	beq.n	100034f8 <_vsnprintf+0x3ec>
100034c2:	9b1c      	ldr	r3, [sp, #112]	; 0x70
100034c4:	3307      	adds	r3, #7
100034c6:	2207      	movs	r2, #7
100034c8:	4393      	bics	r3, r2
100034ca:	001a      	movs	r2, r3
100034cc:	3208      	adds	r2, #8
100034ce:	921c      	str	r2, [sp, #112]	; 0x70
100034d0:	9404      	str	r4, [sp, #16]
100034d2:	9a0a      	ldr	r2, [sp, #40]	; 0x28
100034d4:	9203      	str	r2, [sp, #12]
100034d6:	4652      	mov	r2, sl
100034d8:	9202      	str	r2, [sp, #8]
100034da:	685c      	ldr	r4, [r3, #4]
100034dc:	681b      	ldr	r3, [r3, #0]
100034de:	9300      	str	r3, [sp, #0]
100034e0:	9401      	str	r4, [sp, #4]
100034e2:	4643      	mov	r3, r8
100034e4:	003a      	movs	r2, r7
100034e6:	4659      	mov	r1, fp
100034e8:	0028      	movs	r0, r5
100034ea:	f7ff fc65 	bl	10002db8 <_ftoa>
100034ee:	0007      	movs	r7, r0
100034f0:	9b11      	ldr	r3, [sp, #68]	; 0x44
100034f2:	3301      	adds	r3, #1
100034f4:	9311      	str	r3, [sp, #68]	; 0x44
100034f6:	e619      	b.n	1000312c <_vsnprintf+0x20>
100034f8:	2320      	movs	r3, #32
100034fa:	431c      	orrs	r4, r3
100034fc:	e7e1      	b.n	100034c2 <_vsnprintf+0x3b6>
100034fe:	2867      	cmp	r0, #103	; 0x67
10003500:	d001      	beq.n	10003506 <_vsnprintf+0x3fa>
10003502:	2847      	cmp	r0, #71	; 0x47
10003504:	d102      	bne.n	1000350c <_vsnprintf+0x400>
10003506:	2380      	movs	r3, #128	; 0x80
10003508:	011b      	lsls	r3, r3, #4
1000350a:	431c      	orrs	r4, r3
1000350c:	2845      	cmp	r0, #69	; 0x45
1000350e:	d001      	beq.n	10003514 <_vsnprintf+0x408>
10003510:	2847      	cmp	r0, #71	; 0x47
10003512:	d101      	bne.n	10003518 <_vsnprintf+0x40c>
10003514:	2320      	movs	r3, #32
10003516:	431c      	orrs	r4, r3
10003518:	9b1c      	ldr	r3, [sp, #112]	; 0x70
1000351a:	3307      	adds	r3, #7
1000351c:	2207      	movs	r2, #7
1000351e:	4393      	bics	r3, r2
10003520:	001a      	movs	r2, r3
10003522:	3208      	adds	r2, #8
10003524:	921c      	str	r2, [sp, #112]	; 0x70
10003526:	9404      	str	r4, [sp, #16]
10003528:	9a0a      	ldr	r2, [sp, #40]	; 0x28
1000352a:	9203      	str	r2, [sp, #12]
1000352c:	4652      	mov	r2, sl
1000352e:	9202      	str	r2, [sp, #8]
10003530:	685c      	ldr	r4, [r3, #4]
10003532:	681b      	ldr	r3, [r3, #0]
10003534:	9300      	str	r3, [sp, #0]
10003536:	9401      	str	r4, [sp, #4]
10003538:	4643      	mov	r3, r8
1000353a:	003a      	movs	r2, r7
1000353c:	4659      	mov	r1, fp
1000353e:	0028      	movs	r0, r5
10003540:	f7ff fa30 	bl	100029a4 <_etoa>
10003544:	0007      	movs	r7, r0
10003546:	9b11      	ldr	r3, [sp, #68]	; 0x44
10003548:	3301      	adds	r3, #1
1000354a:	9311      	str	r3, [sp, #68]	; 0x44
1000354c:	e5ee      	b.n	1000312c <_vsnprintf+0x20>
1000354e:	2302      	movs	r3, #2
10003550:	001a      	movs	r2, r3
10003552:	4022      	ands	r2, r4
10003554:	4692      	mov	sl, r2
10003556:	4223      	tst	r3, r4
10003558:	d01f      	beq.n	1000359a <_vsnprintf+0x48e>
1000355a:	2401      	movs	r4, #1
1000355c:	9b1c      	ldr	r3, [sp, #112]	; 0x70
1000355e:	1d1a      	adds	r2, r3, #4
10003560:	921c      	str	r2, [sp, #112]	; 0x70
10003562:	1c7a      	adds	r2, r7, #1
10003564:	4691      	mov	r9, r2
10003566:	7818      	ldrb	r0, [r3, #0]
10003568:	4643      	mov	r3, r8
1000356a:	003a      	movs	r2, r7
1000356c:	4659      	mov	r1, fp
1000356e:	47a8      	blx	r5
10003570:	4653      	mov	r3, sl
10003572:	2b00      	cmp	r3, #0
10003574:	d116      	bne.n	100035a4 <_vsnprintf+0x498>
10003576:	9b11      	ldr	r3, [sp, #68]	; 0x44
10003578:	3301      	adds	r3, #1
1000357a:	9311      	str	r3, [sp, #68]	; 0x44
1000357c:	464f      	mov	r7, r9
1000357e:	e5d5      	b.n	1000312c <_vsnprintf+0x20>
10003580:	1c56      	adds	r6, r2, #1
10003582:	4643      	mov	r3, r8
10003584:	4659      	mov	r1, fp
10003586:	2020      	movs	r0, #32
10003588:	47b8      	blx	r7
1000358a:	0023      	movs	r3, r4
1000358c:	0032      	movs	r2, r6
1000358e:	1c5c      	adds	r4, r3, #1
10003590:	429d      	cmp	r5, r3
10003592:	d8f5      	bhi.n	10003580 <_vsnprintf+0x474>
10003594:	003d      	movs	r5, r7
10003596:	0017      	movs	r7, r2
10003598:	e7e0      	b.n	1000355c <_vsnprintf+0x450>
1000359a:	2301      	movs	r3, #1
1000359c:	003a      	movs	r2, r7
1000359e:	002f      	movs	r7, r5
100035a0:	9d0a      	ldr	r5, [sp, #40]	; 0x28
100035a2:	e7f4      	b.n	1000358e <_vsnprintf+0x482>
100035a4:	464a      	mov	r2, r9
100035a6:	46a9      	mov	r9, r5
100035a8:	9d0a      	ldr	r5, [sp, #40]	; 0x28
100035aa:	e006      	b.n	100035ba <_vsnprintf+0x4ae>
100035ac:	1c57      	adds	r7, r2, #1
100035ae:	4643      	mov	r3, r8
100035b0:	4659      	mov	r1, fp
100035b2:	2020      	movs	r0, #32
100035b4:	47c8      	blx	r9
100035b6:	0034      	movs	r4, r6
100035b8:	003a      	movs	r2, r7
100035ba:	1c66      	adds	r6, r4, #1
100035bc:	42a5      	cmp	r5, r4
100035be:	d8f5      	bhi.n	100035ac <_vsnprintf+0x4a0>
100035c0:	464d      	mov	r5, r9
100035c2:	4691      	mov	r9, r2
100035c4:	e7d7      	b.n	10003576 <_vsnprintf+0x46a>
100035c6:	9b1c      	ldr	r3, [sp, #112]	; 0x70
100035c8:	1d1a      	adds	r2, r3, #4
100035ca:	921c      	str	r2, [sp, #112]	; 0x70
100035cc:	681b      	ldr	r3, [r3, #0]
100035ce:	4699      	mov	r9, r3
100035d0:	4653      	mov	r3, sl
100035d2:	2b00      	cmp	r3, #0
100035d4:	d100      	bne.n	100035d8 <_vsnprintf+0x4cc>
100035d6:	3b01      	subs	r3, #1
100035d8:	464e      	mov	r6, r9
100035da:	e001      	b.n	100035e0 <_vsnprintf+0x4d4>
100035dc:	3601      	adds	r6, #1
100035de:	0013      	movs	r3, r2
100035e0:	7832      	ldrb	r2, [r6, #0]
100035e2:	2a00      	cmp	r2, #0
100035e4:	d002      	beq.n	100035ec <_vsnprintf+0x4e0>
100035e6:	1e5a      	subs	r2, r3, #1
100035e8:	2b00      	cmp	r3, #0
100035ea:	d1f7      	bne.n	100035dc <_vsnprintf+0x4d0>
100035ec:	464b      	mov	r3, r9
100035ee:	1af2      	subs	r2, r6, r3
100035f0:	9210      	str	r2, [sp, #64]	; 0x40
100035f2:	2380      	movs	r3, #128	; 0x80
100035f4:	00db      	lsls	r3, r3, #3
100035f6:	0026      	movs	r6, r4
100035f8:	401e      	ands	r6, r3
100035fa:	421c      	tst	r4, r3
100035fc:	d003      	beq.n	10003606 <_vsnprintf+0x4fa>
100035fe:	4552      	cmp	r2, sl
10003600:	d901      	bls.n	10003606 <_vsnprintf+0x4fa>
10003602:	4653      	mov	r3, sl
10003604:	9310      	str	r3, [sp, #64]	; 0x40
10003606:	2302      	movs	r3, #2
10003608:	001a      	movs	r2, r3
1000360a:	4022      	ands	r2, r4
1000360c:	920b      	str	r2, [sp, #44]	; 0x2c
1000360e:	4223      	tst	r3, r4
10003610:	d005      	beq.n	1000361e <_vsnprintf+0x512>
10003612:	003a      	movs	r2, r7
10003614:	0037      	movs	r7, r6
10003616:	464c      	mov	r4, r9
10003618:	46a9      	mov	r9, r5
1000361a:	4655      	mov	r5, sl
1000361c:	e020      	b.n	10003660 <_vsnprintf+0x554>
1000361e:	003a      	movs	r2, r7
10003620:	9b10      	ldr	r3, [sp, #64]	; 0x40
10003622:	465f      	mov	r7, fp
10003624:	46b3      	mov	fp, r6
10003626:	002e      	movs	r6, r5
10003628:	e006      	b.n	10003638 <_vsnprintf+0x52c>
1000362a:	1c55      	adds	r5, r2, #1
1000362c:	4643      	mov	r3, r8
1000362e:	0039      	movs	r1, r7
10003630:	2020      	movs	r0, #32
10003632:	47b0      	blx	r6
10003634:	0023      	movs	r3, r4
10003636:	002a      	movs	r2, r5
10003638:	1c5c      	adds	r4, r3, #1
1000363a:	990a      	ldr	r1, [sp, #40]	; 0x28
1000363c:	4299      	cmp	r1, r3
1000363e:	d8f4      	bhi.n	1000362a <_vsnprintf+0x51e>
10003640:	0035      	movs	r5, r6
10003642:	465e      	mov	r6, fp
10003644:	46bb      	mov	fp, r7
10003646:	9410      	str	r4, [sp, #64]	; 0x40
10003648:	0037      	movs	r7, r6
1000364a:	464c      	mov	r4, r9
1000364c:	46a9      	mov	r9, r5
1000364e:	4655      	mov	r5, sl
10003650:	e006      	b.n	10003660 <_vsnprintf+0x554>
10003652:	001d      	movs	r5, r3
10003654:	3401      	adds	r4, #1
10003656:	1c56      	adds	r6, r2, #1
10003658:	4643      	mov	r3, r8
1000365a:	4659      	mov	r1, fp
1000365c:	47c8      	blx	r9
1000365e:	0032      	movs	r2, r6
10003660:	7820      	ldrb	r0, [r4, #0]
10003662:	2800      	cmp	r0, #0
10003664:	d004      	beq.n	10003670 <_vsnprintf+0x564>
10003666:	2f00      	cmp	r7, #0
10003668:	d0f4      	beq.n	10003654 <_vsnprintf+0x548>
1000366a:	1e6b      	subs	r3, r5, #1
1000366c:	2d00      	cmp	r5, #0
1000366e:	d1f0      	bne.n	10003652 <_vsnprintf+0x546>
10003670:	0017      	movs	r7, r2
10003672:	464d      	mov	r5, r9
10003674:	9b0b      	ldr	r3, [sp, #44]	; 0x2c
10003676:	2b00      	cmp	r3, #0
10003678:	d103      	bne.n	10003682 <_vsnprintf+0x576>
1000367a:	9b11      	ldr	r3, [sp, #68]	; 0x44
1000367c:	3301      	adds	r3, #1
1000367e:	9311      	str	r3, [sp, #68]	; 0x44
10003680:	e554      	b.n	1000312c <_vsnprintf+0x20>
10003682:	9f0a      	ldr	r7, [sp, #40]	; 0x28
10003684:	9b10      	ldr	r3, [sp, #64]	; 0x40
10003686:	e006      	b.n	10003696 <_vsnprintf+0x58a>
10003688:	1c56      	adds	r6, r2, #1
1000368a:	4643      	mov	r3, r8
1000368c:	4659      	mov	r1, fp
1000368e:	2020      	movs	r0, #32
10003690:	47a8      	blx	r5
10003692:	0023      	movs	r3, r4
10003694:	0032      	movs	r2, r6
10003696:	1c5c      	adds	r4, r3, #1
10003698:	429f      	cmp	r7, r3
1000369a:	d8f5      	bhi.n	10003688 <_vsnprintf+0x57c>
1000369c:	0017      	movs	r7, r2
1000369e:	e7ec      	b.n	1000367a <_vsnprintf+0x56e>
100036a0:	2321      	movs	r3, #33	; 0x21
100036a2:	431c      	orrs	r4, r3
100036a4:	9b1c      	ldr	r3, [sp, #112]	; 0x70
100036a6:	1d1a      	adds	r2, r3, #4
100036a8:	921c      	str	r2, [sp, #112]	; 0x70
100036aa:	681b      	ldr	r3, [r3, #0]
100036ac:	9300      	str	r3, [sp, #0]
100036ae:	9405      	str	r4, [sp, #20]
100036b0:	2308      	movs	r3, #8
100036b2:	9304      	str	r3, [sp, #16]
100036b4:	4653      	mov	r3, sl
100036b6:	9303      	str	r3, [sp, #12]
100036b8:	2310      	movs	r3, #16
100036ba:	9302      	str	r3, [sp, #8]
100036bc:	2300      	movs	r3, #0
100036be:	9301      	str	r3, [sp, #4]
100036c0:	4643      	mov	r3, r8
100036c2:	003a      	movs	r2, r7
100036c4:	4659      	mov	r1, fp
100036c6:	0028      	movs	r0, r5
100036c8:	f7ff f89c 	bl	10002804 <_ntoa_long>
100036cc:	0007      	movs	r7, r0
100036ce:	9b11      	ldr	r3, [sp, #68]	; 0x44
100036d0:	3301      	adds	r3, #1
100036d2:	9311      	str	r3, [sp, #68]	; 0x44
100036d4:	e52a      	b.n	1000312c <_vsnprintf+0x20>
100036d6:	1c7c      	adds	r4, r7, #1
100036d8:	4643      	mov	r3, r8
100036da:	003a      	movs	r2, r7
100036dc:	4659      	mov	r1, fp
100036de:	2025      	movs	r0, #37	; 0x25
100036e0:	47a8      	blx	r5
100036e2:	9b11      	ldr	r3, [sp, #68]	; 0x44
100036e4:	3301      	adds	r3, #1
100036e6:	9311      	str	r3, [sp, #68]	; 0x44
100036e8:	0027      	movs	r7, r4
100036ea:	e51f      	b.n	1000312c <_vsnprintf+0x20>
100036ec:	1c7c      	adds	r4, r7, #1
100036ee:	4643      	mov	r3, r8
100036f0:	003a      	movs	r2, r7
100036f2:	4659      	mov	r1, fp
100036f4:	47a8      	blx	r5
100036f6:	9b11      	ldr	r3, [sp, #68]	; 0x44
100036f8:	3301      	adds	r3, #1
100036fa:	9311      	str	r3, [sp, #68]	; 0x44
100036fc:	0027      	movs	r7, r4
100036fe:	e515      	b.n	1000312c <_vsnprintf+0x20>
10003700:	4b0a      	ldr	r3, [pc, #40]	; (1000372c <_vsnprintf+0x620>)
10003702:	469a      	mov	sl, r3
10003704:	e510      	b.n	10003128 <_vsnprintf+0x1c>
10003706:	46aa      	mov	sl, r5
10003708:	4547      	cmp	r7, r8
1000370a:	d302      	bcc.n	10003712 <_vsnprintf+0x606>
1000370c:	4643      	mov	r3, r8
1000370e:	1e5a      	subs	r2, r3, #1
10003710:	e000      	b.n	10003714 <_vsnprintf+0x608>
10003712:	003a      	movs	r2, r7
10003714:	4643      	mov	r3, r8
10003716:	4659      	mov	r1, fp
10003718:	2000      	movs	r0, #0
1000371a:	47d0      	blx	sl
1000371c:	0038      	movs	r0, r7
1000371e:	b013      	add	sp, #76	; 0x4c
10003720:	bcf0      	pop	{r4, r5, r6, r7}
10003722:	46bb      	mov	fp, r7
10003724:	46b2      	mov	sl, r6
10003726:	46a9      	mov	r9, r5
10003728:	46a0      	mov	r8, r4
1000372a:	bdf0      	pop	{r4, r5, r6, r7, pc}
1000372c:	10002611 	.word	0x10002611

10003730 <vfctprintf>:
10003730:	b500      	push	{lr}
10003732:	b085      	sub	sp, #20
10003734:	9002      	str	r0, [sp, #8]
10003736:	9103      	str	r1, [sp, #12]
10003738:	2101      	movs	r1, #1
1000373a:	9300      	str	r3, [sp, #0]
1000373c:	0013      	movs	r3, r2
1000373e:	424a      	negs	r2, r1
10003740:	a902      	add	r1, sp, #8
10003742:	4802      	ldr	r0, [pc, #8]	; (1000374c <vfctprintf+0x1c>)
10003744:	f7ff fce2 	bl	1000310c <_vsnprintf>
10003748:	b005      	add	sp, #20
1000374a:	bd00      	pop	{pc}
1000374c:	10002613 	.word	0x10002613

10003750 <__aeabi_bits_init>:
10003750:	4801      	ldr	r0, [pc, #4]	; (10003758 <__aeabi_bits_init+0x8>)
10003752:	2104      	movs	r1, #4
10003754:	4b01      	ldr	r3, [pc, #4]	; (1000375c <__aeabi_bits_init+0xc>)
10003756:	4718      	bx	r3
10003758:	20000c30 	.word	0x20000c30
1000375c:	10003781 	.word	0x10003781

10003760 <rom_func_lookup>:
10003760:	b510      	push	{r4, lr}
10003762:	0001      	movs	r1, r0
10003764:	2318      	movs	r3, #24
10003766:	881b      	ldrh	r3, [r3, #0]
10003768:	2214      	movs	r2, #20
1000376a:	8810      	ldrh	r0, [r2, #0]
1000376c:	4798      	blx	r3
1000376e:	bd10      	pop	{r4, pc}

10003770 <rom_data_lookup>:
10003770:	b510      	push	{r4, lr}
10003772:	0001      	movs	r1, r0
10003774:	2318      	movs	r3, #24
10003776:	881b      	ldrh	r3, [r3, #0]
10003778:	2216      	movs	r2, #22
1000377a:	8810      	ldrh	r0, [r2, #0]
1000377c:	4798      	blx	r3
1000377e:	bd10      	pop	{r4, pc}

10003780 <rom_funcs_lookup>:
10003780:	b5f0      	push	{r4, r5, r6, r7, lr}
10003782:	46c6      	mov	lr, r8
10003784:	b500      	push	{lr}
10003786:	0007      	movs	r7, r0
10003788:	000e      	movs	r6, r1
1000378a:	2500      	movs	r5, #0
1000378c:	2301      	movs	r3, #1
1000378e:	4698      	mov	r8, r3
10003790:	e000      	b.n	10003794 <rom_funcs_lookup+0x14>
10003792:	3501      	adds	r5, #1
10003794:	42b5      	cmp	r5, r6
10003796:	d20a      	bcs.n	100037ae <rom_funcs_lookup+0x2e>
10003798:	00ac      	lsls	r4, r5, #2
1000379a:	193c      	adds	r4, r7, r4
1000379c:	6820      	ldr	r0, [r4, #0]
1000379e:	f7ff ffdf 	bl	10003760 <rom_func_lookup>
100037a2:	6020      	str	r0, [r4, #0]
100037a4:	2800      	cmp	r0, #0
100037a6:	d1f4      	bne.n	10003792 <rom_funcs_lookup+0x12>
100037a8:	2300      	movs	r3, #0
100037aa:	4698      	mov	r8, r3
100037ac:	e7f1      	b.n	10003792 <rom_funcs_lookup+0x12>
100037ae:	4640      	mov	r0, r8
100037b0:	bc80      	pop	{r7}
100037b2:	46b8      	mov	r8, r7
100037b4:	bdf0      	pop	{r4, r5, r6, r7, pc}
	...

100037b8 <__wrap___aeabi_idiv>:
100037b8:	4a12      	ldr	r2, [pc, #72]	; (10003804 <divmod_s32s32_savestate+0x18>)
100037ba:	6f93      	ldr	r3, [r2, #120]	; 0x78
100037bc:	089b      	lsrs	r3, r3, #2
100037be:	d215      	bcs.n	100037ec <divmod_s32s32_savestate>

100037c0 <divmod_s32s32_unsafe>:
100037c0:	6690      	str	r0, [r2, #104]	; 0x68
100037c2:	66d1      	str	r1, [r2, #108]	; 0x6c
100037c4:	2900      	cmp	r1, #0
100037c6:	d005      	beq.n	100037d4 <divmod_s32s32_unsafe+0x14>
100037c8:	e7ff      	b.n	100037ca <divmod_s32s32_unsafe+0xa>
100037ca:	e7ff      	b.n	100037cc <divmod_s32s32_unsafe+0xc>
100037cc:	e7ff      	b.n	100037ce <divmod_s32s32_unsafe+0xe>
100037ce:	6f51      	ldr	r1, [r2, #116]	; 0x74
100037d0:	6f10      	ldr	r0, [r2, #112]	; 0x70
100037d2:	4770      	bx	lr
100037d4:	b504      	push	{r2, lr}
100037d6:	2180      	movs	r1, #128	; 0x80
100037d8:	0609      	lsls	r1, r1, #24
100037da:	17c2      	asrs	r2, r0, #31
100037dc:	4051      	eors	r1, r2
100037de:	2800      	cmp	r0, #0
100037e0:	d000      	beq.n	100037e4 <divmod_s32s32_unsafe+0x24>
100037e2:	43c8      	mvns	r0, r1
100037e4:	f003 f9dc 	bl	10006ba0 <____aeabi_idiv0_veneer>
100037e8:	2100      	movs	r1, #0
100037ea:	bd04      	pop	{r2, pc}

100037ec <divmod_s32s32_savestate>:
100037ec:	b5f0      	push	{r4, r5, r6, r7, lr}
100037ee:	6e14      	ldr	r4, [r2, #96]	; 0x60
100037f0:	6e55      	ldr	r5, [r2, #100]	; 0x64
100037f2:	6f57      	ldr	r7, [r2, #116]	; 0x74
100037f4:	6f16      	ldr	r6, [r2, #112]	; 0x70
100037f6:	f7ff ffe3 	bl	100037c0 <divmod_s32s32_unsafe>
100037fa:	6614      	str	r4, [r2, #96]	; 0x60
100037fc:	6655      	str	r5, [r2, #100]	; 0x64
100037fe:	6757      	str	r7, [r2, #116]	; 0x74
10003800:	6716      	str	r6, [r2, #112]	; 0x70
10003802:	bdf0      	pop	{r4, r5, r6, r7, pc}
10003804:	d0000000 	.word	0xd0000000

10003808 <__wrap___aeabi_uidiv>:
10003808:	4a11      	ldr	r2, [pc, #68]	; (10003850 <divmod_u32u32_savestate+0x18>)
1000380a:	6f93      	ldr	r3, [r2, #120]	; 0x78
1000380c:	089b      	lsrs	r3, r3, #2
1000380e:	d213      	bcs.n	10003838 <divmod_u32u32_savestate>

10003810 <divmod_u32u32_unsafe>:
10003810:	6610      	str	r0, [r2, #96]	; 0x60
10003812:	6651      	str	r1, [r2, #100]	; 0x64
10003814:	2900      	cmp	r1, #0
10003816:	d005      	beq.n	10003824 <divmod_u32u32_unsafe+0x14>
10003818:	e7ff      	b.n	1000381a <divmod_u32u32_unsafe+0xa>
1000381a:	e7ff      	b.n	1000381c <divmod_u32u32_unsafe+0xc>
1000381c:	e7ff      	b.n	1000381e <divmod_u32u32_unsafe+0xe>
1000381e:	6f51      	ldr	r1, [r2, #116]	; 0x74
10003820:	6f10      	ldr	r0, [r2, #112]	; 0x70
10003822:	4770      	bx	lr
10003824:	b504      	push	{r2, lr}
10003826:	2800      	cmp	r0, #0
10003828:	d001      	beq.n	1000382e <divmod_u32u32_unsafe+0x1e>
1000382a:	2000      	movs	r0, #0
1000382c:	43c0      	mvns	r0, r0
1000382e:	f003 f9b7 	bl	10006ba0 <____aeabi_idiv0_veneer>
10003832:	2100      	movs	r1, #0
10003834:	bd04      	pop	{r2, pc}
10003836:	46c0      	nop			; (mov r8, r8)

10003838 <divmod_u32u32_savestate>:
10003838:	b5f0      	push	{r4, r5, r6, r7, lr}
1000383a:	6e14      	ldr	r4, [r2, #96]	; 0x60
1000383c:	6e55      	ldr	r5, [r2, #100]	; 0x64
1000383e:	6f57      	ldr	r7, [r2, #116]	; 0x74
10003840:	6f16      	ldr	r6, [r2, #112]	; 0x70
10003842:	f7ff ffe5 	bl	10003810 <divmod_u32u32_unsafe>
10003846:	6614      	str	r4, [r2, #96]	; 0x60
10003848:	6655      	str	r5, [r2, #100]	; 0x64
1000384a:	6757      	str	r7, [r2, #116]	; 0x74
1000384c:	6716      	str	r6, [r2, #112]	; 0x70
1000384e:	bdf0      	pop	{r4, r5, r6, r7, pc}
10003850:	d0000000 	.word	0xd0000000

10003854 <__wrap___aeabi_ldivmod>:
10003854:	4694      	mov	ip, r2
10003856:	4a4a      	ldr	r2, [pc, #296]	; (10003980 <udiv0+0x1a>)
10003858:	6f92      	ldr	r2, [r2, #120]	; 0x78
1000385a:	0892      	lsrs	r2, r2, #2
1000385c:	4662      	mov	r2, ip
1000385e:	d201      	bcs.n	10003864 <divmod_s64s64_savestate>
10003860:	e028      	b.n	100038b4 <divmod_s64s64_unsafe>
10003862:	46c0      	nop			; (mov r8, r8)

10003864 <divmod_s64s64_savestate>:
10003864:	b5f0      	push	{r4, r5, r6, r7, lr}
10003866:	4e46      	ldr	r6, [pc, #280]	; (10003980 <udiv0+0x1a>)
10003868:	6e34      	ldr	r4, [r6, #96]	; 0x60
1000386a:	6e75      	ldr	r5, [r6, #100]	; 0x64
1000386c:	6f77      	ldr	r7, [r6, #116]	; 0x74
1000386e:	6f36      	ldr	r6, [r6, #112]	; 0x70
10003870:	f000 f820 	bl	100038b4 <divmod_s64s64_unsafe>
10003874:	4694      	mov	ip, r2
10003876:	4a42      	ldr	r2, [pc, #264]	; (10003980 <udiv0+0x1a>)
10003878:	6614      	str	r4, [r2, #96]	; 0x60
1000387a:	6655      	str	r5, [r2, #100]	; 0x64
1000387c:	6757      	str	r7, [r2, #116]	; 0x74
1000387e:	6716      	str	r6, [r2, #112]	; 0x70
10003880:	4662      	mov	r2, ip
10003882:	bdf0      	pop	{r4, r5, r6, r7, pc}

10003884 <__wrap___aeabi_uldivmod>:
10003884:	4694      	mov	ip, r2
10003886:	4a3e      	ldr	r2, [pc, #248]	; (10003980 <udiv0+0x1a>)
10003888:	6f92      	ldr	r2, [r2, #120]	; 0x78
1000388a:	0892      	lsrs	r2, r2, #2
1000388c:	4662      	mov	r2, ip
1000388e:	d201      	bcs.n	10003894 <divmod_u64u64_savestate>
10003890:	e054      	b.n	1000393c <divmod_u64u64_unsafe>
10003892:	46c0      	nop			; (mov r8, r8)

10003894 <divmod_u64u64_savestate>:
10003894:	b5f0      	push	{r4, r5, r6, r7, lr}
10003896:	4e3a      	ldr	r6, [pc, #232]	; (10003980 <udiv0+0x1a>)
10003898:	6e34      	ldr	r4, [r6, #96]	; 0x60
1000389a:	6e75      	ldr	r5, [r6, #100]	; 0x64
1000389c:	6f77      	ldr	r7, [r6, #116]	; 0x74
1000389e:	6f36      	ldr	r6, [r6, #112]	; 0x70
100038a0:	f000 f84c 	bl	1000393c <divmod_u64u64_unsafe>
100038a4:	4694      	mov	ip, r2
100038a6:	4a36      	ldr	r2, [pc, #216]	; (10003980 <udiv0+0x1a>)
100038a8:	6614      	str	r4, [r2, #96]	; 0x60
100038aa:	6655      	str	r5, [r2, #100]	; 0x64
100038ac:	6757      	str	r7, [r2, #116]	; 0x74
100038ae:	6716      	str	r6, [r2, #112]	; 0x70
100038b0:	4662      	mov	r2, ip
100038b2:	bdf0      	pop	{r4, r5, r6, r7, pc}

100038b4 <divmod_s64s64_unsafe>:
100038b4:	2b00      	cmp	r3, #0
100038b6:	db24      	blt.n	10003902 <l42_1+0x26>
100038b8:	d011      	beq.n	100038de <l42_1+0x2>
100038ba:	2900      	cmp	r1, #0
100038bc:	da3e      	bge.n	1000393c <divmod_u64u64_unsafe>
100038be:	b500      	push	{lr}
100038c0:	43c9      	mvns	r1, r1
100038c2:	4240      	negs	r0, r0
100038c4:	d100      	bne.n	100038c8 <l40_1>
100038c6:	3101      	adds	r1, #1

100038c8 <l40_1>:
100038c8:	f000 f838 	bl	1000393c <divmod_u64u64_unsafe>
100038cc:	43c9      	mvns	r1, r1
100038ce:	4240      	negs	r0, r0
100038d0:	d100      	bne.n	100038d4 <l41_1>
100038d2:	3101      	adds	r1, #1

100038d4 <l41_1>:
100038d4:	43db      	mvns	r3, r3
100038d6:	4252      	negs	r2, r2
100038d8:	d100      	bne.n	100038dc <l42_1>
100038da:	3301      	adds	r3, #1

100038dc <l42_1>:
100038dc:	bd00      	pop	{pc}
100038de:	2a00      	cmp	r2, #0
100038e0:	d1eb      	bne.n	100038ba <divmod_s64s64_unsafe+0x6>
100038e2:	2800      	cmp	r0, #0
100038e4:	d101      	bne.n	100038ea <l42_1+0xe>
100038e6:	2900      	cmp	r1, #0
100038e8:	d005      	beq.n	100038f6 <l42_1+0x1a>
100038ea:	2000      	movs	r0, #0
100038ec:	0fc9      	lsrs	r1, r1, #31
100038ee:	07c9      	lsls	r1, r1, #31
100038f0:	d101      	bne.n	100038f6 <l42_1+0x1a>
100038f2:	43c0      	mvns	r0, r0
100038f4:	0841      	lsrs	r1, r0, #1
100038f6:	b500      	push	{lr}
100038f8:	f003 f94a 	bl	10006b90 <____aeabi_ldiv0_veneer>
100038fc:	2200      	movs	r2, #0
100038fe:	2300      	movs	r3, #0
10003900:	bd00      	pop	{pc}
10003902:	b500      	push	{lr}
10003904:	2900      	cmp	r1, #0
10003906:	db0a      	blt.n	1000391e <l44_1+0x2>
10003908:	43db      	mvns	r3, r3
1000390a:	4252      	negs	r2, r2
1000390c:	d100      	bne.n	10003910 <l43_1>
1000390e:	3301      	adds	r3, #1

10003910 <l43_1>:
10003910:	f000 f814 	bl	1000393c <divmod_u64u64_unsafe>
10003914:	43c9      	mvns	r1, r1
10003916:	4240      	negs	r0, r0
10003918:	d100      	bne.n	1000391c <l44_1>
1000391a:	3101      	adds	r1, #1

1000391c <l44_1>:
1000391c:	bd00      	pop	{pc}
1000391e:	43c9      	mvns	r1, r1
10003920:	4240      	negs	r0, r0
10003922:	d100      	bne.n	10003926 <l45_1>
10003924:	3101      	adds	r1, #1

10003926 <l45_1>:
10003926:	43db      	mvns	r3, r3
10003928:	4252      	negs	r2, r2
1000392a:	d100      	bne.n	1000392e <l46_1>
1000392c:	3301      	adds	r3, #1

1000392e <l46_1>:
1000392e:	f000 f805 	bl	1000393c <divmod_u64u64_unsafe>
10003932:	43db      	mvns	r3, r3
10003934:	4252      	negs	r2, r2
10003936:	d100      	bne.n	1000393a <l47_1>
10003938:	3301      	adds	r3, #1

1000393a <l47_1>:
1000393a:	bd00      	pop	{pc}

1000393c <divmod_u64u64_unsafe>:
1000393c:	2900      	cmp	r1, #0
1000393e:	d123      	bne.n	10003988 <y64>
10003940:	2b00      	cmp	r3, #0
10003942:	d118      	bne.n	10003976 <udiv0+0x10>
10003944:	2a00      	cmp	r2, #0
10003946:	d00c      	beq.n	10003962 <divmod_u64u64_unsafe+0x26>
10003948:	46bc      	mov	ip, r7
1000394a:	4f0d      	ldr	r7, [pc, #52]	; (10003980 <udiv0+0x1a>)
1000394c:	6638      	str	r0, [r7, #96]	; 0x60
1000394e:	667a      	str	r2, [r7, #100]	; 0x64
10003950:	2100      	movs	r1, #0
10003952:	2300      	movs	r3, #0
10003954:	e7ff      	b.n	10003956 <divmod_u64u64_unsafe+0x1a>
10003956:	e7ff      	b.n	10003958 <divmod_u64u64_unsafe+0x1c>
10003958:	e7ff      	b.n	1000395a <divmod_u64u64_unsafe+0x1e>
1000395a:	6f7a      	ldr	r2, [r7, #116]	; 0x74
1000395c:	6f38      	ldr	r0, [r7, #112]	; 0x70
1000395e:	4667      	mov	r7, ip
10003960:	4770      	bx	lr
10003962:	2800      	cmp	r0, #0
10003964:	d001      	beq.n	1000396a <udiv0+0x4>

10003966 <udiv0>:
10003966:	4807      	ldr	r0, [pc, #28]	; (10003984 <udiv0+0x1e>)
10003968:	0001      	movs	r1, r0
1000396a:	b500      	push	{lr}
1000396c:	f003 f910 	bl	10006b90 <____aeabi_ldiv0_veneer>
10003970:	2200      	movs	r2, #0
10003972:	2300      	movs	r3, #0
10003974:	bd00      	pop	{pc}
10003976:	0002      	movs	r2, r0
10003978:	000b      	movs	r3, r1
1000397a:	2000      	movs	r0, #0
1000397c:	2100      	movs	r1, #0
1000397e:	4770      	bx	lr
10003980:	d0000000 	.word	0xd0000000
10003984:	ffffffff 	.word	0xffffffff

10003988 <y64>:
10003988:	2b00      	cmp	r3, #0
1000398a:	d000      	beq.n	1000398e <y64+0x6>
1000398c:	e0bf      	b.n	10003b0e <y64_x48>
1000398e:	0c13      	lsrs	r3, r2, #16
10003990:	d128      	bne.n	100039e4 <y64_x32>
10003992:	2a00      	cmp	r2, #0
10003994:	d0e7      	beq.n	10003966 <udiv0>
10003996:	b480      	push	{r7}
10003998:	4f11      	ldr	r7, [pc, #68]	; (100039e0 <y64+0x58>)
1000399a:	6639      	str	r1, [r7, #96]	; 0x60
1000399c:	667a      	str	r2, [r7, #100]	; 0x64
1000399e:	e7ff      	b.n	100039a0 <y64+0x18>
100039a0:	e7ff      	b.n	100039a2 <y64+0x1a>
100039a2:	b430      	push	{r4, r5}
100039a4:	0c04      	lsrs	r4, r0, #16
100039a6:	6f7b      	ldr	r3, [r7, #116]	; 0x74
100039a8:	6f39      	ldr	r1, [r7, #112]	; 0x70
100039aa:	041b      	lsls	r3, r3, #16
100039ac:	4323      	orrs	r3, r4
100039ae:	663b      	str	r3, [r7, #96]	; 0x60
100039b0:	667a      	str	r2, [r7, #100]	; 0x64
100039b2:	e7ff      	b.n	100039b4 <y64+0x2c>
100039b4:	e7ff      	b.n	100039b6 <y64+0x2e>
100039b6:	e7ff      	b.n	100039b8 <y64+0x30>
100039b8:	46c0      	nop			; (mov r8, r8)
100039ba:	b284      	uxth	r4, r0
100039bc:	6f7b      	ldr	r3, [r7, #116]	; 0x74
100039be:	6f3d      	ldr	r5, [r7, #112]	; 0x70
100039c0:	041b      	lsls	r3, r3, #16
100039c2:	4323      	orrs	r3, r4
100039c4:	663b      	str	r3, [r7, #96]	; 0x60
100039c6:	667a      	str	r2, [r7, #100]	; 0x64
100039c8:	e7ff      	b.n	100039ca <y64+0x42>
100039ca:	e7ff      	b.n	100039cc <y64+0x44>
100039cc:	46c0      	nop			; (mov r8, r8)
100039ce:	2300      	movs	r3, #0
100039d0:	042c      	lsls	r4, r5, #16
100039d2:	0c2d      	lsrs	r5, r5, #16
100039d4:	6f7a      	ldr	r2, [r7, #116]	; 0x74
100039d6:	6f38      	ldr	r0, [r7, #112]	; 0x70
100039d8:	1900      	adds	r0, r0, r4
100039da:	4169      	adcs	r1, r5
100039dc:	bcb0      	pop	{r4, r5, r7}
100039de:	4770      	bx	lr
100039e0:	d0000000 	.word	0xd0000000

100039e4 <y64_x32>:
100039e4:	b5f0      	push	{r4, r5, r6, r7, lr}
100039e6:	4694      	mov	ip, r2
100039e8:	2500      	movs	r5, #0
100039ea:	0e14      	lsrs	r4, r2, #24
100039ec:	d101      	bne.n	100039f2 <y64_x32+0xe>
100039ee:	0212      	lsls	r2, r2, #8
100039f0:	3508      	adds	r5, #8
100039f2:	0f14      	lsrs	r4, r2, #28
100039f4:	d101      	bne.n	100039fa <y64_x32+0x16>
100039f6:	0112      	lsls	r2, r2, #4
100039f8:	3504      	adds	r5, #4
100039fa:	0f94      	lsrs	r4, r2, #30
100039fc:	d101      	bne.n	10003a02 <y64_x32+0x1e>
100039fe:	0092      	lsls	r2, r2, #2
10003a00:	3502      	adds	r5, #2
10003a02:	0fd4      	lsrs	r4, r2, #31
10003a04:	d101      	bne.n	10003a0a <y64_x32+0x26>
10003a06:	0052      	lsls	r2, r2, #1
10003a08:	3501      	adds	r5, #1
10003a0a:	0bd4      	lsrs	r4, r2, #15
10003a0c:	3401      	adds	r4, #1
10003a0e:	4f25      	ldr	r7, [pc, #148]	; (10003aa4 <y64_x32+0xc0>)
10003a10:	667c      	str	r4, [r7, #100]	; 0x64
10003a12:	4c25      	ldr	r4, [pc, #148]	; (10003aa8 <y64_x32+0xc4>)
10003a14:	663c      	str	r4, [r7, #96]	; 0x60
10003a16:	0c0e      	lsrs	r6, r1, #16
10003a18:	b293      	uxth	r3, r2
10003a1a:	e7ff      	b.n	10003a1c <y64_x32+0x38>
10003a1c:	e7ff      	b.n	10003a1e <y64_x32+0x3a>
10003a1e:	e7ff      	b.n	10003a20 <y64_x32+0x3c>
10003a20:	6f3c      	ldr	r4, [r7, #112]	; 0x70
10003a22:	4366      	muls	r6, r4
10003a24:	0c36      	lsrs	r6, r6, #16
10003a26:	0377      	lsls	r7, r6, #13
10003a28:	46be      	mov	lr, r7
10003a2a:	4373      	muls	r3, r6
10003a2c:	0bdf      	lsrs	r7, r3, #15
10003a2e:	045b      	lsls	r3, r3, #17
10003a30:	1ac0      	subs	r0, r0, r3
10003a32:	41b9      	sbcs	r1, r7
10003a34:	0c13      	lsrs	r3, r2, #16
10003a36:	4373      	muls	r3, r6
10003a38:	18db      	adds	r3, r3, r3
10003a3a:	1ac9      	subs	r1, r1, r3
10003a3c:	08ce      	lsrs	r6, r1, #3
10003a3e:	4366      	muls	r6, r4
10003a40:	0c36      	lsrs	r6, r6, #16
10003a42:	44b6      	add	lr, r6
10003a44:	b293      	uxth	r3, r2
10003a46:	4373      	muls	r3, r6
10003a48:	0f1f      	lsrs	r7, r3, #28
10003a4a:	011b      	lsls	r3, r3, #4
10003a4c:	1ac0      	subs	r0, r0, r3
10003a4e:	41b9      	sbcs	r1, r7
10003a50:	0c13      	lsrs	r3, r2, #16
10003a52:	4373      	muls	r3, r6
10003a54:	0b1f      	lsrs	r7, r3, #12
10003a56:	051b      	lsls	r3, r3, #20
10003a58:	1ac0      	subs	r0, r0, r3
10003a5a:	41b9      	sbcs	r1, r7
10003a5c:	0d86      	lsrs	r6, r0, #22
10003a5e:	028f      	lsls	r7, r1, #10
10003a60:	433e      	orrs	r6, r7
10003a62:	4366      	muls	r6, r4
10003a64:	0c36      	lsrs	r6, r6, #16
10003a66:	2d09      	cmp	r5, #9
10003a68:	db24      	blt.n	10003ab4 <last0>
10003a6a:	0a52      	lsrs	r2, r2, #9
10003a6c:	4372      	muls	r2, r6
10003a6e:	1a80      	subs	r0, r0, r2
10003a70:	0377      	lsls	r7, r6, #13
10003a72:	0a46      	lsrs	r6, r0, #9
10003a74:	4366      	muls	r6, r4
10003a76:	0c36      	lsrs	r6, r6, #16
10003a78:	2316      	movs	r3, #22
10003a7a:	1b5b      	subs	r3, r3, r5
10003a7c:	40de      	lsrs	r6, r3
10003a7e:	40df      	lsrs	r7, r3
10003a80:	19bf      	adds	r7, r7, r6
10003a82:	4664      	mov	r4, ip
10003a84:	4366      	muls	r6, r4
10003a86:	1b82      	subs	r2, r0, r6
10003a88:	4670      	mov	r0, lr
10003a8a:	3504      	adds	r5, #4
10003a8c:	3306      	adds	r3, #6
10003a8e:	0001      	movs	r1, r0
10003a90:	40d9      	lsrs	r1, r3
10003a92:	40a8      	lsls	r0, r5
10003a94:	19c0      	adds	r0, r0, r7
10003a96:	d300      	bcc.n	10003a9a <y64_x32+0xb6>
10003a98:	3101      	adds	r1, #1
10003a9a:	42a2      	cmp	r2, r4
10003a9c:	d206      	bcs.n	10003aac <y64_x32+0xc8>
10003a9e:	2300      	movs	r3, #0
10003aa0:	bdf0      	pop	{r4, r5, r6, r7, pc}
10003aa2:	0000      	.short	0x0000
10003aa4:	d0000000 	.word	0xd0000000
10003aa8:	ffffffff 	.word	0xffffffff
10003aac:	1b12      	subs	r2, r2, r4
10003aae:	3001      	adds	r0, #1
10003ab0:	d3f3      	bcc.n	10003a9a <y64_x32+0xb6>
10003ab2:	e7f1      	b.n	10003a98 <y64_x32+0xb4>

10003ab4 <last0>:
10003ab4:	2709      	movs	r7, #9
10003ab6:	1b7f      	subs	r7, r7, r5
10003ab8:	40fe      	lsrs	r6, r7
10003aba:	4664      	mov	r4, ip
10003abc:	b2a2      	uxth	r2, r4
10003abe:	4372      	muls	r2, r6
10003ac0:	1a80      	subs	r0, r0, r2
10003ac2:	d200      	bcs.n	10003ac6 <last0+0x12>
10003ac4:	3901      	subs	r1, #1
10003ac6:	0c22      	lsrs	r2, r4, #16
10003ac8:	4372      	muls	r2, r6
10003aca:	0c13      	lsrs	r3, r2, #16
10003acc:	0412      	lsls	r2, r2, #16
10003ace:	1a82      	subs	r2, r0, r2
10003ad0:	4199      	sbcs	r1, r3
10003ad2:	000b      	movs	r3, r1
10003ad4:	4670      	mov	r0, lr
10003ad6:	3504      	adds	r5, #4
10003ad8:	3713      	adds	r7, #19
10003ada:	0001      	movs	r1, r0
10003adc:	40f9      	lsrs	r1, r7
10003ade:	40a8      	lsls	r0, r5
10003ae0:	1980      	adds	r0, r0, r6
10003ae2:	d300      	bcc.n	10003ae6 <last0+0x32>
10003ae4:	3101      	adds	r1, #1
10003ae6:	2b00      	cmp	r3, #0
10003ae8:	d102      	bne.n	10003af0 <last0+0x3c>
10003aea:	42a2      	cmp	r2, r4
10003aec:	d20a      	bcs.n	10003b04 <last0+0x50>
10003aee:	bdf0      	pop	{r4, r5, r6, r7, pc}
10003af0:	3001      	adds	r0, #1
10003af2:	d300      	bcc.n	10003af6 <last0+0x42>
10003af4:	3101      	adds	r1, #1
10003af6:	1b12      	subs	r2, r2, r4
10003af8:	d2fa      	bcs.n	10003af0 <last0+0x3c>
10003afa:	3b01      	subs	r3, #1
10003afc:	d1f8      	bne.n	10003af0 <last0+0x3c>
10003afe:	42a2      	cmp	r2, r4
10003b00:	d200      	bcs.n	10003b04 <last0+0x50>
10003b02:	bdf0      	pop	{r4, r5, r6, r7, pc}
10003b04:	3001      	adds	r0, #1
10003b06:	d300      	bcc.n	10003b0a <last0+0x56>
10003b08:	3101      	adds	r1, #1
10003b0a:	1b12      	subs	r2, r2, r4
10003b0c:	e7f7      	b.n	10003afe <last0+0x4a>

10003b0e <y64_x48>:
10003b0e:	b5f0      	push	{r4, r5, r6, r7, lr}
10003b10:	0c1c      	lsrs	r4, r3, #16
10003b12:	d000      	beq.n	10003b16 <y64_x48+0x8>
10003b14:	e080      	b.n	10003c18 <y64_x64>
10003b16:	b40c      	push	{r2, r3}
10003b18:	2500      	movs	r5, #0
10003b1a:	0a1c      	lsrs	r4, r3, #8
10003b1c:	d104      	bne.n	10003b28 <y64_x48+0x1a>
10003b1e:	021b      	lsls	r3, r3, #8
10003b20:	0e16      	lsrs	r6, r2, #24
10003b22:	4333      	orrs	r3, r6
10003b24:	0212      	lsls	r2, r2, #8
10003b26:	3508      	adds	r5, #8
10003b28:	0b1c      	lsrs	r4, r3, #12
10003b2a:	d104      	bne.n	10003b36 <y64_x48+0x28>
10003b2c:	011b      	lsls	r3, r3, #4
10003b2e:	0f16      	lsrs	r6, r2, #28
10003b30:	4333      	orrs	r3, r6
10003b32:	0112      	lsls	r2, r2, #4
10003b34:	3504      	adds	r5, #4
10003b36:	0b9c      	lsrs	r4, r3, #14
10003b38:	d104      	bne.n	10003b44 <y64_x48+0x36>
10003b3a:	009b      	lsls	r3, r3, #2
10003b3c:	0f96      	lsrs	r6, r2, #30
10003b3e:	4333      	orrs	r3, r6
10003b40:	0092      	lsls	r2, r2, #2
10003b42:	3502      	adds	r5, #2
10003b44:	0bdc      	lsrs	r4, r3, #15
10003b46:	d102      	bne.n	10003b4e <y64_x48+0x40>
10003b48:	1892      	adds	r2, r2, r2
10003b4a:	415b      	adcs	r3, r3
10003b4c:	3501      	adds	r5, #1
10003b4e:	001c      	movs	r4, r3
10003b50:	1897      	adds	r7, r2, r2
10003b52:	4164      	adcs	r4, r4
10003b54:	3401      	adds	r4, #1
10003b56:	4f46      	ldr	r7, [pc, #280]	; (10003c70 <y64_x64+0x58>)
10003b58:	667c      	str	r4, [r7, #100]	; 0x64
10003b5a:	4c46      	ldr	r4, [pc, #280]	; (10003c74 <y64_x64+0x5c>)
10003b5c:	663c      	str	r4, [r7, #96]	; 0x60
10003b5e:	0c0e      	lsrs	r6, r1, #16
10003b60:	e7ff      	b.n	10003b62 <y64_x48+0x54>
10003b62:	e7ff      	b.n	10003b64 <y64_x48+0x56>
10003b64:	e7ff      	b.n	10003b66 <y64_x48+0x58>
10003b66:	46c0      	nop			; (mov r8, r8)
10003b68:	6f3c      	ldr	r4, [r7, #112]	; 0x70
10003b6a:	4366      	muls	r6, r4
10003b6c:	0c36      	lsrs	r6, r6, #16
10003b6e:	0377      	lsls	r7, r6, #13
10003b70:	46be      	mov	lr, r7
10003b72:	b297      	uxth	r7, r2
10003b74:	4377      	muls	r7, r6
10003b76:	1bc0      	subs	r0, r0, r7
10003b78:	d200      	bcs.n	10003b7c <y64_x48+0x6e>
10003b7a:	3901      	subs	r1, #1
10003b7c:	1bc0      	subs	r0, r0, r7
10003b7e:	d200      	bcs.n	10003b82 <y64_x48+0x74>
10003b80:	3901      	subs	r1, #1
10003b82:	b29f      	uxth	r7, r3
10003b84:	4377      	muls	r7, r6
10003b86:	1bc9      	subs	r1, r1, r7
10003b88:	1bc9      	subs	r1, r1, r7
10003b8a:	0c17      	lsrs	r7, r2, #16
10003b8c:	4377      	muls	r7, r6
10003b8e:	047e      	lsls	r6, r7, #17
10003b90:	0bff      	lsrs	r7, r7, #15
10003b92:	1b80      	subs	r0, r0, r6
10003b94:	41b9      	sbcs	r1, r7
10003b96:	08ce      	lsrs	r6, r1, #3
10003b98:	4366      	muls	r6, r4
10003b9a:	0c36      	lsrs	r6, r6, #16
10003b9c:	2d0c      	cmp	r5, #12
10003b9e:	db33      	blt.n	10003c08 <last1>
10003ba0:	44b6      	add	lr, r6
10003ba2:	0b12      	lsrs	r2, r2, #12
10003ba4:	051f      	lsls	r7, r3, #20
10003ba6:	433a      	orrs	r2, r7
10003ba8:	0b1b      	lsrs	r3, r3, #12
10003baa:	b297      	uxth	r7, r2
10003bac:	4377      	muls	r7, r6
10003bae:	1bc0      	subs	r0, r0, r7
10003bb0:	d200      	bcs.n	10003bb4 <y64_x48+0xa6>
10003bb2:	3901      	subs	r1, #1
10003bb4:	b29f      	uxth	r7, r3
10003bb6:	4377      	muls	r7, r6
10003bb8:	1bc9      	subs	r1, r1, r7
10003bba:	0c17      	lsrs	r7, r2, #16
10003bbc:	4377      	muls	r7, r6
10003bbe:	043e      	lsls	r6, r7, #16
10003bc0:	0c3f      	lsrs	r7, r7, #16
10003bc2:	1b80      	subs	r0, r0, r6
10003bc4:	41b9      	sbcs	r1, r7
10003bc6:	0d86      	lsrs	r6, r0, #22
10003bc8:	028f      	lsls	r7, r1, #10
10003bca:	433e      	orrs	r6, r7
10003bcc:	4366      	muls	r6, r4
10003bce:	2729      	movs	r7, #41	; 0x29
10003bd0:	1b7f      	subs	r7, r7, r5
10003bd2:	40fe      	lsrs	r6, r7
10003bd4:	3d0c      	subs	r5, #12
10003bd6:	4677      	mov	r7, lr
10003bd8:	40af      	lsls	r7, r5
10003bda:	19bf      	adds	r7, r7, r6
10003bdc:	bc30      	pop	{r4, r5}
10003bde:	b2a2      	uxth	r2, r4
10003be0:	b2ab      	uxth	r3, r5
10003be2:	4372      	muls	r2, r6
10003be4:	4373      	muls	r3, r6
10003be6:	1a80      	subs	r0, r0, r2
10003be8:	4199      	sbcs	r1, r3
10003bea:	0c22      	lsrs	r2, r4, #16
10003bec:	4372      	muls	r2, r6
10003bee:	0c13      	lsrs	r3, r2, #16
10003bf0:	0412      	lsls	r2, r2, #16
10003bf2:	1a80      	subs	r0, r0, r2
10003bf4:	4199      	sbcs	r1, r3
10003bf6:	0002      	movs	r2, r0
10003bf8:	000b      	movs	r3, r1
10003bfa:	3701      	adds	r7, #1
10003bfc:	1b00      	subs	r0, r0, r4
10003bfe:	41a9      	sbcs	r1, r5
10003c00:	d2f9      	bcs.n	10003bf6 <y64_x48+0xe8>
10003c02:	1e78      	subs	r0, r7, #1
10003c04:	2100      	movs	r1, #0
10003c06:	bdf0      	pop	{r4, r5, r6, r7, pc}

10003c08 <last1>:
10003c08:	270c      	movs	r7, #12
10003c0a:	1b7f      	subs	r7, r7, r5
10003c0c:	40fe      	lsrs	r6, r7
10003c0e:	4677      	mov	r7, lr
10003c10:	0b7f      	lsrs	r7, r7, #13
10003c12:	40af      	lsls	r7, r5
10003c14:	19ff      	adds	r7, r7, r7
10003c16:	e7e0      	b.n	10003bda <y64_x48+0xcc>

10003c18 <y64_x64>:
10003c18:	2400      	movs	r4, #0
10003c1a:	1c5d      	adds	r5, r3, #1
10003c1c:	d007      	beq.n	10003c2e <y64_x64+0x16>
10003c1e:	4f14      	ldr	r7, [pc, #80]	; (10003c70 <y64_x64+0x58>)
10003c20:	667d      	str	r5, [r7, #100]	; 0x64
10003c22:	6639      	str	r1, [r7, #96]	; 0x60
10003c24:	e7ff      	b.n	10003c26 <y64_x64+0xe>
10003c26:	e7ff      	b.n	10003c28 <y64_x64+0x10>
10003c28:	e7ff      	b.n	10003c2a <y64_x64+0x12>
10003c2a:	e7ff      	b.n	10003c2c <y64_x64+0x14>
10003c2c:	6f3c      	ldr	r4, [r7, #112]	; 0x70
10003c2e:	b295      	uxth	r5, r2
10003c30:	b29e      	uxth	r6, r3
10003c32:	4365      	muls	r5, r4
10003c34:	4366      	muls	r6, r4
10003c36:	1b40      	subs	r0, r0, r5
10003c38:	41b1      	sbcs	r1, r6
10003c3a:	0c15      	lsrs	r5, r2, #16
10003c3c:	0c1e      	lsrs	r6, r3, #16
10003c3e:	4365      	muls	r5, r4
10003c40:	4366      	muls	r6, r4
10003c42:	0436      	lsls	r6, r6, #16
10003c44:	0c2f      	lsrs	r7, r5, #16
10003c46:	433e      	orrs	r6, r7
10003c48:	042d      	lsls	r5, r5, #16
10003c4a:	1b40      	subs	r0, r0, r5
10003c4c:	41b1      	sbcs	r1, r6
10003c4e:	4299      	cmp	r1, r3
10003c50:	d204      	bcs.n	10003c5c <y64_x64+0x44>
10003c52:	0002      	movs	r2, r0
10003c54:	000b      	movs	r3, r1
10003c56:	0020      	movs	r0, r4
10003c58:	2100      	movs	r1, #0
10003c5a:	bdf0      	pop	{r4, r5, r6, r7, pc}
10003c5c:	d101      	bne.n	10003c62 <y64_x64+0x4a>
10003c5e:	4290      	cmp	r0, r2
10003c60:	d3f7      	bcc.n	10003c52 <y64_x64+0x3a>
10003c62:	1a80      	subs	r0, r0, r2
10003c64:	4199      	sbcs	r1, r3
10003c66:	3401      	adds	r4, #1
10003c68:	4299      	cmp	r1, r3
10003c6a:	d3f2      	bcc.n	10003c52 <y64_x64+0x3a>
10003c6c:	e7f6      	b.n	10003c5c <y64_x64+0x44>
10003c6e:	0000      	.short	0x0000
10003c70:	d0000000 	.word	0xd0000000
10003c74:	ffffffff 	.word	0xffffffff

10003c78 <__wrap___aeabi_drsub>:
10003c78:	4048      	eors	r0, r1
10003c7a:	4041      	eors	r1, r0
10003c7c:	4048      	eors	r0, r1

10003c7e <__wrap___aeabi_dsub>:
10003c7e:	b418      	push	{r3, r4}
10003c80:	4b13      	ldr	r3, [pc, #76]	; (10003cd0 <__wrap___aeabi_dmul+0xa>)
10003c82:	685b      	ldr	r3, [r3, #4]
10003c84:	9301      	str	r3, [sp, #4]
10003c86:	bd08      	pop	{r3, pc}

10003c88 <__wrap___aeabi_dadd>:
10003c88:	b418      	push	{r3, r4}
10003c8a:	4b11      	ldr	r3, [pc, #68]	; (10003cd0 <__wrap___aeabi_dmul+0xa>)
10003c8c:	681b      	ldr	r3, [r3, #0]
10003c8e:	9301      	str	r3, [sp, #4]
10003c90:	bd08      	pop	{r3, pc}

10003c92 <__wrap___aeabi_ddiv>:
10003c92:	4694      	mov	ip, r2
10003c94:	4a0f      	ldr	r2, [pc, #60]	; (10003cd4 <__wrap___aeabi_dmul+0xe>)
10003c96:	6f92      	ldr	r2, [r2, #120]	; 0x78
10003c98:	0892      	lsrs	r2, r2, #2
10003c9a:	d205      	bcs.n	10003ca8 <ddiv_save_state>
10003c9c:	4662      	mov	r2, ip

10003c9e <ddiv_shim_call>:
10003c9e:	b418      	push	{r3, r4}
10003ca0:	4b0b      	ldr	r3, [pc, #44]	; (10003cd0 <__wrap___aeabi_dmul+0xa>)
10003ca2:	68db      	ldr	r3, [r3, #12]
10003ca4:	9301      	str	r3, [sp, #4]
10003ca6:	bd08      	pop	{r3, pc}

10003ca8 <ddiv_save_state>:
10003ca8:	4a0a      	ldr	r2, [pc, #40]	; (10003cd4 <__wrap___aeabi_dmul+0xe>)
10003caa:	b5f0      	push	{r4, r5, r6, r7, lr}
10003cac:	6e14      	ldr	r4, [r2, #96]	; 0x60
10003cae:	6e55      	ldr	r5, [r2, #100]	; 0x64
10003cb0:	6f57      	ldr	r7, [r2, #116]	; 0x74
10003cb2:	6f16      	ldr	r6, [r2, #112]	; 0x70
10003cb4:	4662      	mov	r2, ip
10003cb6:	f7ff fff2 	bl	10003c9e <ddiv_shim_call>
10003cba:	4a06      	ldr	r2, [pc, #24]	; (10003cd4 <__wrap___aeabi_dmul+0xe>)
10003cbc:	6614      	str	r4, [r2, #96]	; 0x60
10003cbe:	6655      	str	r5, [r2, #100]	; 0x64
10003cc0:	6757      	str	r7, [r2, #116]	; 0x74
10003cc2:	6716      	str	r6, [r2, #112]	; 0x70
10003cc4:	bdf0      	pop	{r4, r5, r6, r7, pc}

10003cc6 <__wrap___aeabi_dmul>:
10003cc6:	b418      	push	{r3, r4}
10003cc8:	4b01      	ldr	r3, [pc, #4]	; (10003cd0 <__wrap___aeabi_dmul+0xa>)
10003cca:	689b      	ldr	r3, [r3, #8]
10003ccc:	9301      	str	r3, [sp, #4]
10003cce:	bd08      	pop	{r3, pc}
10003cd0:	20001818 	.word	0x20001818
10003cd4:	d0000000 	.word	0xd0000000

10003cd8 <__wrap___aeabi_cdrcmple>:
10003cd8:	b5ff      	push	{r0, r1, r2, r3, r4, r5, r6, r7, lr}
10003cda:	4050      	eors	r0, r2
10003cdc:	4042      	eors	r2, r0
10003cde:	4050      	eors	r0, r2
10003ce0:	4059      	eors	r1, r3
10003ce2:	404b      	eors	r3, r1
10003ce4:	4059      	eors	r1, r3
10003ce6:	e000      	b.n	10003cea <__aeabi_dfcmple_guts>

10003ce8 <__wrap___aeabi_cdcmpeq>:
10003ce8:	b5ff      	push	{r0, r1, r2, r3, r4, r5, r6, r7, lr}

10003cea <__aeabi_dfcmple_guts>:
10003cea:	4f15      	ldr	r7, [pc, #84]	; (10003d40 <__aeabi_dfcmple_guts+0x56>)
10003cec:	004c      	lsls	r4, r1, #1
10003cee:	0d64      	lsrs	r4, r4, #21
10003cf0:	d003      	beq.n	10003cfa <__aeabi_dfcmple_guts+0x10>
10003cf2:	42bc      	cmp	r4, r7
10003cf4:	d104      	bne.n	10003d00 <__aeabi_dfcmple_guts+0x16>
10003cf6:	030c      	lsls	r4, r1, #12
10003cf8:	d814      	bhi.n	10003d24 <__aeabi_dfcmple_guts+0x3a>
10003cfa:	2000      	movs	r0, #0
10003cfc:	0d09      	lsrs	r1, r1, #20
10003cfe:	0509      	lsls	r1, r1, #20
10003d00:	005c      	lsls	r4, r3, #1
10003d02:	0d64      	lsrs	r4, r4, #21
10003d04:	d003      	beq.n	10003d0e <__aeabi_dfcmple_guts+0x24>
10003d06:	42bc      	cmp	r4, r7
10003d08:	d104      	bne.n	10003d14 <__aeabi_dfcmple_guts+0x2a>
10003d0a:	031c      	lsls	r4, r3, #12
10003d0c:	d80a      	bhi.n	10003d24 <__aeabi_dfcmple_guts+0x3a>
10003d0e:	2200      	movs	r2, #0
10003d10:	0d1b      	lsrs	r3, r3, #20
10003d12:	051b      	lsls	r3, r3, #20
10003d14:	2601      	movs	r6, #1
10003d16:	404b      	eors	r3, r1
10003d18:	d409      	bmi.n	10003d2e <__aeabi_dfcmple_guts+0x44>
10003d1a:	404b      	eors	r3, r1
10003d1c:	d503      	bpl.n	10003d26 <__aeabi_dfcmple_guts+0x3c>
10003d1e:	428b      	cmp	r3, r1
10003d20:	d100      	bne.n	10003d24 <__aeabi_dfcmple_guts+0x3a>
10003d22:	4282      	cmp	r2, r0
10003d24:	bdff      	pop	{r0, r1, r2, r3, r4, r5, r6, r7, pc}
10003d26:	4299      	cmp	r1, r3
10003d28:	d1fc      	bne.n	10003d24 <__aeabi_dfcmple_guts+0x3a>
10003d2a:	4290      	cmp	r0, r2
10003d2c:	bdff      	pop	{r0, r1, r2, r3, r4, r5, r6, r7, pc}
10003d2e:	430b      	orrs	r3, r1
10003d30:	18db      	adds	r3, r3, r3
10003d32:	4303      	orrs	r3, r0
10003d34:	4313      	orrs	r3, r2
10003d36:	d0f5      	beq.n	10003d24 <__aeabi_dfcmple_guts+0x3a>
10003d38:	43c9      	mvns	r1, r1
10003d3a:	1849      	adds	r1, r1, r1
10003d3c:	bdff      	pop	{r0, r1, r2, r3, r4, r5, r6, r7, pc}
10003d3e:	0000      	.short	0x0000
10003d40:	000007ff 	.word	0x000007ff

10003d44 <__wrap___aeabi_dcmplt>:
10003d44:	b500      	push	{lr}
10003d46:	f7ff ffcf 	bl	10003ce8 <__wrap___aeabi_cdcmpeq>
10003d4a:	4180      	sbcs	r0, r0
10003d4c:	bd00      	pop	{pc}
10003d4e:	46c0      	nop			; (mov r8, r8)

10003d50 <__wrap___aeabi_dcmple>:
10003d50:	b500      	push	{lr}
10003d52:	f7ff ffc9 	bl	10003ce8 <__wrap___aeabi_cdcmpeq>
10003d56:	d901      	bls.n	10003d5c <__wrap___aeabi_dcmple+0xc>
10003d58:	2000      	movs	r0, #0
10003d5a:	bd00      	pop	{pc}
10003d5c:	2001      	movs	r0, #1
10003d5e:	bd00      	pop	{pc}

10003d60 <__wrap___aeabi_dcmpge>:
10003d60:	b500      	push	{lr}
10003d62:	f7ff ffb9 	bl	10003cd8 <__wrap___aeabi_cdrcmple>
10003d66:	d901      	bls.n	10003d6c <__wrap___aeabi_dcmpge+0xc>
10003d68:	2000      	movs	r0, #0
10003d6a:	bd00      	pop	{pc}
10003d6c:	2001      	movs	r0, #1
10003d6e:	bd00      	pop	{pc}

10003d70 <__wrap___aeabi_dcmpgt>:
10003d70:	b500      	push	{lr}
10003d72:	f7ff ffb1 	bl	10003cd8 <__wrap___aeabi_cdrcmple>
10003d76:	4180      	sbcs	r0, r0
10003d78:	bd00      	pop	{pc}

10003d7a <__wrap___aeabi_dcmpun>:
10003d7a:	2001      	movs	r0, #1
10003d7c:	0540      	lsls	r0, r0, #21
10003d7e:	004a      	lsls	r2, r1, #1
10003d80:	1812      	adds	r2, r2, r0
10003d82:	d804      	bhi.n	10003d8e <__wrap___aeabi_dcmpun+0x14>
10003d84:	005a      	lsls	r2, r3, #1
10003d86:	1812      	adds	r2, r2, r0
10003d88:	d801      	bhi.n	10003d8e <__wrap___aeabi_dcmpun+0x14>
10003d8a:	2000      	movs	r0, #0
10003d8c:	4770      	bx	lr
10003d8e:	2001      	movs	r0, #1
10003d90:	4770      	bx	lr
10003d92:	2000      	movs	r0, #0
10003d94:	4770      	bx	lr
	...

10003d98 <__wrap___aeabi_ui2d>:
10003d98:	2100      	movs	r1, #0
10003d9a:	2800      	cmp	r0, #0
10003d9c:	d105      	bne.n	10003daa <__wrap___aeabi_i2d+0xa>
10003d9e:	4770      	bx	lr

10003da0 <__wrap___aeabi_i2d>:
10003da0:	17c1      	asrs	r1, r0, #31
10003da2:	4048      	eors	r0, r1
10003da4:	1a40      	subs	r0, r0, r1
10003da6:	d0fa      	beq.n	10003d9e <__wrap___aeabi_ui2d+0x6>
10003da8:	07c9      	lsls	r1, r1, #31
10003daa:	b513      	push	{r0, r1, r4, lr}
10003dac:	4b06      	ldr	r3, [pc, #24]	; (10003dc8 <__wrap___aeabi_i2d+0x28>)
10003dae:	681b      	ldr	r3, [r3, #0]
10003db0:	4798      	blx	r3
10003db2:	bc0c      	pop	{r2, r3}
10003db4:	1c44      	adds	r4, r0, #1
10003db6:	40a2      	lsls	r2, r4
10003db8:	0510      	lsls	r0, r2, #20
10003dba:	0b12      	lsrs	r2, r2, #12
10003dbc:	4903      	ldr	r1, [pc, #12]	; (10003dcc <__wrap___aeabi_i2d+0x2c>)
10003dbe:	1b09      	subs	r1, r1, r4
10003dc0:	0509      	lsls	r1, r1, #20
10003dc2:	4319      	orrs	r1, r3
10003dc4:	4311      	orrs	r1, r2
10003dc6:	bd10      	pop	{r4, pc}
10003dc8:	20001918 	.word	0x20001918
10003dcc:	0000041f 	.word	0x0000041f

10003dd0 <__wrap___aeabi_d2iz>:
10003dd0:	b510      	push	{r4, lr}
10003dd2:	004c      	lsls	r4, r1, #1
10003dd4:	0d62      	lsrs	r2, r4, #21
10003dd6:	2380      	movs	r3, #128	; 0x80
10003dd8:	18d2      	adds	r2, r2, r3
10003dda:	00db      	lsls	r3, r3, #3
10003ddc:	1ad2      	subs	r2, r2, r3
10003dde:	055b      	lsls	r3, r3, #21
10003de0:	2a7e      	cmp	r2, #126	; 0x7e
10003de2:	dd10      	ble.n	10003e06 <__wrap___aeabi_d2iz+0x36>
10003de4:	3a9e      	subs	r2, #158	; 0x9e
10003de6:	da13      	bge.n	10003e10 <__wrap___aeabi_d2iz+0x40>
10003de8:	17cc      	asrs	r4, r1, #31
10003dea:	0309      	lsls	r1, r1, #12
10003dec:	0849      	lsrs	r1, r1, #1
10003dee:	4319      	orrs	r1, r3
10003df0:	4252      	negs	r2, r2
10003df2:	40d1      	lsrs	r1, r2
10003df4:	0064      	lsls	r4, r4, #1
10003df6:	3401      	adds	r4, #1
10003df8:	3215      	adds	r2, #21
10003dfa:	2a20      	cmp	r2, #32
10003dfc:	da05      	bge.n	10003e0a <__wrap___aeabi_d2iz+0x3a>
10003dfe:	40d0      	lsrs	r0, r2
10003e00:	4308      	orrs	r0, r1
10003e02:	4360      	muls	r0, r4
10003e04:	bd10      	pop	{r4, pc}
10003e06:	2000      	movs	r0, #0
10003e08:	bd10      	pop	{r4, pc}
10003e0a:	4608      	mov	r0, r1
10003e0c:	4360      	muls	r0, r4
10003e0e:	bd10      	pop	{r4, pc}
10003e10:	0fc8      	lsrs	r0, r1, #31
10003e12:	18c0      	adds	r0, r0, r3
10003e14:	3801      	subs	r0, #1
10003e16:	bd10      	pop	{r4, pc}

10003e18 <__wrap___aeabi_d2uiz>:
10003e18:	b418      	push	{r3, r4}
10003e1a:	4b02      	ldr	r3, [pc, #8]	; (10003e24 <__wrap___aeabi_d2uiz+0xc>)
10003e1c:	6a5b      	ldr	r3, [r3, #36]	; 0x24
10003e1e:	9301      	str	r3, [sp, #4]
10003e20:	bd08      	pop	{r3, pc}
10003e22:	0000      	.short	0x0000
10003e24:	20001818 	.word	0x20001818

10003e28 <missing_double_func_shim>:
10003e28:	b510      	push	{r4, lr}
10003e2a:	4801      	ldr	r0, [pc, #4]	; (10003e30 <missing_double_func_shim+0x8>)
10003e2c:	f7fe fbd8 	bl	100025e0 <panic>
10003e30:	10007b18 	.word	0x10007b18

10003e34 <__aeabi_double_init>:
10003e34:	b570      	push	{r4, r5, r6, lr}
10003e36:	2313      	movs	r3, #19
10003e38:	781c      	ldrb	r4, [r3, #0]
10003e3a:	2c01      	cmp	r4, #1
10003e3c:	d014      	beq.n	10003e68 <__aeabi_double_init+0x34>
10003e3e:	2c01      	cmp	r4, #1
10003e40:	dc14      	bgt.n	10003e6c <__aeabi_double_init+0x38>
10003e42:	2c02      	cmp	r4, #2
10003e44:	dc02      	bgt.n	10003e4c <__aeabi_double_init+0x18>
10003e46:	4a1f      	ldr	r2, [pc, #124]	; (10003ec4 <__aeabi_double_init+0x90>)
10003e48:	4b1f      	ldr	r3, [pc, #124]	; (10003ec8 <__aeabi_double_init+0x94>)
10003e4a:	649a      	str	r2, [r3, #72]	; 0x48
10003e4c:	481f      	ldr	r0, [pc, #124]	; (10003ecc <__aeabi_double_init+0x98>)
10003e4e:	f7ff fc87 	bl	10003760 <rom_func_lookup>
10003e52:	4b1f      	ldr	r3, [pc, #124]	; (10003ed0 <__aeabi_double_init+0x9c>)
10003e54:	6018      	str	r0, [r3, #0]
10003e56:	bd70      	pop	{r4, r5, r6, pc}
10003e58:	0099      	lsls	r1, r3, #2
10003e5a:	481e      	ldr	r0, [pc, #120]	; (10003ed4 <__aeabi_double_init+0xa0>)
10003e5c:	4a1a      	ldr	r2, [pc, #104]	; (10003ec8 <__aeabi_double_init+0x94>)
10003e5e:	5088      	str	r0, [r1, r2]
10003e60:	3301      	adds	r3, #1
10003e62:	2b1f      	cmp	r3, #31
10003e64:	d9f8      	bls.n	10003e58 <__aeabi_double_init+0x24>
10003e66:	e7ea      	b.n	10003e3e <__aeabi_double_init+0xa>
10003e68:	2300      	movs	r3, #0
10003e6a:	e7fa      	b.n	10003e62 <__aeabi_double_init+0x2e>
10003e6c:	481a      	ldr	r0, [pc, #104]	; (10003ed8 <__aeabi_double_init+0xa4>)
10003e6e:	f7ff fc7f 	bl	10003770 <rom_data_lookup>
10003e72:	0005      	movs	r5, r0
10003e74:	4819      	ldr	r0, [pc, #100]	; (10003edc <__aeabi_double_init+0xa8>)
10003e76:	f7ff fc7b 	bl	10003770 <rom_data_lookup>
10003e7a:	3802      	subs	r0, #2
10003e7c:	7803      	ldrb	r3, [r0, #0]
10003e7e:	009b      	lsls	r3, r3, #2
10003e80:	2b7f      	cmp	r3, #127	; 0x7f
10003e82:	dd19      	ble.n	10003eb8 <__aeabi_double_init+0x84>
10003e84:	2280      	movs	r2, #128	; 0x80
10003e86:	0029      	movs	r1, r5
10003e88:	480f      	ldr	r0, [pc, #60]	; (10003ec8 <__aeabi_double_init+0x94>)
10003e8a:	f000 f8c5 	bl	10004018 <__wrap___aeabi_memcpy>
10003e8e:	2c02      	cmp	r4, #2
10003e90:	d1d7      	bne.n	10003e42 <__aeabi_double_init+0xe>
10003e92:	4b13      	ldr	r3, [pc, #76]	; (10003ee0 <__aeabi_double_init+0xac>)
10003e94:	881a      	ldrh	r2, [r3, #0]
10003e96:	23b5      	movs	r3, #181	; 0xb5
10003e98:	021b      	lsls	r3, r3, #8
10003e9a:	429a      	cmp	r2, r3
10003e9c:	d109      	bne.n	10003eb2 <__aeabi_double_init+0x7e>
10003e9e:	4b11      	ldr	r3, [pc, #68]	; (10003ee4 <__aeabi_double_init+0xb0>)
10003ea0:	881a      	ldrh	r2, [r3, #0]
10003ea2:	4b11      	ldr	r3, [pc, #68]	; (10003ee8 <__aeabi_double_init+0xb4>)
10003ea4:	429a      	cmp	r2, r3
10003ea6:	d104      	bne.n	10003eb2 <__aeabi_double_init+0x7e>
10003ea8:	4b10      	ldr	r3, [pc, #64]	; (10003eec <__aeabi_double_init+0xb8>)
10003eaa:	881a      	ldrh	r2, [r3, #0]
10003eac:	4b10      	ldr	r3, [pc, #64]	; (10003ef0 <__aeabi_double_init+0xbc>)
10003eae:	429a      	cmp	r2, r3
10003eb0:	d0c7      	beq.n	10003e42 <__aeabi_double_init+0xe>
10003eb2:	2000      	movs	r0, #0
10003eb4:	f7fe fb94 	bl	100025e0 <panic>
10003eb8:	4b0e      	ldr	r3, [pc, #56]	; (10003ef4 <__aeabi_double_init+0xc0>)
10003eba:	4a0f      	ldr	r2, [pc, #60]	; (10003ef8 <__aeabi_double_init+0xc4>)
10003ebc:	2132      	movs	r1, #50	; 0x32
10003ebe:	480f      	ldr	r0, [pc, #60]	; (10003efc <__aeabi_double_init+0xc8>)
10003ec0:	f7fe faf4 	bl	100024ac <__assert_func>
10003ec4:	10003f01 	.word	0x10003f01
10003ec8:	20001818 	.word	0x20001818
10003ecc:	0000334c 	.word	0x0000334c
10003ed0:	20001918 	.word	0x20001918
10003ed4:	10003e29 	.word	0x10003e29
10003ed8:	00004453 	.word	0x00004453
10003edc:	00004653 	.word	0x00004653
10003ee0:	00003854 	.word	0x00003854
10003ee4:	000038d8 	.word	0x000038d8
10003ee8:	00004649 	.word	0x00004649
10003eec:	0000389c 	.word	0x0000389c
10003ef0:	00004659 	.word	0x00004659
10003ef4:	10007b30 	.word	0x10007b30
10003ef8:	10007be8 	.word	0x10007be8
10003efc:	10007b84 	.word	0x10007b84

10003f00 <double_table_shim_on_use_helper>:
10003f00:	b507      	push	{r0, r1, r2, lr}
10003f02:	4660      	mov	r0, ip
10003f04:	2800      	cmp	r0, #0
10003f06:	d100      	bne.n	10003f0a <double_table_shim_on_use_helper+0xa>
10003f08:	be00      	bkpt	0x0000
10003f0a:	8801      	ldrh	r1, [r0, #0]
10003f0c:	0a0a      	lsrs	r2, r1, #8
10003f0e:	3002      	adds	r0, #2
10003f10:	2adf      	cmp	r2, #223	; 0xdf
10003f12:	d1fa      	bne.n	10003f0a <double_table_shim_on_use_helper+0xa>
10003f14:	b2c9      	uxtb	r1, r1
10003f16:	0882      	lsrs	r2, r0, #2
10003f18:	d304      	bcc.n	10003f24 <double_table_shim_on_use_helper+0x24>
10003f1a:	8802      	ldrh	r2, [r0, #0]
10003f1c:	8840      	ldrh	r0, [r0, #2]
10003f1e:	0400      	lsls	r0, r0, #16
10003f20:	4310      	orrs	r0, r2
10003f22:	e000      	b.n	10003f26 <double_table_shim_on_use_helper+0x26>
10003f24:	6800      	ldr	r0, [r0, #0]
10003f26:	4a02      	ldr	r2, [pc, #8]	; (10003f30 <double_table_shim_on_use_helper+0x30>)
10003f28:	5050      	str	r0, [r2, r1]
10003f2a:	9003      	str	r0, [sp, #12]
10003f2c:	bd07      	pop	{r0, r1, r2, pc}
10003f2e:	0000      	.short	0x0000
10003f30:	20001818 	.word	0x20001818

10003f34 <__wrap___aeabi_lmul>:
10003f34:	4351      	muls	r1, r2
10003f36:	4343      	muls	r3, r0
10003f38:	18c9      	adds	r1, r1, r3
10003f3a:	468c      	mov	ip, r1
10003f3c:	0c11      	lsrs	r1, r2, #16
10003f3e:	b283      	uxth	r3, r0
10003f40:	434b      	muls	r3, r1
10003f42:	b410      	push	{r4}
10003f44:	0c04      	lsrs	r4, r0, #16
10003f46:	4361      	muls	r1, r4
10003f48:	b292      	uxth	r2, r2
10003f4a:	b280      	uxth	r0, r0
10003f4c:	4350      	muls	r0, r2
10003f4e:	4362      	muls	r2, r4
10003f50:	041c      	lsls	r4, r3, #16
10003f52:	0c1b      	lsrs	r3, r3, #16
10003f54:	1900      	adds	r0, r0, r4
10003f56:	bc10      	pop	{r4}
10003f58:	4159      	adcs	r1, r3
10003f5a:	0413      	lsls	r3, r2, #16
10003f5c:	0c12      	lsrs	r2, r2, #16
10003f5e:	18c0      	adds	r0, r0, r3
10003f60:	4151      	adcs	r1, r2
10003f62:	4461      	add	r1, ip
10003f64:	4770      	bx	lr
	...

10003f68 <missing_float_func_shim>:
10003f68:	b510      	push	{r4, lr}
10003f6a:	4801      	ldr	r0, [pc, #4]	; (10003f70 <missing_float_func_shim+0x8>)
10003f6c:	f7fe fb38 	bl	100025e0 <panic>
10003f70:	100077f4 	.word	0x100077f4

10003f74 <__aeabi_float_init>:
10003f74:	b570      	push	{r4, r5, r6, lr}
10003f76:	2313      	movs	r3, #19
10003f78:	781e      	ldrb	r6, [r3, #0]
10003f7a:	4818      	ldr	r0, [pc, #96]	; (10003fdc <__aeabi_float_init+0x68>)
10003f7c:	f7ff fbf8 	bl	10003770 <rom_data_lookup>
10003f80:	0005      	movs	r5, r0
10003f82:	2e01      	cmp	r6, #1
10003f84:	d011      	beq.n	10003faa <__aeabi_float_init+0x36>
10003f86:	2e01      	cmp	r6, #1
10003f88:	dd09      	ble.n	10003f9e <__aeabi_float_init+0x2a>
10003f8a:	1eab      	subs	r3, r5, #2
10003f8c:	781b      	ldrb	r3, [r3, #0]
10003f8e:	009b      	lsls	r3, r3, #2
10003f90:	2b7f      	cmp	r3, #127	; 0x7f
10003f92:	dd1d      	ble.n	10003fd0 <__aeabi_float_init+0x5c>
10003f94:	2280      	movs	r2, #128	; 0x80
10003f96:	0029      	movs	r1, r5
10003f98:	4811      	ldr	r0, [pc, #68]	; (10003fe0 <__aeabi_float_init+0x6c>)
10003f9a:	f000 f83d 	bl	10004018 <__wrap___aeabi_memcpy>
10003f9e:	4811      	ldr	r0, [pc, #68]	; (10003fe4 <__aeabi_float_init+0x70>)
10003fa0:	f7ff fbde 	bl	10003760 <rom_func_lookup>
10003fa4:	4b10      	ldr	r3, [pc, #64]	; (10003fe8 <__aeabi_float_init+0x74>)
10003fa6:	6018      	str	r0, [r3, #0]
10003fa8:	bd70      	pop	{r4, r5, r6, pc}
10003faa:	2254      	movs	r2, #84	; 0x54
10003fac:	0001      	movs	r1, r0
10003fae:	480c      	ldr	r0, [pc, #48]	; (10003fe0 <__aeabi_float_init+0x6c>)
10003fb0:	f000 f832 	bl	10004018 <__wrap___aeabi_memcpy>
10003fb4:	2300      	movs	r3, #0
10003fb6:	e000      	b.n	10003fba <__aeabi_float_init+0x46>
10003fb8:	3301      	adds	r3, #1
10003fba:	2b1f      	cmp	r3, #31
10003fbc:	d8e3      	bhi.n	10003f86 <__aeabi_float_init+0x12>
10003fbe:	009a      	lsls	r2, r3, #2
10003fc0:	4c07      	ldr	r4, [pc, #28]	; (10003fe0 <__aeabi_float_init+0x6c>)
10003fc2:	5912      	ldr	r2, [r2, r4]
10003fc4:	2a00      	cmp	r2, #0
10003fc6:	d1f7      	bne.n	10003fb8 <__aeabi_float_init+0x44>
10003fc8:	009a      	lsls	r2, r3, #2
10003fca:	4808      	ldr	r0, [pc, #32]	; (10003fec <__aeabi_float_init+0x78>)
10003fcc:	5110      	str	r0, [r2, r4]
10003fce:	e7f3      	b.n	10003fb8 <__aeabi_float_init+0x44>
10003fd0:	4b07      	ldr	r3, [pc, #28]	; (10003ff0 <__aeabi_float_init+0x7c>)
10003fd2:	4a08      	ldr	r2, [pc, #32]	; (10003ff4 <__aeabi_float_init+0x80>)
10003fd4:	2142      	movs	r1, #66	; 0x42
10003fd6:	4808      	ldr	r0, [pc, #32]	; (10003ff8 <__aeabi_float_init+0x84>)
10003fd8:	f7fe fa68 	bl	100024ac <__assert_func>
10003fdc:	00004653 	.word	0x00004653
10003fe0:	2000191c 	.word	0x2000191c
10003fe4:	0000334c 	.word	0x0000334c
10003fe8:	20001918 	.word	0x20001918
10003fec:	10003f69 	.word	0x10003f69
10003ff0:	10007bfc 	.word	0x10007bfc
10003ff4:	10007c94 	.word	0x10007c94
10003ff8:	10007c30 	.word	0x10007c30

10003ffc <__aeabi_mem_init>:
10003ffc:	4801      	ldr	r0, [pc, #4]	; (10004004 <__aeabi_mem_init+0x8>)
10003ffe:	2104      	movs	r1, #4
10004000:	4b01      	ldr	r3, [pc, #4]	; (10004008 <__aeabi_mem_init+0xc>)
10004002:	4718      	bx	r3
10004004:	20000c40 	.word	0x20000c40
10004008:	10003781 	.word	0x10003781

1000400c <__wrap_memset>:
1000400c:	4b01      	ldr	r3, [pc, #4]	; (10004014 <__wrap_memset+0x8>)
1000400e:	681b      	ldr	r3, [r3, #0]
10004010:	4718      	bx	r3
10004012:	0000      	.short	0x0000
10004014:	20000c40 	.word	0x20000c40

10004018 <__wrap___aeabi_memcpy>:
10004018:	4b01      	ldr	r3, [pc, #4]	; (10004020 <__wrap___aeabi_memcpy+0x8>)
1000401a:	685b      	ldr	r3, [r3, #4]
1000401c:	4718      	bx	r3
1000401e:	0000      	.short	0x0000
10004020:	20000c40 	.word	0x20000c40

10004024 <stdio_out_chars_no_crlf>:
10004024:	b510      	push	{r4, lr}
10004026:	0003      	movs	r3, r0
10004028:	0008      	movs	r0, r1
1000402a:	0011      	movs	r1, r2
1000402c:	681b      	ldr	r3, [r3, #0]
1000402e:	4798      	blx	r3
10004030:	bd10      	pop	{r4, pc}
	...

10004034 <stdio_out_chars_crlf>:
10004034:	b5f8      	push	{r3, r4, r5, r6, r7, lr}
10004036:	0007      	movs	r7, r0
10004038:	000d      	movs	r5, r1
1000403a:	0016      	movs	r6, r2
1000403c:	7d43      	ldrb	r3, [r0, #21]
1000403e:	2b00      	cmp	r3, #0
10004040:	d002      	beq.n	10004048 <stdio_out_chars_crlf+0x14>
10004042:	2400      	movs	r4, #0
10004044:	2000      	movs	r0, #0
10004046:	e00c      	b.n	10004062 <stdio_out_chars_crlf+0x2e>
10004048:	6803      	ldr	r3, [r0, #0]
1000404a:	0011      	movs	r1, r2
1000404c:	0028      	movs	r0, r5
1000404e:	4798      	blx	r3
10004050:	e02d      	b.n	100040ae <stdio_out_chars_crlf+0x7a>
10004052:	7d3b      	ldrb	r3, [r7, #20]
10004054:	e010      	b.n	10004078 <stdio_out_chars_crlf+0x44>
10004056:	2102      	movs	r1, #2
10004058:	4815      	ldr	r0, [pc, #84]	; (100040b0 <stdio_out_chars_crlf+0x7c>)
1000405a:	683b      	ldr	r3, [r7, #0]
1000405c:	4798      	blx	r3
1000405e:	1c60      	adds	r0, r4, #1
10004060:	3401      	adds	r4, #1
10004062:	42b4      	cmp	r4, r6
10004064:	da14      	bge.n	10004090 <stdio_out_chars_crlf+0x5c>
10004066:	2c00      	cmp	r4, #0
10004068:	ddf3      	ble.n	10004052 <stdio_out_chars_crlf+0x1e>
1000406a:	192b      	adds	r3, r5, r4
1000406c:	3b01      	subs	r3, #1
1000406e:	781b      	ldrb	r3, [r3, #0]
10004070:	3b0d      	subs	r3, #13
10004072:	425a      	negs	r2, r3
10004074:	4153      	adcs	r3, r2
10004076:	b2db      	uxtb	r3, r3
10004078:	5d2a      	ldrb	r2, [r5, r4]
1000407a:	2a0a      	cmp	r2, #10
1000407c:	d1f0      	bne.n	10004060 <stdio_out_chars_crlf+0x2c>
1000407e:	2b00      	cmp	r3, #0
10004080:	d1ee      	bne.n	10004060 <stdio_out_chars_crlf+0x2c>
10004082:	42a0      	cmp	r0, r4
10004084:	dae7      	bge.n	10004056 <stdio_out_chars_crlf+0x22>
10004086:	1a21      	subs	r1, r4, r0
10004088:	1828      	adds	r0, r5, r0
1000408a:	683b      	ldr	r3, [r7, #0]
1000408c:	4798      	blx	r3
1000408e:	e7e2      	b.n	10004056 <stdio_out_chars_crlf+0x22>
10004090:	42b0      	cmp	r0, r6
10004092:	da03      	bge.n	1000409c <stdio_out_chars_crlf+0x68>
10004094:	1a31      	subs	r1, r6, r0
10004096:	1828      	adds	r0, r5, r0
10004098:	683b      	ldr	r3, [r7, #0]
1000409a:	4798      	blx	r3
1000409c:	2e00      	cmp	r6, #0
1000409e:	dd06      	ble.n	100040ae <stdio_out_chars_crlf+0x7a>
100040a0:	19ad      	adds	r5, r5, r6
100040a2:	3d01      	subs	r5, #1
100040a4:	782b      	ldrb	r3, [r5, #0]
100040a6:	3b0d      	subs	r3, #13
100040a8:	425a      	negs	r2, r3
100040aa:	4153      	adcs	r3, r2
100040ac:	753b      	strb	r3, [r7, #20]
100040ae:	bdf8      	pop	{r3, r4, r5, r6, r7, pc}
100040b0:	10007d74 	.word	0x10007d74

100040b4 <stdio_stack_buffer_flush>:
100040b4:	b570      	push	{r4, r5, r6, lr}
100040b6:	0005      	movs	r5, r0
100040b8:	6803      	ldr	r3, [r0, #0]
100040ba:	2b00      	cmp	r3, #0
100040bc:	d016      	beq.n	100040ec <stdio_stack_buffer_flush+0x38>
100040be:	4b0c      	ldr	r3, [pc, #48]	; (100040f0 <stdio_stack_buffer_flush+0x3c>)
100040c0:	681c      	ldr	r4, [r3, #0]
100040c2:	e005      	b.n	100040d0 <stdio_stack_buffer_flush+0x1c>
100040c4:	0029      	movs	r1, r5
100040c6:	c904      	ldmia	r1!, {r2}
100040c8:	0020      	movs	r0, r4
100040ca:	f7ff ffb3 	bl	10004034 <stdio_out_chars_crlf>
100040ce:	6924      	ldr	r4, [r4, #16]
100040d0:	2c00      	cmp	r4, #0
100040d2:	d009      	beq.n	100040e8 <stdio_stack_buffer_flush+0x34>
100040d4:	6823      	ldr	r3, [r4, #0]
100040d6:	2b00      	cmp	r3, #0
100040d8:	d0f9      	beq.n	100040ce <stdio_stack_buffer_flush+0x1a>
100040da:	4b06      	ldr	r3, [pc, #24]	; (100040f4 <stdio_stack_buffer_flush+0x40>)
100040dc:	681b      	ldr	r3, [r3, #0]
100040de:	2b00      	cmp	r3, #0
100040e0:	d0f0      	beq.n	100040c4 <stdio_stack_buffer_flush+0x10>
100040e2:	42a3      	cmp	r3, r4
100040e4:	d1f3      	bne.n	100040ce <stdio_stack_buffer_flush+0x1a>
100040e6:	e7ed      	b.n	100040c4 <stdio_stack_buffer_flush+0x10>
100040e8:	2300      	movs	r3, #0
100040ea:	602b      	str	r3, [r5, #0]
100040ec:	bd70      	pop	{r4, r5, r6, pc}
100040ee:	46c0      	nop			; (mov r8, r8)
100040f0:	200013e4 	.word	0x200013e4
100040f4:	200013ec 	.word	0x200013ec

100040f8 <stdio_buffered_printer>:
100040f8:	b570      	push	{r4, r5, r6, lr}
100040fa:	0005      	movs	r5, r0
100040fc:	000c      	movs	r4, r1
100040fe:	680b      	ldr	r3, [r1, #0]
10004100:	2b80      	cmp	r3, #128	; 0x80
10004102:	d005      	beq.n	10004110 <stdio_buffered_printer+0x18>
10004104:	6821      	ldr	r1, [r4, #0]
10004106:	1c4b      	adds	r3, r1, #1
10004108:	6023      	str	r3, [r4, #0]
1000410a:	1864      	adds	r4, r4, r1
1000410c:	7125      	strb	r5, [r4, #4]
1000410e:	bd70      	pop	{r4, r5, r6, pc}
10004110:	0008      	movs	r0, r1
10004112:	f7ff ffcf 	bl	100040b4 <stdio_stack_buffer_flush>
10004116:	e7f5      	b.n	10004104 <stdio_buffered_printer+0xc>

10004118 <stdout_serialize_begin>:
10004118:	b510      	push	{r4, lr}
1000411a:	f7fd fb93 	bl	10001844 <time_us_64>
1000411e:	0002      	movs	r2, r0
10004120:	1e0b      	subs	r3, r1, #0
10004122:	db0b      	blt.n	1000413c <stdout_serialize_begin+0x24>
10004124:	480d      	ldr	r0, [pc, #52]	; (1000415c <stdout_serialize_begin+0x44>)
10004126:	2100      	movs	r1, #0
10004128:	1812      	adds	r2, r2, r0
1000412a:	414b      	adcs	r3, r1
1000412c:	2b00      	cmp	r3, #0
1000412e:	db0b      	blt.n	10004148 <stdout_serialize_begin+0x30>
10004130:	2b00      	cmp	r3, #0
10004132:	db0d      	blt.n	10004150 <stdout_serialize_begin+0x38>
10004134:	480a      	ldr	r0, [pc, #40]	; (10004160 <stdout_serialize_begin+0x48>)
10004136:	f002 fd63 	bl	10006c00 <__mutex_try_enter_block_until_veneer>
1000413a:	bd10      	pop	{r4, pc}
1000413c:	4b09      	ldr	r3, [pc, #36]	; (10004164 <stdout_serialize_begin+0x4c>)
1000413e:	4a0a      	ldr	r2, [pc, #40]	; (10004168 <stdout_serialize_begin+0x50>)
10004140:	213f      	movs	r1, #63	; 0x3f
10004142:	480a      	ldr	r0, [pc, #40]	; (1000416c <stdout_serialize_begin+0x54>)
10004144:	f7fe f9b2 	bl	100024ac <__assert_func>
10004148:	2201      	movs	r2, #1
1000414a:	4252      	negs	r2, r2
1000414c:	4b08      	ldr	r3, [pc, #32]	; (10004170 <stdout_serialize_begin+0x58>)
1000414e:	e7ef      	b.n	10004130 <stdout_serialize_begin+0x18>
10004150:	4b04      	ldr	r3, [pc, #16]	; (10004164 <stdout_serialize_begin+0x4c>)
10004152:	4a05      	ldr	r2, [pc, #20]	; (10004168 <stdout_serialize_begin+0x50>)
10004154:	213f      	movs	r1, #63	; 0x3f
10004156:	4805      	ldr	r0, [pc, #20]	; (1000416c <stdout_serialize_begin+0x54>)
10004158:	f7fe f9a8 	bl	100024ac <__assert_func>
1000415c:	000f4240 	.word	0x000f4240
10004160:	20000ca8 	.word	0x20000ca8
10004164:	10006fbc 	.word	0x10006fbc
10004168:	10007d5c 	.word	0x10007d5c
1000416c:	10006fd8 	.word	0x10006fd8
10004170:	7fffffff 	.word	0x7fffffff

10004174 <stdout_serialize_end>:
10004174:	b510      	push	{r4, lr}
10004176:	4802      	ldr	r0, [pc, #8]	; (10004180 <stdout_serialize_end+0xc>)
10004178:	f002 fd02 	bl	10006b80 <__mutex_exit_veneer>
1000417c:	bd10      	pop	{r4, pc}
1000417e:	46c0      	nop			; (mov r8, r8)
10004180:	20000ca8 	.word	0x20000ca8

10004184 <stdio_put_string>:
10004184:	b5f0      	push	{r4, r5, r6, r7, lr}
10004186:	46ce      	mov	lr, r9
10004188:	4647      	mov	r7, r8
1000418a:	b580      	push	{r7, lr}
1000418c:	b083      	sub	sp, #12
1000418e:	0006      	movs	r6, r0
10004190:	000d      	movs	r5, r1
10004192:	4690      	mov	r8, r2
10004194:	001c      	movs	r4, r3
10004196:	f7ff ffbf 	bl	10004118 <stdout_serialize_begin>
1000419a:	4681      	mov	r9, r0
1000419c:	1c6b      	adds	r3, r5, #1
1000419e:	d005      	beq.n	100041ac <stdio_put_string+0x28>
100041a0:	2c00      	cmp	r4, #0
100041a2:	d008      	beq.n	100041b6 <stdio_put_string+0x32>
100041a4:	4f19      	ldr	r7, [pc, #100]	; (1000420c <stdio_put_string+0x88>)
100041a6:	4b1a      	ldr	r3, [pc, #104]	; (10004210 <stdio_put_string+0x8c>)
100041a8:	681c      	ldr	r4, [r3, #0]
100041aa:	e007      	b.n	100041bc <stdio_put_string+0x38>
100041ac:	0030      	movs	r0, r6
100041ae:	f002 fca7 	bl	10006b00 <strlen>
100041b2:	0005      	movs	r5, r0
100041b4:	e7f4      	b.n	100041a0 <stdio_put_string+0x1c>
100041b6:	4f17      	ldr	r7, [pc, #92]	; (10004214 <stdio_put_string+0x90>)
100041b8:	e7f5      	b.n	100041a6 <stdio_put_string+0x22>
100041ba:	6924      	ldr	r4, [r4, #16]
100041bc:	2c00      	cmp	r4, #0
100041be:	d017      	beq.n	100041f0 <stdio_put_string+0x6c>
100041c0:	6823      	ldr	r3, [r4, #0]
100041c2:	2b00      	cmp	r3, #0
100041c4:	d0f9      	beq.n	100041ba <stdio_put_string+0x36>
100041c6:	4b14      	ldr	r3, [pc, #80]	; (10004218 <stdio_put_string+0x94>)
100041c8:	681b      	ldr	r3, [r3, #0]
100041ca:	2b00      	cmp	r3, #0
100041cc:	d001      	beq.n	100041d2 <stdio_put_string+0x4e>
100041ce:	42a3      	cmp	r3, r4
100041d0:	d1f3      	bne.n	100041ba <stdio_put_string+0x36>
100041d2:	002a      	movs	r2, r5
100041d4:	0031      	movs	r1, r6
100041d6:	0020      	movs	r0, r4
100041d8:	47b8      	blx	r7
100041da:	4643      	mov	r3, r8
100041dc:	2b00      	cmp	r3, #0
100041de:	d0ec      	beq.n	100041ba <stdio_put_string+0x36>
100041e0:	466b      	mov	r3, sp
100041e2:	1dd9      	adds	r1, r3, #7
100041e4:	230a      	movs	r3, #10
100041e6:	700b      	strb	r3, [r1, #0]
100041e8:	2201      	movs	r2, #1
100041ea:	0020      	movs	r0, r4
100041ec:	47b8      	blx	r7
100041ee:	e7e4      	b.n	100041ba <stdio_put_string+0x36>
100041f0:	464b      	mov	r3, r9
100041f2:	2b00      	cmp	r3, #0
100041f4:	d107      	bne.n	10004206 <stdio_put_string+0x82>
100041f6:	1e6b      	subs	r3, r5, #1
100041f8:	419d      	sbcs	r5, r3
100041fa:	b2e8      	uxtb	r0, r5
100041fc:	b003      	add	sp, #12
100041fe:	bcc0      	pop	{r6, r7}
10004200:	46b9      	mov	r9, r7
10004202:	46b0      	mov	r8, r6
10004204:	bdf0      	pop	{r4, r5, r6, r7, pc}
10004206:	f7ff ffb5 	bl	10004174 <stdout_serialize_end>
1000420a:	e7f4      	b.n	100041f6 <stdio_put_string+0x72>
1000420c:	10004025 	.word	0x10004025
10004210:	200013e4 	.word	0x200013e4
10004214:	10004035 	.word	0x10004035
10004218:	200013ec 	.word	0x200013ec

1000421c <stdio_set_driver_enabled>:
1000421c:	4a09      	ldr	r2, [pc, #36]	; (10004244 <stdio_set_driver_enabled+0x28>)
1000421e:	e001      	b.n	10004224 <stdio_set_driver_enabled+0x8>
10004220:	3310      	adds	r3, #16
10004222:	001a      	movs	r2, r3
10004224:	6813      	ldr	r3, [r2, #0]
10004226:	2b00      	cmp	r3, #0
10004228:	d008      	beq.n	1000423c <stdio_set_driver_enabled+0x20>
1000422a:	4283      	cmp	r3, r0
1000422c:	d1f8      	bne.n	10004220 <stdio_set_driver_enabled+0x4>
1000422e:	2900      	cmp	r1, #0
10004230:	d107      	bne.n	10004242 <stdio_set_driver_enabled+0x26>
10004232:	6903      	ldr	r3, [r0, #16]
10004234:	6013      	str	r3, [r2, #0]
10004236:	2300      	movs	r3, #0
10004238:	6103      	str	r3, [r0, #16]
1000423a:	e002      	b.n	10004242 <stdio_set_driver_enabled+0x26>
1000423c:	2900      	cmp	r1, #0
1000423e:	d000      	beq.n	10004242 <stdio_set_driver_enabled+0x26>
10004240:	6010      	str	r0, [r2, #0]
10004242:	4770      	bx	lr
10004244:	200013e4 	.word	0x200013e4

10004248 <stdio_flush>:
10004248:	b510      	push	{r4, lr}
1000424a:	4b06      	ldr	r3, [pc, #24]	; (10004264 <stdio_flush+0x1c>)
1000424c:	681c      	ldr	r4, [r3, #0]
1000424e:	e001      	b.n	10004254 <stdio_flush+0xc>
10004250:	4798      	blx	r3
10004252:	6924      	ldr	r4, [r4, #16]
10004254:	2c00      	cmp	r4, #0
10004256:	d003      	beq.n	10004260 <stdio_flush+0x18>
10004258:	6863      	ldr	r3, [r4, #4]
1000425a:	2b00      	cmp	r3, #0
1000425c:	d1f8      	bne.n	10004250 <stdio_flush+0x8>
1000425e:	e7f8      	b.n	10004252 <stdio_flush+0xa>
10004260:	bd10      	pop	{r4, pc}
10004262:	46c0      	nop			; (mov r8, r8)
10004264:	200013e4 	.word	0x200013e4

10004268 <__wrap_puts>:
10004268:	b570      	push	{r4, r5, r6, lr}
1000426a:	0005      	movs	r5, r0
1000426c:	f002 fc48 	bl	10006b00 <strlen>
10004270:	0004      	movs	r4, r0
10004272:	2300      	movs	r3, #0
10004274:	2201      	movs	r2, #1
10004276:	0001      	movs	r1, r0
10004278:	0028      	movs	r0, r5
1000427a:	f7ff ff83 	bl	10004184 <stdio_put_string>
1000427e:	f7ff ffe3 	bl	10004248 <stdio_flush>
10004282:	0020      	movs	r0, r4
10004284:	bd70      	pop	{r4, r5, r6, pc}
	...

10004288 <__wrap_vprintf>:
10004288:	b570      	push	{r4, r5, r6, lr}
1000428a:	b0a2      	sub	sp, #136	; 0x88
1000428c:	0004      	movs	r4, r0
1000428e:	000e      	movs	r6, r1
10004290:	f7ff ff42 	bl	10004118 <stdout_serialize_begin>
10004294:	0005      	movs	r5, r0
10004296:	2300      	movs	r3, #0
10004298:	9301      	str	r3, [sp, #4]
1000429a:	0033      	movs	r3, r6
1000429c:	0022      	movs	r2, r4
1000429e:	a901      	add	r1, sp, #4
100042a0:	4808      	ldr	r0, [pc, #32]	; (100042c4 <__wrap_vprintf+0x3c>)
100042a2:	f7ff fa45 	bl	10003730 <vfctprintf>
100042a6:	0004      	movs	r4, r0
100042a8:	a801      	add	r0, sp, #4
100042aa:	f7ff ff03 	bl	100040b4 <stdio_stack_buffer_flush>
100042ae:	f7ff ffcb 	bl	10004248 <stdio_flush>
100042b2:	2d00      	cmp	r5, #0
100042b4:	d102      	bne.n	100042bc <__wrap_vprintf+0x34>
100042b6:	0020      	movs	r0, r4
100042b8:	b022      	add	sp, #136	; 0x88
100042ba:	bd70      	pop	{r4, r5, r6, pc}
100042bc:	f7ff ff5a 	bl	10004174 <stdout_serialize_end>
100042c0:	e7f9      	b.n	100042b6 <__wrap_vprintf+0x2e>
100042c2:	46c0      	nop			; (mov r8, r8)
100042c4:	100040f9 	.word	0x100040f9

100042c8 <__wrap_printf>:
100042c8:	b40f      	push	{r0, r1, r2, r3}
100042ca:	b500      	push	{lr}
100042cc:	b083      	sub	sp, #12
100042ce:	a904      	add	r1, sp, #16
100042d0:	c901      	ldmia	r1!, {r0}
100042d2:	9101      	str	r1, [sp, #4]
100042d4:	f7ff ffd8 	bl	10004288 <__wrap_vprintf>
100042d8:	b003      	add	sp, #12
100042da:	bc08      	pop	{r3}
100042dc:	b004      	add	sp, #16
100042de:	4718      	bx	r3

100042e0 <stdio_init_all>:
100042e0:	b510      	push	{r4, lr}
100042e2:	f000 f8fb 	bl	100044dc <stdio_uart_init>
100042e6:	f000 fa43 	bl	10004770 <stdio_usb_init>
100042ea:	2001      	movs	r0, #1
100042ec:	bd10      	pop	{r4, pc}
	...

100042f0 <stdio_uart_out_chars>:
100042f0:	b5f0      	push	{r4, r5, r6, r7, lr}
100042f2:	b083      	sub	sp, #12
100042f4:	0005      	movs	r5, r0
100042f6:	000e      	movs	r6, r1
100042f8:	2400      	movs	r4, #0
100042fa:	e00f      	b.n	1000431c <stdio_uart_out_chars+0x2c>
100042fc:	466b      	mov	r3, sp
100042fe:	1dd9      	adds	r1, r3, #7
10004300:	230d      	movs	r3, #13
10004302:	700b      	strb	r3, [r1, #0]
10004304:	2000      	movs	r0, #0
10004306:	2800      	cmp	r0, #0
10004308:	d116      	bne.n	10004338 <stdio_uart_out_chars+0x48>
1000430a:	6993      	ldr	r3, [r2, #24]
1000430c:	069b      	lsls	r3, r3, #26
1000430e:	d4fc      	bmi.n	1000430a <stdio_uart_out_chars+0x1a>
10004310:	780b      	ldrb	r3, [r1, #0]
10004312:	6013      	str	r3, [r2, #0]
10004314:	3001      	adds	r0, #1
10004316:	3101      	adds	r1, #1
10004318:	e7f5      	b.n	10004306 <stdio_uart_out_chars+0x16>
1000431a:	3401      	adds	r4, #1
1000431c:	42b4      	cmp	r4, r6
1000431e:	da19      	bge.n	10004354 <stdio_uart_out_chars+0x64>
10004320:	4b0d      	ldr	r3, [pc, #52]	; (10004358 <stdio_uart_out_chars+0x68>)
10004322:	681a      	ldr	r2, [r3, #0]
10004324:	5d2f      	ldrb	r7, [r5, r4]
10004326:	4b0d      	ldr	r3, [pc, #52]	; (1000435c <stdio_uart_out_chars+0x6c>)
10004328:	18d3      	adds	r3, r2, r3
1000432a:	4259      	negs	r1, r3
1000432c:	414b      	adcs	r3, r1
1000432e:	005b      	lsls	r3, r3, #1
10004330:	490b      	ldr	r1, [pc, #44]	; (10004360 <stdio_uart_out_chars+0x70>)
10004332:	5e5b      	ldrsh	r3, [r3, r1]
10004334:	42bb      	cmp	r3, r7
10004336:	d0e1      	beq.n	100042fc <stdio_uart_out_chars+0xc>
10004338:	466b      	mov	r3, sp
1000433a:	1dd9      	adds	r1, r3, #7
1000433c:	700f      	strb	r7, [r1, #0]
1000433e:	2000      	movs	r0, #0
10004340:	2800      	cmp	r0, #0
10004342:	d1ea      	bne.n	1000431a <stdio_uart_out_chars+0x2a>
10004344:	6993      	ldr	r3, [r2, #24]
10004346:	069b      	lsls	r3, r3, #26
10004348:	d4fc      	bmi.n	10004344 <stdio_uart_out_chars+0x54>
1000434a:	780b      	ldrb	r3, [r1, #0]
1000434c:	6013      	str	r3, [r2, #0]
1000434e:	3001      	adds	r0, #1
10004350:	3101      	adds	r1, #1
10004352:	e7f5      	b.n	10004340 <stdio_uart_out_chars+0x50>
10004354:	b003      	add	sp, #12
10004356:	bdf0      	pop	{r4, r5, r6, r7, pc}
10004358:	20001a3c 	.word	0x20001a3c
1000435c:	bffc8000 	.word	0xbffc8000
10004360:	20001a38 	.word	0x20001a38

10004364 <stdio_uart_in_chars>:
10004364:	b5f0      	push	{r4, r5, r6, r7, lr}
10004366:	b083      	sub	sp, #12
10004368:	0006      	movs	r6, r0
1000436a:	000f      	movs	r7, r1
1000436c:	2500      	movs	r5, #0
1000436e:	e004      	b.n	1000437a <stdio_uart_in_chars+0x16>
10004370:	466b      	mov	r3, sp
10004372:	3307      	adds	r3, #7
10004374:	781b      	ldrb	r3, [r3, #0]
10004376:	702b      	strb	r3, [r5, #0]
10004378:	0025      	movs	r5, r4
1000437a:	42bd      	cmp	r5, r7
1000437c:	da15      	bge.n	100043aa <stdio_uart_in_chars+0x46>
1000437e:	4b17      	ldr	r3, [pc, #92]	; (100043dc <stdio_uart_in_chars+0x78>)
10004380:	681a      	ldr	r2, [r3, #0]
10004382:	6993      	ldr	r3, [r2, #24]
10004384:	2410      	movs	r4, #16
10004386:	0021      	movs	r1, r4
10004388:	4019      	ands	r1, r3
1000438a:	421c      	tst	r4, r3
1000438c:	d10d      	bne.n	100043aa <stdio_uart_in_chars+0x46>
1000438e:	1c6c      	adds	r4, r5, #1
10004390:	1975      	adds	r5, r6, r5
10004392:	466b      	mov	r3, sp
10004394:	1dd8      	adds	r0, r3, #7
10004396:	2900      	cmp	r1, #0
10004398:	d1ea      	bne.n	10004370 <stdio_uart_in_chars+0xc>
1000439a:	6993      	ldr	r3, [r2, #24]
1000439c:	06db      	lsls	r3, r3, #27
1000439e:	d4fc      	bmi.n	1000439a <stdio_uart_in_chars+0x36>
100043a0:	6813      	ldr	r3, [r2, #0]
100043a2:	7003      	strb	r3, [r0, #0]
100043a4:	3101      	adds	r1, #1
100043a6:	3001      	adds	r0, #1
100043a8:	e7f5      	b.n	10004396 <stdio_uart_in_chars+0x32>
100043aa:	4b0d      	ldr	r3, [pc, #52]	; (100043e0 <stdio_uart_in_chars+0x7c>)
100043ac:	681b      	ldr	r3, [r3, #0]
100043ae:	2b00      	cmp	r3, #0
100043b0:	d00c      	beq.n	100043cc <stdio_uart_in_chars+0x68>
100043b2:	4b0a      	ldr	r3, [pc, #40]	; (100043dc <stdio_uart_in_chars+0x78>)
100043b4:	681a      	ldr	r2, [r3, #0]
100043b6:	2350      	movs	r3, #80	; 0x50
100043b8:	6393      	str	r3, [r2, #56]	; 0x38
100043ba:	0011      	movs	r1, r2
100043bc:	3134      	adds	r1, #52	; 0x34
100043be:	6b53      	ldr	r3, [r2, #52]	; 0x34
100043c0:	2238      	movs	r2, #56	; 0x38
100043c2:	401a      	ands	r2, r3
100043c4:	2380      	movs	r3, #128	; 0x80
100043c6:	015b      	lsls	r3, r3, #5
100043c8:	430b      	orrs	r3, r1
100043ca:	601a      	str	r2, [r3, #0]
100043cc:	2d00      	cmp	r5, #0
100043ce:	d002      	beq.n	100043d6 <stdio_uart_in_chars+0x72>
100043d0:	0028      	movs	r0, r5
100043d2:	b003      	add	sp, #12
100043d4:	bdf0      	pop	{r4, r5, r6, r7, pc}
100043d6:	3d03      	subs	r5, #3
100043d8:	e7fa      	b.n	100043d0 <stdio_uart_in_chars+0x6c>
100043da:	46c0      	nop			; (mov r8, r8)
100043dc:	20001a3c 	.word	0x20001a3c
100043e0:	20001340 	.word	0x20001340

100043e4 <on_uart_rx>:
100043e4:	b510      	push	{r4, lr}
100043e6:	4b06      	ldr	r3, [pc, #24]	; (10004400 <on_uart_rx+0x1c>)
100043e8:	681b      	ldr	r3, [r3, #0]
100043ea:	2b00      	cmp	r3, #0
100043ec:	d006      	beq.n	100043fc <on_uart_rx+0x18>
100043ee:	4a05      	ldr	r2, [pc, #20]	; (10004404 <on_uart_rx+0x20>)
100043f0:	6812      	ldr	r2, [r2, #0]
100043f2:	2100      	movs	r1, #0
100043f4:	6391      	str	r1, [r2, #56]	; 0x38
100043f6:	4a04      	ldr	r2, [pc, #16]	; (10004408 <on_uart_rx+0x24>)
100043f8:	6810      	ldr	r0, [r2, #0]
100043fa:	4798      	blx	r3
100043fc:	bd10      	pop	{r4, pc}
100043fe:	46c0      	nop			; (mov r8, r8)
10004400:	20001340 	.word	0x20001340
10004404:	20001a3c 	.word	0x20001a3c
10004408:	20001348 	.word	0x20001348

1000440c <stdio_uart_set_chars_available_callback>:
1000440c:	b570      	push	{r4, r5, r6, lr}
1000440e:	0004      	movs	r4, r0
10004410:	000e      	movs	r6, r1
10004412:	4b1c      	ldr	r3, [pc, #112]	; (10004484 <stdio_uart_set_chars_available_callback+0x78>)
10004414:	681b      	ldr	r3, [r3, #0]
10004416:	4a1c      	ldr	r2, [pc, #112]	; (10004488 <stdio_uart_set_chars_available_callback+0x7c>)
10004418:	1898      	adds	r0, r3, r2
1000441a:	4242      	negs	r2, r0
1000441c:	4150      	adcs	r0, r2
1000441e:	3014      	adds	r0, #20
10004420:	0005      	movs	r5, r0
10004422:	2c00      	cmp	r4, #0
10004424:	d003      	beq.n	1000442e <stdio_uart_set_chars_available_callback+0x22>
10004426:	4a19      	ldr	r2, [pc, #100]	; (1000448c <stdio_uart_set_chars_available_callback+0x80>)
10004428:	6812      	ldr	r2, [r2, #0]
1000442a:	2a00      	cmp	r2, #0
1000442c:	d006      	beq.n	1000443c <stdio_uart_set_chars_available_callback+0x30>
1000442e:	2c00      	cmp	r4, #0
10004430:	d019      	beq.n	10004466 <stdio_uart_set_chars_available_callback+0x5a>
10004432:	4b16      	ldr	r3, [pc, #88]	; (1000448c <stdio_uart_set_chars_available_callback+0x80>)
10004434:	601c      	str	r4, [r3, #0]
10004436:	4b16      	ldr	r3, [pc, #88]	; (10004490 <stdio_uart_set_chars_available_callback+0x84>)
10004438:	601e      	str	r6, [r3, #0]
1000443a:	bd70      	pop	{r4, r5, r6, pc}
1000443c:	4915      	ldr	r1, [pc, #84]	; (10004494 <stdio_uart_set_chars_available_callback+0x88>)
1000443e:	f7fc f90f 	bl	10000660 <irq_set_exclusive_handler>
10004442:	2101      	movs	r1, #1
10004444:	0028      	movs	r0, r5
10004446:	f7fc f8e1 	bl	1000060c <irq_set_enabled>
1000444a:	4b0e      	ldr	r3, [pc, #56]	; (10004484 <stdio_uart_set_chars_available_callback+0x78>)
1000444c:	681a      	ldr	r2, [r3, #0]
1000444e:	2350      	movs	r3, #80	; 0x50
10004450:	6393      	str	r3, [r2, #56]	; 0x38
10004452:	0011      	movs	r1, r2
10004454:	3134      	adds	r1, #52	; 0x34
10004456:	6b53      	ldr	r3, [r2, #52]	; 0x34
10004458:	2238      	movs	r2, #56	; 0x38
1000445a:	401a      	ands	r2, r3
1000445c:	2380      	movs	r3, #128	; 0x80
1000445e:	015b      	lsls	r3, r3, #5
10004460:	430b      	orrs	r3, r1
10004462:	601a      	str	r2, [r3, #0]
10004464:	e7e5      	b.n	10004432 <stdio_uart_set_chars_available_callback+0x26>
10004466:	4a09      	ldr	r2, [pc, #36]	; (1000448c <stdio_uart_set_chars_available_callback+0x80>)
10004468:	6812      	ldr	r2, [r2, #0]
1000446a:	2a00      	cmp	r2, #0
1000446c:	d0e1      	beq.n	10004432 <stdio_uart_set_chars_available_callback+0x26>
1000446e:	2200      	movs	r2, #0
10004470:	639a      	str	r2, [r3, #56]	; 0x38
10004472:	2100      	movs	r1, #0
10004474:	0028      	movs	r0, r5
10004476:	f7fc f8c9 	bl	1000060c <irq_set_enabled>
1000447a:	4906      	ldr	r1, [pc, #24]	; (10004494 <stdio_uart_set_chars_available_callback+0x88>)
1000447c:	0028      	movs	r0, r5
1000447e:	f7fc fa33 	bl	100008e8 <irq_remove_handler>
10004482:	e7d6      	b.n	10004432 <stdio_uart_set_chars_available_callback+0x26>
10004484:	20001a3c 	.word	0x20001a3c
10004488:	bffc8000 	.word	0xbffc8000
1000448c:	20001340 	.word	0x20001340
10004490:	20001348 	.word	0x20001348
10004494:	100043e5 	.word	0x100043e5

10004498 <stdio_uart_init_full>:
10004498:	b570      	push	{r4, r5, r6, lr}
1000449a:	000d      	movs	r5, r1
1000449c:	001c      	movs	r4, r3
1000449e:	4b0d      	ldr	r3, [pc, #52]	; (100044d4 <stdio_uart_init_full+0x3c>)
100044a0:	6018      	str	r0, [r3, #0]
100044a2:	2a00      	cmp	r2, #0
100044a4:	da0b      	bge.n	100044be <stdio_uart_init_full+0x26>
100044a6:	2c00      	cmp	r4, #0
100044a8:	da0e      	bge.n	100044c8 <stdio_uart_init_full+0x30>
100044aa:	4b0a      	ldr	r3, [pc, #40]	; (100044d4 <stdio_uart_init_full+0x3c>)
100044ac:	6818      	ldr	r0, [r3, #0]
100044ae:	0029      	movs	r1, r5
100044b0:	f7fd fd96 	bl	10001fe0 <uart_init>
100044b4:	2101      	movs	r1, #1
100044b6:	4808      	ldr	r0, [pc, #32]	; (100044d8 <stdio_uart_init_full+0x40>)
100044b8:	f7ff feb0 	bl	1000421c <stdio_set_driver_enabled>
100044bc:	bd70      	pop	{r4, r5, r6, pc}
100044be:	2102      	movs	r1, #2
100044c0:	0010      	movs	r0, r2
100044c2:	f7fb ff87 	bl	100003d4 <gpio_set_function>
100044c6:	e7ee      	b.n	100044a6 <stdio_uart_init_full+0xe>
100044c8:	2102      	movs	r1, #2
100044ca:	0020      	movs	r0, r4
100044cc:	f7fb ff82 	bl	100003d4 <gpio_set_function>
100044d0:	e7eb      	b.n	100044aa <stdio_uart_init_full+0x12>
100044d2:	46c0      	nop			; (mov r8, r8)
100044d4:	20001a3c 	.word	0x20001a3c
100044d8:	20000c50 	.word	0x20000c50

100044dc <stdio_uart_init>:
100044dc:	b510      	push	{r4, lr}
100044de:	4b06      	ldr	r3, [pc, #24]	; (100044f8 <stdio_uart_init+0x1c>)
100044e0:	781b      	ldrb	r3, [r3, #0]
100044e2:	4b06      	ldr	r3, [pc, #24]	; (100044fc <stdio_uart_init+0x20>)
100044e4:	781b      	ldrb	r3, [r3, #0]
100044e6:	21e1      	movs	r1, #225	; 0xe1
100044e8:	2301      	movs	r3, #1
100044ea:	2200      	movs	r2, #0
100044ec:	0249      	lsls	r1, r1, #9
100044ee:	4804      	ldr	r0, [pc, #16]	; (10004500 <stdio_uart_init+0x24>)
100044f0:	f7ff ffd2 	bl	10004498 <stdio_uart_init_full>
100044f4:	bd10      	pop	{r4, pc}
100044f6:	46c0      	nop			; (mov r8, r8)
100044f8:	10008460 	.word	0x10008460
100044fc:	10008464 	.word	0x10008464
10004500:	40034000 	.word	0x40034000

10004504 <resetd_init>:
10004504:	4770      	bx	lr
	...

10004508 <resetd_reset>:
10004508:	4b01      	ldr	r3, [pc, #4]	; (10004510 <resetd_reset+0x8>)
1000450a:	2200      	movs	r2, #0
1000450c:	701a      	strb	r2, [r3, #0]
1000450e:	4770      	bx	lr
10004510:	20001a56 	.word	0x20001a56

10004514 <resetd_open>:
10004514:	794b      	ldrb	r3, [r1, #5]
10004516:	2bff      	cmp	r3, #255	; 0xff
10004518:	d10c      	bne.n	10004534 <resetd_open+0x20>
1000451a:	798b      	ldrb	r3, [r1, #6]
1000451c:	2b00      	cmp	r3, #0
1000451e:	d10b      	bne.n	10004538 <resetd_open+0x24>
10004520:	79cb      	ldrb	r3, [r1, #7]
10004522:	2b01      	cmp	r3, #1
10004524:	d10a      	bne.n	1000453c <resetd_open+0x28>
10004526:	2a08      	cmp	r2, #8
10004528:	d90a      	bls.n	10004540 <resetd_open+0x2c>
1000452a:	788a      	ldrb	r2, [r1, #2]
1000452c:	4b05      	ldr	r3, [pc, #20]	; (10004544 <resetd_open+0x30>)
1000452e:	701a      	strb	r2, [r3, #0]
10004530:	2009      	movs	r0, #9
10004532:	e000      	b.n	10004536 <resetd_open+0x22>
10004534:	2000      	movs	r0, #0
10004536:	4770      	bx	lr
10004538:	2000      	movs	r0, #0
1000453a:	e7fc      	b.n	10004536 <resetd_open+0x22>
1000453c:	2000      	movs	r0, #0
1000453e:	e7fa      	b.n	10004536 <resetd_open+0x22>
10004540:	2000      	movs	r0, #0
10004542:	e7f8      	b.n	10004536 <resetd_open+0x22>
10004544:	20001a56 	.word	0x20001a56

10004548 <resetd_xfer_cb>:
10004548:	2001      	movs	r0, #1
1000454a:	4770      	bx	lr

1000454c <reset_usb_boot>:
1000454c:	b570      	push	{r4, r5, r6, lr}
1000454e:	0004      	movs	r4, r0
10004550:	000d      	movs	r5, r1
10004552:	4803      	ldr	r0, [pc, #12]	; (10004560 <reset_usb_boot+0x14>)
10004554:	f7ff f904 	bl	10003760 <rom_func_lookup>
10004558:	0003      	movs	r3, r0
1000455a:	0029      	movs	r1, r5
1000455c:	0020      	movs	r0, r4
1000455e:	4798      	blx	r3
10004560:	00004255 	.word	0x00004255

10004564 <resetd_control_xfer_cb>:
10004564:	b510      	push	{r4, lr}
10004566:	2901      	cmp	r1, #1
10004568:	d126      	bne.n	100045b8 <resetd_control_xfer_cb+0x54>
1000456a:	7911      	ldrb	r1, [r2, #4]
1000456c:	7953      	ldrb	r3, [r2, #5]
1000456e:	021b      	lsls	r3, r3, #8
10004570:	430b      	orrs	r3, r1
10004572:	4912      	ldr	r1, [pc, #72]	; (100045bc <resetd_control_xfer_cb+0x58>)
10004574:	7809      	ldrb	r1, [r1, #0]
10004576:	428b      	cmp	r3, r1
10004578:	d001      	beq.n	1000457e <resetd_control_xfer_cb+0x1a>
1000457a:	2000      	movs	r0, #0
1000457c:	e01d      	b.n	100045ba <resetd_control_xfer_cb+0x56>
1000457e:	7853      	ldrb	r3, [r2, #1]
10004580:	2b01      	cmp	r3, #1
10004582:	d003      	beq.n	1000458c <resetd_control_xfer_cb+0x28>
10004584:	2b02      	cmp	r3, #2
10004586:	d010      	beq.n	100045aa <resetd_control_xfer_cb+0x46>
10004588:	2000      	movs	r0, #0
1000458a:	e016      	b.n	100045ba <resetd_control_xfer_cb+0x56>
1000458c:	7891      	ldrb	r1, [r2, #2]
1000458e:	78d3      	ldrb	r3, [r2, #3]
10004590:	021b      	lsls	r3, r3, #8
10004592:	4319      	orrs	r1, r3
10004594:	05db      	lsls	r3, r3, #23
10004596:	d506      	bpl.n	100045a6 <resetd_control_xfer_cb+0x42>
10004598:	0a4b      	lsrs	r3, r1, #9
1000459a:	2001      	movs	r0, #1
1000459c:	4098      	lsls	r0, r3
1000459e:	237f      	movs	r3, #127	; 0x7f
100045a0:	4019      	ands	r1, r3
100045a2:	f7ff ffd3 	bl	1000454c <reset_usb_boot>
100045a6:	2000      	movs	r0, #0
100045a8:	e7f9      	b.n	1000459e <resetd_control_xfer_cb+0x3a>
100045aa:	2264      	movs	r2, #100	; 0x64
100045ac:	2100      	movs	r1, #0
100045ae:	2000      	movs	r0, #0
100045b0:	f7fd ff3e 	bl	10002430 <watchdog_reboot>
100045b4:	2001      	movs	r0, #1
100045b6:	e000      	b.n	100045ba <resetd_control_xfer_cb+0x56>
100045b8:	2001      	movs	r0, #1
100045ba:	bd10      	pop	{r4, pc}
100045bc:	20001a56 	.word	0x20001a56

100045c0 <usbd_app_driver_get_cb>:
100045c0:	2301      	movs	r3, #1
100045c2:	7003      	strb	r3, [r0, #0]
100045c4:	4800      	ldr	r0, [pc, #0]	; (100045c8 <usbd_app_driver_get_cb+0x8>)
100045c6:	4770      	bx	lr
100045c8:	10007db8 	.word	0x10007db8

100045cc <tud_cdc_line_coding_cb>:
100045cc:	b510      	push	{r4, lr}
100045ce:	780b      	ldrb	r3, [r1, #0]
100045d0:	7848      	ldrb	r0, [r1, #1]
100045d2:	0200      	lsls	r0, r0, #8
100045d4:	4318      	orrs	r0, r3
100045d6:	788a      	ldrb	r2, [r1, #2]
100045d8:	0412      	lsls	r2, r2, #16
100045da:	4310      	orrs	r0, r2
100045dc:	78cb      	ldrb	r3, [r1, #3]
100045de:	061b      	lsls	r3, r3, #24
100045e0:	4303      	orrs	r3, r0
100045e2:	2296      	movs	r2, #150	; 0x96
100045e4:	00d2      	lsls	r2, r2, #3
100045e6:	4293      	cmp	r3, r2
100045e8:	d000      	beq.n	100045ec <tud_cdc_line_coding_cb+0x20>
100045ea:	bd10      	pop	{r4, pc}
100045ec:	2100      	movs	r1, #0
100045ee:	0008      	movs	r0, r1
100045f0:	f7ff ffac 	bl	1000454c <reset_usb_boot>

100045f4 <stdio_usb_set_chars_available_callback>:
100045f4:	4b02      	ldr	r3, [pc, #8]	; (10004600 <stdio_usb_set_chars_available_callback+0xc>)
100045f6:	6018      	str	r0, [r3, #0]
100045f8:	4b02      	ldr	r3, [pc, #8]	; (10004604 <stdio_usb_set_chars_available_callback+0x10>)
100045fa:	6019      	str	r1, [r3, #0]
100045fc:	4770      	bx	lr
100045fe:	46c0      	nop			; (mov r8, r8)
10004600:	20001344 	.word	0x20001344
10004604:	2000134c 	.word	0x2000134c

10004608 <usb_irq>:
10004608:	b510      	push	{r4, lr}
1000460a:	4b02      	ldr	r3, [pc, #8]	; (10004614 <usb_irq+0xc>)
1000460c:	7818      	ldrb	r0, [r3, #0]
1000460e:	f7fc f805 	bl	1000061c <irq_set_pending>
10004612:	bd10      	pop	{r4, pc}
10004614:	20001a57 	.word	0x20001a57

10004618 <timer_task>:
10004618:	b570      	push	{r4, r5, r6, lr}
1000461a:	4b13      	ldr	r3, [pc, #76]	; (10004668 <timer_task+0x50>)
1000461c:	681b      	ldr	r3, [r3, #0]
1000461e:	2b00      	cmp	r3, #0
10004620:	d01d      	beq.n	1000465e <timer_task+0x46>
10004622:	4b11      	ldr	r3, [pc, #68]	; (10004668 <timer_task+0x50>)
10004624:	6819      	ldr	r1, [r3, #0]
10004626:	f3ef 8310 	mrs	r3, PRIMASK
1000462a:	b672      	cpsid	i
1000462c:	680a      	ldr	r2, [r1, #0]
1000462e:	2a00      	cmp	r2, #0
10004630:	d0fc      	beq.n	1000462c <timer_task+0x14>
10004632:	f3bf 8f5f 	dmb	sy
10004636:	490c      	ldr	r1, [pc, #48]	; (10004668 <timer_task+0x50>)
10004638:	604b      	str	r3, [r1, #4]
1000463a:	2200      	movs	r2, #0
1000463c:	480b      	ldr	r0, [pc, #44]	; (1000466c <timer_task+0x54>)
1000463e:	7002      	strb	r2, [r0, #0]
10004640:	6809      	ldr	r1, [r1, #0]
10004642:	f3bf 8f5f 	dmb	sy
10004646:	600a      	str	r2, [r1, #0]
10004648:	f383 8810 	msr	PRIMASK, r3
1000464c:	2400      	movs	r4, #0
1000464e:	2500      	movs	r5, #0
10004650:	4b07      	ldr	r3, [pc, #28]	; (10004670 <timer_task+0x58>)
10004652:	7818      	ldrb	r0, [r3, #0]
10004654:	f7fb ffe2 	bl	1000061c <irq_set_pending>
10004658:	0020      	movs	r0, r4
1000465a:	0029      	movs	r1, r5
1000465c:	bd70      	pop	{r4, r5, r6, pc}
1000465e:	24fa      	movs	r4, #250	; 0xfa
10004660:	00a4      	lsls	r4, r4, #2
10004662:	2500      	movs	r5, #0
10004664:	e7f4      	b.n	10004650 <timer_task+0x38>
10004666:	46c0      	nop			; (mov r8, r8)
10004668:	200017f8 	.word	0x200017f8
1000466c:	20001a58 	.word	0x20001a58
10004670:	20001a57 	.word	0x20001a57

10004674 <low_priority_worker_irq>:
10004674:	b510      	push	{r4, lr}
10004676:	b084      	sub	sp, #16
10004678:	2100      	movs	r1, #0
1000467a:	482d      	ldr	r0, [pc, #180]	; (10004730 <low_priority_worker_irq+0xbc>)
1000467c:	f002 faa0 	bl	10006bc0 <__mutex_try_enter_veneer>
10004680:	2800      	cmp	r0, #0
10004682:	d13a      	bne.n	100046fa <low_priority_worker_irq+0x86>
10004684:	4b2b      	ldr	r3, [pc, #172]	; (10004734 <low_priority_worker_irq+0xc0>)
10004686:	681b      	ldr	r3, [r3, #0]
10004688:	2b00      	cmp	r3, #0
1000468a:	d03e      	beq.n	1000470a <low_priority_worker_irq+0x96>
1000468c:	4b29      	ldr	r3, [pc, #164]	; (10004734 <low_priority_worker_irq+0xc0>)
1000468e:	6819      	ldr	r1, [r3, #0]
10004690:	f3ef 8210 	mrs	r2, PRIMASK
10004694:	b672      	cpsid	i
10004696:	680b      	ldr	r3, [r1, #0]
10004698:	2b00      	cmp	r3, #0
1000469a:	d0fc      	beq.n	10004696 <low_priority_worker_irq+0x22>
1000469c:	f3bf 8f5f 	dmb	sy
100046a0:	4924      	ldr	r1, [pc, #144]	; (10004734 <low_priority_worker_irq+0xc0>)
100046a2:	604a      	str	r2, [r1, #4]
100046a4:	4824      	ldr	r0, [pc, #144]	; (10004738 <low_priority_worker_irq+0xc4>)
100046a6:	7803      	ldrb	r3, [r0, #0]
100046a8:	2401      	movs	r4, #1
100046aa:	4063      	eors	r3, r4
100046ac:	b2db      	uxtb	r3, r3
100046ae:	2401      	movs	r4, #1
100046b0:	7004      	strb	r4, [r0, #0]
100046b2:	6809      	ldr	r1, [r1, #0]
100046b4:	f3bf 8f5f 	dmb	sy
100046b8:	2000      	movs	r0, #0
100046ba:	6008      	str	r0, [r1, #0]
100046bc:	f382 8810 	msr	PRIMASK, r2
100046c0:	2b00      	cmp	r3, #0
100046c2:	d022      	beq.n	1000470a <low_priority_worker_irq+0x96>
100046c4:	f7fc fe18 	bl	100012f8 <alarm_pool_get_default>
100046c8:	0004      	movs	r4, r0
100046ca:	f7fd f8bb 	bl	10001844 <time_us_64>
100046ce:	0002      	movs	r2, r0
100046d0:	1e0b      	subs	r3, r1, #0
100046d2:	db1c      	blt.n	1000470e <low_priority_worker_irq+0x9a>
100046d4:	20fa      	movs	r0, #250	; 0xfa
100046d6:	0080      	lsls	r0, r0, #2
100046d8:	2100      	movs	r1, #0
100046da:	1812      	adds	r2, r2, r0
100046dc:	414b      	adcs	r3, r1
100046de:	2b00      	cmp	r3, #0
100046e0:	db1b      	blt.n	1000471a <low_priority_worker_irq+0xa6>
100046e2:	2b00      	cmp	r3, #0
100046e4:	db1d      	blt.n	10004722 <low_priority_worker_irq+0xae>
100046e6:	2101      	movs	r1, #1
100046e8:	9102      	str	r1, [sp, #8]
100046ea:	2100      	movs	r1, #0
100046ec:	9101      	str	r1, [sp, #4]
100046ee:	4913      	ldr	r1, [pc, #76]	; (1000473c <low_priority_worker_irq+0xc8>)
100046f0:	9100      	str	r1, [sp, #0]
100046f2:	0020      	movs	r0, r4
100046f4:	f7fc fe16 	bl	10001324 <alarm_pool_add_alarm_at>
100046f8:	e007      	b.n	1000470a <low_priority_worker_irq+0x96>
100046fa:	2001      	movs	r0, #1
100046fc:	2100      	movs	r1, #0
100046fe:	4240      	negs	r0, r0
10004700:	f001 f8f0 	bl	100058e4 <tud_task_ext>
10004704:	480a      	ldr	r0, [pc, #40]	; (10004730 <low_priority_worker_irq+0xbc>)
10004706:	f002 fa3b 	bl	10006b80 <__mutex_exit_veneer>
1000470a:	b004      	add	sp, #16
1000470c:	bd10      	pop	{r4, pc}
1000470e:	4b0c      	ldr	r3, [pc, #48]	; (10004740 <low_priority_worker_irq+0xcc>)
10004710:	4a0c      	ldr	r2, [pc, #48]	; (10004744 <low_priority_worker_irq+0xd0>)
10004712:	213f      	movs	r1, #63	; 0x3f
10004714:	480c      	ldr	r0, [pc, #48]	; (10004748 <low_priority_worker_irq+0xd4>)
10004716:	f7fd fec9 	bl	100024ac <__assert_func>
1000471a:	2201      	movs	r2, #1
1000471c:	4252      	negs	r2, r2
1000471e:	4b0b      	ldr	r3, [pc, #44]	; (1000474c <low_priority_worker_irq+0xd8>)
10004720:	e7df      	b.n	100046e2 <low_priority_worker_irq+0x6e>
10004722:	4b07      	ldr	r3, [pc, #28]	; (10004740 <low_priority_worker_irq+0xcc>)
10004724:	4a07      	ldr	r2, [pc, #28]	; (10004744 <low_priority_worker_irq+0xd0>)
10004726:	213f      	movs	r1, #63	; 0x3f
10004728:	4807      	ldr	r0, [pc, #28]	; (10004748 <low_priority_worker_irq+0xd4>)
1000472a:	f7fd febf 	bl	100024ac <__assert_func>
1000472e:	46c0      	nop			; (mov r8, r8)
10004730:	20001a20 	.word	0x20001a20
10004734:	200017f8 	.word	0x200017f8
10004738:	20001a58 	.word	0x20001a58
1000473c:	10004619 	.word	0x10004619
10004740:	10006fbc 	.word	0x10006fbc
10004744:	10007e64 	.word	0x10007e64
10004748:	10006fd8 	.word	0x10006fd8
1000474c:	7fffffff 	.word	0x7fffffff

10004750 <tud_cdc_rx_cb>:
10004750:	b510      	push	{r4, lr}
10004752:	4b05      	ldr	r3, [pc, #20]	; (10004768 <tud_cdc_rx_cb+0x18>)
10004754:	6818      	ldr	r0, [r3, #0]
10004756:	2800      	cmp	r0, #0
10004758:	d004      	beq.n	10004764 <tud_cdc_rx_cb+0x14>
1000475a:	4b04      	ldr	r3, [pc, #16]	; (1000476c <tud_cdc_rx_cb+0x1c>)
1000475c:	6819      	ldr	r1, [r3, #0]
1000475e:	2200      	movs	r2, #0
10004760:	f000 fde6 	bl	10005330 <usbd_defer_func>
10004764:	bd10      	pop	{r4, pc}
10004766:	46c0      	nop			; (mov r8, r8)
10004768:	20001344 	.word	0x20001344
1000476c:	2000134c 	.word	0x2000134c

10004770 <stdio_usb_init>:
10004770:	b510      	push	{r4, lr}
10004772:	b084      	sub	sp, #16
10004774:	23d0      	movs	r3, #208	; 0xd0
10004776:	061b      	lsls	r3, r3, #24
10004778:	681c      	ldr	r4, [r3, #0]
1000477a:	f7fc fdbd 	bl	100012f8 <alarm_pool_get_default>
1000477e:	f7fc ff01 	bl	10001584 <alarm_pool_core_num>
10004782:	42a0      	cmp	r0, r4
10004784:	d12a      	bne.n	100047dc <stdio_usb_init+0x6c>
10004786:	4b32      	ldr	r3, [pc, #200]	; (10004850 <stdio_usb_init+0xe0>)
10004788:	781b      	ldrb	r3, [r3, #0]
1000478a:	f001 fd93 	bl	100062b4 <tusb_init>
1000478e:	4831      	ldr	r0, [pc, #196]	; (10004854 <stdio_usb_init+0xe4>)
10004790:	f7fc fa22 	bl	10000bd8 <mutex_init>
10004794:	2001      	movs	r0, #1
10004796:	f7fc fa03 	bl	10000ba0 <user_irq_claim_unused>
1000479a:	b2c0      	uxtb	r0, r0
1000479c:	4c2e      	ldr	r4, [pc, #184]	; (10004858 <stdio_usb_init+0xe8>)
1000479e:	7020      	strb	r0, [r4, #0]
100047a0:	492e      	ldr	r1, [pc, #184]	; (1000485c <stdio_usb_init+0xec>)
100047a2:	f7fb ff5d 	bl	10000660 <irq_set_exclusive_handler>
100047a6:	7820      	ldrb	r0, [r4, #0]
100047a8:	2101      	movs	r1, #1
100047aa:	f7fb ff2f 	bl	1000060c <irq_set_enabled>
100047ae:	2005      	movs	r0, #5
100047b0:	f7fb ff44 	bl	1000063c <irq_has_shared_handler>
100047b4:	1e04      	subs	r4, r0, #0
100047b6:	d017      	beq.n	100047e8 <stdio_usb_init+0x78>
100047b8:	2200      	movs	r2, #0
100047ba:	4929      	ldr	r1, [pc, #164]	; (10004860 <stdio_usb_init+0xf0>)
100047bc:	2005      	movs	r0, #5
100047be:	f7fb ff79 	bl	100006b4 <irq_add_shared_handler>
100047c2:	f7fb fe91 	bl	100004e8 <next_striped_spin_lock_num>
100047c6:	0001      	movs	r1, r0
100047c8:	4826      	ldr	r0, [pc, #152]	; (10004864 <stdio_usb_init+0xf4>)
100047ca:	f7fc fa21 	bl	10000c10 <critical_section_init_with_lock_num>
100047ce:	2101      	movs	r1, #1
100047d0:	4825      	ldr	r0, [pc, #148]	; (10004868 <stdio_usb_init+0xf8>)
100047d2:	f7ff fd23 	bl	1000421c <stdio_set_driver_enabled>
100047d6:	0020      	movs	r0, r4
100047d8:	b004      	add	sp, #16
100047da:	bd10      	pop	{r4, pc}
100047dc:	4b23      	ldr	r3, [pc, #140]	; (1000486c <stdio_usb_init+0xfc>)
100047de:	4a24      	ldr	r2, [pc, #144]	; (10004870 <stdio_usb_init+0x100>)
100047e0:	21b2      	movs	r1, #178	; 0xb2
100047e2:	4824      	ldr	r0, [pc, #144]	; (10004874 <stdio_usb_init+0x104>)
100047e4:	f7fd fe62 	bl	100024ac <__assert_func>
100047e8:	f7fc fd86 	bl	100012f8 <alarm_pool_get_default>
100047ec:	0004      	movs	r4, r0
100047ee:	f7fd f829 	bl	10001844 <time_us_64>
100047f2:	0002      	movs	r2, r0
100047f4:	1e0b      	subs	r3, r1, #0
100047f6:	db1b      	blt.n	10004830 <stdio_usb_init+0xc0>
100047f8:	20fa      	movs	r0, #250	; 0xfa
100047fa:	0080      	lsls	r0, r0, #2
100047fc:	2100      	movs	r1, #0
100047fe:	1812      	adds	r2, r2, r0
10004800:	414b      	adcs	r3, r1
10004802:	2b00      	cmp	r3, #0
10004804:	db1a      	blt.n	1000483c <stdio_usb_init+0xcc>
10004806:	2b00      	cmp	r3, #0
10004808:	db1c      	blt.n	10004844 <stdio_usb_init+0xd4>
1000480a:	2101      	movs	r1, #1
1000480c:	9102      	str	r1, [sp, #8]
1000480e:	2100      	movs	r1, #0
10004810:	9101      	str	r1, [sp, #4]
10004812:	4919      	ldr	r1, [pc, #100]	; (10004878 <stdio_usb_init+0x108>)
10004814:	9100      	str	r1, [sp, #0]
10004816:	0020      	movs	r0, r4
10004818:	f7fc fd84 	bl	10001324 <alarm_pool_add_alarm_at>
1000481c:	43c4      	mvns	r4, r0
1000481e:	0fe4      	lsrs	r4, r4, #31
10004820:	2208      	movs	r2, #8
10004822:	2100      	movs	r1, #0
10004824:	480f      	ldr	r0, [pc, #60]	; (10004864 <stdio_usb_init+0xf4>)
10004826:	f7ff fbf1 	bl	1000400c <__wrap_memset>
1000482a:	2c00      	cmp	r4, #0
1000482c:	d0d3      	beq.n	100047d6 <stdio_usb_init+0x66>
1000482e:	e7ce      	b.n	100047ce <stdio_usb_init+0x5e>
10004830:	4b12      	ldr	r3, [pc, #72]	; (1000487c <stdio_usb_init+0x10c>)
10004832:	4a13      	ldr	r2, [pc, #76]	; (10004880 <stdio_usb_init+0x110>)
10004834:	213f      	movs	r1, #63	; 0x3f
10004836:	4813      	ldr	r0, [pc, #76]	; (10004884 <stdio_usb_init+0x114>)
10004838:	f7fd fe38 	bl	100024ac <__assert_func>
1000483c:	2201      	movs	r2, #1
1000483e:	4252      	negs	r2, r2
10004840:	4b11      	ldr	r3, [pc, #68]	; (10004888 <stdio_usb_init+0x118>)
10004842:	e7e0      	b.n	10004806 <stdio_usb_init+0x96>
10004844:	4b0d      	ldr	r3, [pc, #52]	; (1000487c <stdio_usb_init+0x10c>)
10004846:	4a0e      	ldr	r2, [pc, #56]	; (10004880 <stdio_usb_init+0x110>)
10004848:	213f      	movs	r1, #63	; 0x3f
1000484a:	480e      	ldr	r0, [pc, #56]	; (10004884 <stdio_usb_init+0x114>)
1000484c:	f7fd fe2e 	bl	100024ac <__assert_func>
10004850:	10008468 	.word	0x10008468
10004854:	20001a20 	.word	0x20001a20
10004858:	20001a57 	.word	0x20001a57
1000485c:	10004675 	.word	0x10004675
10004860:	10004609 	.word	0x10004609
10004864:	200017f8 	.word	0x200017f8
10004868:	20000c68 	.word	0x20000c68
1000486c:	10006e54 	.word	0x10006e54
10004870:	10007e54 	.word	0x10007e54
10004874:	10007dd0 	.word	0x10007dd0
10004878:	10004619 	.word	0x10004619
1000487c:	10006fbc 	.word	0x10006fbc
10004880:	10007e64 	.word	0x10007e64
10004884:	10006fd8 	.word	0x10006fd8
10004888:	7fffffff 	.word	0x7fffffff

1000488c <stdio_usb_connected>:
1000488c:	b510      	push	{r4, lr}
1000488e:	2000      	movs	r0, #0
10004890:	f001 fa30 	bl	10005cf4 <tud_cdc_n_connected>
10004894:	bd10      	pop	{r4, pc}
	...

10004898 <stdio_usb_in_chars>:
10004898:	b570      	push	{r4, r5, r6, lr}
1000489a:	0005      	movs	r5, r0
1000489c:	000c      	movs	r4, r1
1000489e:	f7ff fff5 	bl	1000488c <stdio_usb_connected>
100048a2:	2800      	cmp	r0, #0
100048a4:	d045      	beq.n	10004932 <stdio_usb_in_chars+0x9a>
100048a6:	2000      	movs	r0, #0
100048a8:	f001 fa46 	bl	10005d38 <tud_cdc_n_available>
100048ac:	2800      	cmp	r0, #0
100048ae:	d043      	beq.n	10004938 <stdio_usb_in_chars+0xa0>
100048b0:	f7fc ffc8 	bl	10001844 <time_us_64>
100048b4:	0002      	movs	r2, r0
100048b6:	1e0b      	subs	r3, r1, #0
100048b8:	db21      	blt.n	100048fe <stdio_usb_in_chars+0x66>
100048ba:	4822      	ldr	r0, [pc, #136]	; (10004944 <stdio_usb_in_chars+0xac>)
100048bc:	2100      	movs	r1, #0
100048be:	1812      	adds	r2, r2, r0
100048c0:	414b      	adcs	r3, r1
100048c2:	2b00      	cmp	r3, #0
100048c4:	db21      	blt.n	1000490a <stdio_usb_in_chars+0x72>
100048c6:	2b00      	cmp	r3, #0
100048c8:	db23      	blt.n	10004912 <stdio_usb_in_chars+0x7a>
100048ca:	481f      	ldr	r0, [pc, #124]	; (10004948 <stdio_usb_in_chars+0xb0>)
100048cc:	f002 f998 	bl	10006c00 <__mutex_try_enter_block_until_veneer>
100048d0:	2800      	cmp	r0, #0
100048d2:	d034      	beq.n	1000493e <stdio_usb_in_chars+0xa6>
100048d4:	f7ff ffda 	bl	1000488c <stdio_usb_connected>
100048d8:	2800      	cmp	r0, #0
100048da:	d004      	beq.n	100048e6 <stdio_usb_in_chars+0x4e>
100048dc:	2000      	movs	r0, #0
100048de:	f001 fa2b 	bl	10005d38 <tud_cdc_n_available>
100048e2:	2800      	cmp	r0, #0
100048e4:	d11b      	bne.n	1000491e <stdio_usb_in_chars+0x86>
100048e6:	2001      	movs	r0, #1
100048e8:	2100      	movs	r1, #0
100048ea:	4240      	negs	r0, r0
100048ec:	f000 fffa 	bl	100058e4 <tud_task_ext>
100048f0:	2403      	movs	r4, #3
100048f2:	4264      	negs	r4, r4
100048f4:	4814      	ldr	r0, [pc, #80]	; (10004948 <stdio_usb_in_chars+0xb0>)
100048f6:	f002 f943 	bl	10006b80 <__mutex_exit_veneer>
100048fa:	0020      	movs	r0, r4
100048fc:	bd70      	pop	{r4, r5, r6, pc}
100048fe:	4b13      	ldr	r3, [pc, #76]	; (1000494c <stdio_usb_in_chars+0xb4>)
10004900:	4a13      	ldr	r2, [pc, #76]	; (10004950 <stdio_usb_in_chars+0xb8>)
10004902:	213f      	movs	r1, #63	; 0x3f
10004904:	4813      	ldr	r0, [pc, #76]	; (10004954 <stdio_usb_in_chars+0xbc>)
10004906:	f7fd fdd1 	bl	100024ac <__assert_func>
1000490a:	2201      	movs	r2, #1
1000490c:	4252      	negs	r2, r2
1000490e:	4b12      	ldr	r3, [pc, #72]	; (10004958 <stdio_usb_in_chars+0xc0>)
10004910:	e7d9      	b.n	100048c6 <stdio_usb_in_chars+0x2e>
10004912:	4b0e      	ldr	r3, [pc, #56]	; (1000494c <stdio_usb_in_chars+0xb4>)
10004914:	4a0e      	ldr	r2, [pc, #56]	; (10004950 <stdio_usb_in_chars+0xb8>)
10004916:	213f      	movs	r1, #63	; 0x3f
10004918:	480e      	ldr	r0, [pc, #56]	; (10004954 <stdio_usb_in_chars+0xbc>)
1000491a:	f7fd fdc7 	bl	100024ac <__assert_func>
1000491e:	0022      	movs	r2, r4
10004920:	0029      	movs	r1, r5
10004922:	2000      	movs	r0, #0
10004924:	f001 fa14 	bl	10005d50 <tud_cdc_n_read>
10004928:	1e04      	subs	r4, r0, #0
1000492a:	d1e3      	bne.n	100048f4 <stdio_usb_in_chars+0x5c>
1000492c:	2403      	movs	r4, #3
1000492e:	4264      	negs	r4, r4
10004930:	e7e0      	b.n	100048f4 <stdio_usb_in_chars+0x5c>
10004932:	2403      	movs	r4, #3
10004934:	4264      	negs	r4, r4
10004936:	e7e0      	b.n	100048fa <stdio_usb_in_chars+0x62>
10004938:	2403      	movs	r4, #3
1000493a:	4264      	negs	r4, r4
1000493c:	e7dd      	b.n	100048fa <stdio_usb_in_chars+0x62>
1000493e:	2403      	movs	r4, #3
10004940:	4264      	negs	r4, r4
10004942:	e7da      	b.n	100048fa <stdio_usb_in_chars+0x62>
10004944:	000f4240 	.word	0x000f4240
10004948:	20001a20 	.word	0x20001a20
1000494c:	10006fbc 	.word	0x10006fbc
10004950:	10007e64 	.word	0x10007e64
10004954:	10006fd8 	.word	0x10006fd8
10004958:	7fffffff 	.word	0x7fffffff

1000495c <stdio_usb_out_chars>:
1000495c:	b5f0      	push	{r4, r5, r6, r7, lr}
1000495e:	46c6      	mov	lr, r8
10004960:	b500      	push	{lr}
10004962:	4680      	mov	r8, r0
10004964:	000c      	movs	r4, r1
10004966:	f7fc ff6d 	bl	10001844 <time_us_64>
1000496a:	0002      	movs	r2, r0
1000496c:	1e0b      	subs	r3, r1, #0
1000496e:	db0f      	blt.n	10004990 <stdio_usb_out_chars+0x34>
10004970:	4837      	ldr	r0, [pc, #220]	; (10004a50 <stdio_usb_out_chars+0xf4>)
10004972:	2100      	movs	r1, #0
10004974:	1812      	adds	r2, r2, r0
10004976:	414b      	adcs	r3, r1
10004978:	2b00      	cmp	r3, #0
1000497a:	db0f      	blt.n	1000499c <stdio_usb_out_chars+0x40>
1000497c:	2b00      	cmp	r3, #0
1000497e:	db11      	blt.n	100049a4 <stdio_usb_out_chars+0x48>
10004980:	4834      	ldr	r0, [pc, #208]	; (10004a54 <stdio_usb_out_chars+0xf8>)
10004982:	f002 f93d 	bl	10006c00 <__mutex_try_enter_block_until_veneer>
10004986:	2800      	cmp	r0, #0
10004988:	d112      	bne.n	100049b0 <stdio_usb_out_chars+0x54>
1000498a:	bc80      	pop	{r7}
1000498c:	46b8      	mov	r8, r7
1000498e:	bdf0      	pop	{r4, r5, r6, r7, pc}
10004990:	4b31      	ldr	r3, [pc, #196]	; (10004a58 <stdio_usb_out_chars+0xfc>)
10004992:	4a32      	ldr	r2, [pc, #200]	; (10004a5c <stdio_usb_out_chars+0x100>)
10004994:	213f      	movs	r1, #63	; 0x3f
10004996:	4832      	ldr	r0, [pc, #200]	; (10004a60 <stdio_usb_out_chars+0x104>)
10004998:	f7fd fd88 	bl	100024ac <__assert_func>
1000499c:	2201      	movs	r2, #1
1000499e:	4252      	negs	r2, r2
100049a0:	4b30      	ldr	r3, [pc, #192]	; (10004a64 <stdio_usb_out_chars+0x108>)
100049a2:	e7eb      	b.n	1000497c <stdio_usb_out_chars+0x20>
100049a4:	4b2c      	ldr	r3, [pc, #176]	; (10004a58 <stdio_usb_out_chars+0xfc>)
100049a6:	4a2d      	ldr	r2, [pc, #180]	; (10004a5c <stdio_usb_out_chars+0x100>)
100049a8:	213f      	movs	r1, #63	; 0x3f
100049aa:	482d      	ldr	r0, [pc, #180]	; (10004a60 <stdio_usb_out_chars+0x104>)
100049ac:	f7fd fd7e 	bl	100024ac <__assert_func>
100049b0:	f7ff ff6c 	bl	1000488c <stdio_usb_connected>
100049b4:	2800      	cmp	r0, #0
100049b6:	d149      	bne.n	10004a4c <stdio_usb_out_chars+0xf0>
100049b8:	4b2b      	ldr	r3, [pc, #172]	; (10004a68 <stdio_usb_out_chars+0x10c>)
100049ba:	2000      	movs	r0, #0
100049bc:	2100      	movs	r1, #0
100049be:	6018      	str	r0, [r3, #0]
100049c0:	6059      	str	r1, [r3, #4]
100049c2:	4824      	ldr	r0, [pc, #144]	; (10004a54 <stdio_usb_out_chars+0xf8>)
100049c4:	f002 f8dc 	bl	10006b80 <__mutex_exit_veneer>
100049c8:	e7df      	b.n	1000498a <stdio_usb_out_chars+0x2e>
100049ca:	2001      	movs	r0, #1
100049cc:	2100      	movs	r1, #0
100049ce:	4240      	negs	r0, r0
100049d0:	f000 ff88 	bl	100058e4 <tud_task_ext>
100049d4:	2000      	movs	r0, #0
100049d6:	f001 f9cf 	bl	10005d78 <tud_cdc_n_write_flush>
100049da:	f7ff ff57 	bl	1000488c <stdio_usb_connected>
100049de:	2800      	cmp	r0, #0
100049e0:	d0ef      	beq.n	100049c2 <stdio_usb_out_chars+0x66>
100049e2:	2000      	movs	r0, #0
100049e4:	f001 fa40 	bl	10005e68 <tud_cdc_n_write_available>
100049e8:	2800      	cmp	r0, #0
100049ea:	d020      	beq.n	10004a2e <stdio_usb_out_chars+0xd2>
100049ec:	42a5      	cmp	r5, r4
100049ee:	dae8      	bge.n	100049c2 <stdio_usb_out_chars+0x66>
100049f0:	1b66      	subs	r6, r4, r5
100049f2:	2000      	movs	r0, #0
100049f4:	f001 fa38 	bl	10005e68 <tud_cdc_n_write_available>
100049f8:	0002      	movs	r2, r0
100049fa:	4286      	cmp	r6, r0
100049fc:	dc00      	bgt.n	10004a00 <stdio_usb_out_chars+0xa4>
100049fe:	0032      	movs	r2, r6
10004a00:	2a00      	cmp	r2, #0
10004a02:	d0e2      	beq.n	100049ca <stdio_usb_out_chars+0x6e>
10004a04:	4643      	mov	r3, r8
10004a06:	1959      	adds	r1, r3, r5
10004a08:	2000      	movs	r0, #0
10004a0a:	f001 fa11 	bl	10005e30 <tud_cdc_n_write>
10004a0e:	0006      	movs	r6, r0
10004a10:	2001      	movs	r0, #1
10004a12:	2100      	movs	r1, #0
10004a14:	4240      	negs	r0, r0
10004a16:	f000 ff65 	bl	100058e4 <tud_task_ext>
10004a1a:	2000      	movs	r0, #0
10004a1c:	f001 f9ac 	bl	10005d78 <tud_cdc_n_write_flush>
10004a20:	19ad      	adds	r5, r5, r6
10004a22:	f7fc ff0f 	bl	10001844 <time_us_64>
10004a26:	4b10      	ldr	r3, [pc, #64]	; (10004a68 <stdio_usb_out_chars+0x10c>)
10004a28:	6018      	str	r0, [r3, #0]
10004a2a:	6059      	str	r1, [r3, #4]
10004a2c:	e7de      	b.n	100049ec <stdio_usb_out_chars+0x90>
10004a2e:	f7fc ff09 	bl	10001844 <time_us_64>
10004a32:	4b0d      	ldr	r3, [pc, #52]	; (10004a68 <stdio_usb_out_chars+0x10c>)
10004a34:	681e      	ldr	r6, [r3, #0]
10004a36:	685f      	ldr	r7, [r3, #4]
10004a38:	4a0c      	ldr	r2, [pc, #48]	; (10004a6c <stdio_usb_out_chars+0x110>)
10004a3a:	2300      	movs	r3, #0
10004a3c:	1992      	adds	r2, r2, r6
10004a3e:	417b      	adcs	r3, r7
10004a40:	4299      	cmp	r1, r3
10004a42:	d8be      	bhi.n	100049c2 <stdio_usb_out_chars+0x66>
10004a44:	d1d2      	bne.n	100049ec <stdio_usb_out_chars+0x90>
10004a46:	4290      	cmp	r0, r2
10004a48:	d9d0      	bls.n	100049ec <stdio_usb_out_chars+0x90>
10004a4a:	e7ba      	b.n	100049c2 <stdio_usb_out_chars+0x66>
10004a4c:	2500      	movs	r5, #0
10004a4e:	e7cd      	b.n	100049ec <stdio_usb_out_chars+0x90>
10004a50:	000f4240 	.word	0x000f4240
10004a54:	20001a20 	.word	0x20001a20
10004a58:	10006fbc 	.word	0x10006fbc
10004a5c:	10007e64 	.word	0x10007e64
10004a60:	10006fd8 	.word	0x10006fd8
10004a64:	7fffffff 	.word	0x7fffffff
10004a68:	20000dc8 	.word	0x20000dc8
10004a6c:	0007a120 	.word	0x0007a120

10004a70 <tud_descriptor_device_cb>:
10004a70:	4800      	ldr	r0, [pc, #0]	; (10004a74 <tud_descriptor_device_cb+0x4>)
10004a72:	4770      	bx	lr
10004a74:	10007efc 	.word	0x10007efc

10004a78 <tud_descriptor_configuration_cb>:
10004a78:	4800      	ldr	r0, [pc, #0]	; (10004a7c <tud_descriptor_configuration_cb+0x4>)
10004a7a:	4770      	bx	lr
10004a7c:	10007ea8 	.word	0x10007ea8

10004a80 <tud_descriptor_string_cb>:
10004a80:	b510      	push	{r4, lr}
10004a82:	0004      	movs	r4, r0
10004a84:	4b15      	ldr	r3, [pc, #84]	; (10004adc <tud_descriptor_string_cb+0x5c>)
10004a86:	781b      	ldrb	r3, [r3, #0]
10004a88:	2b00      	cmp	r3, #0
10004a8a:	d00e      	beq.n	10004aaa <tud_descriptor_string_cb+0x2a>
10004a8c:	2c00      	cmp	r4, #0
10004a8e:	d111      	bne.n	10004ab4 <tud_descriptor_string_cb+0x34>
10004a90:	4b13      	ldr	r3, [pc, #76]	; (10004ae0 <tud_descriptor_string_cb+0x60>)
10004a92:	4a14      	ldr	r2, [pc, #80]	; (10004ae4 <tud_descriptor_string_cb+0x64>)
10004a94:	805a      	strh	r2, [r3, #2]
10004a96:	2301      	movs	r3, #1
10004a98:	3301      	adds	r3, #1
10004a9a:	005b      	lsls	r3, r3, #1
10004a9c:	b21b      	sxth	r3, r3
10004a9e:	22c0      	movs	r2, #192	; 0xc0
10004aa0:	0092      	lsls	r2, r2, #2
10004aa2:	4313      	orrs	r3, r2
10004aa4:	480e      	ldr	r0, [pc, #56]	; (10004ae0 <tud_descriptor_string_cb+0x60>)
10004aa6:	8003      	strh	r3, [r0, #0]
10004aa8:	bd10      	pop	{r4, pc}
10004aaa:	2111      	movs	r1, #17
10004aac:	480b      	ldr	r0, [pc, #44]	; (10004adc <tud_descriptor_string_cb+0x5c>)
10004aae:	f000 f825 	bl	10004afc <pico_get_unique_board_id_string>
10004ab2:	e7eb      	b.n	10004a8c <tud_descriptor_string_cb+0xc>
10004ab4:	2c05      	cmp	r4, #5
10004ab6:	d80e      	bhi.n	10004ad6 <tud_descriptor_string_cb+0x56>
10004ab8:	00a4      	lsls	r4, r4, #2
10004aba:	4b0b      	ldr	r3, [pc, #44]	; (10004ae8 <tud_descriptor_string_cb+0x68>)
10004abc:	58e4      	ldr	r4, [r4, r3]
10004abe:	2300      	movs	r3, #0
10004ac0:	2b12      	cmp	r3, #18
10004ac2:	d8e9      	bhi.n	10004a98 <tud_descriptor_string_cb+0x18>
10004ac4:	5ce2      	ldrb	r2, [r4, r3]
10004ac6:	2a00      	cmp	r2, #0
10004ac8:	d0e6      	beq.n	10004a98 <tud_descriptor_string_cb+0x18>
10004aca:	3301      	adds	r3, #1
10004acc:	0059      	lsls	r1, r3, #1
10004ace:	4804      	ldr	r0, [pc, #16]	; (10004ae0 <tud_descriptor_string_cb+0x60>)
10004ad0:	5242      	strh	r2, [r0, r1]
10004ad2:	b2db      	uxtb	r3, r3
10004ad4:	e7f4      	b.n	10004ac0 <tud_descriptor_string_cb+0x40>
10004ad6:	2000      	movs	r0, #0
10004ad8:	e7e6      	b.n	10004aa8 <tud_descriptor_string_cb+0x28>
10004ada:	46c0      	nop			; (mov r8, r8)
10004adc:	20001a40 	.word	0x20001a40
10004ae0:	200013bc 	.word	0x200013bc
10004ae4:	00000409 	.word	0x00000409
10004ae8:	10007f10 	.word	0x10007f10

10004aec <_retrieve_unique_id_on_boot>:
10004aec:	b510      	push	{r4, lr}
10004aee:	4802      	ldr	r0, [pc, #8]	; (10004af8 <_retrieve_unique_id_on_boot+0xc>)
10004af0:	f000 f834 	bl	10004b5c <flash_get_unique_id>
10004af4:	bd10      	pop	{r4, pc}
10004af6:	46c0      	nop			; (mov r8, r8)
10004af8:	20001810 	.word	0x20001810

10004afc <pico_get_unique_board_id_string>:
10004afc:	b510      	push	{r4, lr}
10004afe:	2900      	cmp	r1, #0
10004b00:	d001      	beq.n	10004b06 <pico_get_unique_board_id_string+0xa>
10004b02:	2300      	movs	r3, #0
10004b04:	e00a      	b.n	10004b1c <pico_get_unique_board_id_string+0x20>
10004b06:	4b11      	ldr	r3, [pc, #68]	; (10004b4c <pico_get_unique_board_id_string+0x50>)
10004b08:	4a11      	ldr	r2, [pc, #68]	; (10004b50 <pico_get_unique_board_id_string+0x54>)
10004b0a:	311f      	adds	r1, #31
10004b0c:	4811      	ldr	r0, [pc, #68]	; (10004b54 <pico_get_unique_board_id_string+0x58>)
10004b0e:	f7fd fccd 	bl	100024ac <__assert_func>
10004b12:	2400      	movs	r4, #0
10004b14:	e00d      	b.n	10004b32 <pico_get_unique_board_id_string+0x36>
10004b16:	3237      	adds	r2, #55	; 0x37
10004b18:	54c2      	strb	r2, [r0, r3]
10004b1a:	3301      	adds	r3, #1
10004b1c:	1e4a      	subs	r2, r1, #1
10004b1e:	429a      	cmp	r2, r3
10004b20:	d90f      	bls.n	10004b42 <pico_get_unique_board_id_string+0x46>
10004b22:	2b0f      	cmp	r3, #15
10004b24:	d80d      	bhi.n	10004b42 <pico_get_unique_board_id_string+0x46>
10004b26:	085a      	lsrs	r2, r3, #1
10004b28:	4c0b      	ldr	r4, [pc, #44]	; (10004b58 <pico_get_unique_board_id_string+0x5c>)
10004b2a:	5ca2      	ldrb	r2, [r4, r2]
10004b2c:	07dc      	lsls	r4, r3, #31
10004b2e:	d4f0      	bmi.n	10004b12 <pico_get_unique_board_id_string+0x16>
10004b30:	2404      	movs	r4, #4
10004b32:	4122      	asrs	r2, r4
10004b34:	0014      	movs	r4, r2
10004b36:	220f      	movs	r2, #15
10004b38:	4022      	ands	r2, r4
10004b3a:	2a09      	cmp	r2, #9
10004b3c:	dceb      	bgt.n	10004b16 <pico_get_unique_board_id_string+0x1a>
10004b3e:	3230      	adds	r2, #48	; 0x30
10004b40:	e7ea      	b.n	10004b18 <pico_get_unique_board_id_string+0x1c>
10004b42:	18c0      	adds	r0, r0, r3
10004b44:	2300      	movs	r3, #0
10004b46:	7003      	strb	r3, [r0, #0]
10004b48:	bd10      	pop	{r4, pc}
10004b4a:	46c0      	nop			; (mov r8, r8)
10004b4c:	10007f28 	.word	0x10007f28
10004b50:	10007f94 	.word	0x10007f94
10004b54:	10007f30 	.word	0x10007f30
10004b58:	20001810 	.word	0x20001810

10004b5c <flash_get_unique_id>:
10004b5c:	b570      	push	{r4, r5, r6, lr}
10004b5e:	b088      	sub	sp, #32
10004b60:	0004      	movs	r4, r0
10004b62:	ad04      	add	r5, sp, #16
10004b64:	2600      	movs	r6, #0
10004b66:	9604      	str	r6, [sp, #16]
10004b68:	2209      	movs	r2, #9
10004b6a:	2100      	movs	r1, #0
10004b6c:	a805      	add	r0, sp, #20
10004b6e:	f7ff fa4d 	bl	1000400c <__wrap_memset>
10004b72:	9600      	str	r6, [sp, #0]
10004b74:	2209      	movs	r2, #9
10004b76:	2100      	movs	r1, #0
10004b78:	a801      	add	r0, sp, #4
10004b7a:	f7ff fa47 	bl	1000400c <__wrap_memset>
10004b7e:	234b      	movs	r3, #75	; 0x4b
10004b80:	702b      	strb	r3, [r5, #0]
10004b82:	220d      	movs	r2, #13
10004b84:	4669      	mov	r1, sp
10004b86:	0028      	movs	r0, r5
10004b88:	f001 fff2 	bl	10006b70 <__flash_do_cmd_veneer>
10004b8c:	2300      	movs	r3, #0
10004b8e:	e004      	b.n	10004b9a <flash_get_unique_id+0x3e>
10004b90:	1d5a      	adds	r2, r3, #5
10004b92:	4669      	mov	r1, sp
10004b94:	5c8a      	ldrb	r2, [r1, r2]
10004b96:	54e2      	strb	r2, [r4, r3]
10004b98:	3301      	adds	r3, #1
10004b9a:	2b07      	cmp	r3, #7
10004b9c:	ddf8      	ble.n	10004b90 <flash_get_unique_id+0x34>
10004b9e:	b008      	add	sp, #32
10004ba0:	bd70      	pop	{r4, r5, r6, pc}
	...

10004ba4 <hw_endpoint_get_by_addr>:
10004ba4:	0002      	movs	r2, r0
10004ba6:	207f      	movs	r0, #127	; 0x7f
10004ba8:	4010      	ands	r0, r2
10004baa:	09d2      	lsrs	r2, r2, #7
10004bac:	0040      	lsls	r0, r0, #1
10004bae:	1880      	adds	r0, r0, r2
10004bb0:	0140      	lsls	r0, r0, #5
10004bb2:	4b01      	ldr	r3, [pc, #4]	; (10004bb8 <hw_endpoint_get_by_addr+0x14>)
10004bb4:	18c0      	adds	r0, r0, r3
10004bb6:	4770      	bx	lr
10004bb8:	200013f0 	.word	0x200013f0

10004bbc <_hw_endpoint_alloc>:
10004bbc:	b510      	push	{r4, lr}
10004bbe:	8b03      	ldrh	r3, [r0, #24]
10004bc0:	333f      	adds	r3, #63	; 0x3f
10004bc2:	223f      	movs	r2, #63	; 0x3f
10004bc4:	4393      	bics	r3, r2
10004bc6:	2902      	cmp	r1, #2
10004bc8:	d015      	beq.n	10004bf6 <_hw_endpoint_alloc+0x3a>
10004bca:	4c12      	ldr	r4, [pc, #72]	; (10004c14 <_hw_endpoint_alloc+0x58>)
10004bcc:	6822      	ldr	r2, [r4, #0]
10004bce:	60c2      	str	r2, [r0, #12]
10004bd0:	18d3      	adds	r3, r2, r3
10004bd2:	6023      	str	r3, [r4, #0]
10004bd4:	069c      	lsls	r4, r3, #26
10004bd6:	d110      	bne.n	10004bfa <_hw_endpoint_alloc+0x3e>
10004bd8:	4c0f      	ldr	r4, [pc, #60]	; (10004c18 <_hw_endpoint_alloc+0x5c>)
10004bda:	4062      	eors	r2, r4
10004bdc:	4063      	eors	r3, r4
10004bde:	2480      	movs	r4, #128	; 0x80
10004be0:	0164      	lsls	r4, r4, #5
10004be2:	42a3      	cmp	r3, r4
10004be4:	d80f      	bhi.n	10004c06 <_hw_endpoint_alloc+0x4a>
10004be6:	0689      	lsls	r1, r1, #26
10004be8:	4311      	orrs	r1, r2
10004bea:	2380      	movs	r3, #128	; 0x80
10004bec:	061b      	lsls	r3, r3, #24
10004bee:	4319      	orrs	r1, r3
10004bf0:	6843      	ldr	r3, [r0, #4]
10004bf2:	6019      	str	r1, [r3, #0]
10004bf4:	bd10      	pop	{r4, pc}
10004bf6:	005b      	lsls	r3, r3, #1
10004bf8:	e7e7      	b.n	10004bca <_hw_endpoint_alloc+0xe>
10004bfa:	4b08      	ldr	r3, [pc, #32]	; (10004c1c <_hw_endpoint_alloc+0x60>)
10004bfc:	4a08      	ldr	r2, [pc, #32]	; (10004c20 <_hw_endpoint_alloc+0x64>)
10004bfe:	2154      	movs	r1, #84	; 0x54
10004c00:	4808      	ldr	r0, [pc, #32]	; (10004c24 <_hw_endpoint_alloc+0x68>)
10004c02:	f7fd fc53 	bl	100024ac <__assert_func>
10004c06:	4b08      	ldr	r3, [pc, #32]	; (10004c28 <_hw_endpoint_alloc+0x6c>)
10004c08:	4a05      	ldr	r2, [pc, #20]	; (10004c20 <_hw_endpoint_alloc+0x64>)
10004c0a:	2156      	movs	r1, #86	; 0x56
10004c0c:	4805      	ldr	r0, [pc, #20]	; (10004c24 <_hw_endpoint_alloc+0x68>)
10004c0e:	f7fd fc4d 	bl	100024ac <__assert_func>
10004c12:	46c0      	nop			; (mov r8, r8)
10004c14:	200017f4 	.word	0x200017f4
10004c18:	50100000 	.word	0x50100000
10004c1c:	1000813c 	.word	0x1000813c
10004c20:	10008270 	.word	0x10008270
10004c24:	1000816c 	.word	0x1000816c
10004c28:	100081dc 	.word	0x100081dc

10004c2c <hw_endpoint_init>:
10004c2c:	b5f8      	push	{r3, r4, r5, r6, r7, lr}
10004c2e:	0005      	movs	r5, r0
10004c30:	000e      	movs	r6, r1
10004c32:	0014      	movs	r4, r2
10004c34:	f7ff ffb6 	bl	10004ba4 <hw_endpoint_get_by_addr>
10004c38:	237f      	movs	r3, #127	; 0x7f
10004c3a:	402b      	ands	r3, r5
10004c3c:	09ef      	lsrs	r7, r5, #7
10004c3e:	7085      	strb	r5, [r0, #2]
10004c40:	427a      	negs	r2, r7
10004c42:	417a      	adcs	r2, r7
10004c44:	7042      	strb	r2, [r0, #1]
10004c46:	2200      	movs	r2, #0
10004c48:	70c2      	strb	r2, [r0, #3]
10004c4a:	8306      	strh	r6, [r0, #24]
10004c4c:	76c4      	strb	r4, [r0, #27]
10004c4e:	2f01      	cmp	r7, #1
10004c50:	d00d      	beq.n	10004c6e <hw_endpoint_init+0x42>
10004c52:	00da      	lsls	r2, r3, #3
10004c54:	4912      	ldr	r1, [pc, #72]	; (10004ca0 <hw_endpoint_init+0x74>)
10004c56:	468c      	mov	ip, r1
10004c58:	4462      	add	r2, ip
10004c5a:	6082      	str	r2, [r0, #8]
10004c5c:	6882      	ldr	r2, [r0, #8]
10004c5e:	2100      	movs	r1, #0
10004c60:	6011      	str	r1, [r2, #0]
10004c62:	2b00      	cmp	r3, #0
10004c64:	d109      	bne.n	10004c7a <hw_endpoint_init+0x4e>
10004c66:	6043      	str	r3, [r0, #4]
10004c68:	4b0e      	ldr	r3, [pc, #56]	; (10004ca4 <hw_endpoint_init+0x78>)
10004c6a:	60c3      	str	r3, [r0, #12]
10004c6c:	bdf8      	pop	{r3, r4, r5, r6, r7, pc}
10004c6e:	00da      	lsls	r2, r3, #3
10004c70:	490d      	ldr	r1, [pc, #52]	; (10004ca8 <hw_endpoint_init+0x7c>)
10004c72:	468c      	mov	ip, r1
10004c74:	4462      	add	r2, ip
10004c76:	6082      	str	r2, [r0, #8]
10004c78:	e7f0      	b.n	10004c5c <hw_endpoint_init+0x30>
10004c7a:	2f01      	cmp	r7, #1
10004c7c:	d009      	beq.n	10004c92 <hw_endpoint_init+0x66>
10004c7e:	3b01      	subs	r3, #1
10004c80:	00db      	lsls	r3, r3, #3
10004c82:	4a0a      	ldr	r2, [pc, #40]	; (10004cac <hw_endpoint_init+0x80>)
10004c84:	4694      	mov	ip, r2
10004c86:	4463      	add	r3, ip
10004c88:	6043      	str	r3, [r0, #4]
10004c8a:	0021      	movs	r1, r4
10004c8c:	f7ff ff96 	bl	10004bbc <_hw_endpoint_alloc>
10004c90:	e7ec      	b.n	10004c6c <hw_endpoint_init+0x40>
10004c92:	3b01      	subs	r3, #1
10004c94:	00db      	lsls	r3, r3, #3
10004c96:	4a06      	ldr	r2, [pc, #24]	; (10004cb0 <hw_endpoint_init+0x84>)
10004c98:	4694      	mov	ip, r2
10004c9a:	4463      	add	r3, ip
10004c9c:	6043      	str	r3, [r0, #4]
10004c9e:	e7f4      	b.n	10004c8a <hw_endpoint_init+0x5e>
10004ca0:	50100084 	.word	0x50100084
10004ca4:	50100100 	.word	0x50100100
10004ca8:	50100080 	.word	0x50100080
10004cac:	5010000c 	.word	0x5010000c
10004cb0:	50100008 	.word	0x50100008

10004cb4 <hw_endpoint_xfer>:
10004cb4:	b570      	push	{r4, r5, r6, lr}
10004cb6:	000c      	movs	r4, r1
10004cb8:	0015      	movs	r5, r2
10004cba:	f7ff ff73 	bl	10004ba4 <hw_endpoint_get_by_addr>
10004cbe:	002a      	movs	r2, r5
10004cc0:	0021      	movs	r1, r4
10004cc2:	f000 f90d 	bl	10004ee0 <hw_endpoint_xfer_start>
10004cc6:	bd70      	pop	{r4, r5, r6, pc}

10004cc8 <dcd_int_enable>:
10004cc8:	b510      	push	{r4, lr}
10004cca:	2800      	cmp	r0, #0
10004ccc:	d104      	bne.n	10004cd8 <dcd_int_enable+0x10>
10004cce:	2101      	movs	r1, #1
10004cd0:	2005      	movs	r0, #5
10004cd2:	f7fb fc9b 	bl	1000060c <irq_set_enabled>
10004cd6:	bd10      	pop	{r4, pc}
10004cd8:	21d5      	movs	r1, #213	; 0xd5
10004cda:	4b03      	ldr	r3, [pc, #12]	; (10004ce8 <dcd_int_enable+0x20>)
10004cdc:	4a03      	ldr	r2, [pc, #12]	; (10004cec <dcd_int_enable+0x24>)
10004cde:	0049      	lsls	r1, r1, #1
10004ce0:	4803      	ldr	r0, [pc, #12]	; (10004cf0 <dcd_int_enable+0x28>)
10004ce2:	f7fd fbe3 	bl	100024ac <__assert_func>
10004ce6:	46c0      	nop			; (mov r8, r8)
10004ce8:	10008224 	.word	0x10008224
10004cec:	10008260 	.word	0x10008260
10004cf0:	1000816c 	.word	0x1000816c

10004cf4 <dcd_set_address>:
10004cf4:	b510      	push	{r4, lr}
10004cf6:	2800      	cmp	r0, #0
10004cf8:	d105      	bne.n	10004d06 <dcd_set_address+0x12>
10004cfa:	2200      	movs	r2, #0
10004cfc:	2100      	movs	r1, #0
10004cfe:	2080      	movs	r0, #128	; 0x80
10004d00:	f7ff ffd8 	bl	10004cb4 <hw_endpoint_xfer>
10004d04:	bd10      	pop	{r4, pc}
10004d06:	21db      	movs	r1, #219	; 0xdb
10004d08:	4b02      	ldr	r3, [pc, #8]	; (10004d14 <dcd_set_address+0x20>)
10004d0a:	4a03      	ldr	r2, [pc, #12]	; (10004d18 <dcd_set_address+0x24>)
10004d0c:	0049      	lsls	r1, r1, #1
10004d0e:	4803      	ldr	r0, [pc, #12]	; (10004d1c <dcd_set_address+0x28>)
10004d10:	f7fd fbcc 	bl	100024ac <__assert_func>
10004d14:	10008224 	.word	0x10008224
10004d18:	10008250 	.word	0x10008250
10004d1c:	1000816c 	.word	0x1000816c

10004d20 <dcd_connect>:
10004d20:	4b02      	ldr	r3, [pc, #8]	; (10004d2c <dcd_connect+0xc>)
10004d22:	2280      	movs	r2, #128	; 0x80
10004d24:	0252      	lsls	r2, r2, #9
10004d26:	64da      	str	r2, [r3, #76]	; 0x4c
10004d28:	4770      	bx	lr
10004d2a:	46c0      	nop			; (mov r8, r8)
10004d2c:	50112000 	.word	0x50112000

10004d30 <dcd_init>:
10004d30:	b570      	push	{r4, r5, r6, lr}
10004d32:	1e04      	subs	r4, r0, #0
10004d34:	d126      	bne.n	10004d84 <dcd_init+0x54>
10004d36:	f000 f8ad 	bl	10004e94 <rp2040_usb_init>
10004d3a:	4d16      	ldr	r5, [pc, #88]	; (10004d94 <dcd_init+0x64>)
10004d3c:	230c      	movs	r3, #12
10004d3e:	67ab      	str	r3, [r5, #120]	; 0x78
10004d40:	22ff      	movs	r2, #255	; 0xff
10004d42:	4915      	ldr	r1, [pc, #84]	; (10004d98 <dcd_init+0x68>)
10004d44:	2005      	movs	r0, #5
10004d46:	f7fb fcb5 	bl	100006b4 <irq_add_shared_handler>
10004d4a:	2240      	movs	r2, #64	; 0x40
10004d4c:	2100      	movs	r1, #0
10004d4e:	4813      	ldr	r0, [pc, #76]	; (10004d9c <dcd_init+0x6c>)
10004d50:	f7ff f95c 	bl	1000400c <__wrap_memset>
10004d54:	2200      	movs	r2, #0
10004d56:	2140      	movs	r1, #64	; 0x40
10004d58:	2000      	movs	r0, #0
10004d5a:	f7ff ff67 	bl	10004c2c <hw_endpoint_init>
10004d5e:	2200      	movs	r2, #0
10004d60:	2140      	movs	r1, #64	; 0x40
10004d62:	2080      	movs	r0, #128	; 0x80
10004d64:	f7ff ff62 	bl	10004c2c <hw_endpoint_init>
10004d68:	f001 ff42 	bl	10006bf0 <__reset_non_control_endpoints_veneer>
10004d6c:	2301      	movs	r3, #1
10004d6e:	642b      	str	r3, [r5, #64]	; 0x40
10004d70:	2380      	movs	r3, #128	; 0x80
10004d72:	059b      	lsls	r3, r3, #22
10004d74:	64eb      	str	r3, [r5, #76]	; 0x4c
10004d76:	2390      	movs	r3, #144	; 0x90
10004d78:	4a09      	ldr	r2, [pc, #36]	; (10004da0 <dcd_init+0x70>)
10004d7a:	50ea      	str	r2, [r5, r3]
10004d7c:	0020      	movs	r0, r4
10004d7e:	f7ff ffcf 	bl	10004d20 <dcd_connect>
10004d82:	bd70      	pop	{r4, r5, r6, pc}
10004d84:	2186      	movs	r1, #134	; 0x86
10004d86:	4b07      	ldr	r3, [pc, #28]	; (10004da4 <dcd_init+0x74>)
10004d88:	4a07      	ldr	r2, [pc, #28]	; (10004da8 <dcd_init+0x78>)
10004d8a:	31ff      	adds	r1, #255	; 0xff
10004d8c:	4807      	ldr	r0, [pc, #28]	; (10004dac <dcd_init+0x7c>)
10004d8e:	f7fd fb8d 	bl	100024ac <__assert_func>
10004d92:	46c0      	nop			; (mov r8, r8)
10004d94:	50110000 	.word	0x50110000
10004d98:	200004a1 	.word	0x200004a1
10004d9c:	200013f0 	.word	0x200013f0
10004da0:	0001d010 	.word	0x0001d010
10004da4:	10008224 	.word	0x10008224
10004da8:	10008284 	.word	0x10008284
10004dac:	1000816c 	.word	0x1000816c

10004db0 <dcd_edpt0_status_complete>:
10004db0:	780b      	ldrb	r3, [r1, #0]
10004db2:	065b      	lsls	r3, r3, #25
10004db4:	d102      	bne.n	10004dbc <dcd_edpt0_status_complete+0xc>
10004db6:	784b      	ldrb	r3, [r1, #1]
10004db8:	2b05      	cmp	r3, #5
10004dba:	d000      	beq.n	10004dbe <dcd_edpt0_status_complete+0xe>
10004dbc:	4770      	bx	lr
10004dbe:	788a      	ldrb	r2, [r1, #2]
10004dc0:	4b01      	ldr	r3, [pc, #4]	; (10004dc8 <dcd_edpt0_status_complete+0x18>)
10004dc2:	601a      	str	r2, [r3, #0]
10004dc4:	e7fa      	b.n	10004dbc <dcd_edpt0_status_complete+0xc>
10004dc6:	46c0      	nop			; (mov r8, r8)
10004dc8:	50110000 	.word	0x50110000

10004dcc <dcd_edpt_open>:
10004dcc:	b510      	push	{r4, lr}
10004dce:	000c      	movs	r4, r1
10004dd0:	2800      	cmp	r0, #0
10004dd2:	d10d      	bne.n	10004df0 <dcd_edpt_open+0x24>
10004dd4:	7909      	ldrb	r1, [r1, #4]
10004dd6:	7963      	ldrb	r3, [r4, #5]
10004dd8:	021b      	lsls	r3, r3, #8
10004dda:	430b      	orrs	r3, r1
10004ddc:	055b      	lsls	r3, r3, #21
10004dde:	0d59      	lsrs	r1, r3, #21
10004de0:	78e2      	ldrb	r2, [r4, #3]
10004de2:	0792      	lsls	r2, r2, #30
10004de4:	0f92      	lsrs	r2, r2, #30
10004de6:	78a0      	ldrb	r0, [r4, #2]
10004de8:	f7ff ff20 	bl	10004c2c <hw_endpoint_init>
10004dec:	2001      	movs	r0, #1
10004dee:	bd10      	pop	{r4, pc}
10004df0:	21fc      	movs	r1, #252	; 0xfc
10004df2:	4b03      	ldr	r3, [pc, #12]	; (10004e00 <dcd_edpt_open+0x34>)
10004df4:	4a03      	ldr	r2, [pc, #12]	; (10004e04 <dcd_edpt_open+0x38>)
10004df6:	31ff      	adds	r1, #255	; 0xff
10004df8:	4803      	ldr	r0, [pc, #12]	; (10004e08 <dcd_edpt_open+0x3c>)
10004dfa:	f7fd fb57 	bl	100024ac <__assert_func>
10004dfe:	46c0      	nop			; (mov r8, r8)
10004e00:	10008224 	.word	0x10008224
10004e04:	10008240 	.word	0x10008240
10004e08:	1000816c 	.word	0x1000816c

10004e0c <dcd_edpt_close_all>:
10004e0c:	b510      	push	{r4, lr}
10004e0e:	f001 feef 	bl	10006bf0 <__reset_non_control_endpoints_veneer>
10004e12:	bd10      	pop	{r4, pc}

10004e14 <dcd_edpt_xfer>:
10004e14:	b510      	push	{r4, lr}
10004e16:	0004      	movs	r4, r0
10004e18:	0008      	movs	r0, r1
10004e1a:	0011      	movs	r1, r2
10004e1c:	001a      	movs	r2, r3
10004e1e:	2c00      	cmp	r4, #0
10004e20:	d103      	bne.n	10004e2a <dcd_edpt_xfer+0x16>
10004e22:	f7ff ff47 	bl	10004cb4 <hw_endpoint_xfer>
10004e26:	2001      	movs	r0, #1
10004e28:	bd10      	pop	{r4, pc}
10004e2a:	4b03      	ldr	r3, [pc, #12]	; (10004e38 <dcd_edpt_xfer+0x24>)
10004e2c:	4a03      	ldr	r2, [pc, #12]	; (10004e3c <dcd_edpt_xfer+0x28>)
10004e2e:	4904      	ldr	r1, [pc, #16]	; (10004e40 <dcd_edpt_xfer+0x2c>)
10004e30:	4804      	ldr	r0, [pc, #16]	; (10004e44 <dcd_edpt_xfer+0x30>)
10004e32:	f7fd fb3b 	bl	100024ac <__assert_func>
10004e36:	46c0      	nop			; (mov r8, r8)
10004e38:	10008224 	.word	0x10008224
10004e3c:	10008230 	.word	0x10008230
10004e40:	0000020a 	.word	0x0000020a
10004e44:	1000816c 	.word	0x1000816c

10004e48 <dcd_edpt_stall>:
10004e48:	b510      	push	{r4, lr}
10004e4a:	0008      	movs	r0, r1
10004e4c:	064b      	lsls	r3, r1, #25
10004e4e:	d105      	bne.n	10004e5c <dcd_edpt_stall+0x14>
10004e50:	09cb      	lsrs	r3, r1, #7
10004e52:	2b01      	cmp	r3, #1
10004e54:	d00a      	beq.n	10004e6c <dcd_edpt_stall+0x24>
10004e56:	2202      	movs	r2, #2
10004e58:	4b05      	ldr	r3, [pc, #20]	; (10004e70 <dcd_edpt_stall+0x28>)
10004e5a:	669a      	str	r2, [r3, #104]	; 0x68
10004e5c:	f7ff fea2 	bl	10004ba4 <hw_endpoint_get_by_addr>
10004e60:	2280      	movs	r2, #128	; 0x80
10004e62:	0112      	lsls	r2, r2, #4
10004e64:	2100      	movs	r1, #0
10004e66:	f001 fee3 	bl	10006c30 <___hw_endpoint_buffer_control_update32_veneer>
10004e6a:	bd10      	pop	{r4, pc}
10004e6c:	2201      	movs	r2, #1
10004e6e:	e7f3      	b.n	10004e58 <dcd_edpt_stall+0x10>
10004e70:	50112000 	.word	0x50112000

10004e74 <dcd_edpt_clear_stall>:
10004e74:	b510      	push	{r4, lr}
10004e76:	0008      	movs	r0, r1
10004e78:	064b      	lsls	r3, r1, #25
10004e7a:	d100      	bne.n	10004e7e <dcd_edpt_clear_stall+0xa>
10004e7c:	bd10      	pop	{r4, pc}
10004e7e:	f7ff fe91 	bl	10004ba4 <hw_endpoint_get_by_addr>
10004e82:	2300      	movs	r3, #0
10004e84:	70c3      	strb	r3, [r0, #3]
10004e86:	2200      	movs	r2, #0
10004e88:	4901      	ldr	r1, [pc, #4]	; (10004e90 <dcd_edpt_clear_stall+0x1c>)
10004e8a:	f001 fed1 	bl	10006c30 <___hw_endpoint_buffer_control_update32_veneer>
10004e8e:	e7f5      	b.n	10004e7c <dcd_edpt_clear_stall+0x8>
10004e90:	fffff7ff 	.word	0xfffff7ff

10004e94 <rp2040_usb_init>:
10004e94:	b510      	push	{r4, lr}
10004e96:	2380      	movs	r3, #128	; 0x80
10004e98:	045b      	lsls	r3, r3, #17
10004e9a:	4a0c      	ldr	r2, [pc, #48]	; (10004ecc <rp2040_usb_init+0x38>)
10004e9c:	6013      	str	r3, [r2, #0]
10004e9e:	4a0c      	ldr	r2, [pc, #48]	; (10004ed0 <rp2040_usb_init+0x3c>)
10004ea0:	6013      	str	r3, [r2, #0]
10004ea2:	4b0c      	ldr	r3, [pc, #48]	; (10004ed4 <rp2040_usb_init+0x40>)
10004ea4:	689a      	ldr	r2, [r3, #8]
10004ea6:	2380      	movs	r3, #128	; 0x80
10004ea8:	045b      	lsls	r3, r3, #17
10004eaa:	4393      	bics	r3, r2
10004eac:	d1f9      	bne.n	10004ea2 <rp2040_usb_init+0xe>
10004eae:	4c0a      	ldr	r4, [pc, #40]	; (10004ed8 <rp2040_usb_init+0x44>)
10004eb0:	229c      	movs	r2, #156	; 0x9c
10004eb2:	2100      	movs	r1, #0
10004eb4:	0020      	movs	r0, r4
10004eb6:	f7ff f8a9 	bl	1000400c <__wrap_memset>
10004eba:	2280      	movs	r2, #128	; 0x80
10004ebc:	0152      	lsls	r2, r2, #5
10004ebe:	2100      	movs	r1, #0
10004ec0:	4806      	ldr	r0, [pc, #24]	; (10004edc <rp2040_usb_init+0x48>)
10004ec2:	f7ff f8a3 	bl	1000400c <__wrap_memset>
10004ec6:	2309      	movs	r3, #9
10004ec8:	6763      	str	r3, [r4, #116]	; 0x74
10004eca:	bd10      	pop	{r4, pc}
10004ecc:	4000e000 	.word	0x4000e000
10004ed0:	4000f000 	.word	0x4000f000
10004ed4:	4000c000 	.word	0x4000c000
10004ed8:	50110000 	.word	0x50110000
10004edc:	50100000 	.word	0x50100000

10004ee0 <hw_endpoint_xfer_start>:
10004ee0:	b570      	push	{r4, r5, r6, lr}
10004ee2:	0004      	movs	r4, r0
10004ee4:	000d      	movs	r5, r1
10004ee6:	0016      	movs	r6, r2
10004ee8:	7e83      	ldrb	r3, [r0, #26]
10004eea:	2b00      	cmp	r3, #0
10004eec:	d117      	bne.n	10004f1e <hw_endpoint_xfer_start+0x3e>
10004eee:	82a6      	strh	r6, [r4, #20]
10004ef0:	2300      	movs	r3, #0
10004ef2:	82e3      	strh	r3, [r4, #22]
10004ef4:	3301      	adds	r3, #1
10004ef6:	76a3      	strb	r3, [r4, #26]
10004ef8:	6125      	str	r5, [r4, #16]
10004efa:	0020      	movs	r0, r4
10004efc:	f001 fe30 	bl	10006b60 <__e15_is_bulkin_ep_veneer>
10004f00:	2800      	cmp	r0, #0
10004f02:	d004      	beq.n	10004f0e <hw_endpoint_xfer_start+0x2e>
10004f04:	4a09      	ldr	r2, [pc, #36]	; (10004f2c <hw_endpoint_xfer_start+0x4c>)
10004f06:	2390      	movs	r3, #144	; 0x90
10004f08:	2180      	movs	r1, #128	; 0x80
10004f0a:	0289      	lsls	r1, r1, #10
10004f0c:	50d1      	str	r1, [r2, r3]
10004f0e:	0020      	movs	r0, r4
10004f10:	f001 fe4e 	bl	10006bb0 <__e15_is_critical_frame_period_veneer>
10004f14:	2800      	cmp	r0, #0
10004f16:	d005      	beq.n	10004f24 <hw_endpoint_xfer_start+0x44>
10004f18:	2301      	movs	r3, #1
10004f1a:	7723      	strb	r3, [r4, #28]
10004f1c:	bd70      	pop	{r4, r5, r6, pc}
10004f1e:	f001 fe7f 	bl	10006c20 <__hw_endpoint_reset_transfer_veneer>
10004f22:	e7e4      	b.n	10004eee <hw_endpoint_xfer_start+0xe>
10004f24:	0020      	movs	r0, r4
10004f26:	f001 fe73 	bl	10006c10 <__hw_endpoint_start_next_buffer_veneer>
10004f2a:	e7f7      	b.n	10004f1c <hw_endpoint_xfer_start+0x3c>
10004f2c:	50112000 	.word	0x50112000

10004f30 <configuration_reset>:
10004f30:	b570      	push	{r4, r5, r6, lr}
10004f32:	0005      	movs	r5, r0
10004f34:	2400      	movs	r4, #0
10004f36:	e00c      	b.n	10004f52 <configuration_reset+0x22>
10004f38:	0063      	lsls	r3, r4, #1
10004f3a:	191b      	adds	r3, r3, r4
10004f3c:	00da      	lsls	r2, r3, #3
10004f3e:	4b18      	ldr	r3, [pc, #96]	; (10004fa0 <configuration_reset+0x70>)
10004f40:	681b      	ldr	r3, [r3, #0]
10004f42:	189b      	adds	r3, r3, r2
10004f44:	2b00      	cmp	r3, #0
10004f46:	d02a      	beq.n	10004f9e <configuration_reset+0x6e>
10004f48:	685b      	ldr	r3, [r3, #4]
10004f4a:	0028      	movs	r0, r5
10004f4c:	4798      	blx	r3
10004f4e:	3401      	adds	r4, #1
10004f50:	b2e4      	uxtb	r4, r4
10004f52:	4b14      	ldr	r3, [pc, #80]	; (10004fa4 <configuration_reset+0x74>)
10004f54:	781b      	ldrb	r3, [r3, #0]
10004f56:	42a3      	cmp	r3, r4
10004f58:	d310      	bcc.n	10004f7c <configuration_reset+0x4c>
10004f5a:	4a13      	ldr	r2, [pc, #76]	; (10004fa8 <configuration_reset+0x78>)
10004f5c:	2a00      	cmp	r2, #0
10004f5e:	d00b      	beq.n	10004f78 <configuration_reset+0x48>
10004f60:	42a3      	cmp	r3, r4
10004f62:	d8e9      	bhi.n	10004f38 <configuration_reset+0x8>
10004f64:	1ae3      	subs	r3, r4, r3
10004f66:	b2db      	uxtb	r3, r3
10004f68:	2b00      	cmp	r3, #0
10004f6a:	d118      	bne.n	10004f9e <configuration_reset+0x6e>
10004f6c:	005a      	lsls	r2, r3, #1
10004f6e:	18d2      	adds	r2, r2, r3
10004f70:	00d2      	lsls	r2, r2, #3
10004f72:	4b0e      	ldr	r3, [pc, #56]	; (10004fac <configuration_reset+0x7c>)
10004f74:	189b      	adds	r3, r3, r2
10004f76:	e7e5      	b.n	10004f44 <configuration_reset+0x14>
10004f78:	0023      	movs	r3, r4
10004f7a:	e7f5      	b.n	10004f68 <configuration_reset+0x38>
10004f7c:	4c0c      	ldr	r4, [pc, #48]	; (10004fb0 <configuration_reset+0x80>)
10004f7e:	2253      	movs	r2, #83	; 0x53
10004f80:	2100      	movs	r1, #0
10004f82:	0020      	movs	r0, r4
10004f84:	f7ff f842 	bl	1000400c <__wrap_memset>
10004f88:	1ce0      	adds	r0, r4, #3
10004f8a:	2210      	movs	r2, #16
10004f8c:	21ff      	movs	r1, #255	; 0xff
10004f8e:	f7ff f83d 	bl	1000400c <__wrap_memset>
10004f92:	0020      	movs	r0, r4
10004f94:	3013      	adds	r0, #19
10004f96:	2220      	movs	r2, #32
10004f98:	21ff      	movs	r1, #255	; 0xff
10004f9a:	f7ff f837 	bl	1000400c <__wrap_memset>
10004f9e:	bd70      	pop	{r4, r5, r6, pc}
10004fa0:	20000dec 	.word	0x20000dec
10004fa4:	20001a51 	.word	0x20001a51
10004fa8:	100045c1 	.word	0x100045c1
10004fac:	10008428 	.word	0x10008428
10004fb0:	20001114 	.word	0x20001114

10004fb4 <usbd_reset>:
10004fb4:	b510      	push	{r4, lr}
10004fb6:	f7ff ffbb 	bl	10004f30 <configuration_reset>
10004fba:	f000 fdf1 	bl	10005ba0 <usbd_control_reset>
10004fbe:	bd10      	pop	{r4, pc}

10004fc0 <invoke_class_control>:
10004fc0:	b570      	push	{r4, r5, r6, lr}
10004fc2:	0005      	movs	r5, r0
10004fc4:	000c      	movs	r4, r1
10004fc6:	0016      	movs	r6, r2
10004fc8:	68c8      	ldr	r0, [r1, #12]
10004fca:	f000 fdf3 	bl	10005bb4 <usbd_control_set_complete_callback>
10004fce:	68e3      	ldr	r3, [r4, #12]
10004fd0:	0032      	movs	r2, r6
10004fd2:	2101      	movs	r1, #1
10004fd4:	0028      	movs	r0, r5
10004fd6:	4798      	blx	r3
10004fd8:	bd70      	pop	{r4, r5, r6, pc}
	...

10004fdc <process_set_config>:
10004fdc:	b5f0      	push	{r4, r5, r6, r7, lr}
10004fde:	46de      	mov	lr, fp
10004fe0:	4657      	mov	r7, sl
10004fe2:	464e      	mov	r6, r9
10004fe4:	b5c0      	push	{r6, r7, lr}
10004fe6:	b082      	sub	sp, #8
10004fe8:	9000      	str	r0, [sp, #0]
10004fea:	3901      	subs	r1, #1
10004fec:	b2c8      	uxtb	r0, r1
10004fee:	f7ff fd43 	bl	10004a78 <tud_descriptor_configuration_cb>
10004ff2:	2800      	cmp	r0, #0
10004ff4:	d100      	bne.n	10004ff8 <process_set_config+0x1c>
10004ff6:	e08c      	b.n	10005112 <process_set_config+0x136>
10004ff8:	7843      	ldrb	r3, [r0, #1]
10004ffa:	469a      	mov	sl, r3
10004ffc:	2b02      	cmp	r3, #2
10004ffe:	d000      	beq.n	10005002 <process_set_config+0x26>
10005000:	e089      	b.n	10005116 <process_set_config+0x13a>
10005002:	79c5      	ldrb	r5, [r0, #7]
10005004:	116a      	asrs	r2, r5, #5
10005006:	3b01      	subs	r3, #1
10005008:	494b      	ldr	r1, [pc, #300]	; (10005138 <process_set_config+0x15c>)
1000500a:	401a      	ands	r2, r3
1000500c:	0114      	lsls	r4, r2, #4
1000500e:	780a      	ldrb	r2, [r1, #0]
10005010:	2710      	movs	r7, #16
10005012:	43ba      	bics	r2, r7
10005014:	4322      	orrs	r2, r4
10005016:	700a      	strb	r2, [r1, #0]
10005018:	11ad      	asrs	r5, r5, #6
1000501a:	402b      	ands	r3, r5
1000501c:	015b      	lsls	r3, r3, #5
1000501e:	b2d2      	uxtb	r2, r2
10005020:	2420      	movs	r4, #32
10005022:	43a2      	bics	r2, r4
10005024:	4313      	orrs	r3, r2
10005026:	700b      	strb	r3, [r1, #0]
10005028:	0006      	movs	r6, r0
1000502a:	3609      	adds	r6, #9
1000502c:	7882      	ldrb	r2, [r0, #2]
1000502e:	78c4      	ldrb	r4, [r0, #3]
10005030:	0224      	lsls	r4, r4, #8
10005032:	4314      	orrs	r4, r2
10005034:	1904      	adds	r4, r0, r4
10005036:	42a6      	cmp	r6, r4
10005038:	d264      	bcs.n	10005104 <process_set_config+0x128>
1000503a:	7873      	ldrb	r3, [r6, #1]
1000503c:	2b0b      	cmp	r3, #11
1000503e:	d009      	beq.n	10005054 <process_set_config+0x78>
10005040:	2301      	movs	r3, #1
10005042:	469b      	mov	fp, r3
10005044:	7873      	ldrb	r3, [r6, #1]
10005046:	2b04      	cmp	r3, #4
10005048:	d16c      	bne.n	10005124 <process_set_config+0x148>
1000504a:	1ba3      	subs	r3, r4, r6
1000504c:	b29b      	uxth	r3, r3
1000504e:	4699      	mov	r9, r3
10005050:	2500      	movs	r5, #0
10005052:	e025      	b.n	100050a0 <process_set_config+0xc4>
10005054:	78f3      	ldrb	r3, [r6, #3]
10005056:	469b      	mov	fp, r3
10005058:	7833      	ldrb	r3, [r6, #0]
1000505a:	18f6      	adds	r6, r6, r3
1000505c:	e7f2      	b.n	10005044 <process_set_config+0x68>
1000505e:	006f      	lsls	r7, r5, #1
10005060:	197f      	adds	r7, r7, r5
10005062:	00fb      	lsls	r3, r7, #3
10005064:	4a35      	ldr	r2, [pc, #212]	; (1000513c <process_set_config+0x160>)
10005066:	6817      	ldr	r7, [r2, #0]
10005068:	18ff      	adds	r7, r7, r3
1000506a:	e02b      	b.n	100050c4 <process_set_config+0xe8>
1000506c:	002b      	movs	r3, r5
1000506e:	e022      	b.n	100050b6 <process_set_config+0xda>
10005070:	68ba      	ldr	r2, [r7, #8]
10005072:	4b33      	ldr	r3, [pc, #204]	; (10005140 <process_set_config+0x164>)
10005074:	429a      	cmp	r2, r3
10005076:	d134      	bne.n	100050e2 <process_set_config+0x106>
10005078:	46d3      	mov	fp, sl
1000507a:	e032      	b.n	100050e2 <process_set_config+0x106>
1000507c:	482e      	ldr	r0, [pc, #184]	; (10005138 <process_set_config+0x15c>)
1000507e:	002b      	movs	r3, r5
10005080:	9f01      	ldr	r7, [sp, #4]
10005082:	003a      	movs	r2, r7
10005084:	0031      	movs	r1, r6
10005086:	3013      	adds	r0, #19
10005088:	f001 f9a2 	bl	100063d0 <tu_edpt_bind_driver>
1000508c:	46bc      	mov	ip, r7
1000508e:	4466      	add	r6, ip
10005090:	4b2c      	ldr	r3, [pc, #176]	; (10005144 <process_set_config+0x168>)
10005092:	781b      	ldrb	r3, [r3, #0]
10005094:	42ab      	cmp	r3, r5
10005096:	d2ce      	bcs.n	10005036 <process_set_config+0x5a>
10005098:	2000      	movs	r0, #0
1000509a:	e03d      	b.n	10005118 <process_set_config+0x13c>
1000509c:	3501      	adds	r5, #1
1000509e:	b2ed      	uxtb	r5, r5
100050a0:	4b28      	ldr	r3, [pc, #160]	; (10005144 <process_set_config+0x168>)
100050a2:	781b      	ldrb	r3, [r3, #0]
100050a4:	42ab      	cmp	r3, r5
100050a6:	d3f3      	bcc.n	10005090 <process_set_config+0xb4>
100050a8:	4a27      	ldr	r2, [pc, #156]	; (10005148 <process_set_config+0x16c>)
100050aa:	2a00      	cmp	r2, #0
100050ac:	d0de      	beq.n	1000506c <process_set_config+0x90>
100050ae:	42ab      	cmp	r3, r5
100050b0:	d8d5      	bhi.n	1000505e <process_set_config+0x82>
100050b2:	1aeb      	subs	r3, r5, r3
100050b4:	b2db      	uxtb	r3, r3
100050b6:	2b00      	cmp	r3, #0
100050b8:	d136      	bne.n	10005128 <process_set_config+0x14c>
100050ba:	005f      	lsls	r7, r3, #1
100050bc:	18fb      	adds	r3, r7, r3
100050be:	00db      	lsls	r3, r3, #3
100050c0:	4f22      	ldr	r7, [pc, #136]	; (1000514c <process_set_config+0x170>)
100050c2:	18ff      	adds	r7, r7, r3
100050c4:	2f00      	cmp	r7, #0
100050c6:	d031      	beq.n	1000512c <process_set_config+0x150>
100050c8:	464a      	mov	r2, r9
100050ca:	0031      	movs	r1, r6
100050cc:	9800      	ldr	r0, [sp, #0]
100050ce:	68bb      	ldr	r3, [r7, #8]
100050d0:	4798      	blx	r3
100050d2:	9001      	str	r0, [sp, #4]
100050d4:	2808      	cmp	r0, #8
100050d6:	d9e1      	bls.n	1000509c <process_set_config+0xc0>
100050d8:	4581      	cmp	r9, r0
100050da:	d3df      	bcc.n	1000509c <process_set_config+0xc0>
100050dc:	465b      	mov	r3, fp
100050de:	2b01      	cmp	r3, #1
100050e0:	d0c6      	beq.n	10005070 <process_set_config+0x94>
100050e2:	2200      	movs	r2, #0
100050e4:	4593      	cmp	fp, r2
100050e6:	d9c9      	bls.n	1000507c <process_set_config+0xa0>
100050e8:	78b3      	ldrb	r3, [r6, #2]
100050ea:	189b      	adds	r3, r3, r2
100050ec:	b2db      	uxtb	r3, r3
100050ee:	4912      	ldr	r1, [pc, #72]	; (10005138 <process_set_config+0x15c>)
100050f0:	18c9      	adds	r1, r1, r3
100050f2:	78c9      	ldrb	r1, [r1, #3]
100050f4:	29ff      	cmp	r1, #255	; 0xff
100050f6:	d11b      	bne.n	10005130 <process_set_config+0x154>
100050f8:	490f      	ldr	r1, [pc, #60]	; (10005138 <process_set_config+0x15c>)
100050fa:	18cb      	adds	r3, r1, r3
100050fc:	70dd      	strb	r5, [r3, #3]
100050fe:	3201      	adds	r2, #1
10005100:	b2d2      	uxtb	r2, r2
10005102:	e7ef      	b.n	100050e4 <process_set_config+0x108>
10005104:	4b12      	ldr	r3, [pc, #72]	; (10005150 <process_set_config+0x174>)
10005106:	2b00      	cmp	r3, #0
10005108:	d014      	beq.n	10005134 <process_set_config+0x158>
1000510a:	e000      	b.n	1000510e <process_set_config+0x132>
1000510c:	bf00      	nop
1000510e:	2001      	movs	r0, #1
10005110:	e002      	b.n	10005118 <process_set_config+0x13c>
10005112:	2000      	movs	r0, #0
10005114:	e000      	b.n	10005118 <process_set_config+0x13c>
10005116:	2000      	movs	r0, #0
10005118:	b002      	add	sp, #8
1000511a:	bce0      	pop	{r5, r6, r7}
1000511c:	46bb      	mov	fp, r7
1000511e:	46b2      	mov	sl, r6
10005120:	46a9      	mov	r9, r5
10005122:	bdf0      	pop	{r4, r5, r6, r7, pc}
10005124:	2000      	movs	r0, #0
10005126:	e7f7      	b.n	10005118 <process_set_config+0x13c>
10005128:	2000      	movs	r0, #0
1000512a:	e7f5      	b.n	10005118 <process_set_config+0x13c>
1000512c:	2000      	movs	r0, #0
1000512e:	e7f3      	b.n	10005118 <process_set_config+0x13c>
10005130:	2000      	movs	r0, #0
10005132:	e7f1      	b.n	10005118 <process_set_config+0x13c>
10005134:	2001      	movs	r0, #1
10005136:	e7ef      	b.n	10005118 <process_set_config+0x13c>
10005138:	20001114 	.word	0x20001114
1000513c:	20000dec 	.word	0x20000dec
10005140:	10005f85 	.word	0x10005f85
10005144:	20001a51 	.word	0x20001a51
10005148:	100045c1 	.word	0x100045c1
1000514c:	10008428 	.word	0x10008428
10005150:	00000000 	.word	0x00000000

10005154 <process_get_descriptor>:
10005154:	b570      	push	{r4, r5, r6, lr}
10005156:	0005      	movs	r5, r0
10005158:	000c      	movs	r4, r1
1000515a:	78cb      	ldrb	r3, [r1, #3]
1000515c:	7888      	ldrb	r0, [r1, #2]
1000515e:	2b0f      	cmp	r3, #15
10005160:	d850      	bhi.n	10005204 <process_get_descriptor+0xb0>
10005162:	009a      	lsls	r2, r3, #2
10005164:	492e      	ldr	r1, [pc, #184]	; (10005220 <process_get_descriptor+0xcc>)
10005166:	588a      	ldr	r2, [r1, r2]
10005168:	4697      	mov	pc, r2
1000516a:	f7ff fc81 	bl	10004a70 <tud_descriptor_device_cb>
1000516e:	0002      	movs	r2, r0
10005170:	2312      	movs	r3, #18
10005172:	0021      	movs	r1, r4
10005174:	0028      	movs	r0, r5
10005176:	f000 fcd9 	bl	10005b2c <tud_control_xfer>
1000517a:	e044      	b.n	10005206 <process_get_descriptor+0xb2>
1000517c:	4b29      	ldr	r3, [pc, #164]	; (10005224 <process_get_descriptor+0xd0>)
1000517e:	2b00      	cmp	r3, #0
10005180:	d042      	beq.n	10005208 <process_get_descriptor+0xb4>
10005182:	e000      	b.n	10005186 <process_get_descriptor+0x32>
10005184:	bf00      	nop
10005186:	1e02      	subs	r2, r0, #0
10005188:	d040      	beq.n	1000520c <process_get_descriptor+0xb8>
1000518a:	7881      	ldrb	r1, [r0, #2]
1000518c:	78c3      	ldrb	r3, [r0, #3]
1000518e:	021b      	lsls	r3, r3, #8
10005190:	430b      	orrs	r3, r1
10005192:	0021      	movs	r1, r4
10005194:	0028      	movs	r0, r5
10005196:	f000 fcc9 	bl	10005b2c <tud_control_xfer>
1000519a:	e034      	b.n	10005206 <process_get_descriptor+0xb2>
1000519c:	2b02      	cmp	r3, #2
1000519e:	d009      	beq.n	100051b4 <process_get_descriptor+0x60>
100051a0:	4b21      	ldr	r3, [pc, #132]	; (10005228 <process_get_descriptor+0xd4>)
100051a2:	2b00      	cmp	r3, #0
100051a4:	d034      	beq.n	10005210 <process_get_descriptor+0xbc>
100051a6:	e000      	b.n	100051aa <process_get_descriptor+0x56>
100051a8:	bf00      	nop
100051aa:	0002      	movs	r2, r0
100051ac:	2a00      	cmp	r2, #0
100051ae:	d105      	bne.n	100051bc <process_get_descriptor+0x68>
100051b0:	2000      	movs	r0, #0
100051b2:	e028      	b.n	10005206 <process_get_descriptor+0xb2>
100051b4:	f7ff fc60 	bl	10004a78 <tud_descriptor_configuration_cb>
100051b8:	0002      	movs	r2, r0
100051ba:	e7f7      	b.n	100051ac <process_get_descriptor+0x58>
100051bc:	7891      	ldrb	r1, [r2, #2]
100051be:	78d3      	ldrb	r3, [r2, #3]
100051c0:	021b      	lsls	r3, r3, #8
100051c2:	430b      	orrs	r3, r1
100051c4:	0021      	movs	r1, r4
100051c6:	0028      	movs	r0, r5
100051c8:	f000 fcb0 	bl	10005b2c <tud_control_xfer>
100051cc:	e01b      	b.n	10005206 <process_get_descriptor+0xb2>
100051ce:	7923      	ldrb	r3, [r4, #4]
100051d0:	7961      	ldrb	r1, [r4, #5]
100051d2:	0209      	lsls	r1, r1, #8
100051d4:	4319      	orrs	r1, r3
100051d6:	f7ff fc53 	bl	10004a80 <tud_descriptor_string_cb>
100051da:	1e02      	subs	r2, r0, #0
100051dc:	d01a      	beq.n	10005214 <process_get_descriptor+0xc0>
100051de:	7803      	ldrb	r3, [r0, #0]
100051e0:	0021      	movs	r1, r4
100051e2:	0028      	movs	r0, r5
100051e4:	f000 fca2 	bl	10005b2c <tud_control_xfer>
100051e8:	e00d      	b.n	10005206 <process_get_descriptor+0xb2>
100051ea:	4b10      	ldr	r3, [pc, #64]	; (1000522c <process_get_descriptor+0xd8>)
100051ec:	2b00      	cmp	r3, #0
100051ee:	d013      	beq.n	10005218 <process_get_descriptor+0xc4>
100051f0:	e000      	b.n	100051f4 <process_get_descriptor+0xa0>
100051f2:	bf00      	nop
100051f4:	1e02      	subs	r2, r0, #0
100051f6:	d011      	beq.n	1000521c <process_get_descriptor+0xc8>
100051f8:	7803      	ldrb	r3, [r0, #0]
100051fa:	0021      	movs	r1, r4
100051fc:	0028      	movs	r0, r5
100051fe:	f000 fc95 	bl	10005b2c <tud_control_xfer>
10005202:	e000      	b.n	10005206 <process_get_descriptor+0xb2>
10005204:	2000      	movs	r0, #0
10005206:	bd70      	pop	{r4, r5, r6, pc}
10005208:	2000      	movs	r0, #0
1000520a:	e7fc      	b.n	10005206 <process_get_descriptor+0xb2>
1000520c:	2000      	movs	r0, #0
1000520e:	e7fa      	b.n	10005206 <process_get_descriptor+0xb2>
10005210:	2000      	movs	r0, #0
10005212:	e7f8      	b.n	10005206 <process_get_descriptor+0xb2>
10005214:	2000      	movs	r0, #0
10005216:	e7f6      	b.n	10005206 <process_get_descriptor+0xb2>
10005218:	2000      	movs	r0, #0
1000521a:	e7f4      	b.n	10005206 <process_get_descriptor+0xb2>
1000521c:	2000      	movs	r0, #0
1000521e:	e7f2      	b.n	10005206 <process_get_descriptor+0xb2>
10005220:	1000839c 	.word	0x1000839c
	...

10005230 <tud_mounted>:
10005230:	4b02      	ldr	r3, [pc, #8]	; (1000523c <tud_mounted+0xc>)
10005232:	7858      	ldrb	r0, [r3, #1]
10005234:	1e43      	subs	r3, r0, #1
10005236:	4198      	sbcs	r0, r3
10005238:	b2c0      	uxtb	r0, r0
1000523a:	4770      	bx	lr
1000523c:	20001114 	.word	0x20001114

10005240 <tud_suspended>:
10005240:	4b02      	ldr	r3, [pc, #8]	; (1000524c <tud_suspended+0xc>)
10005242:	7818      	ldrb	r0, [r3, #0]
10005244:	0740      	lsls	r0, r0, #29
10005246:	0fc0      	lsrs	r0, r0, #31
10005248:	4770      	bx	lr
1000524a:	46c0      	nop			; (mov r8, r8)
1000524c:	20001114 	.word	0x20001114

10005250 <tud_inited>:
10005250:	4b03      	ldr	r3, [pc, #12]	; (10005260 <tud_inited+0x10>)
10005252:	7818      	ldrb	r0, [r3, #0]
10005254:	38ff      	subs	r0, #255	; 0xff
10005256:	1e43      	subs	r3, r0, #1
10005258:	4198      	sbcs	r0, r3
1000525a:	b2c0      	uxtb	r0, r0
1000525c:	4770      	bx	lr
1000525e:	46c0      	nop			; (mov r8, r8)
10005260:	20000ca4 	.word	0x20000ca4

10005264 <tud_init>:
10005264:	b570      	push	{r4, r5, r6, lr}
10005266:	0004      	movs	r4, r0
10005268:	f7ff fff2 	bl	10005250 <tud_inited>
1000526c:	1e06      	subs	r6, r0, #0
1000526e:	d001      	beq.n	10005274 <tud_init+0x10>
10005270:	0030      	movs	r0, r6
10005272:	bd70      	pop	{r4, r5, r6, pc}
10005274:	2253      	movs	r2, #83	; 0x53
10005276:	2100      	movs	r1, #0
10005278:	4823      	ldr	r0, [pc, #140]	; (10005308 <tud_init+0xa4>)
1000527a:	f7fe fec7 	bl	1000400c <__wrap_memset>
1000527e:	4d23      	ldr	r5, [pc, #140]	; (1000530c <tud_init+0xa8>)
10005280:	0028      	movs	r0, r5
10005282:	f7fb fca9 	bl	10000bd8 <mutex_init>
10005286:	4b22      	ldr	r3, [pc, #136]	; (10005310 <tud_init+0xac>)
10005288:	601d      	str	r5, [r3, #0]
1000528a:	4d22      	ldr	r5, [pc, #136]	; (10005314 <tud_init+0xb0>)
1000528c:	0028      	movs	r0, r5
1000528e:	3014      	adds	r0, #20
10005290:	f7fb fcc8 	bl	10000c24 <critical_section_init>
10005294:	0028      	movs	r0, r5
10005296:	f001 fbf0 	bl	10006a7a <tu_fifo_clear>
1000529a:	4b1f      	ldr	r3, [pc, #124]	; (10005318 <tud_init+0xb4>)
1000529c:	601d      	str	r5, [r3, #0]
1000529e:	4b1f      	ldr	r3, [pc, #124]	; (1000531c <tud_init+0xb8>)
100052a0:	2b00      	cmp	r3, #0
100052a2:	d004      	beq.n	100052ae <tud_init+0x4a>
100052a4:	481e      	ldr	r0, [pc, #120]	; (10005320 <tud_init+0xbc>)
100052a6:	f7ff f98b 	bl	100045c0 <usbd_app_driver_get_cb>
100052aa:	4b1e      	ldr	r3, [pc, #120]	; (10005324 <tud_init+0xc0>)
100052ac:	6018      	str	r0, [r3, #0]
100052ae:	2500      	movs	r5, #0
100052b0:	e00b      	b.n	100052ca <tud_init+0x66>
100052b2:	006b      	lsls	r3, r5, #1
100052b4:	195b      	adds	r3, r3, r5
100052b6:	00da      	lsls	r2, r3, #3
100052b8:	4b1a      	ldr	r3, [pc, #104]	; (10005324 <tud_init+0xc0>)
100052ba:	681b      	ldr	r3, [r3, #0]
100052bc:	189b      	adds	r3, r3, r2
100052be:	2b00      	cmp	r3, #0
100052c0:	d0d6      	beq.n	10005270 <tud_init+0xc>
100052c2:	681b      	ldr	r3, [r3, #0]
100052c4:	4798      	blx	r3
100052c6:	3501      	adds	r5, #1
100052c8:	b2ed      	uxtb	r5, r5
100052ca:	4b15      	ldr	r3, [pc, #84]	; (10005320 <tud_init+0xbc>)
100052cc:	781b      	ldrb	r3, [r3, #0]
100052ce:	42ab      	cmp	r3, r5
100052d0:	d310      	bcc.n	100052f4 <tud_init+0x90>
100052d2:	4a12      	ldr	r2, [pc, #72]	; (1000531c <tud_init+0xb8>)
100052d4:	2a00      	cmp	r2, #0
100052d6:	d00b      	beq.n	100052f0 <tud_init+0x8c>
100052d8:	42ab      	cmp	r3, r5
100052da:	d8ea      	bhi.n	100052b2 <tud_init+0x4e>
100052dc:	1aeb      	subs	r3, r5, r3
100052de:	b2db      	uxtb	r3, r3
100052e0:	2b00      	cmp	r3, #0
100052e2:	d1c5      	bne.n	10005270 <tud_init+0xc>
100052e4:	005a      	lsls	r2, r3, #1
100052e6:	18d2      	adds	r2, r2, r3
100052e8:	00d2      	lsls	r2, r2, #3
100052ea:	4b0f      	ldr	r3, [pc, #60]	; (10005328 <tud_init+0xc4>)
100052ec:	189b      	adds	r3, r3, r2
100052ee:	e7e6      	b.n	100052be <tud_init+0x5a>
100052f0:	002b      	movs	r3, r5
100052f2:	e7f5      	b.n	100052e0 <tud_init+0x7c>
100052f4:	4b0d      	ldr	r3, [pc, #52]	; (1000532c <tud_init+0xc8>)
100052f6:	701c      	strb	r4, [r3, #0]
100052f8:	0020      	movs	r0, r4
100052fa:	f7ff fd19 	bl	10004d30 <dcd_init>
100052fe:	0020      	movs	r0, r4
10005300:	f7ff fce2 	bl	10004cc8 <dcd_int_enable>
10005304:	2601      	movs	r6, #1
10005306:	e7b3      	b.n	10005270 <tud_init+0xc>
10005308:	20001114 	.word	0x20001114
1000530c:	200010cc 	.word	0x200010cc
10005310:	20001168 	.word	0x20001168
10005314:	20000c88 	.word	0x20000c88
10005318:	2000116c 	.word	0x2000116c
1000531c:	100045c1 	.word	0x100045c1
10005320:	20001a51 	.word	0x20001a51
10005324:	20000dec 	.word	0x20000dec
10005328:	10008428 	.word	0x10008428
1000532c:	20000ca4 	.word	0x20000ca4

10005330 <usbd_defer_func>:
10005330:	b5f0      	push	{r4, r5, r6, r7, lr}
10005332:	b085      	sub	sp, #20
10005334:	0007      	movs	r7, r0
10005336:	000e      	movs	r6, r1
10005338:	0015      	movs	r5, r2
1000533a:	ac01      	add	r4, sp, #4
1000533c:	220c      	movs	r2, #12
1000533e:	2100      	movs	r1, #0
10005340:	0020      	movs	r0, r4
10005342:	f7fe fe63 	bl	1000400c <__wrap_memset>
10005346:	2308      	movs	r3, #8
10005348:	7063      	strb	r3, [r4, #1]
1000534a:	9702      	str	r7, [sp, #8]
1000534c:	9603      	str	r6, [sp, #12]
1000534e:	0029      	movs	r1, r5
10005350:	0020      	movs	r0, r4
10005352:	f001 fc45 	bl	10006be0 <__dcd_event_handler_veneer>
10005356:	b005      	add	sp, #20
10005358:	bdf0      	pop	{r4, r5, r6, r7, pc}
	...

1000535c <usbd_edpt_open>:
1000535c:	b570      	push	{r4, r5, r6, lr}
1000535e:	000c      	movs	r4, r1
10005360:	4b09      	ldr	r3, [pc, #36]	; (10005388 <usbd_edpt_open+0x2c>)
10005362:	781d      	ldrb	r5, [r3, #0]
10005364:	788b      	ldrb	r3, [r1, #2]
10005366:	2270      	movs	r2, #112	; 0x70
10005368:	421a      	tst	r2, r3
1000536a:	d001      	beq.n	10005370 <usbd_edpt_open+0x14>
1000536c:	2000      	movs	r0, #0
1000536e:	bd70      	pop	{r4, r5, r6, pc}
10005370:	4b06      	ldr	r3, [pc, #24]	; (1000538c <usbd_edpt_open+0x30>)
10005372:	7899      	ldrb	r1, [r3, #2]
10005374:	0020      	movs	r0, r4
10005376:	f000 ffef 	bl	10006358 <tu_edpt_validate>
1000537a:	2800      	cmp	r0, #0
1000537c:	d0f7      	beq.n	1000536e <usbd_edpt_open+0x12>
1000537e:	0021      	movs	r1, r4
10005380:	0028      	movs	r0, r5
10005382:	f7ff fd23 	bl	10004dcc <dcd_edpt_open>
10005386:	e7f2      	b.n	1000536e <usbd_edpt_open+0x12>
10005388:	20000ca4 	.word	0x20000ca4
1000538c:	20001114 	.word	0x20001114

10005390 <usbd_open_edpt_pair>:
10005390:	b5f8      	push	{r3, r4, r5, r6, r7, lr}
10005392:	46ce      	mov	lr, r9
10005394:	4647      	mov	r7, r8
10005396:	b580      	push	{r7, lr}
10005398:	4681      	mov	r9, r0
1000539a:	000c      	movs	r4, r1
1000539c:	0017      	movs	r7, r2
1000539e:	001e      	movs	r6, r3
100053a0:	9b08      	ldr	r3, [sp, #32]
100053a2:	4698      	mov	r8, r3
100053a4:	2500      	movs	r5, #0
100053a6:	e004      	b.n	100053b2 <usbd_open_edpt_pair+0x22>
100053a8:	9a09      	ldr	r2, [sp, #36]	; 0x24
100053aa:	7013      	strb	r3, [r2, #0]
100053ac:	7823      	ldrb	r3, [r4, #0]
100053ae:	18e4      	adds	r4, r4, r3
100053b0:	3501      	adds	r5, #1
100053b2:	42af      	cmp	r7, r5
100053b4:	dd14      	ble.n	100053e0 <usbd_open_edpt_pair+0x50>
100053b6:	7863      	ldrb	r3, [r4, #1]
100053b8:	2b05      	cmp	r3, #5
100053ba:	d116      	bne.n	100053ea <usbd_open_edpt_pair+0x5a>
100053bc:	78e1      	ldrb	r1, [r4, #3]
100053be:	0789      	lsls	r1, r1, #30
100053c0:	0f89      	lsrs	r1, r1, #30
100053c2:	42b1      	cmp	r1, r6
100053c4:	d113      	bne.n	100053ee <usbd_open_edpt_pair+0x5e>
100053c6:	0021      	movs	r1, r4
100053c8:	4648      	mov	r0, r9
100053ca:	f7ff ffc7 	bl	1000535c <usbd_edpt_open>
100053ce:	2800      	cmp	r0, #0
100053d0:	d007      	beq.n	100053e2 <usbd_open_edpt_pair+0x52>
100053d2:	78a3      	ldrb	r3, [r4, #2]
100053d4:	09da      	lsrs	r2, r3, #7
100053d6:	2a01      	cmp	r2, #1
100053d8:	d0e6      	beq.n	100053a8 <usbd_open_edpt_pair+0x18>
100053da:	4642      	mov	r2, r8
100053dc:	7013      	strb	r3, [r2, #0]
100053de:	e7e5      	b.n	100053ac <usbd_open_edpt_pair+0x1c>
100053e0:	2001      	movs	r0, #1
100053e2:	bcc0      	pop	{r6, r7}
100053e4:	46b9      	mov	r9, r7
100053e6:	46b0      	mov	r8, r6
100053e8:	bdf8      	pop	{r3, r4, r5, r6, r7, pc}
100053ea:	2000      	movs	r0, #0
100053ec:	e7f9      	b.n	100053e2 <usbd_open_edpt_pair+0x52>
100053ee:	2000      	movs	r0, #0
100053f0:	e7f7      	b.n	100053e2 <usbd_open_edpt_pair+0x52>
	...

100053f4 <usbd_edpt_claim>:
100053f4:	b510      	push	{r4, lr}
100053f6:	207f      	movs	r0, #127	; 0x7f
100053f8:	4008      	ands	r0, r1
100053fa:	09c9      	lsrs	r1, r1, #7
100053fc:	0040      	lsls	r0, r0, #1
100053fe:	1840      	adds	r0, r0, r1
10005400:	3030      	adds	r0, #48	; 0x30
10005402:	4904      	ldr	r1, [pc, #16]	; (10005414 <usbd_edpt_claim+0x20>)
10005404:	1808      	adds	r0, r1, r0
10005406:	3003      	adds	r0, #3
10005408:	4b03      	ldr	r3, [pc, #12]	; (10005418 <usbd_edpt_claim+0x24>)
1000540a:	6819      	ldr	r1, [r3, #0]
1000540c:	f000 ff5e 	bl	100062cc <tu_edpt_claim>
10005410:	bd10      	pop	{r4, pc}
10005412:	46c0      	nop			; (mov r8, r8)
10005414:	20001114 	.word	0x20001114
10005418:	20001168 	.word	0x20001168

1000541c <usbd_edpt_release>:
1000541c:	b510      	push	{r4, lr}
1000541e:	207f      	movs	r0, #127	; 0x7f
10005420:	4008      	ands	r0, r1
10005422:	09c9      	lsrs	r1, r1, #7
10005424:	0040      	lsls	r0, r0, #1
10005426:	1840      	adds	r0, r0, r1
10005428:	3030      	adds	r0, #48	; 0x30
1000542a:	4904      	ldr	r1, [pc, #16]	; (1000543c <usbd_edpt_release+0x20>)
1000542c:	1808      	adds	r0, r1, r0
1000542e:	3003      	adds	r0, #3
10005430:	4b03      	ldr	r3, [pc, #12]	; (10005440 <usbd_edpt_release+0x24>)
10005432:	6819      	ldr	r1, [r3, #0]
10005434:	f000 ff72 	bl	1000631c <tu_edpt_release>
10005438:	bd10      	pop	{r4, pc}
1000543a:	46c0      	nop			; (mov r8, r8)
1000543c:	20001114 	.word	0x20001114
10005440:	20001168 	.word	0x20001168

10005444 <usbd_edpt_xfer>:
10005444:	b5f8      	push	{r3, r4, r5, r6, r7, lr}
10005446:	46ce      	mov	lr, r9
10005448:	4647      	mov	r7, r8
1000544a:	b580      	push	{r7, lr}
1000544c:	4819      	ldr	r0, [pc, #100]	; (100054b4 <usbd_edpt_xfer+0x70>)
1000544e:	7800      	ldrb	r0, [r0, #0]
10005450:	257f      	movs	r5, #127	; 0x7f
10005452:	400d      	ands	r5, r1
10005454:	09ce      	lsrs	r6, r1, #7
10005456:	006f      	lsls	r7, r5, #1
10005458:	4c17      	ldr	r4, [pc, #92]	; (100054b8 <usbd_edpt_xfer+0x74>)
1000545a:	19e4      	adds	r4, r4, r7
1000545c:	19a4      	adds	r4, r4, r6
1000545e:	3430      	adds	r4, #48	; 0x30
10005460:	78e4      	ldrb	r4, [r4, #3]
10005462:	07e4      	lsls	r4, r4, #31
10005464:	d504      	bpl.n	10005470 <usbd_edpt_xfer+0x2c>
10005466:	2000      	movs	r0, #0
10005468:	bcc0      	pop	{r6, r7}
1000546a:	46b9      	mov	r9, r7
1000546c:	46b0      	mov	r8, r6
1000546e:	bdf8      	pop	{r3, r4, r5, r6, r7, pc}
10005470:	4c11      	ldr	r4, [pc, #68]	; (100054b8 <usbd_edpt_xfer+0x74>)
10005472:	19e4      	adds	r4, r4, r7
10005474:	19a4      	adds	r4, r4, r6
10005476:	2730      	movs	r7, #48	; 0x30
10005478:	46b9      	mov	r9, r7
1000547a:	44a1      	add	r9, r4
1000547c:	464c      	mov	r4, r9
1000547e:	78e4      	ldrb	r4, [r4, #3]
10005480:	2701      	movs	r7, #1
10005482:	46bc      	mov	ip, r7
10005484:	4667      	mov	r7, ip
10005486:	433c      	orrs	r4, r7
10005488:	0027      	movs	r7, r4
1000548a:	464c      	mov	r4, r9
1000548c:	70e7      	strb	r7, [r4, #3]
1000548e:	f7ff fcc1 	bl	10004e14 <dcd_edpt_xfer>
10005492:	2800      	cmp	r0, #0
10005494:	d1e8      	bne.n	10005468 <usbd_edpt_xfer+0x24>
10005496:	006d      	lsls	r5, r5, #1
10005498:	4b07      	ldr	r3, [pc, #28]	; (100054b8 <usbd_edpt_xfer+0x74>)
1000549a:	195d      	adds	r5, r3, r5
1000549c:	19ae      	adds	r6, r5, r6
1000549e:	3630      	adds	r6, #48	; 0x30
100054a0:	78f3      	ldrb	r3, [r6, #3]
100054a2:	2201      	movs	r2, #1
100054a4:	4393      	bics	r3, r2
100054a6:	70f3      	strb	r3, [r6, #3]
100054a8:	78f3      	ldrb	r3, [r6, #3]
100054aa:	3203      	adds	r2, #3
100054ac:	4393      	bics	r3, r2
100054ae:	70f3      	strb	r3, [r6, #3]
100054b0:	e7da      	b.n	10005468 <usbd_edpt_xfer+0x24>
100054b2:	46c0      	nop			; (mov r8, r8)
100054b4:	20000ca4 	.word	0x20000ca4
100054b8:	20001114 	.word	0x20001114

100054bc <usbd_edpt_stall>:
100054bc:	b570      	push	{r4, r5, r6, lr}
100054be:	4b0f      	ldr	r3, [pc, #60]	; (100054fc <usbd_edpt_stall+0x40>)
100054c0:	7818      	ldrb	r0, [r3, #0]
100054c2:	247f      	movs	r4, #127	; 0x7f
100054c4:	400c      	ands	r4, r1
100054c6:	09cd      	lsrs	r5, r1, #7
100054c8:	0062      	lsls	r2, r4, #1
100054ca:	4b0d      	ldr	r3, [pc, #52]	; (10005500 <usbd_edpt_stall+0x44>)
100054cc:	189b      	adds	r3, r3, r2
100054ce:	195b      	adds	r3, r3, r5
100054d0:	3330      	adds	r3, #48	; 0x30
100054d2:	78db      	ldrb	r3, [r3, #3]
100054d4:	079b      	lsls	r3, r3, #30
100054d6:	d500      	bpl.n	100054da <usbd_edpt_stall+0x1e>
100054d8:	bd70      	pop	{r4, r5, r6, pc}
100054da:	f7ff fcb5 	bl	10004e48 <dcd_edpt_stall>
100054de:	0063      	lsls	r3, r4, #1
100054e0:	4c07      	ldr	r4, [pc, #28]	; (10005500 <usbd_edpt_stall+0x44>)
100054e2:	18e4      	adds	r4, r4, r3
100054e4:	1964      	adds	r4, r4, r5
100054e6:	3430      	adds	r4, #48	; 0x30
100054e8:	78e3      	ldrb	r3, [r4, #3]
100054ea:	2202      	movs	r2, #2
100054ec:	4313      	orrs	r3, r2
100054ee:	70e3      	strb	r3, [r4, #3]
100054f0:	78e3      	ldrb	r3, [r4, #3]
100054f2:	2201      	movs	r2, #1
100054f4:	4313      	orrs	r3, r2
100054f6:	70e3      	strb	r3, [r4, #3]
100054f8:	e7ee      	b.n	100054d8 <usbd_edpt_stall+0x1c>
100054fa:	46c0      	nop			; (mov r8, r8)
100054fc:	20000ca4 	.word	0x20000ca4
10005500:	20001114 	.word	0x20001114

10005504 <usbd_edpt_clear_stall>:
10005504:	b570      	push	{r4, r5, r6, lr}
10005506:	4b0f      	ldr	r3, [pc, #60]	; (10005544 <usbd_edpt_clear_stall+0x40>)
10005508:	7818      	ldrb	r0, [r3, #0]
1000550a:	247f      	movs	r4, #127	; 0x7f
1000550c:	400c      	ands	r4, r1
1000550e:	09cd      	lsrs	r5, r1, #7
10005510:	0062      	lsls	r2, r4, #1
10005512:	4b0d      	ldr	r3, [pc, #52]	; (10005548 <usbd_edpt_clear_stall+0x44>)
10005514:	189b      	adds	r3, r3, r2
10005516:	195b      	adds	r3, r3, r5
10005518:	3330      	adds	r3, #48	; 0x30
1000551a:	78db      	ldrb	r3, [r3, #3]
1000551c:	079b      	lsls	r3, r3, #30
1000551e:	d400      	bmi.n	10005522 <usbd_edpt_clear_stall+0x1e>
10005520:	bd70      	pop	{r4, r5, r6, pc}
10005522:	f7ff fca7 	bl	10004e74 <dcd_edpt_clear_stall>
10005526:	0063      	lsls	r3, r4, #1
10005528:	4c07      	ldr	r4, [pc, #28]	; (10005548 <usbd_edpt_clear_stall+0x44>)
1000552a:	18e4      	adds	r4, r4, r3
1000552c:	1964      	adds	r4, r4, r5
1000552e:	3430      	adds	r4, #48	; 0x30
10005530:	78e3      	ldrb	r3, [r4, #3]
10005532:	2202      	movs	r2, #2
10005534:	4393      	bics	r3, r2
10005536:	70e3      	strb	r3, [r4, #3]
10005538:	78e3      	ldrb	r3, [r4, #3]
1000553a:	3a01      	subs	r2, #1
1000553c:	4393      	bics	r3, r2
1000553e:	70e3      	strb	r3, [r4, #3]
10005540:	e7ee      	b.n	10005520 <usbd_edpt_clear_stall+0x1c>
10005542:	46c0      	nop			; (mov r8, r8)
10005544:	20000ca4 	.word	0x20000ca4
10005548:	20001114 	.word	0x20001114

1000554c <usbd_edpt_stalled>:
1000554c:	227f      	movs	r2, #127	; 0x7f
1000554e:	400a      	ands	r2, r1
10005550:	09cb      	lsrs	r3, r1, #7
10005552:	0052      	lsls	r2, r2, #1
10005554:	4903      	ldr	r1, [pc, #12]	; (10005564 <usbd_edpt_stalled+0x18>)
10005556:	1889      	adds	r1, r1, r2
10005558:	18c9      	adds	r1, r1, r3
1000555a:	3130      	adds	r1, #48	; 0x30
1000555c:	78c8      	ldrb	r0, [r1, #3]
1000555e:	0780      	lsls	r0, r0, #30
10005560:	0fc0      	lsrs	r0, r0, #31
10005562:	4770      	bx	lr
10005564:	20001114 	.word	0x20001114

10005568 <process_control_request>:
10005568:	b5f0      	push	{r4, r5, r6, r7, lr}
1000556a:	46c6      	mov	lr, r8
1000556c:	b500      	push	{lr}
1000556e:	b082      	sub	sp, #8
10005570:	0005      	movs	r5, r0
10005572:	000c      	movs	r4, r1
10005574:	2000      	movs	r0, #0
10005576:	f000 fb1d 	bl	10005bb4 <usbd_control_set_complete_callback>
1000557a:	7823      	ldrb	r3, [r4, #0]
1000557c:	2260      	movs	r2, #96	; 0x60
1000557e:	4013      	ands	r3, r2
10005580:	2b60      	cmp	r3, #96	; 0x60
10005582:	d100      	bne.n	10005586 <process_control_request+0x1e>
10005584:	e185      	b.n	10005892 <process_control_request+0x32a>
10005586:	2b40      	cmp	r3, #64	; 0x40
10005588:	d00f      	beq.n	100055aa <process_control_request+0x42>
1000558a:	7822      	ldrb	r2, [r4, #0]
1000558c:	06d2      	lsls	r2, r2, #27
1000558e:	0ed2      	lsrs	r2, r2, #27
10005590:	2a01      	cmp	r2, #1
10005592:	d100      	bne.n	10005596 <process_control_request+0x2e>
10005594:	e0c9      	b.n	1000572a <process_control_request+0x1c2>
10005596:	2a02      	cmp	r2, #2
10005598:	d100      	bne.n	1000559c <process_control_request+0x34>
1000559a:	e10f      	b.n	100057bc <process_control_request+0x254>
1000559c:	2a00      	cmp	r2, #0
1000559e:	d011      	beq.n	100055c4 <process_control_request+0x5c>
100055a0:	2000      	movs	r0, #0
100055a2:	b002      	add	sp, #8
100055a4:	bc80      	pop	{r7}
100055a6:	46b8      	mov	r8, r7
100055a8:	bdf0      	pop	{r4, r5, r6, r7, pc}
100055aa:	4bc7      	ldr	r3, [pc, #796]	; (100058c8 <process_control_request+0x360>)
100055ac:	2b00      	cmp	r3, #0
100055ae:	d100      	bne.n	100055b2 <process_control_request+0x4a>
100055b0:	e171      	b.n	10005896 <process_control_request+0x32e>
100055b2:	0018      	movs	r0, r3
100055b4:	f000 fafe 	bl	10005bb4 <usbd_control_set_complete_callback>
100055b8:	0022      	movs	r2, r4
100055ba:	2101      	movs	r1, #1
100055bc:	0028      	movs	r0, r5
100055be:	e000      	b.n	100055c2 <process_control_request+0x5a>
100055c0:	bf00      	nop
100055c2:	e7ee      	b.n	100055a2 <process_control_request+0x3a>
100055c4:	2b20      	cmp	r3, #32
100055c6:	d00a      	beq.n	100055de <process_control_request+0x76>
100055c8:	2b00      	cmp	r3, #0
100055ca:	d000      	beq.n	100055ce <process_control_request+0x66>
100055cc:	e16b      	b.n	100058a6 <process_control_request+0x33e>
100055ce:	7863      	ldrb	r3, [r4, #1]
100055d0:	2b09      	cmp	r3, #9
100055d2:	d900      	bls.n	100055d6 <process_control_request+0x6e>
100055d4:	e169      	b.n	100058aa <process_control_request+0x342>
100055d6:	009b      	lsls	r3, r3, #2
100055d8:	4abc      	ldr	r2, [pc, #752]	; (100058cc <process_control_request+0x364>)
100055da:	58d3      	ldr	r3, [r2, r3]
100055dc:	469f      	mov	pc, r3
100055de:	7923      	ldrb	r3, [r4, #4]
100055e0:	2b0f      	cmp	r3, #15
100055e2:	d900      	bls.n	100055e6 <process_control_request+0x7e>
100055e4:	e159      	b.n	1000589a <process_control_request+0x332>
100055e6:	4aba      	ldr	r2, [pc, #744]	; (100058d0 <process_control_request+0x368>)
100055e8:	18d3      	adds	r3, r2, r3
100055ea:	78db      	ldrb	r3, [r3, #3]
100055ec:	4ab9      	ldr	r2, [pc, #740]	; (100058d4 <process_control_request+0x36c>)
100055ee:	2a00      	cmp	r2, #0
100055f0:	d005      	beq.n	100055fe <process_control_request+0x96>
100055f2:	4ab9      	ldr	r2, [pc, #740]	; (100058d8 <process_control_request+0x370>)
100055f4:	7812      	ldrb	r2, [r2, #0]
100055f6:	4293      	cmp	r3, r2
100055f8:	d311      	bcc.n	1000561e <process_control_request+0xb6>
100055fa:	1a9b      	subs	r3, r3, r2
100055fc:	b2db      	uxtb	r3, r3
100055fe:	2b00      	cmp	r3, #0
10005600:	d000      	beq.n	10005604 <process_control_request+0x9c>
10005602:	e14c      	b.n	1000589e <process_control_request+0x336>
10005604:	0059      	lsls	r1, r3, #1
10005606:	18cb      	adds	r3, r1, r3
10005608:	00db      	lsls	r3, r3, #3
1000560a:	49b4      	ldr	r1, [pc, #720]	; (100058dc <process_control_request+0x374>)
1000560c:	18c9      	adds	r1, r1, r3
1000560e:	2900      	cmp	r1, #0
10005610:	d100      	bne.n	10005614 <process_control_request+0xac>
10005612:	e146      	b.n	100058a2 <process_control_request+0x33a>
10005614:	0022      	movs	r2, r4
10005616:	0028      	movs	r0, r5
10005618:	f7ff fcd2 	bl	10004fc0 <invoke_class_control>
1000561c:	e7c1      	b.n	100055a2 <process_control_request+0x3a>
1000561e:	0059      	lsls	r1, r3, #1
10005620:	18cb      	adds	r3, r1, r3
10005622:	00db      	lsls	r3, r3, #3
10005624:	4aae      	ldr	r2, [pc, #696]	; (100058e0 <process_control_request+0x378>)
10005626:	6811      	ldr	r1, [r2, #0]
10005628:	18c9      	adds	r1, r1, r3
1000562a:	e7f0      	b.n	1000560e <process_control_request+0xa6>
1000562c:	0020      	movs	r0, r4
1000562e:	f000 fac7 	bl	10005bc0 <usbd_control_set_request>
10005632:	78a1      	ldrb	r1, [r4, #2]
10005634:	0028      	movs	r0, r5
10005636:	f7ff fb5d 	bl	10004cf4 <dcd_set_address>
1000563a:	4aa5      	ldr	r2, [pc, #660]	; (100058d0 <process_control_request+0x368>)
1000563c:	7813      	ldrb	r3, [r2, #0]
1000563e:	2102      	movs	r1, #2
10005640:	430b      	orrs	r3, r1
10005642:	7013      	strb	r3, [r2, #0]
10005644:	2001      	movs	r0, #1
10005646:	e7ac      	b.n	100055a2 <process_control_request+0x3a>
10005648:	4ba1      	ldr	r3, [pc, #644]	; (100058d0 <process_control_request+0x368>)
1000564a:	785b      	ldrb	r3, [r3, #1]
1000564c:	466a      	mov	r2, sp
1000564e:	3206      	adds	r2, #6
10005650:	7013      	strb	r3, [r2, #0]
10005652:	2301      	movs	r3, #1
10005654:	0021      	movs	r1, r4
10005656:	0028      	movs	r0, r5
10005658:	f000 fa68 	bl	10005b2c <tud_control_xfer>
1000565c:	2001      	movs	r0, #1
1000565e:	e7a0      	b.n	100055a2 <process_control_request+0x3a>
10005660:	78a6      	ldrb	r6, [r4, #2]
10005662:	4b9b      	ldr	r3, [pc, #620]	; (100058d0 <process_control_request+0x368>)
10005664:	785b      	ldrb	r3, [r3, #1]
10005666:	b2db      	uxtb	r3, r3
10005668:	42b3      	cmp	r3, r6
1000566a:	d005      	beq.n	10005678 <process_control_request+0x110>
1000566c:	4b98      	ldr	r3, [pc, #608]	; (100058d0 <process_control_request+0x368>)
1000566e:	785b      	ldrb	r3, [r3, #1]
10005670:	2b00      	cmp	r3, #0
10005672:	d109      	bne.n	10005688 <process_control_request+0x120>
10005674:	2e00      	cmp	r6, #0
10005676:	d113      	bne.n	100056a0 <process_control_request+0x138>
10005678:	4b95      	ldr	r3, [pc, #596]	; (100058d0 <process_control_request+0x368>)
1000567a:	705e      	strb	r6, [r3, #1]
1000567c:	0021      	movs	r1, r4
1000567e:	0028      	movs	r0, r5
10005680:	f000 fa38 	bl	10005af4 <tud_control_status>
10005684:	2001      	movs	r0, #1
10005686:	e78c      	b.n	100055a2 <process_control_request+0x3a>
10005688:	0028      	movs	r0, r5
1000568a:	f7ff fbbf 	bl	10004e0c <dcd_edpt_close_all>
1000568e:	4f90      	ldr	r7, [pc, #576]	; (100058d0 <process_control_request+0x368>)
10005690:	78bb      	ldrb	r3, [r7, #2]
10005692:	4698      	mov	r8, r3
10005694:	0028      	movs	r0, r5
10005696:	f7ff fc4b 	bl	10004f30 <configuration_reset>
1000569a:	4643      	mov	r3, r8
1000569c:	70bb      	strb	r3, [r7, #2]
1000569e:	e7e9      	b.n	10005674 <process_control_request+0x10c>
100056a0:	0031      	movs	r1, r6
100056a2:	0028      	movs	r0, r5
100056a4:	f7ff fc9a 	bl	10004fdc <process_set_config>
100056a8:	2800      	cmp	r0, #0
100056aa:	d1e5      	bne.n	10005678 <process_control_request+0x110>
100056ac:	e779      	b.n	100055a2 <process_control_request+0x3a>
100056ae:	0021      	movs	r1, r4
100056b0:	0028      	movs	r0, r5
100056b2:	f7ff fd4f 	bl	10005154 <process_get_descriptor>
100056b6:	e774      	b.n	100055a2 <process_control_request+0x3a>
100056b8:	78a2      	ldrb	r2, [r4, #2]
100056ba:	78e3      	ldrb	r3, [r4, #3]
100056bc:	021b      	lsls	r3, r3, #8
100056be:	4313      	orrs	r3, r2
100056c0:	2b01      	cmp	r3, #1
100056c2:	d001      	beq.n	100056c8 <process_control_request+0x160>
100056c4:	2000      	movs	r0, #0
100056c6:	e76c      	b.n	100055a2 <process_control_request+0x3a>
100056c8:	4a81      	ldr	r2, [pc, #516]	; (100058d0 <process_control_request+0x368>)
100056ca:	7813      	ldrb	r3, [r2, #0]
100056cc:	2108      	movs	r1, #8
100056ce:	430b      	orrs	r3, r1
100056d0:	7013      	strb	r3, [r2, #0]
100056d2:	0021      	movs	r1, r4
100056d4:	0028      	movs	r0, r5
100056d6:	f000 fa0d 	bl	10005af4 <tud_control_status>
100056da:	2001      	movs	r0, #1
100056dc:	e761      	b.n	100055a2 <process_control_request+0x3a>
100056de:	78a2      	ldrb	r2, [r4, #2]
100056e0:	78e3      	ldrb	r3, [r4, #3]
100056e2:	021b      	lsls	r3, r3, #8
100056e4:	4313      	orrs	r3, r2
100056e6:	2b01      	cmp	r3, #1
100056e8:	d001      	beq.n	100056ee <process_control_request+0x186>
100056ea:	2000      	movs	r0, #0
100056ec:	e759      	b.n	100055a2 <process_control_request+0x3a>
100056ee:	4a78      	ldr	r2, [pc, #480]	; (100058d0 <process_control_request+0x368>)
100056f0:	7813      	ldrb	r3, [r2, #0]
100056f2:	2108      	movs	r1, #8
100056f4:	438b      	bics	r3, r1
100056f6:	7013      	strb	r3, [r2, #0]
100056f8:	0021      	movs	r1, r4
100056fa:	0028      	movs	r0, r5
100056fc:	f000 f9fa 	bl	10005af4 <tud_control_status>
10005700:	2001      	movs	r0, #1
10005702:	e74e      	b.n	100055a2 <process_control_request+0x3a>
10005704:	4b72      	ldr	r3, [pc, #456]	; (100058d0 <process_control_request+0x368>)
10005706:	781a      	ldrb	r2, [r3, #0]
10005708:	0951      	lsrs	r1, r2, #5
1000570a:	0892      	lsrs	r2, r2, #2
1000570c:	2301      	movs	r3, #1
1000570e:	400b      	ands	r3, r1
10005710:	2102      	movs	r1, #2
10005712:	400a      	ands	r2, r1
10005714:	4313      	orrs	r3, r2
10005716:	466a      	mov	r2, sp
10005718:	3206      	adds	r2, #6
1000571a:	8013      	strh	r3, [r2, #0]
1000571c:	2302      	movs	r3, #2
1000571e:	0021      	movs	r1, r4
10005720:	0028      	movs	r0, r5
10005722:	f000 fa03 	bl	10005b2c <tud_control_xfer>
10005726:	2001      	movs	r0, #1
10005728:	e73b      	b.n	100055a2 <process_control_request+0x3a>
1000572a:	7923      	ldrb	r3, [r4, #4]
1000572c:	2b0f      	cmp	r3, #15
1000572e:	d900      	bls.n	10005732 <process_control_request+0x1ca>
10005730:	e0bd      	b.n	100058ae <process_control_request+0x346>
10005732:	4a67      	ldr	r2, [pc, #412]	; (100058d0 <process_control_request+0x368>)
10005734:	18d3      	adds	r3, r2, r3
10005736:	78d9      	ldrb	r1, [r3, #3]
10005738:	4b66      	ldr	r3, [pc, #408]	; (100058d4 <process_control_request+0x36c>)
1000573a:	2b00      	cmp	r3, #0
1000573c:	d005      	beq.n	1000574a <process_control_request+0x1e2>
1000573e:	4b66      	ldr	r3, [pc, #408]	; (100058d8 <process_control_request+0x370>)
10005740:	781b      	ldrb	r3, [r3, #0]
10005742:	4299      	cmp	r1, r3
10005744:	d328      	bcc.n	10005798 <process_control_request+0x230>
10005746:	1ac9      	subs	r1, r1, r3
10005748:	b2c9      	uxtb	r1, r1
1000574a:	2900      	cmp	r1, #0
1000574c:	d000      	beq.n	10005750 <process_control_request+0x1e8>
1000574e:	e0b0      	b.n	100058b2 <process_control_request+0x34a>
10005750:	004b      	lsls	r3, r1, #1
10005752:	185b      	adds	r3, r3, r1
10005754:	00db      	lsls	r3, r3, #3
10005756:	4961      	ldr	r1, [pc, #388]	; (100058dc <process_control_request+0x374>)
10005758:	18c9      	adds	r1, r1, r3
1000575a:	2900      	cmp	r1, #0
1000575c:	d100      	bne.n	10005760 <process_control_request+0x1f8>
1000575e:	e0aa      	b.n	100058b6 <process_control_request+0x34e>
10005760:	0022      	movs	r2, r4
10005762:	0028      	movs	r0, r5
10005764:	f7ff fc2c 	bl	10004fc0 <invoke_class_control>
10005768:	2800      	cmp	r0, #0
1000576a:	d000      	beq.n	1000576e <process_control_request+0x206>
1000576c:	e719      	b.n	100055a2 <process_control_request+0x3a>
1000576e:	7823      	ldrb	r3, [r4, #0]
10005770:	2260      	movs	r2, #96	; 0x60
10005772:	421a      	tst	r2, r3
10005774:	d000      	beq.n	10005778 <process_control_request+0x210>
10005776:	e714      	b.n	100055a2 <process_control_request+0x3a>
10005778:	7863      	ldrb	r3, [r4, #1]
1000577a:	3b0a      	subs	r3, #10
1000577c:	2b01      	cmp	r3, #1
1000577e:	d900      	bls.n	10005782 <process_control_request+0x21a>
10005780:	e70f      	b.n	100055a2 <process_control_request+0x3a>
10005782:	f000 fa17 	bl	10005bb4 <usbd_control_set_complete_callback>
10005786:	7863      	ldrb	r3, [r4, #1]
10005788:	2b0a      	cmp	r3, #10
1000578a:	d00c      	beq.n	100057a6 <process_control_request+0x23e>
1000578c:	0021      	movs	r1, r4
1000578e:	0028      	movs	r0, r5
10005790:	f000 f9b0 	bl	10005af4 <tud_control_status>
10005794:	2001      	movs	r0, #1
10005796:	e704      	b.n	100055a2 <process_control_request+0x3a>
10005798:	004b      	lsls	r3, r1, #1
1000579a:	185b      	adds	r3, r3, r1
1000579c:	00db      	lsls	r3, r3, #3
1000579e:	4a50      	ldr	r2, [pc, #320]	; (100058e0 <process_control_request+0x378>)
100057a0:	6811      	ldr	r1, [r2, #0]
100057a2:	18c9      	adds	r1, r1, r3
100057a4:	e7d9      	b.n	1000575a <process_control_request+0x1f2>
100057a6:	466b      	mov	r3, sp
100057a8:	1d9a      	adds	r2, r3, #6
100057aa:	2300      	movs	r3, #0
100057ac:	7013      	strb	r3, [r2, #0]
100057ae:	3301      	adds	r3, #1
100057b0:	0021      	movs	r1, r4
100057b2:	0028      	movs	r0, r5
100057b4:	f000 f9ba 	bl	10005b2c <tud_control_xfer>
100057b8:	2001      	movs	r0, #1
100057ba:	e6f2      	b.n	100055a2 <process_control_request+0x3a>
100057bc:	7921      	ldrb	r1, [r4, #4]
100057be:	227f      	movs	r2, #127	; 0x7f
100057c0:	400a      	ands	r2, r1
100057c2:	09ce      	lsrs	r6, r1, #7
100057c4:	2070      	movs	r0, #112	; 0x70
100057c6:	4208      	tst	r0, r1
100057c8:	d177      	bne.n	100058ba <process_control_request+0x352>
100057ca:	0052      	lsls	r2, r2, #1
100057cc:	4840      	ldr	r0, [pc, #256]	; (100058d0 <process_control_request+0x368>)
100057ce:	1882      	adds	r2, r0, r2
100057d0:	1992      	adds	r2, r2, r6
100057d2:	7cd2      	ldrb	r2, [r2, #19]
100057d4:	483f      	ldr	r0, [pc, #252]	; (100058d4 <process_control_request+0x36c>)
100057d6:	2800      	cmp	r0, #0
100057d8:	d005      	beq.n	100057e6 <process_control_request+0x27e>
100057da:	483f      	ldr	r0, [pc, #252]	; (100058d8 <process_control_request+0x370>)
100057dc:	7800      	ldrb	r0, [r0, #0]
100057de:	4282      	cmp	r2, r0
100057e0:	d312      	bcc.n	10005808 <process_control_request+0x2a0>
100057e2:	1a12      	subs	r2, r2, r0
100057e4:	b2d2      	uxtb	r2, r2
100057e6:	2a00      	cmp	r2, #0
100057e8:	d115      	bne.n	10005816 <process_control_request+0x2ae>
100057ea:	0056      	lsls	r6, r2, #1
100057ec:	18b2      	adds	r2, r6, r2
100057ee:	00d2      	lsls	r2, r2, #3
100057f0:	4e3a      	ldr	r6, [pc, #232]	; (100058dc <process_control_request+0x374>)
100057f2:	18b6      	adds	r6, r6, r2
100057f4:	2b00      	cmp	r3, #0
100057f6:	d010      	beq.n	1000581a <process_control_request+0x2b2>
100057f8:	2e00      	cmp	r6, #0
100057fa:	d060      	beq.n	100058be <process_control_request+0x356>
100057fc:	0022      	movs	r2, r4
100057fe:	0031      	movs	r1, r6
10005800:	0028      	movs	r0, r5
10005802:	f7ff fbdd 	bl	10004fc0 <invoke_class_control>
10005806:	e6cc      	b.n	100055a2 <process_control_request+0x3a>
10005808:	0056      	lsls	r6, r2, #1
1000580a:	18b2      	adds	r2, r6, r2
1000580c:	00d2      	lsls	r2, r2, #3
1000580e:	4834      	ldr	r0, [pc, #208]	; (100058e0 <process_control_request+0x378>)
10005810:	6806      	ldr	r6, [r0, #0]
10005812:	18b6      	adds	r6, r6, r2
10005814:	e7ee      	b.n	100057f4 <process_control_request+0x28c>
10005816:	2600      	movs	r6, #0
10005818:	e7ec      	b.n	100057f4 <process_control_request+0x28c>
1000581a:	7863      	ldrb	r3, [r4, #1]
1000581c:	2b01      	cmp	r3, #1
1000581e:	d012      	beq.n	10005846 <process_control_request+0x2de>
10005820:	2b03      	cmp	r3, #3
10005822:	d010      	beq.n	10005846 <process_control_request+0x2de>
10005824:	2b00      	cmp	r3, #0
10005826:	d001      	beq.n	1000582c <process_control_request+0x2c4>
10005828:	2000      	movs	r0, #0
1000582a:	e6ba      	b.n	100055a2 <process_control_request+0x3a>
1000582c:	0028      	movs	r0, r5
1000582e:	f7ff fe8d 	bl	1000554c <usbd_edpt_stalled>
10005832:	466b      	mov	r3, sp
10005834:	1d9a      	adds	r2, r3, #6
10005836:	8010      	strh	r0, [r2, #0]
10005838:	2302      	movs	r3, #2
1000583a:	0021      	movs	r1, r4
1000583c:	0028      	movs	r0, r5
1000583e:	f000 f975 	bl	10005b2c <tud_control_xfer>
10005842:	2001      	movs	r0, #1
10005844:	e6ad      	b.n	100055a2 <process_control_request+0x3a>
10005846:	78a7      	ldrb	r7, [r4, #2]
10005848:	78e2      	ldrb	r2, [r4, #3]
1000584a:	0212      	lsls	r2, r2, #8
1000584c:	433a      	orrs	r2, r7
1000584e:	d104      	bne.n	1000585a <process_control_request+0x2f2>
10005850:	2b01      	cmp	r3, #1
10005852:	d01a      	beq.n	1000588a <process_control_request+0x322>
10005854:	0028      	movs	r0, r5
10005856:	f7ff fe31 	bl	100054bc <usbd_edpt_stall>
1000585a:	2e00      	cmp	r6, #0
1000585c:	d031      	beq.n	100058c2 <process_control_request+0x35a>
1000585e:	0022      	movs	r2, r4
10005860:	0031      	movs	r1, r6
10005862:	0028      	movs	r0, r5
10005864:	f7ff fbac 	bl	10004fc0 <invoke_class_control>
10005868:	2000      	movs	r0, #0
1000586a:	f000 f9a3 	bl	10005bb4 <usbd_control_set_complete_callback>
1000586e:	4a18      	ldr	r2, [pc, #96]	; (100058d0 <process_control_request+0x368>)
10005870:	2334      	movs	r3, #52	; 0x34
10005872:	5cd3      	ldrb	r3, [r2, r3]
10005874:	07db      	lsls	r3, r3, #31
10005876:	0fd8      	lsrs	r0, r3, #31
10005878:	2b00      	cmp	r3, #0
1000587a:	d000      	beq.n	1000587e <process_control_request+0x316>
1000587c:	e691      	b.n	100055a2 <process_control_request+0x3a>
1000587e:	0021      	movs	r1, r4
10005880:	0028      	movs	r0, r5
10005882:	f000 f937 	bl	10005af4 <tud_control_status>
10005886:	2001      	movs	r0, #1
10005888:	e68b      	b.n	100055a2 <process_control_request+0x3a>
1000588a:	0028      	movs	r0, r5
1000588c:	f7ff fe3a 	bl	10005504 <usbd_edpt_clear_stall>
10005890:	e7e3      	b.n	1000585a <process_control_request+0x2f2>
10005892:	2000      	movs	r0, #0
10005894:	e685      	b.n	100055a2 <process_control_request+0x3a>
10005896:	2000      	movs	r0, #0
10005898:	e683      	b.n	100055a2 <process_control_request+0x3a>
1000589a:	2000      	movs	r0, #0
1000589c:	e681      	b.n	100055a2 <process_control_request+0x3a>
1000589e:	2000      	movs	r0, #0
100058a0:	e67f      	b.n	100055a2 <process_control_request+0x3a>
100058a2:	2000      	movs	r0, #0
100058a4:	e67d      	b.n	100055a2 <process_control_request+0x3a>
100058a6:	2000      	movs	r0, #0
100058a8:	e67b      	b.n	100055a2 <process_control_request+0x3a>
100058aa:	2000      	movs	r0, #0
100058ac:	e679      	b.n	100055a2 <process_control_request+0x3a>
100058ae:	2000      	movs	r0, #0
100058b0:	e677      	b.n	100055a2 <process_control_request+0x3a>
100058b2:	2000      	movs	r0, #0
100058b4:	e675      	b.n	100055a2 <process_control_request+0x3a>
100058b6:	2000      	movs	r0, #0
100058b8:	e673      	b.n	100055a2 <process_control_request+0x3a>
100058ba:	2000      	movs	r0, #0
100058bc:	e671      	b.n	100055a2 <process_control_request+0x3a>
100058be:	2000      	movs	r0, #0
100058c0:	e66f      	b.n	100055a2 <process_control_request+0x3a>
100058c2:	2001      	movs	r0, #1
100058c4:	e66d      	b.n	100055a2 <process_control_request+0x3a>
100058c6:	46c0      	nop			; (mov r8, r8)
100058c8:	00000000 	.word	0x00000000
100058cc:	100083dc 	.word	0x100083dc
100058d0:	20001114 	.word	0x20001114
100058d4:	100045c1 	.word	0x100045c1
100058d8:	20001a51 	.word	0x20001a51
100058dc:	10008428 	.word	0x10008428
100058e0:	20000dec 	.word	0x20000dec

100058e4 <tud_task_ext>:
100058e4:	b530      	push	{r4, r5, lr}
100058e6:	b085      	sub	sp, #20
100058e8:	f000 fce9 	bl	100062be <tusb_inited>
100058ec:	2800      	cmp	r0, #0
100058ee:	d108      	bne.n	10005902 <tud_task_ext+0x1e>
100058f0:	b005      	add	sp, #20
100058f2:	bd30      	pop	{r4, r5, pc}
100058f4:	ac01      	add	r4, sp, #4
100058f6:	7820      	ldrb	r0, [r4, #0]
100058f8:	f7ff fb5c 	bl	10004fb4 <usbd_reset>
100058fc:	7922      	ldrb	r2, [r4, #4]
100058fe:	4b5d      	ldr	r3, [pc, #372]	; (10005a74 <tud_task_ext+0x190>)
10005900:	709a      	strb	r2, [r3, #2]
10005902:	4b5d      	ldr	r3, [pc, #372]	; (10005a78 <tud_task_ext+0x194>)
10005904:	681c      	ldr	r4, [r3, #0]
10005906:	0021      	movs	r1, r4
10005908:	3114      	adds	r1, #20
1000590a:	6962      	ldr	r2, [r4, #20]
1000590c:	f3ef 8010 	mrs	r0, PRIMASK
10005910:	b672      	cpsid	i
10005912:	6813      	ldr	r3, [r2, #0]
10005914:	2b00      	cmp	r3, #0
10005916:	d0fc      	beq.n	10005912 <tud_task_ext+0x2e>
10005918:	f3bf 8f5f 	dmb	sy
1000591c:	6048      	str	r0, [r1, #4]
1000591e:	a901      	add	r1, sp, #4
10005920:	0020      	movs	r0, r4
10005922:	f001 f84d 	bl	100069c0 <tu_fifo_read>
10005926:	6962      	ldr	r2, [r4, #20]
10005928:	69a3      	ldr	r3, [r4, #24]
1000592a:	f3bf 8f5f 	dmb	sy
1000592e:	2100      	movs	r1, #0
10005930:	6011      	str	r1, [r2, #0]
10005932:	f383 8810 	msr	PRIMASK, r3
10005936:	2800      	cmp	r0, #0
10005938:	d0da      	beq.n	100058f0 <tud_task_ext+0xc>
1000593a:	ab01      	add	r3, sp, #4
1000593c:	785b      	ldrb	r3, [r3, #1]
1000593e:	2b08      	cmp	r3, #8
10005940:	d8df      	bhi.n	10005902 <tud_task_ext+0x1e>
10005942:	009b      	lsls	r3, r3, #2
10005944:	4a4d      	ldr	r2, [pc, #308]	; (10005a7c <tud_task_ext+0x198>)
10005946:	58d3      	ldr	r3, [r2, r3]
10005948:	469f      	mov	pc, r3
1000594a:	ab01      	add	r3, sp, #4
1000594c:	7818      	ldrb	r0, [r3, #0]
1000594e:	f7ff fb31 	bl	10004fb4 <usbd_reset>
10005952:	4b4b      	ldr	r3, [pc, #300]	; (10005a80 <tud_task_ext+0x19c>)
10005954:	2b00      	cmp	r3, #0
10005956:	d0d4      	beq.n	10005902 <tud_task_ext+0x1e>
10005958:	e000      	b.n	1000595c <tud_task_ext+0x78>
1000595a:	bf00      	nop
1000595c:	e7d1      	b.n	10005902 <tud_task_ext+0x1e>
1000595e:	4b45      	ldr	r3, [pc, #276]	; (10005a74 <tud_task_ext+0x190>)
10005960:	781a      	ldrb	r2, [r3, #0]
10005962:	2401      	movs	r4, #1
10005964:	2101      	movs	r1, #1
10005966:	430a      	orrs	r2, r1
10005968:	701a      	strb	r2, [r3, #0]
1000596a:	2233      	movs	r2, #51	; 0x33
1000596c:	5c99      	ldrb	r1, [r3, r2]
1000596e:	43a1      	bics	r1, r4
10005970:	5499      	strb	r1, [r3, r2]
10005972:	5c99      	ldrb	r1, [r3, r2]
10005974:	2004      	movs	r0, #4
10005976:	4381      	bics	r1, r0
10005978:	5499      	strb	r1, [r3, r2]
1000597a:	3201      	adds	r2, #1
1000597c:	5c99      	ldrb	r1, [r3, r2]
1000597e:	43a1      	bics	r1, r4
10005980:	5499      	strb	r1, [r3, r2]
10005982:	5c99      	ldrb	r1, [r3, r2]
10005984:	4381      	bics	r1, r0
10005986:	5499      	strb	r1, [r3, r2]
10005988:	ab01      	add	r3, sp, #4
1000598a:	7818      	ldrb	r0, [r3, #0]
1000598c:	a902      	add	r1, sp, #8
1000598e:	f7ff fdeb 	bl	10005568 <process_control_request>
10005992:	2800      	cmp	r0, #0
10005994:	d1b5      	bne.n	10005902 <tud_task_ext+0x1e>
10005996:	ac01      	add	r4, sp, #4
10005998:	7820      	ldrb	r0, [r4, #0]
1000599a:	2100      	movs	r1, #0
1000599c:	f7ff fa54 	bl	10004e48 <dcd_edpt_stall>
100059a0:	7820      	ldrb	r0, [r4, #0]
100059a2:	2180      	movs	r1, #128	; 0x80
100059a4:	f7ff fa50 	bl	10004e48 <dcd_edpt_stall>
100059a8:	e7ab      	b.n	10005902 <tud_task_ext+0x1e>
100059aa:	ab01      	add	r3, sp, #4
100059ac:	7919      	ldrb	r1, [r3, #4]
100059ae:	227f      	movs	r2, #127	; 0x7f
100059b0:	400a      	ands	r2, r1
100059b2:	09cc      	lsrs	r4, r1, #7
100059b4:	0050      	lsls	r0, r2, #1
100059b6:	4b2f      	ldr	r3, [pc, #188]	; (10005a74 <tud_task_ext+0x190>)
100059b8:	181b      	adds	r3, r3, r0
100059ba:	191b      	adds	r3, r3, r4
100059bc:	3330      	adds	r3, #48	; 0x30
100059be:	78d8      	ldrb	r0, [r3, #3]
100059c0:	2501      	movs	r5, #1
100059c2:	43a8      	bics	r0, r5
100059c4:	70d8      	strb	r0, [r3, #3]
100059c6:	78d8      	ldrb	r0, [r3, #3]
100059c8:	3503      	adds	r5, #3
100059ca:	43a8      	bics	r0, r5
100059cc:	70d8      	strb	r0, [r3, #3]
100059ce:	2a00      	cmp	r2, #0
100059d0:	d01f      	beq.n	10005a12 <tud_task_ext+0x12e>
100059d2:	0052      	lsls	r2, r2, #1
100059d4:	4b27      	ldr	r3, [pc, #156]	; (10005a74 <tud_task_ext+0x190>)
100059d6:	189a      	adds	r2, r3, r2
100059d8:	1912      	adds	r2, r2, r4
100059da:	7cd3      	ldrb	r3, [r2, #19]
100059dc:	4a29      	ldr	r2, [pc, #164]	; (10005a84 <tud_task_ext+0x1a0>)
100059de:	2a00      	cmp	r2, #0
100059e0:	d005      	beq.n	100059ee <tud_task_ext+0x10a>
100059e2:	4a29      	ldr	r2, [pc, #164]	; (10005a88 <tud_task_ext+0x1a4>)
100059e4:	7812      	ldrb	r2, [r2, #0]
100059e6:	4293      	cmp	r3, r2
100059e8:	d31a      	bcc.n	10005a20 <tud_task_ext+0x13c>
100059ea:	1a9b      	subs	r3, r3, r2
100059ec:	b2db      	uxtb	r3, r3
100059ee:	2b00      	cmp	r3, #0
100059f0:	d000      	beq.n	100059f4 <tud_task_ext+0x110>
100059f2:	e77d      	b.n	100058f0 <tud_task_ext+0xc>
100059f4:	005a      	lsls	r2, r3, #1
100059f6:	18d2      	adds	r2, r2, r3
100059f8:	00d2      	lsls	r2, r2, #3
100059fa:	4b24      	ldr	r3, [pc, #144]	; (10005a8c <tud_task_ext+0x1a8>)
100059fc:	189b      	adds	r3, r3, r2
100059fe:	2b00      	cmp	r3, #0
10005a00:	d100      	bne.n	10005a04 <tud_task_ext+0x120>
10005a02:	e775      	b.n	100058f0 <tud_task_ext+0xc>
10005a04:	691c      	ldr	r4, [r3, #16]
10005a06:	a801      	add	r0, sp, #4
10005a08:	7942      	ldrb	r2, [r0, #5]
10005a0a:	9b03      	ldr	r3, [sp, #12]
10005a0c:	7800      	ldrb	r0, [r0, #0]
10005a0e:	47a0      	blx	r4
10005a10:	e777      	b.n	10005902 <tud_task_ext+0x1e>
10005a12:	a801      	add	r0, sp, #4
10005a14:	7942      	ldrb	r2, [r0, #5]
10005a16:	9b03      	ldr	r3, [sp, #12]
10005a18:	7800      	ldrb	r0, [r0, #0]
10005a1a:	f000 f8df 	bl	10005bdc <usbd_control_xfer_cb>
10005a1e:	e770      	b.n	10005902 <tud_task_ext+0x1e>
10005a20:	005a      	lsls	r2, r3, #1
10005a22:	18d2      	adds	r2, r2, r3
10005a24:	00d2      	lsls	r2, r2, #3
10005a26:	4b1a      	ldr	r3, [pc, #104]	; (10005a90 <tud_task_ext+0x1ac>)
10005a28:	681b      	ldr	r3, [r3, #0]
10005a2a:	189b      	adds	r3, r3, r2
10005a2c:	e7e7      	b.n	100059fe <tud_task_ext+0x11a>
10005a2e:	4b11      	ldr	r3, [pc, #68]	; (10005a74 <tud_task_ext+0x190>)
10005a30:	781b      	ldrb	r3, [r3, #0]
10005a32:	07db      	lsls	r3, r3, #31
10005a34:	d400      	bmi.n	10005a38 <tud_task_ext+0x154>
10005a36:	e764      	b.n	10005902 <tud_task_ext+0x1e>
10005a38:	4b16      	ldr	r3, [pc, #88]	; (10005a94 <tud_task_ext+0x1b0>)
10005a3a:	2b00      	cmp	r3, #0
10005a3c:	d100      	bne.n	10005a40 <tud_task_ext+0x15c>
10005a3e:	e760      	b.n	10005902 <tud_task_ext+0x1e>
10005a40:	4b0c      	ldr	r3, [pc, #48]	; (10005a74 <tud_task_ext+0x190>)
10005a42:	7818      	ldrb	r0, [r3, #0]
10005a44:	0700      	lsls	r0, r0, #28
10005a46:	0fc0      	lsrs	r0, r0, #31
10005a48:	e000      	b.n	10005a4c <tud_task_ext+0x168>
10005a4a:	bf00      	nop
10005a4c:	e759      	b.n	10005902 <tud_task_ext+0x1e>
10005a4e:	4b09      	ldr	r3, [pc, #36]	; (10005a74 <tud_task_ext+0x190>)
10005a50:	781b      	ldrb	r3, [r3, #0]
10005a52:	07db      	lsls	r3, r3, #31
10005a54:	d400      	bmi.n	10005a58 <tud_task_ext+0x174>
10005a56:	e754      	b.n	10005902 <tud_task_ext+0x1e>
10005a58:	4b0f      	ldr	r3, [pc, #60]	; (10005a98 <tud_task_ext+0x1b4>)
10005a5a:	2b00      	cmp	r3, #0
10005a5c:	d100      	bne.n	10005a60 <tud_task_ext+0x17c>
10005a5e:	e750      	b.n	10005902 <tud_task_ext+0x1e>
10005a60:	e000      	b.n	10005a64 <tud_task_ext+0x180>
10005a62:	bf00      	nop
10005a64:	e74d      	b.n	10005902 <tud_task_ext+0x1e>
10005a66:	9b02      	ldr	r3, [sp, #8]
10005a68:	2b00      	cmp	r3, #0
10005a6a:	d100      	bne.n	10005a6e <tud_task_ext+0x18a>
10005a6c:	e749      	b.n	10005902 <tud_task_ext+0x1e>
10005a6e:	9803      	ldr	r0, [sp, #12]
10005a70:	4798      	blx	r3
10005a72:	e746      	b.n	10005902 <tud_task_ext+0x1e>
10005a74:	20001114 	.word	0x20001114
10005a78:	2000116c 	.word	0x2000116c
10005a7c:	10008404 	.word	0x10008404
10005a80:	00000000 	.word	0x00000000
10005a84:	100045c1 	.word	0x100045c1
10005a88:	20001a51 	.word	0x20001a51
10005a8c:	10008428 	.word	0x10008428
10005a90:	20000dec 	.word	0x20000dec
	...

10005a9c <_data_stage_xact>:
10005a9c:	b5f8      	push	{r3, r4, r5, r6, r7, lr}
10005a9e:	0005      	movs	r5, r0
10005aa0:	4b12      	ldr	r3, [pc, #72]	; (10005aec <_data_stage_xact+0x50>)
10005aa2:	899f      	ldrh	r7, [r3, #12]
10005aa4:	89de      	ldrh	r6, [r3, #14]
10005aa6:	1bb9      	subs	r1, r7, r6
10005aa8:	b289      	uxth	r1, r1
10005aaa:	1c0b      	adds	r3, r1, #0
10005aac:	2940      	cmp	r1, #64	; 0x40
10005aae:	d900      	bls.n	10005ab2 <_data_stage_xact+0x16>
10005ab0:	2340      	movs	r3, #64	; 0x40
10005ab2:	b29c      	uxth	r4, r3
10005ab4:	4b0d      	ldr	r3, [pc, #52]	; (10005aec <_data_stage_xact+0x50>)
10005ab6:	781b      	ldrb	r3, [r3, #0]
10005ab8:	b25b      	sxtb	r3, r3
10005aba:	2b00      	cmp	r3, #0
10005abc:	db08      	blt.n	10005ad0 <_data_stage_xact+0x34>
10005abe:	2100      	movs	r1, #0
10005ac0:	42b7      	cmp	r7, r6
10005ac2:	d011      	beq.n	10005ae8 <_data_stage_xact+0x4c>
10005ac4:	4a0a      	ldr	r2, [pc, #40]	; (10005af0 <_data_stage_xact+0x54>)
10005ac6:	0023      	movs	r3, r4
10005ac8:	0028      	movs	r0, r5
10005aca:	f7ff fcbb 	bl	10005444 <usbd_edpt_xfer>
10005ace:	bdf8      	pop	{r3, r4, r5, r6, r7, pc}
10005ad0:	42b7      	cmp	r7, r6
10005ad2:	d101      	bne.n	10005ad8 <_data_stage_xact+0x3c>
10005ad4:	2180      	movs	r1, #128	; 0x80
10005ad6:	e7f3      	b.n	10005ac0 <_data_stage_xact+0x24>
10005ad8:	4b04      	ldr	r3, [pc, #16]	; (10005aec <_data_stage_xact+0x50>)
10005ada:	6899      	ldr	r1, [r3, #8]
10005adc:	0022      	movs	r2, r4
10005ade:	4804      	ldr	r0, [pc, #16]	; (10005af0 <_data_stage_xact+0x54>)
10005ae0:	f7fe fa9a 	bl	10004018 <__wrap___aeabi_memcpy>
10005ae4:	2180      	movs	r1, #128	; 0x80
10005ae6:	e7eb      	b.n	10005ac0 <_data_stage_xact+0x24>
10005ae8:	2200      	movs	r2, #0
10005aea:	e7ec      	b.n	10005ac6 <_data_stage_xact+0x2a>
10005aec:	200010b8 	.word	0x200010b8
10005af0:	200010d4 	.word	0x200010d4

10005af4 <tud_control_status>:
10005af4:	b570      	push	{r4, r5, r6, lr}
10005af6:	0006      	movs	r6, r0
10005af8:	000c      	movs	r4, r1
10005afa:	4d0b      	ldr	r5, [pc, #44]	; (10005b28 <tud_control_status+0x34>)
10005afc:	2208      	movs	r2, #8
10005afe:	0028      	movs	r0, r5
10005b00:	f7fe fa8a 	bl	10004018 <__wrap___aeabi_memcpy>
10005b04:	2300      	movs	r3, #0
10005b06:	60ab      	str	r3, [r5, #8]
10005b08:	81eb      	strh	r3, [r5, #14]
10005b0a:	81ab      	strh	r3, [r5, #12]
10005b0c:	2300      	movs	r3, #0
10005b0e:	56e3      	ldrsb	r3, [r4, r3]
10005b10:	2b00      	cmp	r3, #0
10005b12:	db06      	blt.n	10005b22 <tud_control_status+0x2e>
10005b14:	2180      	movs	r1, #128	; 0x80
10005b16:	2300      	movs	r3, #0
10005b18:	2200      	movs	r2, #0
10005b1a:	0030      	movs	r0, r6
10005b1c:	f7ff fc92 	bl	10005444 <usbd_edpt_xfer>
10005b20:	bd70      	pop	{r4, r5, r6, pc}
10005b22:	2100      	movs	r1, #0
10005b24:	e7f7      	b.n	10005b16 <tud_control_status+0x22>
10005b26:	46c0      	nop			; (mov r8, r8)
10005b28:	200010b8 	.word	0x200010b8

10005b2c <tud_control_xfer>:
10005b2c:	b5f0      	push	{r4, r5, r6, r7, lr}
10005b2e:	46c6      	mov	lr, r8
10005b30:	b500      	push	{lr}
10005b32:	4680      	mov	r8, r0
10005b34:	000c      	movs	r4, r1
10005b36:	0016      	movs	r6, r2
10005b38:	001d      	movs	r5, r3
10005b3a:	4f18      	ldr	r7, [pc, #96]	; (10005b9c <tud_control_xfer+0x70>)
10005b3c:	2208      	movs	r2, #8
10005b3e:	0038      	movs	r0, r7
10005b40:	f7fe fa6a 	bl	10004018 <__wrap___aeabi_memcpy>
10005b44:	60be      	str	r6, [r7, #8]
10005b46:	2300      	movs	r3, #0
10005b48:	81fb      	strh	r3, [r7, #14]
10005b4a:	79a3      	ldrb	r3, [r4, #6]
10005b4c:	79e1      	ldrb	r1, [r4, #7]
10005b4e:	0209      	lsls	r1, r1, #8
10005b50:	4319      	orrs	r1, r3
10005b52:	1c0b      	adds	r3, r1, #0
10005b54:	42a9      	cmp	r1, r5
10005b56:	d900      	bls.n	10005b5a <tud_control_xfer+0x2e>
10005b58:	1c2b      	adds	r3, r5, #0
10005b5a:	b299      	uxth	r1, r3
10005b5c:	4a0f      	ldr	r2, [pc, #60]	; (10005b9c <tud_control_xfer+0x70>)
10005b5e:	8193      	strh	r3, [r2, #12]
10005b60:	79a2      	ldrb	r2, [r4, #6]
10005b62:	79e3      	ldrb	r3, [r4, #7]
10005b64:	021b      	lsls	r3, r3, #8
10005b66:	4313      	orrs	r3, r2
10005b68:	d009      	beq.n	10005b7e <tud_control_xfer+0x52>
10005b6a:	2900      	cmp	r1, #0
10005b6c:	d001      	beq.n	10005b72 <tud_control_xfer+0x46>
10005b6e:	2e00      	cmp	r6, #0
10005b70:	d012      	beq.n	10005b98 <tud_control_xfer+0x6c>
10005b72:	4640      	mov	r0, r8
10005b74:	f7ff ff92 	bl	10005a9c <_data_stage_xact>
10005b78:	bc80      	pop	{r7}
10005b7a:	46b8      	mov	r8, r7
10005b7c:	bdf0      	pop	{r4, r5, r6, r7, pc}
10005b7e:	2300      	movs	r3, #0
10005b80:	56e3      	ldrsb	r3, [r4, r3]
10005b82:	2b00      	cmp	r3, #0
10005b84:	db06      	blt.n	10005b94 <tud_control_xfer+0x68>
10005b86:	2180      	movs	r1, #128	; 0x80
10005b88:	2300      	movs	r3, #0
10005b8a:	2200      	movs	r2, #0
10005b8c:	4640      	mov	r0, r8
10005b8e:	f7ff fc59 	bl	10005444 <usbd_edpt_xfer>
10005b92:	e7f1      	b.n	10005b78 <tud_control_xfer+0x4c>
10005b94:	2100      	movs	r1, #0
10005b96:	e7f7      	b.n	10005b88 <tud_control_xfer+0x5c>
10005b98:	2000      	movs	r0, #0
10005b9a:	e7ed      	b.n	10005b78 <tud_control_xfer+0x4c>
10005b9c:	200010b8 	.word	0x200010b8

10005ba0 <usbd_control_reset>:
10005ba0:	b510      	push	{r4, lr}
10005ba2:	2214      	movs	r2, #20
10005ba4:	2100      	movs	r1, #0
10005ba6:	4802      	ldr	r0, [pc, #8]	; (10005bb0 <usbd_control_reset+0x10>)
10005ba8:	f7fe fa30 	bl	1000400c <__wrap_memset>
10005bac:	bd10      	pop	{r4, pc}
10005bae:	46c0      	nop			; (mov r8, r8)
10005bb0:	200010b8 	.word	0x200010b8

10005bb4 <usbd_control_set_complete_callback>:
10005bb4:	4b01      	ldr	r3, [pc, #4]	; (10005bbc <usbd_control_set_complete_callback+0x8>)
10005bb6:	6118      	str	r0, [r3, #16]
10005bb8:	4770      	bx	lr
10005bba:	46c0      	nop			; (mov r8, r8)
10005bbc:	200010b8 	.word	0x200010b8

10005bc0 <usbd_control_set_request>:
10005bc0:	b510      	push	{r4, lr}
10005bc2:	0001      	movs	r1, r0
10005bc4:	4c04      	ldr	r4, [pc, #16]	; (10005bd8 <usbd_control_set_request+0x18>)
10005bc6:	2208      	movs	r2, #8
10005bc8:	0020      	movs	r0, r4
10005bca:	f7fe fa25 	bl	10004018 <__wrap___aeabi_memcpy>
10005bce:	2300      	movs	r3, #0
10005bd0:	60a3      	str	r3, [r4, #8]
10005bd2:	81e3      	strh	r3, [r4, #14]
10005bd4:	81a3      	strh	r3, [r4, #12]
10005bd6:	bd10      	pop	{r4, pc}
10005bd8:	200010b8 	.word	0x200010b8

10005bdc <usbd_control_xfer_cb>:
10005bdc:	b570      	push	{r4, r5, r6, lr}
10005bde:	0005      	movs	r5, r0
10005be0:	001c      	movs	r4, r3
10005be2:	09c9      	lsrs	r1, r1, #7
10005be4:	4b2d      	ldr	r3, [pc, #180]	; (10005c9c <usbd_control_xfer_cb+0xc0>)
10005be6:	781b      	ldrb	r3, [r3, #0]
10005be8:	09db      	lsrs	r3, r3, #7
10005bea:	428b      	cmp	r3, r1
10005bec:	d011      	beq.n	10005c12 <usbd_control_xfer_cb+0x36>
10005bee:	2c00      	cmp	r4, #0
10005bf0:	d150      	bne.n	10005c94 <usbd_control_xfer_cb+0xb8>
10005bf2:	4b2b      	ldr	r3, [pc, #172]	; (10005ca0 <usbd_control_xfer_cb+0xc4>)
10005bf4:	2b00      	cmp	r3, #0
10005bf6:	d002      	beq.n	10005bfe <usbd_control_xfer_cb+0x22>
10005bf8:	4928      	ldr	r1, [pc, #160]	; (10005c9c <usbd_control_xfer_cb+0xc0>)
10005bfa:	f7ff f8d9 	bl	10004db0 <dcd_edpt0_status_complete>
10005bfe:	4b27      	ldr	r3, [pc, #156]	; (10005c9c <usbd_control_xfer_cb+0xc0>)
10005c00:	691b      	ldr	r3, [r3, #16]
10005c02:	2b00      	cmp	r3, #0
10005c04:	d003      	beq.n	10005c0e <usbd_control_xfer_cb+0x32>
10005c06:	4a25      	ldr	r2, [pc, #148]	; (10005c9c <usbd_control_xfer_cb+0xc0>)
10005c08:	2103      	movs	r1, #3
10005c0a:	0028      	movs	r0, r5
10005c0c:	4798      	blx	r3
10005c0e:	2001      	movs	r0, #1
10005c10:	bd70      	pop	{r4, r5, r6, pc}
10005c12:	4b22      	ldr	r3, [pc, #136]	; (10005c9c <usbd_control_xfer_cb+0xc0>)
10005c14:	781b      	ldrb	r3, [r3, #0]
10005c16:	b25b      	sxtb	r3, r3
10005c18:	2b00      	cmp	r3, #0
10005c1a:	db07      	blt.n	10005c2c <usbd_control_xfer_cb+0x50>
10005c1c:	4b1f      	ldr	r3, [pc, #124]	; (10005c9c <usbd_control_xfer_cb+0xc0>)
10005c1e:	6898      	ldr	r0, [r3, #8]
10005c20:	2800      	cmp	r0, #0
10005c22:	d039      	beq.n	10005c98 <usbd_control_xfer_cb+0xbc>
10005c24:	0022      	movs	r2, r4
10005c26:	491f      	ldr	r1, [pc, #124]	; (10005ca4 <usbd_control_xfer_cb+0xc8>)
10005c28:	f7fe f9f6 	bl	10004018 <__wrap___aeabi_memcpy>
10005c2c:	b2a2      	uxth	r2, r4
10005c2e:	491b      	ldr	r1, [pc, #108]	; (10005c9c <usbd_control_xfer_cb+0xc0>)
10005c30:	89cb      	ldrh	r3, [r1, #14]
10005c32:	18d3      	adds	r3, r2, r3
10005c34:	b29b      	uxth	r3, r3
10005c36:	81cb      	strh	r3, [r1, #14]
10005c38:	688a      	ldr	r2, [r1, #8]
10005c3a:	1912      	adds	r2, r2, r4
10005c3c:	608a      	str	r2, [r1, #8]
10005c3e:	88ca      	ldrh	r2, [r1, #6]
10005c40:	4293      	cmp	r3, r2
10005c42:	d001      	beq.n	10005c48 <usbd_control_xfer_cb+0x6c>
10005c44:	2c3f      	cmp	r4, #63	; 0x3f
10005c46:	d821      	bhi.n	10005c8c <usbd_control_xfer_cb+0xb0>
10005c48:	4b14      	ldr	r3, [pc, #80]	; (10005c9c <usbd_control_xfer_cb+0xc0>)
10005c4a:	691b      	ldr	r3, [r3, #16]
10005c4c:	2b00      	cmp	r3, #0
10005c4e:	d005      	beq.n	10005c5c <usbd_control_xfer_cb+0x80>
10005c50:	4a12      	ldr	r2, [pc, #72]	; (10005c9c <usbd_control_xfer_cb+0xc0>)
10005c52:	2102      	movs	r1, #2
10005c54:	0028      	movs	r0, r5
10005c56:	4798      	blx	r3
10005c58:	2800      	cmp	r0, #0
10005c5a:	d00d      	beq.n	10005c78 <usbd_control_xfer_cb+0x9c>
10005c5c:	4b0f      	ldr	r3, [pc, #60]	; (10005c9c <usbd_control_xfer_cb+0xc0>)
10005c5e:	781b      	ldrb	r3, [r3, #0]
10005c60:	b25b      	sxtb	r3, r3
10005c62:	2b00      	cmp	r3, #0
10005c64:	db06      	blt.n	10005c74 <usbd_control_xfer_cb+0x98>
10005c66:	2180      	movs	r1, #128	; 0x80
10005c68:	2300      	movs	r3, #0
10005c6a:	2200      	movs	r2, #0
10005c6c:	0028      	movs	r0, r5
10005c6e:	f7ff fbe9 	bl	10005444 <usbd_edpt_xfer>
10005c72:	e7cd      	b.n	10005c10 <usbd_control_xfer_cb+0x34>
10005c74:	2100      	movs	r1, #0
10005c76:	e7f7      	b.n	10005c68 <usbd_control_xfer_cb+0x8c>
10005c78:	2100      	movs	r1, #0
10005c7a:	0028      	movs	r0, r5
10005c7c:	f7ff f8e4 	bl	10004e48 <dcd_edpt_stall>
10005c80:	2180      	movs	r1, #128	; 0x80
10005c82:	0028      	movs	r0, r5
10005c84:	f7ff f8e0 	bl	10004e48 <dcd_edpt_stall>
10005c88:	2001      	movs	r0, #1
10005c8a:	e7c1      	b.n	10005c10 <usbd_control_xfer_cb+0x34>
10005c8c:	0028      	movs	r0, r5
10005c8e:	f7ff ff05 	bl	10005a9c <_data_stage_xact>
10005c92:	e7bd      	b.n	10005c10 <usbd_control_xfer_cb+0x34>
10005c94:	2000      	movs	r0, #0
10005c96:	e7bb      	b.n	10005c10 <usbd_control_xfer_cb+0x34>
10005c98:	2000      	movs	r0, #0
10005c9a:	e7b9      	b.n	10005c10 <usbd_control_xfer_cb+0x34>
10005c9c:	200010b8 	.word	0x200010b8
10005ca0:	10004db1 	.word	0x10004db1
10005ca4:	200010d4 	.word	0x200010d4

10005ca8 <_prep_out_transaction>:
10005ca8:	b570      	push	{r4, r5, r6, lr}
10005caa:	0004      	movs	r4, r0
10005cac:	0005      	movs	r5, r0
10005cae:	3510      	adds	r5, #16
10005cb0:	0028      	movs	r0, r5
10005cb2:	f000 fe6f 	bl	10006994 <tu_fifo_remaining>
10005cb6:	283f      	cmp	r0, #63	; 0x3f
10005cb8:	d801      	bhi.n	10005cbe <_prep_out_transaction+0x16>
10005cba:	2000      	movs	r0, #0
10005cbc:	bd70      	pop	{r4, r5, r6, pc}
10005cbe:	78e1      	ldrb	r1, [r4, #3]
10005cc0:	2000      	movs	r0, #0
10005cc2:	f7ff fb97 	bl	100053f4 <usbd_edpt_claim>
10005cc6:	2800      	cmp	r0, #0
10005cc8:	d0f8      	beq.n	10005cbc <_prep_out_transaction+0x14>
10005cca:	0028      	movs	r0, r5
10005ccc:	f000 fe62 	bl	10006994 <tu_fifo_remaining>
10005cd0:	283f      	cmp	r0, #63	; 0x3f
10005cd2:	d908      	bls.n	10005ce6 <_prep_out_transaction+0x3e>
10005cd4:	2392      	movs	r3, #146	; 0x92
10005cd6:	009b      	lsls	r3, r3, #2
10005cd8:	18e2      	adds	r2, r4, r3
10005cda:	78e1      	ldrb	r1, [r4, #3]
10005cdc:	2340      	movs	r3, #64	; 0x40
10005cde:	2000      	movs	r0, #0
10005ce0:	f7ff fbb0 	bl	10005444 <usbd_edpt_xfer>
10005ce4:	e7ea      	b.n	10005cbc <_prep_out_transaction+0x14>
10005ce6:	78e1      	ldrb	r1, [r4, #3]
10005ce8:	2000      	movs	r0, #0
10005cea:	f7ff fb97 	bl	1000541c <usbd_edpt_release>
10005cee:	2000      	movs	r0, #0
10005cf0:	e7e4      	b.n	10005cbc <_prep_out_transaction+0x14>
	...

10005cf4 <tud_cdc_n_connected>:
10005cf4:	b510      	push	{r4, lr}
10005cf6:	0004      	movs	r4, r0
10005cf8:	f7ff fa9a 	bl	10005230 <tud_mounted>
10005cfc:	2800      	cmp	r0, #0
10005cfe:	d10c      	bne.n	10005d1a <tud_cdc_n_connected+0x26>
10005d00:	2200      	movs	r2, #0
10005d02:	2a00      	cmp	r2, #0
10005d04:	d011      	beq.n	10005d2a <tud_cdc_n_connected+0x36>
10005d06:	23b2      	movs	r3, #178	; 0xb2
10005d08:	009b      	lsls	r3, r3, #2
10005d0a:	4363      	muls	r3, r4
10005d0c:	4809      	ldr	r0, [pc, #36]	; (10005d34 <tud_cdc_n_connected+0x40>)
10005d0e:	18c0      	adds	r0, r0, r3
10005d10:	7903      	ldrb	r3, [r0, #4]
10005d12:	07db      	lsls	r3, r3, #31
10005d14:	d50b      	bpl.n	10005d2e <tud_cdc_n_connected+0x3a>
10005d16:	2001      	movs	r0, #1
10005d18:	e008      	b.n	10005d2c <tud_cdc_n_connected+0x38>
10005d1a:	f7ff fa91 	bl	10005240 <tud_suspended>
10005d1e:	2800      	cmp	r0, #0
10005d20:	d101      	bne.n	10005d26 <tud_cdc_n_connected+0x32>
10005d22:	2201      	movs	r2, #1
10005d24:	e7ed      	b.n	10005d02 <tud_cdc_n_connected+0xe>
10005d26:	2200      	movs	r2, #0
10005d28:	e7eb      	b.n	10005d02 <tud_cdc_n_connected+0xe>
10005d2a:	2000      	movs	r0, #0
10005d2c:	bd10      	pop	{r4, pc}
10005d2e:	2000      	movs	r0, #0
10005d30:	e7fc      	b.n	10005d2c <tud_cdc_n_connected+0x38>
10005d32:	46c0      	nop			; (mov r8, r8)
10005d34:	20000df0 	.word	0x20000df0

10005d38 <tud_cdc_n_available>:
10005d38:	b510      	push	{r4, lr}
10005d3a:	23b2      	movs	r3, #178	; 0xb2
10005d3c:	009b      	lsls	r3, r3, #2
10005d3e:	4358      	muls	r0, r3
10005d40:	3010      	adds	r0, #16
10005d42:	4b02      	ldr	r3, [pc, #8]	; (10005d4c <tud_cdc_n_available+0x14>)
10005d44:	18c0      	adds	r0, r0, r3
10005d46:	f000 fdf4 	bl	10006932 <tu_fifo_count>
10005d4a:	bd10      	pop	{r4, pc}
10005d4c:	20000df0 	.word	0x20000df0

10005d50 <tud_cdc_n_read>:
10005d50:	b570      	push	{r4, r5, r6, lr}
10005d52:	23b2      	movs	r3, #178	; 0xb2
10005d54:	009b      	lsls	r3, r3, #2
10005d56:	4358      	muls	r0, r3
10005d58:	4b06      	ldr	r3, [pc, #24]	; (10005d74 <tud_cdc_n_read+0x24>)
10005d5a:	18c5      	adds	r5, r0, r3
10005d5c:	b292      	uxth	r2, r2
10005d5e:	3010      	adds	r0, #16
10005d60:	18c0      	adds	r0, r0, r3
10005d62:	f000 fe4e 	bl	10006a02 <tu_fifo_read_n>
10005d66:	0004      	movs	r4, r0
10005d68:	0028      	movs	r0, r5
10005d6a:	f7ff ff9d 	bl	10005ca8 <_prep_out_transaction>
10005d6e:	0020      	movs	r0, r4
10005d70:	bd70      	pop	{r4, r5, r6, pc}
10005d72:	46c0      	nop			; (mov r8, r8)
10005d74:	20000df0 	.word	0x20000df0

10005d78 <tud_cdc_n_write_flush>:
10005d78:	b570      	push	{r4, r5, r6, lr}
10005d7a:	0005      	movs	r5, r0
10005d7c:	f7ff fa58 	bl	10005230 <tud_mounted>
10005d80:	2800      	cmp	r0, #0
10005d82:	d104      	bne.n	10005d8e <tud_cdc_n_write_flush+0x16>
10005d84:	2300      	movs	r3, #0
10005d86:	2b00      	cmp	r3, #0
10005d88:	d109      	bne.n	10005d9e <tud_cdc_n_write_flush+0x26>
10005d8a:	2000      	movs	r0, #0
10005d8c:	bd70      	pop	{r4, r5, r6, pc}
10005d8e:	f7ff fa57 	bl	10005240 <tud_suspended>
10005d92:	2800      	cmp	r0, #0
10005d94:	d101      	bne.n	10005d9a <tud_cdc_n_write_flush+0x22>
10005d96:	2301      	movs	r3, #1
10005d98:	e7f5      	b.n	10005d86 <tud_cdc_n_write_flush+0xe>
10005d9a:	2300      	movs	r3, #0
10005d9c:	e7f3      	b.n	10005d86 <tud_cdc_n_write_flush+0xe>
10005d9e:	24b2      	movs	r4, #178	; 0xb2
10005da0:	00a4      	lsls	r4, r4, #2
10005da2:	436c      	muls	r4, r5
10005da4:	3420      	adds	r4, #32
10005da6:	4b21      	ldr	r3, [pc, #132]	; (10005e2c <tud_cdc_n_write_flush+0xb4>)
10005da8:	18e4      	adds	r4, r4, r3
10005daa:	3404      	adds	r4, #4
10005dac:	0020      	movs	r0, r4
10005dae:	f000 fdc0 	bl	10006932 <tu_fifo_count>
10005db2:	2800      	cmp	r0, #0
10005db4:	d101      	bne.n	10005dba <tud_cdc_n_write_flush+0x42>
10005db6:	2000      	movs	r0, #0
10005db8:	e7e8      	b.n	10005d8c <tud_cdc_n_write_flush+0x14>
10005dba:	22b2      	movs	r2, #178	; 0xb2
10005dbc:	0092      	lsls	r2, r2, #2
10005dbe:	436a      	muls	r2, r5
10005dc0:	4b1a      	ldr	r3, [pc, #104]	; (10005e2c <tud_cdc_n_write_flush+0xb4>)
10005dc2:	189b      	adds	r3, r3, r2
10005dc4:	7899      	ldrb	r1, [r3, #2]
10005dc6:	2000      	movs	r0, #0
10005dc8:	f7ff fb14 	bl	100053f4 <usbd_edpt_claim>
10005dcc:	2800      	cmp	r0, #0
10005dce:	d101      	bne.n	10005dd4 <tud_cdc_n_write_flush+0x5c>
10005dd0:	2000      	movs	r0, #0
10005dd2:	e7db      	b.n	10005d8c <tud_cdc_n_write_flush+0x14>
10005dd4:	26b2      	movs	r6, #178	; 0xb2
10005dd6:	00b6      	lsls	r6, r6, #2
10005dd8:	436e      	muls	r6, r5
10005dda:	23a2      	movs	r3, #162	; 0xa2
10005ddc:	009b      	lsls	r3, r3, #2
10005dde:	469c      	mov	ip, r3
10005de0:	4466      	add	r6, ip
10005de2:	4b12      	ldr	r3, [pc, #72]	; (10005e2c <tud_cdc_n_write_flush+0xb4>)
10005de4:	18f6      	adds	r6, r6, r3
10005de6:	2240      	movs	r2, #64	; 0x40
10005de8:	0031      	movs	r1, r6
10005dea:	0020      	movs	r0, r4
10005dec:	f000 fe09 	bl	10006a02 <tu_fifo_read_n>
10005df0:	1e04      	subs	r4, r0, #0
10005df2:	d00e      	beq.n	10005e12 <tud_cdc_n_write_flush+0x9a>
10005df4:	20b2      	movs	r0, #178	; 0xb2
10005df6:	0080      	lsls	r0, r0, #2
10005df8:	4368      	muls	r0, r5
10005dfa:	4d0c      	ldr	r5, [pc, #48]	; (10005e2c <tud_cdc_n_write_flush+0xb4>)
10005dfc:	182d      	adds	r5, r5, r0
10005dfe:	78a9      	ldrb	r1, [r5, #2]
10005e00:	0023      	movs	r3, r4
10005e02:	0032      	movs	r2, r6
10005e04:	2000      	movs	r0, #0
10005e06:	f7ff fb1d 	bl	10005444 <usbd_edpt_xfer>
10005e0a:	2800      	cmp	r0, #0
10005e0c:	d00c      	beq.n	10005e28 <tud_cdc_n_write_flush+0xb0>
10005e0e:	0020      	movs	r0, r4
10005e10:	e7bc      	b.n	10005d8c <tud_cdc_n_write_flush+0x14>
10005e12:	20b2      	movs	r0, #178	; 0xb2
10005e14:	0080      	lsls	r0, r0, #2
10005e16:	4368      	muls	r0, r5
10005e18:	4d04      	ldr	r5, [pc, #16]	; (10005e2c <tud_cdc_n_write_flush+0xb4>)
10005e1a:	182d      	adds	r5, r5, r0
10005e1c:	78a9      	ldrb	r1, [r5, #2]
10005e1e:	2000      	movs	r0, #0
10005e20:	f7ff fafc 	bl	1000541c <usbd_edpt_release>
10005e24:	2000      	movs	r0, #0
10005e26:	e7b1      	b.n	10005d8c <tud_cdc_n_write_flush+0x14>
10005e28:	2000      	movs	r0, #0
10005e2a:	e7af      	b.n	10005d8c <tud_cdc_n_write_flush+0x14>
10005e2c:	20000df0 	.word	0x20000df0

10005e30 <tud_cdc_n_write>:
10005e30:	b570      	push	{r4, r5, r6, lr}
10005e32:	0005      	movs	r5, r0
10005e34:	24b2      	movs	r4, #178	; 0xb2
10005e36:	00a4      	lsls	r4, r4, #2
10005e38:	4344      	muls	r4, r0
10005e3a:	3420      	adds	r4, #32
10005e3c:	4b09      	ldr	r3, [pc, #36]	; (10005e64 <tud_cdc_n_write+0x34>)
10005e3e:	18e4      	adds	r4, r4, r3
10005e40:	3404      	adds	r4, #4
10005e42:	b292      	uxth	r2, r2
10005e44:	0020      	movs	r0, r4
10005e46:	f000 fe13 	bl	10006a70 <tu_fifo_write_n>
10005e4a:	0006      	movs	r6, r0
10005e4c:	0020      	movs	r0, r4
10005e4e:	f000 fd70 	bl	10006932 <tu_fifo_count>
10005e52:	283f      	cmp	r0, #63	; 0x3f
10005e54:	d801      	bhi.n	10005e5a <tud_cdc_n_write+0x2a>
10005e56:	0030      	movs	r0, r6
10005e58:	bd70      	pop	{r4, r5, r6, pc}
10005e5a:	0028      	movs	r0, r5
10005e5c:	f7ff ff8c 	bl	10005d78 <tud_cdc_n_write_flush>
10005e60:	e7f9      	b.n	10005e56 <tud_cdc_n_write+0x26>
10005e62:	46c0      	nop			; (mov r8, r8)
10005e64:	20000df0 	.word	0x20000df0

10005e68 <tud_cdc_n_write_available>:
10005e68:	b510      	push	{r4, lr}
10005e6a:	23b2      	movs	r3, #178	; 0xb2
10005e6c:	009b      	lsls	r3, r3, #2
10005e6e:	4358      	muls	r0, r3
10005e70:	3020      	adds	r0, #32
10005e72:	4b03      	ldr	r3, [pc, #12]	; (10005e80 <tud_cdc_n_write_available+0x18>)
10005e74:	18c0      	adds	r0, r0, r3
10005e76:	3004      	adds	r0, #4
10005e78:	f000 fd8c 	bl	10006994 <tu_fifo_remaining>
10005e7c:	bd10      	pop	{r4, pc}
10005e7e:	46c0      	nop			; (mov r8, r8)
10005e80:	20000df0 	.word	0x20000df0

10005e84 <cdcd_init>:
10005e84:	b5f0      	push	{r4, r5, r6, r7, lr}
10005e86:	46ce      	mov	lr, r9
10005e88:	4647      	mov	r7, r8
10005e8a:	b580      	push	{r7, lr}
10005e8c:	b083      	sub	sp, #12
10005e8e:	22b2      	movs	r2, #178	; 0xb2
10005e90:	0092      	lsls	r2, r2, #2
10005e92:	2100      	movs	r1, #0
10005e94:	4828      	ldr	r0, [pc, #160]	; (10005f38 <cdcd_init+0xb4>)
10005e96:	f7fe f8b9 	bl	1000400c <__wrap_memset>
10005e9a:	2600      	movs	r6, #0
10005e9c:	2e00      	cmp	r6, #0
10005e9e:	d004      	beq.n	10005eaa <cdcd_init+0x26>
10005ea0:	b003      	add	sp, #12
10005ea2:	bcc0      	pop	{r6, r7}
10005ea4:	46b9      	mov	r9, r7
10005ea6:	46b0      	mov	r8, r6
10005ea8:	bdf0      	pop	{r4, r5, r6, r7, pc}
10005eaa:	4f23      	ldr	r7, [pc, #140]	; (10005f38 <cdcd_init+0xb4>)
10005eac:	24b2      	movs	r4, #178	; 0xb2
10005eae:	00a4      	lsls	r4, r4, #2
10005eb0:	4374      	muls	r4, r6
10005eb2:	193d      	adds	r5, r7, r4
10005eb4:	23ff      	movs	r3, #255	; 0xff
10005eb6:	716b      	strb	r3, [r5, #5]
10005eb8:	2300      	movs	r3, #0
10005eba:	4698      	mov	r8, r3
10005ebc:	4a1f      	ldr	r2, [pc, #124]	; (10005f3c <cdcd_init+0xb8>)
10005ebe:	80ea      	strh	r2, [r5, #6]
10005ec0:	2201      	movs	r2, #1
10005ec2:	812a      	strh	r2, [r5, #8]
10005ec4:	72ab      	strb	r3, [r5, #10]
10005ec6:	72eb      	strb	r3, [r5, #11]
10005ec8:	2308      	movs	r3, #8
10005eca:	732b      	strb	r3, [r5, #12]
10005ecc:	0021      	movs	r1, r4
10005ece:	3138      	adds	r1, #56	; 0x38
10005ed0:	19c9      	adds	r1, r1, r7
10005ed2:	33f8      	adds	r3, #248	; 0xf8
10005ed4:	4699      	mov	r9, r3
10005ed6:	0020      	movs	r0, r4
10005ed8:	3010      	adds	r0, #16
10005eda:	19c0      	adds	r0, r0, r7
10005edc:	4643      	mov	r3, r8
10005ede:	9300      	str	r3, [sp, #0]
10005ee0:	3301      	adds	r3, #1
10005ee2:	464a      	mov	r2, r9
10005ee4:	f000 fce7 	bl	100068b6 <tu_fifo_config>
10005ee8:	0021      	movs	r1, r4
10005eea:	3139      	adds	r1, #57	; 0x39
10005eec:	31ff      	adds	r1, #255	; 0xff
10005eee:	19c9      	adds	r1, r1, r7
10005ef0:	0020      	movs	r0, r4
10005ef2:	3020      	adds	r0, #32
10005ef4:	19c0      	adds	r0, r0, r7
10005ef6:	3004      	adds	r0, #4
10005ef8:	2301      	movs	r3, #1
10005efa:	9300      	str	r3, [sp, #0]
10005efc:	464a      	mov	r2, r9
10005efe:	f000 fcda 	bl	100068b6 <tu_fifo_config>
10005f02:	238e      	movs	r3, #142	; 0x8e
10005f04:	009b      	lsls	r3, r3, #2
10005f06:	18e3      	adds	r3, r4, r3
10005f08:	4699      	mov	r9, r3
10005f0a:	44b9      	add	r9, r7
10005f0c:	4648      	mov	r0, r9
10005f0e:	f7fa fe63 	bl	10000bd8 <mutex_init>
10005f12:	4643      	mov	r3, r8
10005f14:	61eb      	str	r3, [r5, #28]
10005f16:	464b      	mov	r3, r9
10005f18:	622b      	str	r3, [r5, #32]
10005f1a:	2390      	movs	r3, #144	; 0x90
10005f1c:	009b      	lsls	r3, r3, #2
10005f1e:	469c      	mov	ip, r3
10005f20:	4464      	add	r4, ip
10005f22:	19e4      	adds	r4, r4, r7
10005f24:	0020      	movs	r0, r4
10005f26:	f7fa fe57 	bl	10000bd8 <mutex_init>
10005f2a:	632c      	str	r4, [r5, #48]	; 0x30
10005f2c:	4643      	mov	r3, r8
10005f2e:	636b      	str	r3, [r5, #52]	; 0x34
10005f30:	3601      	adds	r6, #1
10005f32:	b2f6      	uxtb	r6, r6
10005f34:	e7b2      	b.n	10005e9c <cdcd_init+0x18>
10005f36:	46c0      	nop			; (mov r8, r8)
10005f38:	20000df0 	.word	0x20000df0
10005f3c:	ffffc200 	.word	0xffffc200

10005f40 <cdcd_reset>:
10005f40:	b570      	push	{r4, r5, r6, lr}
10005f42:	2500      	movs	r5, #0
10005f44:	2d00      	cmp	r5, #0
10005f46:	d000      	beq.n	10005f4a <cdcd_reset+0xa>
10005f48:	bd70      	pop	{r4, r5, r6, pc}
10005f4a:	24b2      	movs	r4, #178	; 0xb2
10005f4c:	00a4      	lsls	r4, r4, #2
10005f4e:	436c      	muls	r4, r5
10005f50:	4e0b      	ldr	r6, [pc, #44]	; (10005f80 <cdcd_reset+0x40>)
10005f52:	19a0      	adds	r0, r4, r6
10005f54:	2205      	movs	r2, #5
10005f56:	2100      	movs	r1, #0
10005f58:	f7fe f858 	bl	1000400c <__wrap_memset>
10005f5c:	0020      	movs	r0, r4
10005f5e:	3010      	adds	r0, #16
10005f60:	1980      	adds	r0, r0, r6
10005f62:	f000 fd8a 	bl	10006a7a <tu_fifo_clear>
10005f66:	3420      	adds	r4, #32
10005f68:	19a4      	adds	r4, r4, r6
10005f6a:	3404      	adds	r4, #4
10005f6c:	0020      	movs	r0, r4
10005f6e:	f000 fd84 	bl	10006a7a <tu_fifo_clear>
10005f72:	2101      	movs	r1, #1
10005f74:	0020      	movs	r0, r4
10005f76:	f000 fd9f 	bl	10006ab8 <tu_fifo_set_overwritable>
10005f7a:	3501      	adds	r5, #1
10005f7c:	b2ed      	uxtb	r5, r5
10005f7e:	e7e1      	b.n	10005f44 <cdcd_reset+0x4>
10005f80:	20000df0 	.word	0x20000df0

10005f84 <cdcd_open>:
10005f84:	b5f0      	push	{r4, r5, r6, r7, lr}
10005f86:	b083      	sub	sp, #12
10005f88:	0006      	movs	r6, r0
10005f8a:	794b      	ldrb	r3, [r1, #5]
10005f8c:	2b02      	cmp	r3, #2
10005f8e:	d150      	bne.n	10006032 <cdcd_open+0xae>
10005f90:	798b      	ldrb	r3, [r1, #6]
10005f92:	2b02      	cmp	r3, #2
10005f94:	d151      	bne.n	1000603a <cdcd_open+0xb6>
10005f96:	2300      	movs	r3, #0
10005f98:	2b00      	cmp	r3, #0
10005f9a:	d008      	beq.n	10005fae <cdcd_open+0x2a>
10005f9c:	2700      	movs	r7, #0
10005f9e:	2f00      	cmp	r7, #0
10005fa0:	d04d      	beq.n	1000603e <cdcd_open+0xba>
10005fa2:	788b      	ldrb	r3, [r1, #2]
10005fa4:	703b      	strb	r3, [r7, #0]
10005fa6:	780c      	ldrb	r4, [r1, #0]
10005fa8:	190c      	adds	r4, r1, r4
10005faa:	2509      	movs	r5, #9
10005fac:	e011      	b.n	10005fd2 <cdcd_open+0x4e>
10005fae:	24b2      	movs	r4, #178	; 0xb2
10005fb0:	00a4      	lsls	r4, r4, #2
10005fb2:	435c      	muls	r4, r3
10005fb4:	4825      	ldr	r0, [pc, #148]	; (1000604c <cdcd_open+0xc8>)
10005fb6:	1900      	adds	r0, r0, r4
10005fb8:	7880      	ldrb	r0, [r0, #2]
10005fba:	2800      	cmp	r0, #0
10005fbc:	d002      	beq.n	10005fc4 <cdcd_open+0x40>
10005fbe:	3301      	adds	r3, #1
10005fc0:	b2db      	uxtb	r3, r3
10005fc2:	e7e9      	b.n	10005f98 <cdcd_open+0x14>
10005fc4:	4f21      	ldr	r7, [pc, #132]	; (1000604c <cdcd_open+0xc8>)
10005fc6:	19e7      	adds	r7, r4, r7
10005fc8:	e7e9      	b.n	10005f9e <cdcd_open+0x1a>
10005fca:	7821      	ldrb	r1, [r4, #0]
10005fcc:	194d      	adds	r5, r1, r5
10005fce:	b2ad      	uxth	r5, r5
10005fd0:	1864      	adds	r4, r4, r1
10005fd2:	7863      	ldrb	r3, [r4, #1]
10005fd4:	2b24      	cmp	r3, #36	; 0x24
10005fd6:	d101      	bne.n	10005fdc <cdcd_open+0x58>
10005fd8:	4295      	cmp	r5, r2
10005fda:	d9f6      	bls.n	10005fca <cdcd_open+0x46>
10005fdc:	2b05      	cmp	r3, #5
10005fde:	d009      	beq.n	10005ff4 <cdcd_open+0x70>
10005fe0:	7863      	ldrb	r3, [r4, #1]
10005fe2:	2b04      	cmp	r3, #4
10005fe4:	d102      	bne.n	10005fec <cdcd_open+0x68>
10005fe6:	7963      	ldrb	r3, [r4, #5]
10005fe8:	2b0a      	cmp	r3, #10
10005fea:	d010      	beq.n	1000600e <cdcd_open+0x8a>
10005fec:	0038      	movs	r0, r7
10005fee:	f7ff fe5b 	bl	10005ca8 <_prep_out_transaction>
10005ff2:	e01f      	b.n	10006034 <cdcd_open+0xb0>
10005ff4:	0021      	movs	r1, r4
10005ff6:	0030      	movs	r0, r6
10005ff8:	f7ff f9b0 	bl	1000535c <usbd_edpt_open>
10005ffc:	2800      	cmp	r0, #0
10005ffe:	d020      	beq.n	10006042 <cdcd_open+0xbe>
10006000:	78a3      	ldrb	r3, [r4, #2]
10006002:	707b      	strb	r3, [r7, #1]
10006004:	7822      	ldrb	r2, [r4, #0]
10006006:	1955      	adds	r5, r2, r5
10006008:	b2ad      	uxth	r5, r5
1000600a:	18a4      	adds	r4, r4, r2
1000600c:	e7e8      	b.n	10005fe0 <cdcd_open+0x5c>
1000600e:	7821      	ldrb	r1, [r4, #0]
10006010:	194d      	adds	r5, r1, r5
10006012:	b2ad      	uxth	r5, r5
10006014:	1861      	adds	r1, r4, r1
10006016:	1cbb      	adds	r3, r7, #2
10006018:	9301      	str	r3, [sp, #4]
1000601a:	1cfb      	adds	r3, r7, #3
1000601c:	9300      	str	r3, [sp, #0]
1000601e:	2302      	movs	r3, #2
10006020:	2202      	movs	r2, #2
10006022:	0030      	movs	r0, r6
10006024:	f7ff f9b4 	bl	10005390 <usbd_open_edpt_pair>
10006028:	2800      	cmp	r0, #0
1000602a:	d00c      	beq.n	10006046 <cdcd_open+0xc2>
1000602c:	350e      	adds	r5, #14
1000602e:	b2ad      	uxth	r5, r5
10006030:	e7dc      	b.n	10005fec <cdcd_open+0x68>
10006032:	2500      	movs	r5, #0
10006034:	0028      	movs	r0, r5
10006036:	b003      	add	sp, #12
10006038:	bdf0      	pop	{r4, r5, r6, r7, pc}
1000603a:	2500      	movs	r5, #0
1000603c:	e7fa      	b.n	10006034 <cdcd_open+0xb0>
1000603e:	2500      	movs	r5, #0
10006040:	e7f8      	b.n	10006034 <cdcd_open+0xb0>
10006042:	2500      	movs	r5, #0
10006044:	e7f6      	b.n	10006034 <cdcd_open+0xb0>
10006046:	2500      	movs	r5, #0
10006048:	e7f4      	b.n	10006034 <cdcd_open+0xb0>
1000604a:	46c0      	nop			; (mov r8, r8)
1000604c:	20000df0 	.word	0x20000df0

10006050 <cdcd_control_xfer_cb>:
10006050:	b5f8      	push	{r3, r4, r5, r6, r7, lr}
10006052:	0014      	movs	r4, r2
10006054:	7812      	ldrb	r2, [r2, #0]
10006056:	2360      	movs	r3, #96	; 0x60
10006058:	4013      	ands	r3, r2
1000605a:	2b20      	cmp	r3, #32
1000605c:	d000      	beq.n	10006060 <cdcd_control_xfer_cb+0x10>
1000605e:	e07f      	b.n	10006160 <cdcd_control_xfer_cb+0x110>
10006060:	4a44      	ldr	r2, [pc, #272]	; (10006174 <cdcd_control_xfer_cb+0x124>)
10006062:	2500      	movs	r5, #0
10006064:	2d00      	cmp	r5, #0
10006066:	d000      	beq.n	1000606a <cdcd_control_xfer_cb+0x1a>
10006068:	e07c      	b.n	10006164 <cdcd_control_xfer_cb+0x114>
1000606a:	7816      	ldrb	r6, [r2, #0]
1000606c:	7927      	ldrb	r7, [r4, #4]
1000606e:	7963      	ldrb	r3, [r4, #5]
10006070:	021b      	lsls	r3, r3, #8
10006072:	433b      	orrs	r3, r7
10006074:	429e      	cmp	r6, r3
10006076:	d006      	beq.n	10006086 <cdcd_control_xfer_cb+0x36>
10006078:	3501      	adds	r5, #1
1000607a:	b2ed      	uxtb	r5, r5
1000607c:	23b2      	movs	r3, #178	; 0xb2
1000607e:	009b      	lsls	r3, r3, #2
10006080:	469c      	mov	ip, r3
10006082:	4462      	add	r2, ip
10006084:	e7ee      	b.n	10006064 <cdcd_control_xfer_cb+0x14>
10006086:	7863      	ldrb	r3, [r4, #1]
10006088:	2b22      	cmp	r3, #34	; 0x22
1000608a:	d031      	beq.n	100060f0 <cdcd_control_xfer_cb+0xa0>
1000608c:	d809      	bhi.n	100060a2 <cdcd_control_xfer_cb+0x52>
1000608e:	2b20      	cmp	r3, #32
10006090:	d011      	beq.n	100060b6 <cdcd_control_xfer_cb+0x66>
10006092:	2b21      	cmp	r3, #33	; 0x21
10006094:	d103      	bne.n	1000609e <cdcd_control_xfer_cb+0x4e>
10006096:	2901      	cmp	r1, #1
10006098:	d023      	beq.n	100060e2 <cdcd_control_xfer_cb+0x92>
1000609a:	2001      	movs	r0, #1
1000609c:	e061      	b.n	10006162 <cdcd_control_xfer_cb+0x112>
1000609e:	2000      	movs	r0, #0
100060a0:	e05f      	b.n	10006162 <cdcd_control_xfer_cb+0x112>
100060a2:	2b23      	cmp	r3, #35	; 0x23
100060a4:	d105      	bne.n	100060b2 <cdcd_control_xfer_cb+0x62>
100060a6:	2901      	cmp	r1, #1
100060a8:	d049      	beq.n	1000613e <cdcd_control_xfer_cb+0xee>
100060aa:	2903      	cmp	r1, #3
100060ac:	d04c      	beq.n	10006148 <cdcd_control_xfer_cb+0xf8>
100060ae:	2001      	movs	r0, #1
100060b0:	e057      	b.n	10006162 <cdcd_control_xfer_cb+0x112>
100060b2:	2000      	movs	r0, #0
100060b4:	e055      	b.n	10006162 <cdcd_control_xfer_cb+0x112>
100060b6:	2901      	cmp	r1, #1
100060b8:	d003      	beq.n	100060c2 <cdcd_control_xfer_cb+0x72>
100060ba:	2903      	cmp	r1, #3
100060bc:	d008      	beq.n	100060d0 <cdcd_control_xfer_cb+0x80>
100060be:	2001      	movs	r0, #1
100060c0:	e04f      	b.n	10006162 <cdcd_control_xfer_cb+0x112>
100060c2:	3206      	adds	r2, #6
100060c4:	2307      	movs	r3, #7
100060c6:	0021      	movs	r1, r4
100060c8:	f7ff fd30 	bl	10005b2c <tud_control_xfer>
100060cc:	2001      	movs	r0, #1
100060ce:	e048      	b.n	10006162 <cdcd_control_xfer_cb+0x112>
100060d0:	4b29      	ldr	r3, [pc, #164]	; (10006178 <cdcd_control_xfer_cb+0x128>)
100060d2:	2b00      	cmp	r3, #0
100060d4:	d048      	beq.n	10006168 <cdcd_control_xfer_cb+0x118>
100060d6:	1d91      	adds	r1, r2, #6
100060d8:	0028      	movs	r0, r5
100060da:	f7fe fa77 	bl	100045cc <tud_cdc_line_coding_cb>
100060de:	2001      	movs	r0, #1
100060e0:	e03f      	b.n	10006162 <cdcd_control_xfer_cb+0x112>
100060e2:	3206      	adds	r2, #6
100060e4:	2307      	movs	r3, #7
100060e6:	0021      	movs	r1, r4
100060e8:	f7ff fd20 	bl	10005b2c <tud_control_xfer>
100060ec:	2001      	movs	r0, #1
100060ee:	e038      	b.n	10006162 <cdcd_control_xfer_cb+0x112>
100060f0:	2901      	cmp	r1, #1
100060f2:	d003      	beq.n	100060fc <cdcd_control_xfer_cb+0xac>
100060f4:	2903      	cmp	r1, #3
100060f6:	d006      	beq.n	10006106 <cdcd_control_xfer_cb+0xb6>
100060f8:	2001      	movs	r0, #1
100060fa:	e032      	b.n	10006162 <cdcd_control_xfer_cb+0x112>
100060fc:	0021      	movs	r1, r4
100060fe:	f7ff fcf9 	bl	10005af4 <tud_control_status>
10006102:	2001      	movs	r0, #1
10006104:	e02d      	b.n	10006162 <cdcd_control_xfer_cb+0x112>
10006106:	78a1      	ldrb	r1, [r4, #2]
10006108:	78e3      	ldrb	r3, [r4, #3]
1000610a:	021b      	lsls	r3, r3, #8
1000610c:	430b      	orrs	r3, r1
1000610e:	2001      	movs	r0, #1
10006110:	0019      	movs	r1, r3
10006112:	4001      	ands	r1, r0
10006114:	000e      	movs	r6, r1
10006116:	085c      	lsrs	r4, r3, #1
10006118:	4004      	ands	r4, r0
1000611a:	7113      	strb	r3, [r2, #4]
1000611c:	424b      	negs	r3, r1
1000611e:	4159      	adcs	r1, r3
10006120:	b2c9      	uxtb	r1, r1
10006122:	3224      	adds	r2, #36	; 0x24
10006124:	0010      	movs	r0, r2
10006126:	f000 fcc7 	bl	10006ab8 <tu_fifo_set_overwritable>
1000612a:	4b14      	ldr	r3, [pc, #80]	; (1000617c <cdcd_control_xfer_cb+0x12c>)
1000612c:	2b00      	cmp	r3, #0
1000612e:	d01d      	beq.n	1000616c <cdcd_control_xfer_cb+0x11c>
10006130:	0022      	movs	r2, r4
10006132:	0031      	movs	r1, r6
10006134:	0028      	movs	r0, r5
10006136:	e000      	b.n	1000613a <cdcd_control_xfer_cb+0xea>
10006138:	bf00      	nop
1000613a:	2001      	movs	r0, #1
1000613c:	e011      	b.n	10006162 <cdcd_control_xfer_cb+0x112>
1000613e:	0021      	movs	r1, r4
10006140:	f7ff fcd8 	bl	10005af4 <tud_control_status>
10006144:	2001      	movs	r0, #1
10006146:	e00c      	b.n	10006162 <cdcd_control_xfer_cb+0x112>
10006148:	4b0d      	ldr	r3, [pc, #52]	; (10006180 <cdcd_control_xfer_cb+0x130>)
1000614a:	2b00      	cmp	r3, #0
1000614c:	d010      	beq.n	10006170 <cdcd_control_xfer_cb+0x120>
1000614e:	78a3      	ldrb	r3, [r4, #2]
10006150:	78e1      	ldrb	r1, [r4, #3]
10006152:	0209      	lsls	r1, r1, #8
10006154:	4319      	orrs	r1, r3
10006156:	0028      	movs	r0, r5
10006158:	e000      	b.n	1000615c <cdcd_control_xfer_cb+0x10c>
1000615a:	bf00      	nop
1000615c:	2001      	movs	r0, #1
1000615e:	e000      	b.n	10006162 <cdcd_control_xfer_cb+0x112>
10006160:	2000      	movs	r0, #0
10006162:	bdf8      	pop	{r3, r4, r5, r6, r7, pc}
10006164:	2000      	movs	r0, #0
10006166:	e7fc      	b.n	10006162 <cdcd_control_xfer_cb+0x112>
10006168:	2001      	movs	r0, #1
1000616a:	e7fa      	b.n	10006162 <cdcd_control_xfer_cb+0x112>
1000616c:	2001      	movs	r0, #1
1000616e:	e7f8      	b.n	10006162 <cdcd_control_xfer_cb+0x112>
10006170:	2001      	movs	r0, #1
10006172:	e7f6      	b.n	10006162 <cdcd_control_xfer_cb+0x112>
10006174:	20000df0 	.word	0x20000df0
10006178:	100045cd 	.word	0x100045cd
	...

10006184 <cdcd_xfer_cb>:
10006184:	b5f0      	push	{r4, r5, r6, r7, lr}
10006186:	46d6      	mov	lr, sl
10006188:	b500      	push	{lr}
1000618a:	b082      	sub	sp, #8
1000618c:	9001      	str	r0, [sp, #4]
1000618e:	000f      	movs	r7, r1
10006190:	9300      	str	r3, [sp, #0]
10006192:	2400      	movs	r4, #0
10006194:	2c00      	cmp	r4, #0
10006196:	d00e      	beq.n	100061b6 <cdcd_xfer_cb+0x32>
10006198:	2c00      	cmp	r4, #0
1000619a:	d000      	beq.n	1000619e <cdcd_xfer_cb+0x1a>
1000619c:	e07c      	b.n	10006298 <cdcd_xfer_cb+0x114>
1000619e:	78eb      	ldrb	r3, [r5, #3]
100061a0:	42bb      	cmp	r3, r7
100061a2:	d016      	beq.n	100061d2 <cdcd_xfer_cb+0x4e>
100061a4:	78ab      	ldrb	r3, [r5, #2]
100061a6:	42bb      	cmp	r3, r7
100061a8:	d04d      	beq.n	10006246 <cdcd_xfer_cb+0xc2>
100061aa:	2401      	movs	r4, #1
100061ac:	0020      	movs	r0, r4
100061ae:	b002      	add	sp, #8
100061b0:	bc80      	pop	{r7}
100061b2:	46ba      	mov	sl, r7
100061b4:	bdf0      	pop	{r4, r5, r6, r7, pc}
100061b6:	25b2      	movs	r5, #178	; 0xb2
100061b8:	00ad      	lsls	r5, r5, #2
100061ba:	4365      	muls	r5, r4
100061bc:	4b39      	ldr	r3, [pc, #228]	; (100062a4 <cdcd_xfer_cb+0x120>)
100061be:	18ed      	adds	r5, r5, r3
100061c0:	78eb      	ldrb	r3, [r5, #3]
100061c2:	42bb      	cmp	r3, r7
100061c4:	d0e8      	beq.n	10006198 <cdcd_xfer_cb+0x14>
100061c6:	78ab      	ldrb	r3, [r5, #2]
100061c8:	42bb      	cmp	r3, r7
100061ca:	d0e5      	beq.n	10006198 <cdcd_xfer_cb+0x14>
100061cc:	3401      	adds	r4, #1
100061ce:	b2e4      	uxtb	r4, r4
100061d0:	e7e0      	b.n	10006194 <cdcd_xfer_cb+0x10>
100061d2:	2310      	movs	r3, #16
100061d4:	469a      	mov	sl, r3
100061d6:	44aa      	add	sl, r5
100061d8:	2392      	movs	r3, #146	; 0x92
100061da:	009b      	lsls	r3, r3, #2
100061dc:	18e9      	adds	r1, r5, r3
100061de:	466b      	mov	r3, sp
100061e0:	881a      	ldrh	r2, [r3, #0]
100061e2:	4650      	mov	r0, sl
100061e4:	f000 fc44 	bl	10006a70 <tu_fifo_write_n>
100061e8:	4b2f      	ldr	r3, [pc, #188]	; (100062a8 <cdcd_xfer_cb+0x124>)
100061ea:	2b00      	cmp	r3, #0
100061ec:	d01b      	beq.n	10006226 <cdcd_xfer_cb+0xa2>
100061ee:	796b      	ldrb	r3, [r5, #5]
100061f0:	2bff      	cmp	r3, #255	; 0xff
100061f2:	d018      	beq.n	10006226 <cdcd_xfer_cb+0xa2>
100061f4:	2600      	movs	r6, #0
100061f6:	e000      	b.n	100061fa <cdcd_xfer_cb+0x76>
100061f8:	3601      	adds	r6, #1
100061fa:	9b00      	ldr	r3, [sp, #0]
100061fc:	429e      	cmp	r6, r3
100061fe:	d212      	bcs.n	10006226 <cdcd_xfer_cb+0xa2>
10006200:	796a      	ldrb	r2, [r5, #5]
10006202:	19ab      	adds	r3, r5, r6
10006204:	2192      	movs	r1, #146	; 0x92
10006206:	0089      	lsls	r1, r1, #2
10006208:	468c      	mov	ip, r1
1000620a:	4463      	add	r3, ip
1000620c:	781b      	ldrb	r3, [r3, #0]
1000620e:	429a      	cmp	r2, r3
10006210:	d1f2      	bne.n	100061f8 <cdcd_xfer_cb+0x74>
10006212:	4650      	mov	r0, sl
10006214:	f000 fba2 	bl	1000695c <tu_fifo_empty>
10006218:	2800      	cmp	r0, #0
1000621a:	d1ed      	bne.n	100061f8 <cdcd_xfer_cb+0x74>
1000621c:	7969      	ldrb	r1, [r5, #5]
1000621e:	0020      	movs	r0, r4
10006220:	e000      	b.n	10006224 <cdcd_xfer_cb+0xa0>
10006222:	bf00      	nop
10006224:	e7e8      	b.n	100061f8 <cdcd_xfer_cb+0x74>
10006226:	4b21      	ldr	r3, [pc, #132]	; (100062ac <cdcd_xfer_cb+0x128>)
10006228:	2b00      	cmp	r3, #0
1000622a:	d004      	beq.n	10006236 <cdcd_xfer_cb+0xb2>
1000622c:	4650      	mov	r0, sl
1000622e:	f000 fb95 	bl	1000695c <tu_fifo_empty>
10006232:	2800      	cmp	r0, #0
10006234:	d003      	beq.n	1000623e <cdcd_xfer_cb+0xba>
10006236:	0028      	movs	r0, r5
10006238:	f7ff fd36 	bl	10005ca8 <_prep_out_transaction>
1000623c:	e7b2      	b.n	100061a4 <cdcd_xfer_cb+0x20>
1000623e:	0020      	movs	r0, r4
10006240:	f7fe fa86 	bl	10004750 <tud_cdc_rx_cb>
10006244:	e7f7      	b.n	10006236 <cdcd_xfer_cb+0xb2>
10006246:	4b1a      	ldr	r3, [pc, #104]	; (100062b0 <cdcd_xfer_cb+0x12c>)
10006248:	2b00      	cmp	r3, #0
1000624a:	d002      	beq.n	10006252 <cdcd_xfer_cb+0xce>
1000624c:	0020      	movs	r0, r4
1000624e:	e000      	b.n	10006252 <cdcd_xfer_cb+0xce>
10006250:	bf00      	nop
10006252:	0020      	movs	r0, r4
10006254:	f7ff fd90 	bl	10005d78 <tud_cdc_n_write_flush>
10006258:	2800      	cmp	r0, #0
1000625a:	d001      	beq.n	10006260 <cdcd_xfer_cb+0xdc>
1000625c:	2401      	movs	r4, #1
1000625e:	e7a5      	b.n	100061ac <cdcd_xfer_cb+0x28>
10006260:	0028      	movs	r0, r5
10006262:	3024      	adds	r0, #36	; 0x24
10006264:	f000 fb65 	bl	10006932 <tu_fifo_count>
10006268:	2800      	cmp	r0, #0
1000626a:	d117      	bne.n	1000629c <cdcd_xfer_cb+0x118>
1000626c:	9b00      	ldr	r3, [sp, #0]
1000626e:	2b00      	cmp	r3, #0
10006270:	d016      	beq.n	100062a0 <cdcd_xfer_cb+0x11c>
10006272:	069b      	lsls	r3, r3, #26
10006274:	d001      	beq.n	1000627a <cdcd_xfer_cb+0xf6>
10006276:	2401      	movs	r4, #1
10006278:	e798      	b.n	100061ac <cdcd_xfer_cb+0x28>
1000627a:	78a9      	ldrb	r1, [r5, #2]
1000627c:	9801      	ldr	r0, [sp, #4]
1000627e:	f7ff f8b9 	bl	100053f4 <usbd_edpt_claim>
10006282:	1e04      	subs	r4, r0, #0
10006284:	d101      	bne.n	1000628a <cdcd_xfer_cb+0x106>
10006286:	2401      	movs	r4, #1
10006288:	e790      	b.n	100061ac <cdcd_xfer_cb+0x28>
1000628a:	78a9      	ldrb	r1, [r5, #2]
1000628c:	2300      	movs	r3, #0
1000628e:	2200      	movs	r2, #0
10006290:	9801      	ldr	r0, [sp, #4]
10006292:	f7ff f8d7 	bl	10005444 <usbd_edpt_xfer>
10006296:	e789      	b.n	100061ac <cdcd_xfer_cb+0x28>
10006298:	2400      	movs	r4, #0
1000629a:	e787      	b.n	100061ac <cdcd_xfer_cb+0x28>
1000629c:	2401      	movs	r4, #1
1000629e:	e785      	b.n	100061ac <cdcd_xfer_cb+0x28>
100062a0:	2401      	movs	r4, #1
100062a2:	e783      	b.n	100061ac <cdcd_xfer_cb+0x28>
100062a4:	20000df0 	.word	0x20000df0
100062a8:	00000000 	.word	0x00000000
100062ac:	10004751 	.word	0x10004751
100062b0:	00000000 	.word	0x00000000

100062b4 <tusb_init>:
100062b4:	b510      	push	{r4, lr}
100062b6:	2000      	movs	r0, #0
100062b8:	f7fe ffd4 	bl	10005264 <tud_init>
100062bc:	bd10      	pop	{r4, pc}

100062be <tusb_inited>:
100062be:	b510      	push	{r4, lr}
100062c0:	f7fe ffc6 	bl	10005250 <tud_inited>
100062c4:	2800      	cmp	r0, #0
100062c6:	d000      	beq.n	100062ca <tusb_inited+0xc>
100062c8:	2001      	movs	r0, #1
100062ca:	bd10      	pop	{r4, pc}

100062cc <tu_edpt_claim>:
100062cc:	b570      	push	{r4, r5, r6, lr}
100062ce:	0004      	movs	r4, r0
100062d0:	000d      	movs	r5, r1
100062d2:	7803      	ldrb	r3, [r0, #0]
100062d4:	07db      	lsls	r3, r3, #31
100062d6:	0fde      	lsrs	r6, r3, #31
100062d8:	2b00      	cmp	r3, #0
100062da:	d11c      	bne.n	10006316 <tu_edpt_claim+0x4a>
100062dc:	7803      	ldrb	r3, [r0, #0]
100062de:	075b      	lsls	r3, r3, #29
100062e0:	d41a      	bmi.n	10006318 <tu_edpt_claim+0x4c>
100062e2:	2101      	movs	r1, #1
100062e4:	4249      	negs	r1, r1
100062e6:	0028      	movs	r0, r5
100062e8:	f000 fc72 	bl	10006bd0 <__mutex_enter_timeout_ms_veneer>
100062ec:	7823      	ldrb	r3, [r4, #0]
100062ee:	07db      	lsls	r3, r3, #31
100062f0:	d404      	bmi.n	100062fc <tu_edpt_claim+0x30>
100062f2:	7823      	ldrb	r3, [r4, #0]
100062f4:	075b      	lsls	r3, r3, #29
100062f6:	d50c      	bpl.n	10006312 <tu_edpt_claim+0x46>
100062f8:	2600      	movs	r6, #0
100062fa:	e000      	b.n	100062fe <tu_edpt_claim+0x32>
100062fc:	2600      	movs	r6, #0
100062fe:	2e00      	cmp	r6, #0
10006300:	d003      	beq.n	1000630a <tu_edpt_claim+0x3e>
10006302:	7823      	ldrb	r3, [r4, #0]
10006304:	2204      	movs	r2, #4
10006306:	4313      	orrs	r3, r2
10006308:	7023      	strb	r3, [r4, #0]
1000630a:	0028      	movs	r0, r5
1000630c:	f000 fc38 	bl	10006b80 <__mutex_exit_veneer>
10006310:	e002      	b.n	10006318 <tu_edpt_claim+0x4c>
10006312:	2601      	movs	r6, #1
10006314:	e7f3      	b.n	100062fe <tu_edpt_claim+0x32>
10006316:	2600      	movs	r6, #0
10006318:	0030      	movs	r0, r6
1000631a:	bd70      	pop	{r4, r5, r6, pc}

1000631c <tu_edpt_release>:
1000631c:	b570      	push	{r4, r5, r6, lr}
1000631e:	0004      	movs	r4, r0
10006320:	000e      	movs	r6, r1
10006322:	2101      	movs	r1, #1
10006324:	4249      	negs	r1, r1
10006326:	0030      	movs	r0, r6
10006328:	f000 fc52 	bl	10006bd0 <__mutex_enter_timeout_ms_veneer>
1000632c:	7823      	ldrb	r3, [r4, #0]
1000632e:	075b      	lsls	r3, r3, #29
10006330:	d40b      	bmi.n	1000634a <tu_edpt_release+0x2e>
10006332:	2500      	movs	r5, #0
10006334:	2d00      	cmp	r5, #0
10006336:	d003      	beq.n	10006340 <tu_edpt_release+0x24>
10006338:	7823      	ldrb	r3, [r4, #0]
1000633a:	2204      	movs	r2, #4
1000633c:	4393      	bics	r3, r2
1000633e:	7023      	strb	r3, [r4, #0]
10006340:	0030      	movs	r0, r6
10006342:	f000 fc1d 	bl	10006b80 <__mutex_exit_veneer>
10006346:	0028      	movs	r0, r5
10006348:	bd70      	pop	{r4, r5, r6, pc}
1000634a:	7823      	ldrb	r3, [r4, #0]
1000634c:	07db      	lsls	r3, r3, #31
1000634e:	d501      	bpl.n	10006354 <tu_edpt_release+0x38>
10006350:	2500      	movs	r5, #0
10006352:	e7ef      	b.n	10006334 <tu_edpt_release+0x18>
10006354:	2501      	movs	r5, #1
10006356:	e7ed      	b.n	10006334 <tu_edpt_release+0x18>

10006358 <tu_edpt_validate>:
10006358:	b510      	push	{r4, lr}
1000635a:	7904      	ldrb	r4, [r0, #4]
1000635c:	7943      	ldrb	r3, [r0, #5]
1000635e:	021b      	lsls	r3, r3, #8
10006360:	4323      	orrs	r3, r4
10006362:	055b      	lsls	r3, r3, #21
10006364:	0d5b      	lsrs	r3, r3, #21
10006366:	78c2      	ldrb	r2, [r0, #3]
10006368:	0792      	lsls	r2, r2, #30
1000636a:	0f92      	lsrs	r2, r2, #30
1000636c:	2a02      	cmp	r2, #2
1000636e:	d00f      	beq.n	10006390 <tu_edpt_validate+0x38>
10006370:	2a03      	cmp	r2, #3
10006372:	d019      	beq.n	100063a8 <tu_edpt_validate+0x50>
10006374:	2a01      	cmp	r2, #1
10006376:	d001      	beq.n	1000637c <tu_edpt_validate+0x24>
10006378:	2000      	movs	r0, #0
1000637a:	bd10      	pop	{r4, pc}
1000637c:	2902      	cmp	r1, #2
1000637e:	d004      	beq.n	1000638a <tu_edpt_validate+0x32>
10006380:	4a12      	ldr	r2, [pc, #72]	; (100063cc <tu_edpt_validate+0x74>)
10006382:	429a      	cmp	r2, r3
10006384:	d31a      	bcc.n	100063bc <tu_edpt_validate+0x64>
10006386:	2001      	movs	r0, #1
10006388:	e7f7      	b.n	1000637a <tu_edpt_validate+0x22>
1000638a:	2280      	movs	r2, #128	; 0x80
1000638c:	00d2      	lsls	r2, r2, #3
1000638e:	e7f8      	b.n	10006382 <tu_edpt_validate+0x2a>
10006390:	2902      	cmp	r1, #2
10006392:	d003      	beq.n	1000639c <tu_edpt_validate+0x44>
10006394:	2b40      	cmp	r3, #64	; 0x40
10006396:	d815      	bhi.n	100063c4 <tu_edpt_validate+0x6c>
10006398:	2001      	movs	r0, #1
1000639a:	e7ee      	b.n	1000637a <tu_edpt_validate+0x22>
1000639c:	2280      	movs	r2, #128	; 0x80
1000639e:	0092      	lsls	r2, r2, #2
100063a0:	4293      	cmp	r3, r2
100063a2:	d10d      	bne.n	100063c0 <tu_edpt_validate+0x68>
100063a4:	2001      	movs	r0, #1
100063a6:	e7e8      	b.n	1000637a <tu_edpt_validate+0x22>
100063a8:	2902      	cmp	r1, #2
100063aa:	d004      	beq.n	100063b6 <tu_edpt_validate+0x5e>
100063ac:	2240      	movs	r2, #64	; 0x40
100063ae:	429a      	cmp	r2, r3
100063b0:	d30a      	bcc.n	100063c8 <tu_edpt_validate+0x70>
100063b2:	2001      	movs	r0, #1
100063b4:	e7e1      	b.n	1000637a <tu_edpt_validate+0x22>
100063b6:	2280      	movs	r2, #128	; 0x80
100063b8:	00d2      	lsls	r2, r2, #3
100063ba:	e7f8      	b.n	100063ae <tu_edpt_validate+0x56>
100063bc:	2000      	movs	r0, #0
100063be:	e7dc      	b.n	1000637a <tu_edpt_validate+0x22>
100063c0:	2000      	movs	r0, #0
100063c2:	e7da      	b.n	1000637a <tu_edpt_validate+0x22>
100063c4:	2000      	movs	r0, #0
100063c6:	e7d8      	b.n	1000637a <tu_edpt_validate+0x22>
100063c8:	2000      	movs	r0, #0
100063ca:	e7d6      	b.n	1000637a <tu_edpt_validate+0x22>
100063cc:	000003ff 	.word	0x000003ff

100063d0 <tu_edpt_bind_driver>:
100063d0:	b530      	push	{r4, r5, lr}
100063d2:	188a      	adds	r2, r1, r2
100063d4:	e001      	b.n	100063da <tu_edpt_bind_driver+0xa>
100063d6:	780c      	ldrb	r4, [r1, #0]
100063d8:	1909      	adds	r1, r1, r4
100063da:	4291      	cmp	r1, r2
100063dc:	d20a      	bcs.n	100063f4 <tu_edpt_bind_driver+0x24>
100063de:	784c      	ldrb	r4, [r1, #1]
100063e0:	2c05      	cmp	r4, #5
100063e2:	d1f8      	bne.n	100063d6 <tu_edpt_bind_driver+0x6>
100063e4:	788d      	ldrb	r5, [r1, #2]
100063e6:	347a      	adds	r4, #122	; 0x7a
100063e8:	402c      	ands	r4, r5
100063ea:	0064      	lsls	r4, r4, #1
100063ec:	1904      	adds	r4, r0, r4
100063ee:	09ed      	lsrs	r5, r5, #7
100063f0:	5563      	strb	r3, [r4, r5]
100063f2:	e7f0      	b.n	100063d6 <tu_edpt_bind_driver+0x6>
100063f4:	bd30      	pop	{r4, r5, pc}

100063f6 <advance_index>:
100063f6:	0003      	movs	r3, r0
100063f8:	188a      	adds	r2, r1, r2
100063fa:	b290      	uxth	r0, r2
100063fc:	4281      	cmp	r1, r0
100063fe:	d802      	bhi.n	10006406 <advance_index+0x10>
10006400:	005a      	lsls	r2, r3, #1
10006402:	4290      	cmp	r0, r2
10006404:	db03      	blt.n	1000640e <advance_index+0x18>
10006406:	005b      	lsls	r3, r3, #1
10006408:	b29b      	uxth	r3, r3
1000640a:	1ac0      	subs	r0, r0, r3
1000640c:	b280      	uxth	r0, r0
1000640e:	4770      	bx	lr

10006410 <_tu_fifo_peek>:
10006410:	b570      	push	{r4, r5, r6, lr}
10006412:	0005      	movs	r5, r0
10006414:	0008      	movs	r0, r1
10006416:	88ac      	ldrh	r4, [r5, #4]
10006418:	429a      	cmp	r2, r3
1000641a:	d30b      	bcc.n	10006434 <_tu_fifo_peek+0x24>
1000641c:	1ad1      	subs	r1, r2, r3
1000641e:	b289      	uxth	r1, r1
10006420:	2900      	cmp	r1, #0
10006422:	d01e      	beq.n	10006462 <_tu_fifo_peek+0x52>
10006424:	428c      	cmp	r4, r1
10006426:	d210      	bcs.n	1000644a <_tu_fifo_peek+0x3a>
10006428:	4294      	cmp	r4, r2
1000642a:	d809      	bhi.n	10006440 <_tu_fifo_peek+0x30>
1000642c:	1b13      	subs	r3, r2, r4
1000642e:	b29b      	uxth	r3, r3
10006430:	816b      	strh	r3, [r5, #10]
10006432:	e00a      	b.n	1000644a <_tu_fifo_peek+0x3a>
10006434:	1ad1      	subs	r1, r2, r3
10006436:	b289      	uxth	r1, r1
10006438:	0066      	lsls	r6, r4, #1
1000643a:	1989      	adds	r1, r1, r6
1000643c:	b289      	uxth	r1, r1
1000643e:	e7ef      	b.n	10006420 <_tu_fifo_peek+0x10>
10006440:	18a2      	adds	r2, r4, r2
10006442:	b293      	uxth	r3, r2
10006444:	e7f4      	b.n	10006430 <_tu_fifo_peek+0x20>
10006446:	1b1b      	subs	r3, r3, r4
10006448:	b29b      	uxth	r3, r3
1000644a:	429c      	cmp	r4, r3
1000644c:	d9fb      	bls.n	10006446 <_tu_fifo_peek+0x36>
1000644e:	6829      	ldr	r1, [r5, #0]
10006450:	88ea      	ldrh	r2, [r5, #6]
10006452:	0452      	lsls	r2, r2, #17
10006454:	0c52      	lsrs	r2, r2, #17
10006456:	4353      	muls	r3, r2
10006458:	18c9      	adds	r1, r1, r3
1000645a:	f7fd fddd 	bl	10004018 <__wrap___aeabi_memcpy>
1000645e:	2001      	movs	r0, #1
10006460:	bd70      	pop	{r4, r5, r6, pc}
10006462:	2000      	movs	r0, #0
10006464:	e7fc      	b.n	10006460 <_tu_fifo_peek+0x50>

10006466 <_ff_pull_const_addr>:
10006466:	b5f0      	push	{r4, r5, r6, r7, lr}
10006468:	b083      	sub	sp, #12
1000646a:	0006      	movs	r6, r0
1000646c:	0893      	lsrs	r3, r2, #2
1000646e:	e00c      	b.n	1000648a <_ff_pull_const_addr+0x24>
10006470:	780b      	ldrb	r3, [r1, #0]
10006472:	784d      	ldrb	r5, [r1, #1]
10006474:	022d      	lsls	r5, r5, #8
10006476:	431d      	orrs	r5, r3
10006478:	788c      	ldrb	r4, [r1, #2]
1000647a:	0424      	lsls	r4, r4, #16
1000647c:	4325      	orrs	r5, r4
1000647e:	78cb      	ldrb	r3, [r1, #3]
10006480:	061b      	lsls	r3, r3, #24
10006482:	432b      	orrs	r3, r5
10006484:	6033      	str	r3, [r6, #0]
10006486:	3104      	adds	r1, #4
10006488:	003b      	movs	r3, r7
1000648a:	1e5f      	subs	r7, r3, #1
1000648c:	b2bf      	uxth	r7, r7
1000648e:	2b00      	cmp	r3, #0
10006490:	d1ee      	bne.n	10006470 <_ff_pull_const_addr+0xa>
10006492:	3303      	adds	r3, #3
10006494:	0010      	movs	r0, r2
10006496:	4018      	ands	r0, r3
10006498:	421a      	tst	r2, r3
1000649a:	d101      	bne.n	100064a0 <_ff_pull_const_addr+0x3a>
1000649c:	b003      	add	sp, #12
1000649e:	bdf0      	pop	{r4, r5, r6, r7, pc}
100064a0:	2300      	movs	r3, #0
100064a2:	9301      	str	r3, [sp, #4]
100064a4:	0002      	movs	r2, r0
100064a6:	a801      	add	r0, sp, #4
100064a8:	f7fd fdb6 	bl	10004018 <__wrap___aeabi_memcpy>
100064ac:	9b01      	ldr	r3, [sp, #4]
100064ae:	6033      	str	r3, [r6, #0]
100064b0:	e7f4      	b.n	1000649c <_ff_pull_const_addr+0x36>

100064b2 <_ff_pull_n>:
100064b2:	b5f0      	push	{r4, r5, r6, r7, lr}
100064b4:	46de      	mov	lr, fp
100064b6:	4657      	mov	r7, sl
100064b8:	464e      	mov	r6, r9
100064ba:	4645      	mov	r5, r8
100064bc:	b5e0      	push	{r5, r6, r7, lr}
100064be:	b083      	sub	sp, #12
100064c0:	0005      	movs	r5, r0
100064c2:	468a      	mov	sl, r1
100064c4:	a90c      	add	r1, sp, #48	; 0x30
100064c6:	7809      	ldrb	r1, [r1, #0]
100064c8:	8884      	ldrh	r4, [r0, #4]
100064ca:	1ae0      	subs	r0, r4, r3
100064cc:	b280      	uxth	r0, r0
100064ce:	1b1c      	subs	r4, r3, r4
100064d0:	1914      	adds	r4, r2, r4
100064d2:	b2a4      	uxth	r4, r4
100064d4:	88ef      	ldrh	r7, [r5, #6]
100064d6:	047f      	lsls	r7, r7, #17
100064d8:	0c7e      	lsrs	r6, r7, #17
100064da:	0007      	movs	r7, r0
100064dc:	4377      	muls	r7, r6
100064de:	b2bf      	uxth	r7, r7
100064e0:	4374      	muls	r4, r6
100064e2:	b2a4      	uxth	r4, r4
100064e4:	46a3      	mov	fp, r4
100064e6:	4373      	muls	r3, r6
100064e8:	682c      	ldr	r4, [r5, #0]
100064ea:	46a0      	mov	r8, r4
100064ec:	4498      	add	r8, r3
100064ee:	2900      	cmp	r1, #0
100064f0:	d008      	beq.n	10006504 <_ff_pull_n+0x52>
100064f2:	2901      	cmp	r1, #1
100064f4:	d01a      	beq.n	1000652c <_ff_pull_n+0x7a>
100064f6:	b003      	add	sp, #12
100064f8:	bcf0      	pop	{r4, r5, r6, r7}
100064fa:	46bb      	mov	fp, r7
100064fc:	46b2      	mov	sl, r6
100064fe:	46a9      	mov	r9, r5
10006500:	46a0      	mov	r8, r4
10006502:	bdf0      	pop	{r4, r5, r6, r7, pc}
10006504:	4290      	cmp	r0, r2
10006506:	d305      	bcc.n	10006514 <_ff_pull_n+0x62>
10006508:	4372      	muls	r2, r6
1000650a:	4641      	mov	r1, r8
1000650c:	4650      	mov	r0, sl
1000650e:	f7fd fd83 	bl	10004018 <__wrap___aeabi_memcpy>
10006512:	e7f0      	b.n	100064f6 <_ff_pull_n+0x44>
10006514:	003a      	movs	r2, r7
10006516:	4641      	mov	r1, r8
10006518:	4650      	mov	r0, sl
1000651a:	f7fd fd7d 	bl	10004018 <__wrap___aeabi_memcpy>
1000651e:	6829      	ldr	r1, [r5, #0]
10006520:	0038      	movs	r0, r7
10006522:	4450      	add	r0, sl
10006524:	465a      	mov	r2, fp
10006526:	f7fd fd77 	bl	10004018 <__wrap___aeabi_memcpy>
1000652a:	e7e4      	b.n	100064f6 <_ff_pull_n+0x44>
1000652c:	4290      	cmp	r0, r2
1000652e:	d306      	bcc.n	1000653e <_ff_pull_n+0x8c>
10006530:	4372      	muls	r2, r6
10006532:	b292      	uxth	r2, r2
10006534:	4641      	mov	r1, r8
10006536:	4650      	mov	r0, sl
10006538:	f7ff ff95 	bl	10006466 <_ff_pull_const_addr>
1000653c:	e7db      	b.n	100064f6 <_ff_pull_n+0x44>
1000653e:	2303      	movs	r3, #3
10006540:	003a      	movs	r2, r7
10006542:	439a      	bics	r2, r3
10006544:	4691      	mov	r9, r2
10006546:	4641      	mov	r1, r8
10006548:	4650      	mov	r0, sl
1000654a:	f7ff ff8c 	bl	10006466 <_ff_pull_const_addr>
1000654e:	4643      	mov	r3, r8
10006550:	444b      	add	r3, r9
10006552:	2103      	movs	r1, #3
10006554:	003a      	movs	r2, r7
10006556:	400a      	ands	r2, r1
10006558:	420f      	tst	r7, r1
1000655a:	d030      	beq.n	100065be <_ff_pull_n+0x10c>
1000655c:	2104      	movs	r1, #4
1000655e:	1a89      	subs	r1, r1, r2
10006560:	b289      	uxth	r1, r1
10006562:	1c08      	adds	r0, r1, #0
10006564:	4559      	cmp	r1, fp
10006566:	d900      	bls.n	1000656a <_ff_pull_n+0xb8>
10006568:	4658      	mov	r0, fp
1000656a:	b2c7      	uxtb	r7, r0
1000656c:	21ff      	movs	r1, #255	; 0xff
1000656e:	4001      	ands	r1, r0
10006570:	4658      	mov	r0, fp
10006572:	1a44      	subs	r4, r0, r1
10006574:	b2a1      	uxth	r1, r4
10006576:	468b      	mov	fp, r1
10006578:	2100      	movs	r1, #0
1000657a:	9101      	str	r1, [sp, #4]
1000657c:	a801      	add	r0, sp, #4
1000657e:	e004      	b.n	1000658a <_ff_pull_n+0xd8>
10006580:	781a      	ldrb	r2, [r3, #0]
10006582:	7002      	strb	r2, [r0, #0]
10006584:	3001      	adds	r0, #1
10006586:	000a      	movs	r2, r1
10006588:	3301      	adds	r3, #1
1000658a:	1e51      	subs	r1, r2, #1
1000658c:	b2c9      	uxtb	r1, r1
1000658e:	2a00      	cmp	r2, #0
10006590:	d1f6      	bne.n	10006580 <_ff_pull_n+0xce>
10006592:	6829      	ldr	r1, [r5, #0]
10006594:	e004      	b.n	100065a0 <_ff_pull_n+0xee>
10006596:	780a      	ldrb	r2, [r1, #0]
10006598:	7002      	strb	r2, [r0, #0]
1000659a:	3001      	adds	r0, #1
1000659c:	001f      	movs	r7, r3
1000659e:	3101      	adds	r1, #1
100065a0:	1e7b      	subs	r3, r7, #1
100065a2:	b2db      	uxtb	r3, r3
100065a4:	2f00      	cmp	r7, #0
100065a6:	d1f6      	bne.n	10006596 <_ff_pull_n+0xe4>
100065a8:	4653      	mov	r3, sl
100065aa:	9a01      	ldr	r2, [sp, #4]
100065ac:	601a      	str	r2, [r3, #0]
100065ae:	465b      	mov	r3, fp
100065b0:	2b00      	cmp	r3, #0
100065b2:	d0a0      	beq.n	100064f6 <_ff_pull_n+0x44>
100065b4:	465a      	mov	r2, fp
100065b6:	4650      	mov	r0, sl
100065b8:	f7ff ff55 	bl	10006466 <_ff_pull_const_addr>
100065bc:	e79b      	b.n	100064f6 <_ff_pull_n+0x44>
100065be:	6829      	ldr	r1, [r5, #0]
100065c0:	e7f5      	b.n	100065ae <_ff_pull_n+0xfc>

100065c2 <_tu_fifo_peek_n>:
100065c2:	b5f0      	push	{r4, r5, r6, r7, lr}
100065c4:	46c6      	mov	lr, r8
100065c6:	b500      	push	{lr}
100065c8:	b082      	sub	sp, #8
100065ca:	001e      	movs	r6, r3
100065cc:	ab08      	add	r3, sp, #32
100065ce:	881b      	ldrh	r3, [r3, #0]
100065d0:	ac09      	add	r4, sp, #36	; 0x24
100065d2:	7827      	ldrb	r7, [r4, #0]
100065d4:	8884      	ldrh	r4, [r0, #4]
100065d6:	429e      	cmp	r6, r3
100065d8:	d30f      	bcc.n	100065fa <_tu_fifo_peek_n+0x38>
100065da:	1af5      	subs	r5, r6, r3
100065dc:	b2ad      	uxth	r5, r5
100065de:	2d00      	cmp	r5, #0
100065e0:	d01f      	beq.n	10006622 <_tu_fifo_peek_n+0x60>
100065e2:	42ac      	cmp	r4, r5
100065e4:	d205      	bcs.n	100065f2 <_tu_fifo_peek_n+0x30>
100065e6:	42b4      	cmp	r4, r6
100065e8:	d810      	bhi.n	1000660c <_tu_fifo_peek_n+0x4a>
100065ea:	1b33      	subs	r3, r6, r4
100065ec:	b29b      	uxth	r3, r3
100065ee:	8143      	strh	r3, [r0, #10]
100065f0:	0025      	movs	r5, r4
100065f2:	4295      	cmp	r5, r2
100065f4:	d30f      	bcc.n	10006616 <_tu_fifo_peek_n+0x54>
100065f6:	0015      	movs	r5, r2
100065f8:	e00d      	b.n	10006616 <_tu_fifo_peek_n+0x54>
100065fa:	1af5      	subs	r5, r6, r3
100065fc:	b2ad      	uxth	r5, r5
100065fe:	46a8      	mov	r8, r5
10006600:	0065      	lsls	r5, r4, #1
10006602:	46ac      	mov	ip, r5
10006604:	4645      	mov	r5, r8
10006606:	4465      	add	r5, ip
10006608:	b2ad      	uxth	r5, r5
1000660a:	e7e8      	b.n	100065de <_tu_fifo_peek_n+0x1c>
1000660c:	19a6      	adds	r6, r4, r6
1000660e:	b2b3      	uxth	r3, r6
10006610:	e7ed      	b.n	100065ee <_tu_fifo_peek_n+0x2c>
10006612:	1b1b      	subs	r3, r3, r4
10006614:	b29b      	uxth	r3, r3
10006616:	429c      	cmp	r4, r3
10006618:	d9fb      	bls.n	10006612 <_tu_fifo_peek_n+0x50>
1000661a:	9700      	str	r7, [sp, #0]
1000661c:	002a      	movs	r2, r5
1000661e:	f7ff ff48 	bl	100064b2 <_ff_pull_n>
10006622:	0028      	movs	r0, r5
10006624:	b002      	add	sp, #8
10006626:	bc80      	pop	{r7}
10006628:	46b8      	mov	r8, r7
1000662a:	bdf0      	pop	{r4, r5, r6, r7, pc}

1000662c <_tu_fifo_read_n>:
1000662c:	b5f0      	push	{r4, r5, r6, r7, lr}
1000662e:	b083      	sub	sp, #12
10006630:	0004      	movs	r4, r0
10006632:	000d      	movs	r5, r1
10006634:	0016      	movs	r6, r2
10006636:	001f      	movs	r7, r3
10006638:	6900      	ldr	r0, [r0, #16]
1000663a:	2800      	cmp	r0, #0
1000663c:	d003      	beq.n	10006646 <_tu_fifo_read_n+0x1a>
1000663e:	2101      	movs	r1, #1
10006640:	4249      	negs	r1, r1
10006642:	f000 fac5 	bl	10006bd0 <__mutex_enter_timeout_ms_veneer>
10006646:	8923      	ldrh	r3, [r4, #8]
10006648:	b29b      	uxth	r3, r3
1000664a:	8962      	ldrh	r2, [r4, #10]
1000664c:	9701      	str	r7, [sp, #4]
1000664e:	9200      	str	r2, [sp, #0]
10006650:	0032      	movs	r2, r6
10006652:	0029      	movs	r1, r5
10006654:	0020      	movs	r0, r4
10006656:	f7ff ffb4 	bl	100065c2 <_tu_fifo_peek_n>
1000665a:	0005      	movs	r5, r0
1000665c:	8961      	ldrh	r1, [r4, #10]
1000665e:	b289      	uxth	r1, r1
10006660:	88a0      	ldrh	r0, [r4, #4]
10006662:	002a      	movs	r2, r5
10006664:	f7ff fec7 	bl	100063f6 <advance_index>
10006668:	8160      	strh	r0, [r4, #10]
1000666a:	6920      	ldr	r0, [r4, #16]
1000666c:	2800      	cmp	r0, #0
1000666e:	d001      	beq.n	10006674 <_tu_fifo_read_n+0x48>
10006670:	f000 fa86 	bl	10006b80 <__mutex_exit_veneer>
10006674:	0028      	movs	r0, r5
10006676:	b003      	add	sp, #12
10006678:	bdf0      	pop	{r4, r5, r6, r7, pc}

1000667a <_ff_push_const_addr>:
1000667a:	b570      	push	{r4, r5, r6, lr}
1000667c:	b082      	sub	sp, #8
1000667e:	0016      	movs	r6, r2
10006680:	0895      	lsrs	r5, r2, #2
10006682:	e009      	b.n	10006698 <_ff_push_const_addr+0x1e>
10006684:	680b      	ldr	r3, [r1, #0]
10006686:	7003      	strb	r3, [r0, #0]
10006688:	0a1d      	lsrs	r5, r3, #8
1000668a:	7045      	strb	r5, [r0, #1]
1000668c:	0c1d      	lsrs	r5, r3, #16
1000668e:	7085      	strb	r5, [r0, #2]
10006690:	0e1b      	lsrs	r3, r3, #24
10006692:	70c3      	strb	r3, [r0, #3]
10006694:	3004      	adds	r0, #4
10006696:	0025      	movs	r5, r4
10006698:	1e6c      	subs	r4, r5, #1
1000669a:	b2a4      	uxth	r4, r4
1000669c:	2d00      	cmp	r5, #0
1000669e:	d1f1      	bne.n	10006684 <_ff_push_const_addr+0xa>
100066a0:	2303      	movs	r3, #3
100066a2:	0032      	movs	r2, r6
100066a4:	401a      	ands	r2, r3
100066a6:	421e      	tst	r6, r3
100066a8:	d101      	bne.n	100066ae <_ff_push_const_addr+0x34>
100066aa:	b002      	add	sp, #8
100066ac:	bd70      	pop	{r4, r5, r6, pc}
100066ae:	680b      	ldr	r3, [r1, #0]
100066b0:	9301      	str	r3, [sp, #4]
100066b2:	a901      	add	r1, sp, #4
100066b4:	f7fd fcb0 	bl	10004018 <__wrap___aeabi_memcpy>
100066b8:	e7f7      	b.n	100066aa <_ff_push_const_addr+0x30>

100066ba <_ff_push_n>:
100066ba:	b5f0      	push	{r4, r5, r6, r7, lr}
100066bc:	46de      	mov	lr, fp
100066be:	4657      	mov	r7, sl
100066c0:	464e      	mov	r6, r9
100066c2:	4645      	mov	r5, r8
100066c4:	b5e0      	push	{r5, r6, r7, lr}
100066c6:	b083      	sub	sp, #12
100066c8:	0005      	movs	r5, r0
100066ca:	468a      	mov	sl, r1
100066cc:	a90c      	add	r1, sp, #48	; 0x30
100066ce:	7808      	ldrb	r0, [r1, #0]
100066d0:	88ac      	ldrh	r4, [r5, #4]
100066d2:	1ae1      	subs	r1, r4, r3
100066d4:	b289      	uxth	r1, r1
100066d6:	1b1c      	subs	r4, r3, r4
100066d8:	1914      	adds	r4, r2, r4
100066da:	b2a4      	uxth	r4, r4
100066dc:	88ef      	ldrh	r7, [r5, #6]
100066de:	047f      	lsls	r7, r7, #17
100066e0:	0c7e      	lsrs	r6, r7, #17
100066e2:	000f      	movs	r7, r1
100066e4:	4377      	muls	r7, r6
100066e6:	b2bf      	uxth	r7, r7
100066e8:	4374      	muls	r4, r6
100066ea:	b2a4      	uxth	r4, r4
100066ec:	46a3      	mov	fp, r4
100066ee:	4373      	muls	r3, r6
100066f0:	682c      	ldr	r4, [r5, #0]
100066f2:	46a0      	mov	r8, r4
100066f4:	4498      	add	r8, r3
100066f6:	2800      	cmp	r0, #0
100066f8:	d008      	beq.n	1000670c <_ff_push_n+0x52>
100066fa:	2801      	cmp	r0, #1
100066fc:	d01a      	beq.n	10006734 <_ff_push_n+0x7a>
100066fe:	b003      	add	sp, #12
10006700:	bcf0      	pop	{r4, r5, r6, r7}
10006702:	46bb      	mov	fp, r7
10006704:	46b2      	mov	sl, r6
10006706:	46a9      	mov	r9, r5
10006708:	46a0      	mov	r8, r4
1000670a:	bdf0      	pop	{r4, r5, r6, r7, pc}
1000670c:	4291      	cmp	r1, r2
1000670e:	d305      	bcc.n	1000671c <_ff_push_n+0x62>
10006710:	4372      	muls	r2, r6
10006712:	4651      	mov	r1, sl
10006714:	4640      	mov	r0, r8
10006716:	f7fd fc7f 	bl	10004018 <__wrap___aeabi_memcpy>
1000671a:	e7f0      	b.n	100066fe <_ff_push_n+0x44>
1000671c:	003a      	movs	r2, r7
1000671e:	4651      	mov	r1, sl
10006720:	4640      	mov	r0, r8
10006722:	f7fd fc79 	bl	10004018 <__wrap___aeabi_memcpy>
10006726:	6828      	ldr	r0, [r5, #0]
10006728:	0039      	movs	r1, r7
1000672a:	4451      	add	r1, sl
1000672c:	465a      	mov	r2, fp
1000672e:	f7fd fc73 	bl	10004018 <__wrap___aeabi_memcpy>
10006732:	e7e4      	b.n	100066fe <_ff_push_n+0x44>
10006734:	4291      	cmp	r1, r2
10006736:	d306      	bcc.n	10006746 <_ff_push_n+0x8c>
10006738:	4372      	muls	r2, r6
1000673a:	b292      	uxth	r2, r2
1000673c:	4651      	mov	r1, sl
1000673e:	4640      	mov	r0, r8
10006740:	f7ff ff9b 	bl	1000667a <_ff_push_const_addr>
10006744:	e7db      	b.n	100066fe <_ff_push_n+0x44>
10006746:	2303      	movs	r3, #3
10006748:	003a      	movs	r2, r7
1000674a:	439a      	bics	r2, r3
1000674c:	4691      	mov	r9, r2
1000674e:	4651      	mov	r1, sl
10006750:	4640      	mov	r0, r8
10006752:	f7ff ff92 	bl	1000667a <_ff_push_const_addr>
10006756:	4643      	mov	r3, r8
10006758:	444b      	add	r3, r9
1000675a:	2103      	movs	r1, #3
1000675c:	003a      	movs	r2, r7
1000675e:	400a      	ands	r2, r1
10006760:	420f      	tst	r7, r1
10006762:	d02e      	beq.n	100067c2 <_ff_push_n+0x108>
10006764:	2104      	movs	r1, #4
10006766:	1a89      	subs	r1, r1, r2
10006768:	b289      	uxth	r1, r1
1000676a:	1c08      	adds	r0, r1, #0
1000676c:	4559      	cmp	r1, fp
1000676e:	d900      	bls.n	10006772 <_ff_push_n+0xb8>
10006770:	4658      	mov	r0, fp
10006772:	b2c7      	uxtb	r7, r0
10006774:	21ff      	movs	r1, #255	; 0xff
10006776:	4001      	ands	r1, r0
10006778:	4658      	mov	r0, fp
1000677a:	1a44      	subs	r4, r0, r1
1000677c:	b2a1      	uxth	r1, r4
1000677e:	468b      	mov	fp, r1
10006780:	4651      	mov	r1, sl
10006782:	6809      	ldr	r1, [r1, #0]
10006784:	9101      	str	r1, [sp, #4]
10006786:	a901      	add	r1, sp, #4
10006788:	e004      	b.n	10006794 <_ff_push_n+0xda>
1000678a:	780a      	ldrb	r2, [r1, #0]
1000678c:	701a      	strb	r2, [r3, #0]
1000678e:	3101      	adds	r1, #1
10006790:	0002      	movs	r2, r0
10006792:	3301      	adds	r3, #1
10006794:	1e50      	subs	r0, r2, #1
10006796:	b2c0      	uxtb	r0, r0
10006798:	2a00      	cmp	r2, #0
1000679a:	d1f6      	bne.n	1000678a <_ff_push_n+0xd0>
1000679c:	6828      	ldr	r0, [r5, #0]
1000679e:	e004      	b.n	100067aa <_ff_push_n+0xf0>
100067a0:	780a      	ldrb	r2, [r1, #0]
100067a2:	7002      	strb	r2, [r0, #0]
100067a4:	3101      	adds	r1, #1
100067a6:	001f      	movs	r7, r3
100067a8:	3001      	adds	r0, #1
100067aa:	1e7b      	subs	r3, r7, #1
100067ac:	b2db      	uxtb	r3, r3
100067ae:	2f00      	cmp	r7, #0
100067b0:	d1f6      	bne.n	100067a0 <_ff_push_n+0xe6>
100067b2:	465b      	mov	r3, fp
100067b4:	2b00      	cmp	r3, #0
100067b6:	d0a2      	beq.n	100066fe <_ff_push_n+0x44>
100067b8:	465a      	mov	r2, fp
100067ba:	4651      	mov	r1, sl
100067bc:	f7ff ff5d 	bl	1000667a <_ff_push_const_addr>
100067c0:	e79d      	b.n	100066fe <_ff_push_n+0x44>
100067c2:	6828      	ldr	r0, [r5, #0]
100067c4:	e7f5      	b.n	100067b2 <_ff_push_n+0xf8>

100067c6 <_tu_fifo_write_n>:
100067c6:	b5f0      	push	{r4, r5, r6, r7, lr}
100067c8:	b085      	sub	sp, #20
100067ca:	0006      	movs	r6, r0
100067cc:	9103      	str	r1, [sp, #12]
100067ce:	1e15      	subs	r5, r2, #0
100067d0:	9302      	str	r3, [sp, #8]
100067d2:	d100      	bne.n	100067d6 <_tu_fifo_write_n+0x10>
100067d4:	e06d      	b.n	100068b2 <_tu_fifo_write_n+0xec>
100067d6:	68c0      	ldr	r0, [r0, #12]
100067d8:	2800      	cmp	r0, #0
100067da:	d003      	beq.n	100067e4 <_tu_fifo_write_n+0x1e>
100067dc:	2101      	movs	r1, #1
100067de:	4249      	negs	r1, r1
100067e0:	f000 f9f6 	bl	10006bd0 <__mutex_enter_timeout_ms_veneer>
100067e4:	8934      	ldrh	r4, [r6, #8]
100067e6:	b2a4      	uxth	r4, r4
100067e8:	8971      	ldrh	r1, [r6, #10]
100067ea:	b289      	uxth	r1, r1
100067ec:	79f3      	ldrb	r3, [r6, #7]
100067ee:	09db      	lsrs	r3, r3, #7
100067f0:	d11a      	bne.n	10006828 <_tu_fifo_write_n+0x62>
100067f2:	88b3      	ldrh	r3, [r6, #4]
100067f4:	428c      	cmp	r4, r1
100067f6:	d30f      	bcc.n	10006818 <_tu_fifo_write_n+0x52>
100067f8:	1a61      	subs	r1, r4, r1
100067fa:	b289      	uxth	r1, r1
100067fc:	428b      	cmp	r3, r1
100067fe:	d911      	bls.n	10006824 <_tu_fifo_write_n+0x5e>
10006800:	1a5b      	subs	r3, r3, r1
10006802:	b29b      	uxth	r3, r3
10006804:	1c2f      	adds	r7, r5, #0
10006806:	429d      	cmp	r5, r3
10006808:	d900      	bls.n	1000680c <_tu_fifo_write_n+0x46>
1000680a:	1c1f      	adds	r7, r3, #0
1000680c:	b2bf      	uxth	r7, r7
1000680e:	2f00      	cmp	r7, #0
10006810:	d047      	beq.n	100068a2 <_tu_fifo_write_n+0xdc>
10006812:	88b2      	ldrh	r2, [r6, #4]
10006814:	0023      	movs	r3, r4
10006816:	e035      	b.n	10006884 <_tu_fifo_write_n+0xbe>
10006818:	1a61      	subs	r1, r4, r1
1000681a:	b289      	uxth	r1, r1
1000681c:	005a      	lsls	r2, r3, #1
1000681e:	1889      	adds	r1, r1, r2
10006820:	b289      	uxth	r1, r1
10006822:	e7eb      	b.n	100067fc <_tu_fifo_write_n+0x36>
10006824:	2300      	movs	r3, #0
10006826:	e7ed      	b.n	10006804 <_tu_fifo_write_n+0x3e>
10006828:	88b7      	ldrh	r7, [r6, #4]
1000682a:	42af      	cmp	r7, r5
1000682c:	d80e      	bhi.n	1000684c <_tu_fifo_write_n+0x86>
1000682e:	9b02      	ldr	r3, [sp, #8]
10006830:	2b00      	cmp	r3, #0
10006832:	d121      	bne.n	10006878 <_tu_fifo_write_n+0xb2>
10006834:	1bed      	subs	r5, r5, r7
10006836:	88f3      	ldrh	r3, [r6, #6]
10006838:	045b      	lsls	r3, r3, #17
1000683a:	0c5a      	lsrs	r2, r3, #17
1000683c:	436a      	muls	r2, r5
1000683e:	9b03      	ldr	r3, [sp, #12]
10006840:	469c      	mov	ip, r3
10006842:	4494      	add	ip, r2
10006844:	4663      	mov	r3, ip
10006846:	9303      	str	r3, [sp, #12]
10006848:	000c      	movs	r4, r1
1000684a:	e7e0      	b.n	1000680e <_tu_fifo_write_n+0x48>
1000684c:	428c      	cmp	r4, r1
1000684e:	d30d      	bcc.n	1000686c <_tu_fifo_write_n+0xa6>
10006850:	1a63      	subs	r3, r4, r1
10006852:	b29b      	uxth	r3, r3
10006854:	195b      	adds	r3, r3, r5
10006856:	007a      	lsls	r2, r7, #1
10006858:	4293      	cmp	r3, r2
1000685a:	db0f      	blt.n	1000687c <_tu_fifo_write_n+0xb6>
1000685c:	1b7a      	subs	r2, r7, r5
1000685e:	b292      	uxth	r2, r2
10006860:	0038      	movs	r0, r7
10006862:	f7ff fdc8 	bl	100063f6 <advance_index>
10006866:	0004      	movs	r4, r0
10006868:	002f      	movs	r7, r5
1000686a:	e7d0      	b.n	1000680e <_tu_fifo_write_n+0x48>
1000686c:	1a63      	subs	r3, r4, r1
1000686e:	b29b      	uxth	r3, r3
10006870:	007a      	lsls	r2, r7, #1
10006872:	189b      	adds	r3, r3, r2
10006874:	b29b      	uxth	r3, r3
10006876:	e7ed      	b.n	10006854 <_tu_fifo_write_n+0x8e>
10006878:	000c      	movs	r4, r1
1000687a:	e7c8      	b.n	1000680e <_tu_fifo_write_n+0x48>
1000687c:	002f      	movs	r7, r5
1000687e:	e7c6      	b.n	1000680e <_tu_fifo_write_n+0x48>
10006880:	1a9b      	subs	r3, r3, r2
10006882:	b29b      	uxth	r3, r3
10006884:	429a      	cmp	r2, r3
10006886:	d9fb      	bls.n	10006880 <_tu_fifo_write_n+0xba>
10006888:	9a02      	ldr	r2, [sp, #8]
1000688a:	9200      	str	r2, [sp, #0]
1000688c:	003a      	movs	r2, r7
1000688e:	9903      	ldr	r1, [sp, #12]
10006890:	0030      	movs	r0, r6
10006892:	f7ff ff12 	bl	100066ba <_ff_push_n>
10006896:	88b0      	ldrh	r0, [r6, #4]
10006898:	003a      	movs	r2, r7
1000689a:	0021      	movs	r1, r4
1000689c:	f7ff fdab 	bl	100063f6 <advance_index>
100068a0:	8130      	strh	r0, [r6, #8]
100068a2:	68f0      	ldr	r0, [r6, #12]
100068a4:	2800      	cmp	r0, #0
100068a6:	d001      	beq.n	100068ac <_tu_fifo_write_n+0xe6>
100068a8:	f000 f96a 	bl	10006b80 <__mutex_exit_veneer>
100068ac:	0038      	movs	r0, r7
100068ae:	b005      	add	sp, #20
100068b0:	bdf0      	pop	{r4, r5, r6, r7, pc}
100068b2:	0017      	movs	r7, r2
100068b4:	e7fa      	b.n	100068ac <_tu_fifo_write_n+0xe6>

100068b6 <tu_fifo_config>:
100068b6:	b5f0      	push	{r4, r5, r6, r7, lr}
100068b8:	b083      	sub	sp, #12
100068ba:	0004      	movs	r4, r0
100068bc:	9101      	str	r1, [sp, #4]
100068be:	0016      	movs	r6, r2
100068c0:	001d      	movs	r5, r3
100068c2:	ab08      	add	r3, sp, #32
100068c4:	781f      	ldrb	r7, [r3, #0]
100068c6:	2380      	movs	r3, #128	; 0x80
100068c8:	021b      	lsls	r3, r3, #8
100068ca:	429a      	cmp	r2, r3
100068cc:	d82d      	bhi.n	1000692a <tu_fifo_config+0x74>
100068ce:	68c0      	ldr	r0, [r0, #12]
100068d0:	2800      	cmp	r0, #0
100068d2:	d003      	beq.n	100068dc <tu_fifo_config+0x26>
100068d4:	2101      	movs	r1, #1
100068d6:	4249      	negs	r1, r1
100068d8:	f000 f97a 	bl	10006bd0 <__mutex_enter_timeout_ms_veneer>
100068dc:	6920      	ldr	r0, [r4, #16]
100068de:	2800      	cmp	r0, #0
100068e0:	d003      	beq.n	100068ea <tu_fifo_config+0x34>
100068e2:	2101      	movs	r1, #1
100068e4:	4249      	negs	r1, r1
100068e6:	f000 f973 	bl	10006bd0 <__mutex_enter_timeout_ms_veneer>
100068ea:	9b01      	ldr	r3, [sp, #4]
100068ec:	6023      	str	r3, [r4, #0]
100068ee:	80a6      	strh	r6, [r4, #4]
100068f0:	046d      	lsls	r5, r5, #17
100068f2:	0c6b      	lsrs	r3, r5, #17
100068f4:	88e2      	ldrh	r2, [r4, #6]
100068f6:	0bd2      	lsrs	r2, r2, #15
100068f8:	03d5      	lsls	r5, r2, #15
100068fa:	431d      	orrs	r5, r3
100068fc:	80e5      	strh	r5, [r4, #6]
100068fe:	01fb      	lsls	r3, r7, #7
10006900:	79e2      	ldrb	r2, [r4, #7]
10006902:	277f      	movs	r7, #127	; 0x7f
10006904:	4017      	ands	r7, r2
10006906:	431f      	orrs	r7, r3
10006908:	71e7      	strb	r7, [r4, #7]
1000690a:	2300      	movs	r3, #0
1000690c:	8163      	strh	r3, [r4, #10]
1000690e:	8123      	strh	r3, [r4, #8]
10006910:	68e0      	ldr	r0, [r4, #12]
10006912:	2800      	cmp	r0, #0
10006914:	d001      	beq.n	1000691a <tu_fifo_config+0x64>
10006916:	f000 f933 	bl	10006b80 <__mutex_exit_veneer>
1000691a:	6920      	ldr	r0, [r4, #16]
1000691c:	2800      	cmp	r0, #0
1000691e:	d006      	beq.n	1000692e <tu_fifo_config+0x78>
10006920:	f000 f92e 	bl	10006b80 <__mutex_exit_veneer>
10006924:	2001      	movs	r0, #1
10006926:	b003      	add	sp, #12
10006928:	bdf0      	pop	{r4, r5, r6, r7, pc}
1000692a:	2000      	movs	r0, #0
1000692c:	e7fb      	b.n	10006926 <tu_fifo_config+0x70>
1000692e:	2001      	movs	r0, #1
10006930:	e7f9      	b.n	10006926 <tu_fifo_config+0x70>

10006932 <tu_fifo_count>:
10006932:	8881      	ldrh	r1, [r0, #4]
10006934:	8903      	ldrh	r3, [r0, #8]
10006936:	b29b      	uxth	r3, r3
10006938:	8942      	ldrh	r2, [r0, #10]
1000693a:	b292      	uxth	r2, r2
1000693c:	4293      	cmp	r3, r2
1000693e:	d307      	bcc.n	10006950 <tu_fifo_count+0x1e>
10006940:	1a9b      	subs	r3, r3, r2
10006942:	b29b      	uxth	r3, r3
10006944:	1c08      	adds	r0, r1, #0
10006946:	4299      	cmp	r1, r3
10006948:	d900      	bls.n	1000694c <tu_fifo_count+0x1a>
1000694a:	1c18      	adds	r0, r3, #0
1000694c:	b280      	uxth	r0, r0
1000694e:	4770      	bx	lr
10006950:	1a9b      	subs	r3, r3, r2
10006952:	b29b      	uxth	r3, r3
10006954:	004a      	lsls	r2, r1, #1
10006956:	189b      	adds	r3, r3, r2
10006958:	b29b      	uxth	r3, r3
1000695a:	e7f3      	b.n	10006944 <tu_fifo_count+0x12>

1000695c <tu_fifo_empty>:
1000695c:	0003      	movs	r3, r0
1000695e:	8900      	ldrh	r0, [r0, #8]
10006960:	895b      	ldrh	r3, [r3, #10]
10006962:	1ac0      	subs	r0, r0, r3
10006964:	4243      	negs	r3, r0
10006966:	4158      	adcs	r0, r3
10006968:	b2c0      	uxtb	r0, r0
1000696a:	4770      	bx	lr

1000696c <tu_fifo_full>:
1000696c:	8881      	ldrh	r1, [r0, #4]
1000696e:	8903      	ldrh	r3, [r0, #8]
10006970:	b29b      	uxth	r3, r3
10006972:	8942      	ldrh	r2, [r0, #10]
10006974:	b292      	uxth	r2, r2
10006976:	4293      	cmp	r3, r2
10006978:	d306      	bcc.n	10006988 <tu_fifo_full+0x1c>
1000697a:	1a9b      	subs	r3, r3, r2
1000697c:	b29b      	uxth	r3, r3
1000697e:	2000      	movs	r0, #0
10006980:	428b      	cmp	r3, r1
10006982:	4140      	adcs	r0, r0
10006984:	b2c0      	uxtb	r0, r0
10006986:	4770      	bx	lr
10006988:	1a9b      	subs	r3, r3, r2
1000698a:	b29b      	uxth	r3, r3
1000698c:	004a      	lsls	r2, r1, #1
1000698e:	189b      	adds	r3, r3, r2
10006990:	b29b      	uxth	r3, r3
10006992:	e7f4      	b.n	1000697e <tu_fifo_full+0x12>

10006994 <tu_fifo_remaining>:
10006994:	8882      	ldrh	r2, [r0, #4]
10006996:	8903      	ldrh	r3, [r0, #8]
10006998:	b29b      	uxth	r3, r3
1000699a:	8940      	ldrh	r0, [r0, #10]
1000699c:	b280      	uxth	r0, r0
1000699e:	4283      	cmp	r3, r0
100069a0:	d306      	bcc.n	100069b0 <tu_fifo_remaining+0x1c>
100069a2:	1a1b      	subs	r3, r3, r0
100069a4:	b29b      	uxth	r3, r3
100069a6:	429a      	cmp	r2, r3
100069a8:	d908      	bls.n	100069bc <tu_fifo_remaining+0x28>
100069aa:	1ad3      	subs	r3, r2, r3
100069ac:	b298      	uxth	r0, r3
100069ae:	4770      	bx	lr
100069b0:	1a1b      	subs	r3, r3, r0
100069b2:	b29b      	uxth	r3, r3
100069b4:	0050      	lsls	r0, r2, #1
100069b6:	181b      	adds	r3, r3, r0
100069b8:	b29b      	uxth	r3, r3
100069ba:	e7f4      	b.n	100069a6 <tu_fifo_remaining+0x12>
100069bc:	2000      	movs	r0, #0
100069be:	e7f6      	b.n	100069ae <tu_fifo_remaining+0x1a>

100069c0 <tu_fifo_read>:
100069c0:	b570      	push	{r4, r5, r6, lr}
100069c2:	0004      	movs	r4, r0
100069c4:	000d      	movs	r5, r1
100069c6:	6900      	ldr	r0, [r0, #16]
100069c8:	2800      	cmp	r0, #0
100069ca:	d003      	beq.n	100069d4 <tu_fifo_read+0x14>
100069cc:	2101      	movs	r1, #1
100069ce:	4249      	negs	r1, r1
100069d0:	f000 f8fe 	bl	10006bd0 <__mutex_enter_timeout_ms_veneer>
100069d4:	8922      	ldrh	r2, [r4, #8]
100069d6:	b292      	uxth	r2, r2
100069d8:	8963      	ldrh	r3, [r4, #10]
100069da:	b29b      	uxth	r3, r3
100069dc:	0029      	movs	r1, r5
100069de:	0020      	movs	r0, r4
100069e0:	f7ff fd16 	bl	10006410 <_tu_fifo_peek>
100069e4:	0005      	movs	r5, r0
100069e6:	8961      	ldrh	r1, [r4, #10]
100069e8:	b289      	uxth	r1, r1
100069ea:	b282      	uxth	r2, r0
100069ec:	88a0      	ldrh	r0, [r4, #4]
100069ee:	f7ff fd02 	bl	100063f6 <advance_index>
100069f2:	8160      	strh	r0, [r4, #10]
100069f4:	6920      	ldr	r0, [r4, #16]
100069f6:	2800      	cmp	r0, #0
100069f8:	d001      	beq.n	100069fe <tu_fifo_read+0x3e>
100069fa:	f000 f8c1 	bl	10006b80 <__mutex_exit_veneer>
100069fe:	0028      	movs	r0, r5
10006a00:	bd70      	pop	{r4, r5, r6, pc}

10006a02 <tu_fifo_read_n>:
10006a02:	b510      	push	{r4, lr}
10006a04:	2300      	movs	r3, #0
10006a06:	f7ff fe11 	bl	1000662c <_tu_fifo_read_n>
10006a0a:	bd10      	pop	{r4, pc}

10006a0c <tu_fifo_write>:
10006a0c:	b5f8      	push	{r3, r4, r5, r6, r7, lr}
10006a0e:	0004      	movs	r4, r0
10006a10:	000e      	movs	r6, r1
10006a12:	68c0      	ldr	r0, [r0, #12]
10006a14:	2800      	cmp	r0, #0
10006a16:	d003      	beq.n	10006a20 <tu_fifo_write+0x14>
10006a18:	2101      	movs	r1, #1
10006a1a:	4249      	negs	r1, r1
10006a1c:	f000 f8d8 	bl	10006bd0 <__mutex_enter_timeout_ms_veneer>
10006a20:	8925      	ldrh	r5, [r4, #8]
10006a22:	b2ad      	uxth	r5, r5
10006a24:	0020      	movs	r0, r4
10006a26:	f7ff ffa1 	bl	1000696c <tu_fifo_full>
10006a2a:	2800      	cmp	r0, #0
10006a2c:	d002      	beq.n	10006a34 <tu_fifo_write+0x28>
10006a2e:	79e7      	ldrb	r7, [r4, #7]
10006a30:	09ff      	lsrs	r7, r7, #7
10006a32:	d016      	beq.n	10006a62 <tu_fifo_write+0x56>
10006a34:	88a2      	ldrh	r2, [r4, #4]
10006a36:	002b      	movs	r3, r5
10006a38:	e001      	b.n	10006a3e <tu_fifo_write+0x32>
10006a3a:	1a9b      	subs	r3, r3, r2
10006a3c:	b29b      	uxth	r3, r3
10006a3e:	429a      	cmp	r2, r3
10006a40:	d9fb      	bls.n	10006a3a <tu_fifo_write+0x2e>
10006a42:	88e2      	ldrh	r2, [r4, #6]
10006a44:	0452      	lsls	r2, r2, #17
10006a46:	0c52      	lsrs	r2, r2, #17
10006a48:	4353      	muls	r3, r2
10006a4a:	6821      	ldr	r1, [r4, #0]
10006a4c:	18c8      	adds	r0, r1, r3
10006a4e:	0031      	movs	r1, r6
10006a50:	f7fd fae2 	bl	10004018 <__wrap___aeabi_memcpy>
10006a54:	88a0      	ldrh	r0, [r4, #4]
10006a56:	2201      	movs	r2, #1
10006a58:	0029      	movs	r1, r5
10006a5a:	f7ff fccc 	bl	100063f6 <advance_index>
10006a5e:	8120      	strh	r0, [r4, #8]
10006a60:	2701      	movs	r7, #1
10006a62:	68e0      	ldr	r0, [r4, #12]
10006a64:	2800      	cmp	r0, #0
10006a66:	d001      	beq.n	10006a6c <tu_fifo_write+0x60>
10006a68:	f000 f88a 	bl	10006b80 <__mutex_exit_veneer>
10006a6c:	0038      	movs	r0, r7
10006a6e:	bdf8      	pop	{r3, r4, r5, r6, r7, pc}

10006a70 <tu_fifo_write_n>:
10006a70:	b510      	push	{r4, lr}
10006a72:	2300      	movs	r3, #0
10006a74:	f7ff fea7 	bl	100067c6 <_tu_fifo_write_n>
10006a78:	bd10      	pop	{r4, pc}

10006a7a <tu_fifo_clear>:
10006a7a:	b510      	push	{r4, lr}
10006a7c:	0004      	movs	r4, r0
10006a7e:	68c0      	ldr	r0, [r0, #12]
10006a80:	2800      	cmp	r0, #0
10006a82:	d003      	beq.n	10006a8c <tu_fifo_clear+0x12>
10006a84:	2101      	movs	r1, #1
10006a86:	4249      	negs	r1, r1
10006a88:	f000 f8a2 	bl	10006bd0 <__mutex_enter_timeout_ms_veneer>
10006a8c:	6920      	ldr	r0, [r4, #16]
10006a8e:	2800      	cmp	r0, #0
10006a90:	d003      	beq.n	10006a9a <tu_fifo_clear+0x20>
10006a92:	2101      	movs	r1, #1
10006a94:	4249      	negs	r1, r1
10006a96:	f000 f89b 	bl	10006bd0 <__mutex_enter_timeout_ms_veneer>
10006a9a:	2300      	movs	r3, #0
10006a9c:	8163      	strh	r3, [r4, #10]
10006a9e:	8123      	strh	r3, [r4, #8]
10006aa0:	68e0      	ldr	r0, [r4, #12]
10006aa2:	2800      	cmp	r0, #0
10006aa4:	d001      	beq.n	10006aaa <tu_fifo_clear+0x30>
10006aa6:	f000 f86b 	bl	10006b80 <__mutex_exit_veneer>
10006aaa:	6920      	ldr	r0, [r4, #16]
10006aac:	2800      	cmp	r0, #0
10006aae:	d001      	beq.n	10006ab4 <tu_fifo_clear+0x3a>
10006ab0:	f000 f866 	bl	10006b80 <__mutex_exit_veneer>
10006ab4:	2001      	movs	r0, #1
10006ab6:	bd10      	pop	{r4, pc}

10006ab8 <tu_fifo_set_overwritable>:
10006ab8:	b570      	push	{r4, r5, r6, lr}
10006aba:	0004      	movs	r4, r0
10006abc:	000d      	movs	r5, r1
10006abe:	68c0      	ldr	r0, [r0, #12]
10006ac0:	2800      	cmp	r0, #0
10006ac2:	d003      	beq.n	10006acc <tu_fifo_set_overwritable+0x14>
10006ac4:	2101      	movs	r1, #1
10006ac6:	4249      	negs	r1, r1
10006ac8:	f000 f882 	bl	10006bd0 <__mutex_enter_timeout_ms_veneer>
10006acc:	6920      	ldr	r0, [r4, #16]
10006ace:	2800      	cmp	r0, #0
10006ad0:	d003      	beq.n	10006ada <tu_fifo_set_overwritable+0x22>
10006ad2:	2101      	movs	r1, #1
10006ad4:	4249      	negs	r1, r1
10006ad6:	f000 f87b 	bl	10006bd0 <__mutex_enter_timeout_ms_veneer>
10006ada:	01ed      	lsls	r5, r5, #7
10006adc:	79e3      	ldrb	r3, [r4, #7]
10006ade:	217f      	movs	r1, #127	; 0x7f
10006ae0:	4019      	ands	r1, r3
10006ae2:	4329      	orrs	r1, r5
10006ae4:	71e1      	strb	r1, [r4, #7]
10006ae6:	68e0      	ldr	r0, [r4, #12]
10006ae8:	2800      	cmp	r0, #0
10006aea:	d001      	beq.n	10006af0 <tu_fifo_set_overwritable+0x38>
10006aec:	f000 f848 	bl	10006b80 <__mutex_exit_veneer>
10006af0:	6920      	ldr	r0, [r4, #16]
10006af2:	2800      	cmp	r0, #0
10006af4:	d001      	beq.n	10006afa <tu_fifo_set_overwritable+0x42>
10006af6:	f000 f843 	bl	10006b80 <__mutex_exit_veneer>
10006afa:	2001      	movs	r0, #1
10006afc:	bd70      	pop	{r4, r5, r6, pc}
	...

10006b00 <strlen>:
10006b00:	b510      	push	{r4, lr}
10006b02:	0783      	lsls	r3, r0, #30
10006b04:	d00a      	beq.n	10006b1c <strlen+0x1c>
10006b06:	0003      	movs	r3, r0
10006b08:	2103      	movs	r1, #3
10006b0a:	e002      	b.n	10006b12 <strlen+0x12>
10006b0c:	3301      	adds	r3, #1
10006b0e:	420b      	tst	r3, r1
10006b10:	d005      	beq.n	10006b1e <strlen+0x1e>
10006b12:	781a      	ldrb	r2, [r3, #0]
10006b14:	2a00      	cmp	r2, #0
10006b16:	d1f9      	bne.n	10006b0c <strlen+0xc>
10006b18:	1a18      	subs	r0, r3, r0
10006b1a:	bd10      	pop	{r4, pc}
10006b1c:	0003      	movs	r3, r0
10006b1e:	6819      	ldr	r1, [r3, #0]
10006b20:	4a0c      	ldr	r2, [pc, #48]	; (10006b54 <strlen+0x54>)
10006b22:	4c0d      	ldr	r4, [pc, #52]	; (10006b58 <strlen+0x58>)
10006b24:	188a      	adds	r2, r1, r2
10006b26:	438a      	bics	r2, r1
10006b28:	4222      	tst	r2, r4
10006b2a:	d10f      	bne.n	10006b4c <strlen+0x4c>
10006b2c:	6859      	ldr	r1, [r3, #4]
10006b2e:	4a09      	ldr	r2, [pc, #36]	; (10006b54 <strlen+0x54>)
10006b30:	3304      	adds	r3, #4
10006b32:	188a      	adds	r2, r1, r2
10006b34:	438a      	bics	r2, r1
10006b36:	4222      	tst	r2, r4
10006b38:	d108      	bne.n	10006b4c <strlen+0x4c>
10006b3a:	6859      	ldr	r1, [r3, #4]
10006b3c:	4a05      	ldr	r2, [pc, #20]	; (10006b54 <strlen+0x54>)
10006b3e:	3304      	adds	r3, #4
10006b40:	188a      	adds	r2, r1, r2
10006b42:	438a      	bics	r2, r1
10006b44:	4222      	tst	r2, r4
10006b46:	d0f1      	beq.n	10006b2c <strlen+0x2c>
10006b48:	e000      	b.n	10006b4c <strlen+0x4c>
10006b4a:	3301      	adds	r3, #1
10006b4c:	781a      	ldrb	r2, [r3, #0]
10006b4e:	2a00      	cmp	r2, #0
10006b50:	d1fb      	bne.n	10006b4a <strlen+0x4a>
10006b52:	e7e1      	b.n	10006b18 <strlen+0x18>
10006b54:	fefefeff 	.word	0xfefefeff
10006b58:	80808080 	.word	0x80808080

10006b5c <_fini>:
10006b5c:	b5f8      	push	{r3, r4, r5, r6, r7, lr}
10006b5e:	46c0      	nop			; (mov r8, r8)

10006b60 <__e15_is_bulkin_ep_veneer>:
10006b60:	b401      	push	{r0}
10006b62:	4802      	ldr	r0, [pc, #8]	; (10006b6c <__e15_is_bulkin_ep_veneer+0xc>)
10006b64:	4684      	mov	ip, r0
10006b66:	bc01      	pop	{r0}
10006b68:	4760      	bx	ip
10006b6a:	bf00      	nop
10006b6c:	2000066d 	.word	0x2000066d

10006b70 <__flash_do_cmd_veneer>:
10006b70:	b401      	push	{r0}
10006b72:	4802      	ldr	r0, [pc, #8]	; (10006b7c <__flash_do_cmd_veneer+0xc>)
10006b74:	4684      	mov	ip, r0
10006b76:	bc01      	pop	{r0}
10006b78:	4760      	bx	ip
10006b7a:	bf00      	nop
10006b7c:	200002e5 	.word	0x200002e5

10006b80 <__mutex_exit_veneer>:
10006b80:	b401      	push	{r0}
10006b82:	4802      	ldr	r0, [pc, #8]	; (10006b8c <__mutex_exit_veneer+0xc>)
10006b84:	4684      	mov	ip, r0
10006b86:	bc01      	pop	{r0}
10006b88:	4760      	bx	ip
10006b8a:	bf00      	nop
10006b8c:	20000231 	.word	0x20000231

10006b90 <____aeabi_ldiv0_veneer>:
10006b90:	b401      	push	{r0}
10006b92:	4802      	ldr	r0, [pc, #8]	; (10006b9c <____aeabi_ldiv0_veneer+0xc>)
10006b94:	4684      	mov	ip, r0
10006b96:	bc01      	pop	{r0}
10006b98:	4760      	bx	ip
10006b9a:	bf00      	nop
10006b9c:	20000b1d 	.word	0x20000b1d

10006ba0 <____aeabi_idiv0_veneer>:
10006ba0:	b401      	push	{r0}
10006ba2:	4802      	ldr	r0, [pc, #8]	; (10006bac <____aeabi_idiv0_veneer+0xc>)
10006ba4:	4684      	mov	ip, r0
10006ba6:	bc01      	pop	{r0}
10006ba8:	4760      	bx	ip
10006baa:	bf00      	nop
10006bac:	20000b1d 	.word	0x20000b1d

10006bb0 <__e15_is_critical_frame_period_veneer>:
10006bb0:	b401      	push	{r0}
10006bb2:	4802      	ldr	r0, [pc, #8]	; (10006bbc <__e15_is_critical_frame_period_veneer+0xc>)
10006bb4:	4684      	mov	ip, r0
10006bb6:	bc01      	pop	{r0}
10006bb8:	4760      	bx	ip
10006bba:	bf00      	nop
10006bbc:	20000699 	.word	0x20000699

10006bc0 <__mutex_try_enter_veneer>:
10006bc0:	b401      	push	{r0}
10006bc2:	4802      	ldr	r0, [pc, #8]	; (10006bcc <__mutex_try_enter_veneer+0xc>)
10006bc4:	4684      	mov	ip, r0
10006bc6:	bc01      	pop	{r0}
10006bc8:	4760      	bx	ip
10006bca:	bf00      	nop
10006bcc:	200000c1 	.word	0x200000c1

10006bd0 <__mutex_enter_timeout_ms_veneer>:
10006bd0:	b401      	push	{r0}
10006bd2:	4802      	ldr	r0, [pc, #8]	; (10006bdc <__mutex_enter_timeout_ms_veneer+0xc>)
10006bd4:	4684      	mov	ip, r0
10006bd6:	bc01      	pop	{r0}
10006bd8:	4760      	bx	ip
10006bda:	bf00      	nop
10006bdc:	200001c9 	.word	0x200001c9

10006be0 <__dcd_event_handler_veneer>:
10006be0:	b401      	push	{r0}
10006be2:	4802      	ldr	r0, [pc, #8]	; (10006bec <__dcd_event_handler_veneer+0xc>)
10006be4:	4684      	mov	ip, r0
10006be6:	bc01      	pop	{r0}
10006be8:	4760      	bx	ip
10006bea:	bf00      	nop
10006bec:	2000091d 	.word	0x2000091d

10006bf0 <__reset_non_control_endpoints_veneer>:
10006bf0:	b401      	push	{r0}
10006bf2:	4802      	ldr	r0, [pc, #8]	; (10006bfc <__reset_non_control_endpoints_veneer+0xc>)
10006bf4:	4684      	mov	ip, r0
10006bf6:	bc01      	pop	{r0}
10006bf8:	4760      	bx	ip
10006bfa:	bf00      	nop
10006bfc:	200003bd 	.word	0x200003bd

10006c00 <__mutex_try_enter_block_until_veneer>:
10006c00:	b401      	push	{r0}
10006c02:	4802      	ldr	r0, [pc, #8]	; (10006c0c <__mutex_try_enter_block_until_veneer+0xc>)
10006c04:	4684      	mov	ip, r0
10006c06:	bc01      	pop	{r0}
10006c08:	4760      	bx	ip
10006c0a:	bf00      	nop
10006c0c:	20000195 	.word	0x20000195

10006c10 <__hw_endpoint_start_next_buffer_veneer>:
10006c10:	b401      	push	{r0}
10006c12:	4802      	ldr	r0, [pc, #8]	; (10006c1c <__hw_endpoint_start_next_buffer_veneer+0xc>)
10006c14:	4684      	mov	ip, r0
10006c16:	bc01      	pop	{r0}
10006c18:	4760      	bx	ip
10006c1a:	bf00      	nop
10006c1c:	20000845 	.word	0x20000845

10006c20 <__hw_endpoint_reset_transfer_veneer>:
10006c20:	b401      	push	{r0}
10006c22:	4802      	ldr	r0, [pc, #8]	; (10006c2c <__hw_endpoint_reset_transfer_veneer+0xc>)
10006c24:	4684      	mov	ip, r0
10006c26:	bc01      	pop	{r0}
10006c28:	4760      	bx	ip
10006c2a:	bf00      	nop
10006c2c:	200007e1 	.word	0x200007e1

10006c30 <___hw_endpoint_buffer_control_update32_veneer>:
10006c30:	b401      	push	{r0}
10006c32:	4802      	ldr	r0, [pc, #8]	; (10006c3c <___hw_endpoint_buffer_control_update32_veneer+0xc>)
10006c34:	4684      	mov	ip, r0
10006c36:	bc01      	pop	{r0}
10006c38:	4760      	bx	ip
10006c3a:	bf00      	nop
10006c3c:	200007ed 	.word	0x200007ed

Disassembly of section .data:

200000c0 <mutex_try_enter>:
200000c0:	0003      	movs	r3, r0
200000c2:	6800      	ldr	r0, [r0, #0]
200000c4:	f3ef 8c10 	mrs	ip, PRIMASK
200000c8:	b672      	cpsid	i
200000ca:	6802      	ldr	r2, [r0, #0]
200000cc:	2a00      	cmp	r2, #0
200000ce:	d0fc      	beq.n	200000ca <mutex_try_enter+0xa>
200000d0:	f3bf 8f5f 	dmb	sy
200000d4:	2204      	movs	r2, #4
200000d6:	569a      	ldrsb	r2, [r3, r2]
200000d8:	2a00      	cmp	r2, #0
200000da:	db0b      	blt.n	200000f4 <mutex_try_enter+0x34>
200000dc:	2900      	cmp	r1, #0
200000de:	d010      	beq.n	20000102 <mutex_try_enter+0x42>
200000e0:	600a      	str	r2, [r1, #0]
200000e2:	2000      	movs	r0, #0
200000e4:	681b      	ldr	r3, [r3, #0]
200000e6:	f3bf 8f5f 	dmb	sy
200000ea:	2200      	movs	r2, #0
200000ec:	601a      	str	r2, [r3, #0]
200000ee:	f38c 8810 	msr	PRIMASK, ip
200000f2:	4770      	bx	lr
200000f4:	22d0      	movs	r2, #208	; 0xd0
200000f6:	0612      	lsls	r2, r2, #24
200000f8:	7812      	ldrb	r2, [r2, #0]
200000fa:	b252      	sxtb	r2, r2
200000fc:	711a      	strb	r2, [r3, #4]
200000fe:	2001      	movs	r0, #1
20000100:	e7f0      	b.n	200000e4 <mutex_try_enter+0x24>
20000102:	2000      	movs	r0, #0
20000104:	e7ee      	b.n	200000e4 <mutex_try_enter+0x24>
	...

20000108 <mutex_enter_block_until>:
20000108:	b5f8      	push	{r3, r4, r5, r6, r7, lr}
2000010a:	46ce      	mov	lr, r9
2000010c:	4647      	mov	r7, r8
2000010e:	b580      	push	{r7, lr}
20000110:	0004      	movs	r4, r0
20000112:	0017      	movs	r7, r2
20000114:	4698      	mov	r8, r3
20000116:	6803      	ldr	r3, [r0, #0]
20000118:	2b00      	cmp	r3, #0
2000011a:	d020      	beq.n	2000015e <mutex_enter_block_until+0x56>
2000011c:	23d0      	movs	r3, #208	; 0xd0
2000011e:	061b      	lsls	r3, r3, #24
20000120:	781b      	ldrb	r3, [r3, #0]
20000122:	b25b      	sxtb	r3, r3
20000124:	4699      	mov	r9, r3
20000126:	6826      	ldr	r6, [r4, #0]
20000128:	f3ef 8c10 	mrs	ip, PRIMASK
2000012c:	b672      	cpsid	i
2000012e:	6835      	ldr	r5, [r6, #0]
20000130:	2d00      	cmp	r5, #0
20000132:	d0fc      	beq.n	2000012e <mutex_enter_block_until+0x26>
20000134:	f3bf 8f5f 	dmb	sy
20000138:	2504      	movs	r5, #4
2000013a:	5765      	ldrsb	r5, [r4, r5]
2000013c:	2d00      	cmp	r5, #0
2000013e:	db14      	blt.n	2000016a <mutex_enter_block_until+0x62>
20000140:	6823      	ldr	r3, [r4, #0]
20000142:	f3bf 8f5f 	dmb	sy
20000146:	2200      	movs	r2, #0
20000148:	601a      	str	r2, [r3, #0]
2000014a:	f38c 8810 	msr	PRIMASK, ip
2000014e:	0038      	movs	r0, r7
20000150:	4641      	mov	r1, r8
20000152:	f000 fd15 	bl	20000b80 <__best_effort_wfe_or_timeout_veneer>
20000156:	2800      	cmp	r0, #0
20000158:	d0e5      	beq.n	20000126 <mutex_enter_block_until+0x1e>
2000015a:	2000      	movs	r0, #0
2000015c:	e00f      	b.n	2000017e <mutex_enter_block_until+0x76>
2000015e:	4b0a      	ldr	r3, [pc, #40]	; (20000188 <mutex_enter_block_until+0x80>)
20000160:	4a0a      	ldr	r2, [pc, #40]	; (2000018c <mutex_enter_block_until+0x84>)
20000162:	2185      	movs	r1, #133	; 0x85
20000164:	480a      	ldr	r0, [pc, #40]	; (20000190 <mutex_enter_block_until+0x88>)
20000166:	f000 fcfb 	bl	20000b60 <____assert_func_veneer>
2000016a:	464b      	mov	r3, r9
2000016c:	7123      	strb	r3, [r4, #4]
2000016e:	6823      	ldr	r3, [r4, #0]
20000170:	f3bf 8f5f 	dmb	sy
20000174:	2200      	movs	r2, #0
20000176:	601a      	str	r2, [r3, #0]
20000178:	f38c 8810 	msr	PRIMASK, ip
2000017c:	2001      	movs	r0, #1
2000017e:	bcc0      	pop	{r6, r7}
20000180:	46b9      	mov	r9, r7
20000182:	46b0      	mov	r8, r6
20000184:	bdf8      	pop	{r3, r4, r5, r6, r7, pc}
20000186:	46c0      	nop			; (mov r8, r8)
20000188:	10006fa8 	.word	0x10006fa8
2000018c:	10007080 	.word	0x10007080
20000190:	10006f54 	.word	0x10006f54

20000194 <mutex_try_enter_block_until>:
20000194:	b570      	push	{r4, r5, r6, lr}
20000196:	b082      	sub	sp, #8
20000198:	0006      	movs	r6, r0
2000019a:	0015      	movs	r5, r2
2000019c:	001c      	movs	r4, r3
2000019e:	a901      	add	r1, sp, #4
200001a0:	f7ff ff8e 	bl	200000c0 <mutex_try_enter>
200001a4:	2800      	cmp	r0, #0
200001a6:	d107      	bne.n	200001b8 <mutex_try_enter_block_until+0x24>
200001a8:	9b01      	ldr	r3, [sp, #4]
200001aa:	b25b      	sxtb	r3, r3
200001ac:	22d0      	movs	r2, #208	; 0xd0
200001ae:	0612      	lsls	r2, r2, #24
200001b0:	7812      	ldrb	r2, [r2, #0]
200001b2:	b252      	sxtb	r2, r2
200001b4:	4293      	cmp	r3, r2
200001b6:	d101      	bne.n	200001bc <mutex_try_enter_block_until+0x28>
200001b8:	b002      	add	sp, #8
200001ba:	bd70      	pop	{r4, r5, r6, pc}
200001bc:	002a      	movs	r2, r5
200001be:	0023      	movs	r3, r4
200001c0:	0030      	movs	r0, r6
200001c2:	f7ff ffa1 	bl	20000108 <mutex_enter_block_until>
200001c6:	e7f7      	b.n	200001b8 <mutex_try_enter_block_until+0x24>

200001c8 <mutex_enter_timeout_ms>:
200001c8:	b5f8      	push	{r3, r4, r5, r6, r7, lr}
200001ca:	0006      	movs	r6, r0
200001cc:	000f      	movs	r7, r1
200001ce:	f000 fccf 	bl	20000b70 <__time_us_64_veneer>
200001d2:	0004      	movs	r4, r0
200001d4:	1e0d      	subs	r5, r1, #0
200001d6:	db12      	blt.n	200001fe <mutex_enter_timeout_ms+0x36>
200001d8:	22fa      	movs	r2, #250	; 0xfa
200001da:	0092      	lsls	r2, r2, #2
200001dc:	2300      	movs	r3, #0
200001de:	0038      	movs	r0, r7
200001e0:	2100      	movs	r1, #0
200001e2:	f000 fcb5 	bl	20000b50 <____wrap___aeabi_lmul_veneer>
200001e6:	0022      	movs	r2, r4
200001e8:	002b      	movs	r3, r5
200001ea:	1812      	adds	r2, r2, r0
200001ec:	414b      	adcs	r3, r1
200001ee:	2b00      	cmp	r3, #0
200001f0:	db0b      	blt.n	2000020a <mutex_enter_timeout_ms+0x42>
200001f2:	2b00      	cmp	r3, #0
200001f4:	db0d      	blt.n	20000212 <mutex_enter_timeout_ms+0x4a>
200001f6:	0030      	movs	r0, r6
200001f8:	f7ff ff86 	bl	20000108 <mutex_enter_block_until>
200001fc:	bdf8      	pop	{r3, r4, r5, r6, r7, pc}
200001fe:	4b08      	ldr	r3, [pc, #32]	; (20000220 <mutex_enter_timeout_ms+0x58>)
20000200:	4a08      	ldr	r2, [pc, #32]	; (20000224 <mutex_enter_timeout_ms+0x5c>)
20000202:	213f      	movs	r1, #63	; 0x3f
20000204:	4808      	ldr	r0, [pc, #32]	; (20000228 <mutex_enter_timeout_ms+0x60>)
20000206:	f000 fcab 	bl	20000b60 <____assert_func_veneer>
2000020a:	2201      	movs	r2, #1
2000020c:	4252      	negs	r2, r2
2000020e:	4b07      	ldr	r3, [pc, #28]	; (2000022c <mutex_enter_timeout_ms+0x64>)
20000210:	e7ef      	b.n	200001f2 <mutex_enter_timeout_ms+0x2a>
20000212:	4b03      	ldr	r3, [pc, #12]	; (20000220 <mutex_enter_timeout_ms+0x58>)
20000214:	4a03      	ldr	r2, [pc, #12]	; (20000224 <mutex_enter_timeout_ms+0x5c>)
20000216:	213f      	movs	r1, #63	; 0x3f
20000218:	4803      	ldr	r0, [pc, #12]	; (20000228 <mutex_enter_timeout_ms+0x60>)
2000021a:	f000 fca1 	bl	20000b60 <____assert_func_veneer>
2000021e:	46c0      	nop			; (mov r8, r8)
20000220:	10006fbc 	.word	0x10006fbc
20000224:	10007098 	.word	0x10007098
20000228:	10006fd8 	.word	0x10006fd8
2000022c:	7fffffff 	.word	0x7fffffff

20000230 <mutex_exit>:
20000230:	b510      	push	{r4, lr}
20000232:	6802      	ldr	r2, [r0, #0]
20000234:	f3ef 8110 	mrs	r1, PRIMASK
20000238:	b672      	cpsid	i
2000023a:	6813      	ldr	r3, [r2, #0]
2000023c:	2b00      	cmp	r3, #0
2000023e:	d0fc      	beq.n	2000023a <mutex_exit+0xa>
20000240:	f3bf 8f5f 	dmb	sy
20000244:	2304      	movs	r3, #4
20000246:	56c3      	ldrsb	r3, [r0, r3]
20000248:	2b00      	cmp	r3, #0
2000024a:	db0a      	blt.n	20000262 <mutex_exit+0x32>
2000024c:	23ff      	movs	r3, #255	; 0xff
2000024e:	7103      	strb	r3, [r0, #4]
20000250:	6803      	ldr	r3, [r0, #0]
20000252:	f3bf 8f5f 	dmb	sy
20000256:	2200      	movs	r2, #0
20000258:	601a      	str	r2, [r3, #0]
2000025a:	f381 8810 	msr	PRIMASK, r1
2000025e:	bf40      	sev
20000260:	bd10      	pop	{r4, pc}
20000262:	4b03      	ldr	r3, [pc, #12]	; (20000270 <mutex_exit+0x40>)
20000264:	4a03      	ldr	r2, [pc, #12]	; (20000274 <mutex_exit+0x44>)
20000266:	21b4      	movs	r1, #180	; 0xb4
20000268:	4803      	ldr	r0, [pc, #12]	; (20000278 <mutex_exit+0x48>)
2000026a:	f000 fc79 	bl	20000b60 <____assert_func_veneer>
2000026e:	46c0      	nop			; (mov r8, r8)
20000270:	1000703c 	.word	0x1000703c
20000274:	10007074 	.word	0x10007074
20000278:	10006f54 	.word	0x10006f54

2000027c <flash_init_boot2_copyout>:
2000027c:	4b09      	ldr	r3, [pc, #36]	; (200002a4 <flash_init_boot2_copyout+0x28>)
2000027e:	781b      	ldrb	r3, [r3, #0]
20000280:	2b00      	cmp	r3, #0
20000282:	d008      	beq.n	20000296 <flash_init_boot2_copyout+0x1a>
20000284:	e00c      	b.n	200002a0 <flash_init_boot2_copyout+0x24>
20000286:	009a      	lsls	r2, r3, #2
20000288:	2180      	movs	r1, #128	; 0x80
2000028a:	0549      	lsls	r1, r1, #21
2000028c:	1851      	adds	r1, r2, r1
2000028e:	6808      	ldr	r0, [r1, #0]
20000290:	4905      	ldr	r1, [pc, #20]	; (200002a8 <flash_init_boot2_copyout+0x2c>)
20000292:	5050      	str	r0, [r2, r1]
20000294:	3301      	adds	r3, #1
20000296:	2b3f      	cmp	r3, #63	; 0x3f
20000298:	ddf5      	ble.n	20000286 <flash_init_boot2_copyout+0xa>
2000029a:	4b02      	ldr	r3, [pc, #8]	; (200002a4 <flash_init_boot2_copyout+0x28>)
2000029c:	2201      	movs	r2, #1
2000029e:	701a      	strb	r2, [r3, #0]
200002a0:	4770      	bx	lr
200002a2:	46c0      	nop			; (mov r8, r8)
200002a4:	20001a53 	.word	0x20001a53
200002a8:	20001240 	.word	0x20001240

200002ac <flash_enable_xip_via_boot2>:
200002ac:	b510      	push	{r4, lr}
200002ae:	4b02      	ldr	r3, [pc, #8]	; (200002b8 <flash_enable_xip_via_boot2+0xc>)
200002b0:	3301      	adds	r3, #1
200002b2:	4798      	blx	r3
200002b4:	bd10      	pop	{r4, pc}
200002b6:	46c0      	nop			; (mov r8, r8)
200002b8:	20001240 	.word	0x20001240

200002bc <flash_cs_force>:
200002bc:	2800      	cmp	r0, #0
200002be:	d00a      	beq.n	200002d6 <flash_cs_force+0x1a>
200002c0:	2303      	movs	r3, #3
200002c2:	021b      	lsls	r3, r3, #8
200002c4:	4a05      	ldr	r2, [pc, #20]	; (200002dc <flash_cs_force+0x20>)
200002c6:	6812      	ldr	r2, [r2, #0]
200002c8:	4053      	eors	r3, r2
200002ca:	22c0      	movs	r2, #192	; 0xc0
200002cc:	0092      	lsls	r2, r2, #2
200002ce:	4013      	ands	r3, r2
200002d0:	4a03      	ldr	r2, [pc, #12]	; (200002e0 <flash_cs_force+0x24>)
200002d2:	6013      	str	r3, [r2, #0]
200002d4:	4770      	bx	lr
200002d6:	2302      	movs	r3, #2
200002d8:	e7f3      	b.n	200002c2 <flash_cs_force+0x6>
200002da:	46c0      	nop			; (mov r8, r8)
200002dc:	4001800c 	.word	0x4001800c
200002e0:	4001900c 	.word	0x4001900c

200002e4 <flash_do_cmd>:
200002e4:	b5f0      	push	{r4, r5, r6, r7, lr}
200002e6:	46d6      	mov	lr, sl
200002e8:	464f      	mov	r7, r9
200002ea:	4646      	mov	r6, r8
200002ec:	b5c0      	push	{r6, r7, lr}
200002ee:	0007      	movs	r7, r0
200002f0:	000e      	movs	r6, r1
200002f2:	0015      	movs	r5, r2
200002f4:	2318      	movs	r3, #24
200002f6:	469a      	mov	sl, r3
200002f8:	881b      	ldrh	r3, [r3, #0]
200002fa:	2214      	movs	r2, #20
200002fc:	4690      	mov	r8, r2
200002fe:	8810      	ldrh	r0, [r2, #0]
20000300:	4928      	ldr	r1, [pc, #160]	; (200003a4 <flash_do_cmd+0xc0>)
20000302:	4798      	blx	r3
20000304:	4681      	mov	r9, r0
20000306:	4653      	mov	r3, sl
20000308:	881b      	ldrh	r3, [r3, #0]
2000030a:	4642      	mov	r2, r8
2000030c:	8810      	ldrh	r0, [r2, #0]
2000030e:	4926      	ldr	r1, [pc, #152]	; (200003a8 <flash_do_cmd+0xc4>)
20000310:	4798      	blx	r3
20000312:	0004      	movs	r4, r0
20000314:	4653      	mov	r3, sl
20000316:	881b      	ldrh	r3, [r3, #0]
20000318:	4642      	mov	r2, r8
2000031a:	8810      	ldrh	r0, [r2, #0]
2000031c:	4923      	ldr	r1, [pc, #140]	; (200003ac <flash_do_cmd+0xc8>)
2000031e:	4798      	blx	r3
20000320:	4680      	mov	r8, r0
20000322:	464b      	mov	r3, r9
20000324:	2b00      	cmp	r3, #0
20000326:	d00c      	beq.n	20000342 <flash_do_cmd+0x5e>
20000328:	2c00      	cmp	r4, #0
2000032a:	d00a      	beq.n	20000342 <flash_do_cmd+0x5e>
2000032c:	2800      	cmp	r0, #0
2000032e:	d008      	beq.n	20000342 <flash_do_cmd+0x5e>
20000330:	f7ff ffa4 	bl	2000027c <flash_init_boot2_copyout>
20000334:	47c8      	blx	r9
20000336:	47a0      	blx	r4
20000338:	2000      	movs	r0, #0
2000033a:	f7ff ffbf 	bl	200002bc <flash_cs_force>
2000033e:	002a      	movs	r2, r5
20000340:	e00f      	b.n	20000362 <flash_do_cmd+0x7e>
20000342:	4b1b      	ldr	r3, [pc, #108]	; (200003b0 <flash_do_cmd+0xcc>)
20000344:	4a1b      	ldr	r2, [pc, #108]	; (200003b4 <flash_do_cmd+0xd0>)
20000346:	2180      	movs	r1, #128	; 0x80
20000348:	481b      	ldr	r0, [pc, #108]	; (200003b8 <flash_do_cmd+0xd4>)
2000034a:	f000 fc09 	bl	20000b60 <____assert_func_veneer>
2000034e:	2b00      	cmp	r3, #0
20000350:	d007      	beq.n	20000362 <flash_do_cmd+0x7e>
20000352:	2a00      	cmp	r2, #0
20000354:	d005      	beq.n	20000362 <flash_do_cmd+0x7e>
20000356:	23c0      	movs	r3, #192	; 0xc0
20000358:	055b      	lsls	r3, r3, #21
2000035a:	6e1b      	ldr	r3, [r3, #96]	; 0x60
2000035c:	7033      	strb	r3, [r6, #0]
2000035e:	3a01      	subs	r2, #1
20000360:	3601      	adds	r6, #1
20000362:	002b      	movs	r3, r5
20000364:	4313      	orrs	r3, r2
20000366:	d012      	beq.n	2000038e <flash_do_cmd+0xaa>
20000368:	23c0      	movs	r3, #192	; 0xc0
2000036a:	055b      	lsls	r3, r3, #21
2000036c:	6a9c      	ldr	r4, [r3, #40]	; 0x28
2000036e:	2308      	movs	r3, #8
20000370:	4023      	ands	r3, r4
20000372:	07a1      	lsls	r1, r4, #30
20000374:	d5eb      	bpl.n	2000034e <flash_do_cmd+0x6a>
20000376:	2d00      	cmp	r5, #0
20000378:	d0e9      	beq.n	2000034e <flash_do_cmd+0x6a>
2000037a:	1b51      	subs	r1, r2, r5
2000037c:	290d      	cmp	r1, #13
2000037e:	d8e6      	bhi.n	2000034e <flash_do_cmd+0x6a>
20000380:	7838      	ldrb	r0, [r7, #0]
20000382:	21c0      	movs	r1, #192	; 0xc0
20000384:	0549      	lsls	r1, r1, #21
20000386:	6608      	str	r0, [r1, #96]	; 0x60
20000388:	3d01      	subs	r5, #1
2000038a:	3701      	adds	r7, #1
2000038c:	e7df      	b.n	2000034e <flash_do_cmd+0x6a>
2000038e:	2001      	movs	r0, #1
20000390:	f7ff ff94 	bl	200002bc <flash_cs_force>
20000394:	47c0      	blx	r8
20000396:	f7ff ff89 	bl	200002ac <flash_enable_xip_via_boot2>
2000039a:	bce0      	pop	{r5, r6, r7}
2000039c:	46ba      	mov	sl, r7
2000039e:	46b1      	mov	r9, r6
200003a0:	46a8      	mov	r8, r5
200003a2:	bdf0      	pop	{r4, r5, r6, r7, pc}
200003a4:	00004649 	.word	0x00004649
200003a8:	00005845 	.word	0x00005845
200003ac:	00004346 	.word	0x00004346
200003b0:	100080ec 	.word	0x100080ec
200003b4:	1000812c 	.word	0x1000812c
200003b8:	10007fe0 	.word	0x10007fe0

200003bc <reset_non_control_endpoints>:
200003bc:	b510      	push	{r4, lr}
200003be:	2300      	movs	r3, #0
200003c0:	e008      	b.n	200003d4 <reset_non_control_endpoints+0x18>
200003c2:	3301      	adds	r3, #1
200003c4:	00da      	lsls	r2, r3, #3
200003c6:	2100      	movs	r1, #0
200003c8:	4808      	ldr	r0, [pc, #32]	; (200003ec <reset_non_control_endpoints+0x30>)
200003ca:	5011      	str	r1, [r2, r0]
200003cc:	4684      	mov	ip, r0
200003ce:	4462      	add	r2, ip
200003d0:	6051      	str	r1, [r2, #4]
200003d2:	b2db      	uxtb	r3, r3
200003d4:	2b0e      	cmp	r3, #14
200003d6:	d9f4      	bls.n	200003c2 <reset_non_control_endpoints+0x6>
200003d8:	22f0      	movs	r2, #240	; 0xf0
200003da:	0092      	lsls	r2, r2, #2
200003dc:	2100      	movs	r1, #0
200003de:	4804      	ldr	r0, [pc, #16]	; (200003f0 <reset_non_control_endpoints+0x34>)
200003e0:	f000 fbae 	bl	20000b40 <____wrap_memset_veneer>
200003e4:	4b03      	ldr	r3, [pc, #12]	; (200003f4 <reset_non_control_endpoints+0x38>)
200003e6:	4a04      	ldr	r2, [pc, #16]	; (200003f8 <reset_non_control_endpoints+0x3c>)
200003e8:	601a      	str	r2, [r3, #0]
200003ea:	bd10      	pop	{r4, pc}
200003ec:	50100000 	.word	0x50100000
200003f0:	20001430 	.word	0x20001430
200003f4:	200017f4 	.word	0x200017f4
200003f8:	50100180 	.word	0x50100180

200003fc <hw_handle_buff_status>:
200003fc:	b5f0      	push	{r4, r5, r6, r7, lr}
200003fe:	46ce      	mov	lr, r9
20000400:	4647      	mov	r7, r8
20000402:	b580      	push	{r7, lr}
20000404:	b085      	sub	sp, #20
20000406:	4b23      	ldr	r3, [pc, #140]	; (20000494 <hw_handle_buff_status+0x98>)
20000408:	6d9f      	ldr	r7, [r3, #88]	; 0x58
2000040a:	2400      	movs	r4, #0
2000040c:	2601      	movs	r6, #1
2000040e:	e003      	b.n	20000418 <hw_handle_buff_status+0x1c>
20000410:	43b7      	bics	r7, r6
20000412:	0076      	lsls	r6, r6, #1
20000414:	3401      	adds	r4, #1
20000416:	b2e4      	uxtb	r4, r4
20000418:	2f00      	cmp	r7, #0
2000041a:	d036      	beq.n	2000048a <hw_handle_buff_status+0x8e>
2000041c:	2c1f      	cmp	r4, #31
2000041e:	d834      	bhi.n	2000048a <hw_handle_buff_status+0x8e>
20000420:	423e      	tst	r6, r7
20000422:	d0f6      	beq.n	20000412 <hw_handle_buff_status+0x16>
20000424:	4b1c      	ldr	r3, [pc, #112]	; (20000498 <hw_handle_buff_status+0x9c>)
20000426:	659e      	str	r6, [r3, #88]	; 0x58
20000428:	0863      	lsrs	r3, r4, #1
2000042a:	4699      	mov	r9, r3
2000042c:	2301      	movs	r3, #1
2000042e:	4063      	eors	r3, r4
20000430:	2201      	movs	r2, #1
20000432:	401a      	ands	r2, r3
20000434:	4690      	mov	r8, r2
20000436:	464b      	mov	r3, r9
20000438:	005d      	lsls	r5, r3, #1
2000043a:	4445      	add	r5, r8
2000043c:	016d      	lsls	r5, r5, #5
2000043e:	4b17      	ldr	r3, [pc, #92]	; (2000049c <hw_handle_buff_status+0xa0>)
20000440:	18ed      	adds	r5, r5, r3
20000442:	0028      	movs	r0, r5
20000444:	f000 fa42 	bl	200008cc <hw_endpoint_xfer_continue>
20000448:	2800      	cmp	r0, #0
2000044a:	d0e1      	beq.n	20000410 <hw_handle_buff_status+0x14>
2000044c:	464b      	mov	r3, r9
2000044e:	005b      	lsls	r3, r3, #1
20000450:	4443      	add	r3, r8
20000452:	015b      	lsls	r3, r3, #5
20000454:	4a11      	ldr	r2, [pc, #68]	; (2000049c <hw_handle_buff_status+0xa0>)
20000456:	18d3      	adds	r3, r2, r3
20000458:	789a      	ldrb	r2, [r3, #2]
2000045a:	4691      	mov	r9, r2
2000045c:	8adb      	ldrh	r3, [r3, #22]
2000045e:	4698      	mov	r8, r3
20000460:	220c      	movs	r2, #12
20000462:	2100      	movs	r1, #0
20000464:	a801      	add	r0, sp, #4
20000466:	f000 fb6b 	bl	20000b40 <____wrap_memset_veneer>
2000046a:	2307      	movs	r3, #7
2000046c:	466a      	mov	r2, sp
2000046e:	7153      	strb	r3, [r2, #5]
20000470:	466b      	mov	r3, sp
20000472:	464a      	mov	r2, r9
20000474:	721a      	strb	r2, [r3, #8]
20000476:	4643      	mov	r3, r8
20000478:	9303      	str	r3, [sp, #12]
2000047a:	2101      	movs	r1, #1
2000047c:	a801      	add	r0, sp, #4
2000047e:	f000 fa4d 	bl	2000091c <dcd_event_handler>
20000482:	0028      	movs	r0, r5
20000484:	f000 f9ac 	bl	200007e0 <hw_endpoint_reset_transfer>
20000488:	e7c2      	b.n	20000410 <hw_handle_buff_status+0x14>
2000048a:	b005      	add	sp, #20
2000048c:	bcc0      	pop	{r6, r7}
2000048e:	46b9      	mov	r9, r7
20000490:	46b0      	mov	r8, r6
20000492:	bdf0      	pop	{r4, r5, r6, r7, pc}
20000494:	50110000 	.word	0x50110000
20000498:	50113000 	.word	0x50113000
2000049c:	200013f0 	.word	0x200013f0

200004a0 <dcd_rp2040_irq>:
200004a0:	b5f0      	push	{r4, r5, r6, r7, lr}
200004a2:	b085      	sub	sp, #20
200004a4:	4a68      	ldr	r2, [pc, #416]	; (20000648 <dcd_rp2040_irq+0x1a8>)
200004a6:	2398      	movs	r3, #152	; 0x98
200004a8:	58d5      	ldr	r5, [r2, r3]
200004aa:	2380      	movs	r3, #128	; 0x80
200004ac:	029b      	lsls	r3, r3, #10
200004ae:	002c      	movs	r4, r5
200004b0:	401c      	ands	r4, r3
200004b2:	421d      	tst	r5, r3
200004b4:	d04a      	beq.n	2000054c <dcd_rp2040_irq+0xac>
200004b6:	4b65      	ldr	r3, [pc, #404]	; (2000064c <dcd_rp2040_irq+0x1ac>)
200004b8:	6a9a      	ldr	r2, [r3, #40]	; 0x28
200004ba:	4b65      	ldr	r3, [pc, #404]	; (20000650 <dcd_rp2040_irq+0x1b0>)
200004bc:	601a      	str	r2, [r3, #0]
200004be:	2400      	movs	r4, #0
200004c0:	2600      	movs	r6, #0
200004c2:	e009      	b.n	200004d8 <dcd_rp2040_irq+0x38>
200004c4:	4b63      	ldr	r3, [pc, #396]	; (20000654 <dcd_rp2040_irq+0x1b4>)
200004c6:	1899      	adds	r1, r3, r2
200004c8:	313c      	adds	r1, #60	; 0x3c
200004ca:	2300      	movs	r3, #0
200004cc:	700b      	strb	r3, [r1, #0]
200004ce:	f000 f9b9 	bl	20000844 <hw_endpoint_start_next_buffer>
200004d2:	003e      	movs	r6, r7
200004d4:	3401      	adds	r4, #1
200004d6:	b2e4      	uxtb	r4, r4
200004d8:	2c0f      	cmp	r4, #15
200004da:	d817      	bhi.n	2000050c <dcd_rp2040_irq+0x6c>
200004dc:	01a2      	lsls	r2, r4, #6
200004de:	0010      	movs	r0, r2
200004e0:	3020      	adds	r0, #32
200004e2:	4b5c      	ldr	r3, [pc, #368]	; (20000654 <dcd_rp2040_irq+0x1b4>)
200004e4:	18c0      	adds	r0, r0, r3
200004e6:	189b      	adds	r3, r3, r2
200004e8:	333b      	adds	r3, #59	; 0x3b
200004ea:	781b      	ldrb	r3, [r3, #0]
200004ec:	2b02      	cmp	r3, #2
200004ee:	d1f1      	bne.n	200004d4 <dcd_rp2040_irq+0x34>
200004f0:	4b58      	ldr	r3, [pc, #352]	; (20000654 <dcd_rp2040_irq+0x1b4>)
200004f2:	189b      	adds	r3, r3, r2
200004f4:	333a      	adds	r3, #58	; 0x3a
200004f6:	781f      	ldrb	r7, [r3, #0]
200004f8:	2f00      	cmp	r7, #0
200004fa:	d0eb      	beq.n	200004d4 <dcd_rp2040_irq+0x34>
200004fc:	4b55      	ldr	r3, [pc, #340]	; (20000654 <dcd_rp2040_irq+0x1b4>)
200004fe:	189b      	adds	r3, r3, r2
20000500:	333c      	adds	r3, #60	; 0x3c
20000502:	781b      	ldrb	r3, [r3, #0]
20000504:	2b00      	cmp	r3, #0
20000506:	d1dd      	bne.n	200004c4 <dcd_rp2040_irq+0x24>
20000508:	003e      	movs	r6, r7
2000050a:	e7e3      	b.n	200004d4 <dcd_rp2040_irq+0x34>
2000050c:	2e00      	cmp	r6, #0
2000050e:	d108      	bne.n	20000522 <dcd_rp2040_irq+0x82>
20000510:	4b51      	ldr	r3, [pc, #324]	; (20000658 <dcd_rp2040_irq+0x1b8>)
20000512:	781b      	ldrb	r3, [r3, #0]
20000514:	2b00      	cmp	r3, #0
20000516:	d104      	bne.n	20000522 <dcd_rp2040_irq+0x82>
20000518:	4a50      	ldr	r2, [pc, #320]	; (2000065c <dcd_rp2040_irq+0x1bc>)
2000051a:	3390      	adds	r3, #144	; 0x90
2000051c:	2180      	movs	r1, #128	; 0x80
2000051e:	0289      	lsls	r1, r1, #10
20000520:	50d1      	str	r1, [r2, r3]
20000522:	4b49      	ldr	r3, [pc, #292]	; (20000648 <dcd_rp2040_irq+0x1a8>)
20000524:	6c9c      	ldr	r4, [r3, #72]	; 0x48
20000526:	0564      	lsls	r4, r4, #21
20000528:	0d64      	lsrs	r4, r4, #21
2000052a:	220c      	movs	r2, #12
2000052c:	2100      	movs	r1, #0
2000052e:	a801      	add	r0, sp, #4
20000530:	f000 fb06 	bl	20000b40 <____wrap_memset_veneer>
20000534:	2300      	movs	r3, #0
20000536:	466a      	mov	r2, sp
20000538:	7113      	strb	r3, [r2, #4]
2000053a:	3303      	adds	r3, #3
2000053c:	7153      	strb	r3, [r2, #5]
2000053e:	9402      	str	r4, [sp, #8]
20000540:	2101      	movs	r1, #1
20000542:	a801      	add	r0, sp, #4
20000544:	f000 f9ea 	bl	2000091c <dcd_event_handler>
20000548:	2480      	movs	r4, #128	; 0x80
2000054a:	02a4      	lsls	r4, r4, #10
2000054c:	06eb      	lsls	r3, r5, #27
2000054e:	d409      	bmi.n	20000564 <dcd_rp2040_irq+0xc4>
20000550:	03eb      	lsls	r3, r5, #15
20000552:	d529      	bpl.n	200005a8 <dcd_rp2040_irq+0x108>
20000554:	2380      	movs	r3, #128	; 0x80
20000556:	025b      	lsls	r3, r3, #9
20000558:	431c      	orrs	r4, r3
2000055a:	ab01      	add	r3, sp, #4
2000055c:	4a40      	ldr	r2, [pc, #256]	; (20000660 <dcd_rp2040_irq+0x1c0>)
2000055e:	801a      	strh	r2, [r3, #0]
20000560:	2600      	movs	r6, #0
20000562:	e00b      	b.n	2000057c <dcd_rp2040_irq+0xdc>
20000564:	2310      	movs	r3, #16
20000566:	431c      	orrs	r4, r3
20000568:	f7ff ff48 	bl	200003fc <hw_handle_buff_status>
2000056c:	e7f0      	b.n	20000550 <dcd_rp2040_irq+0xb0>
2000056e:	ab01      	add	r3, sp, #4
20000570:	5d98      	ldrb	r0, [r3, r6]
20000572:	f000 fb15 	bl	20000ba0 <__hw_endpoint_get_by_addr_veneer>
20000576:	2301      	movs	r3, #1
20000578:	70c3      	strb	r3, [r0, #3]
2000057a:	3601      	adds	r6, #1
2000057c:	2e01      	cmp	r6, #1
2000057e:	d9f6      	bls.n	2000056e <dcd_rp2040_irq+0xce>
20000580:	ae01      	add	r6, sp, #4
20000582:	220c      	movs	r2, #12
20000584:	2100      	movs	r1, #0
20000586:	0030      	movs	r0, r6
20000588:	f000 fada 	bl	20000b40 <____wrap_memset_veneer>
2000058c:	2306      	movs	r3, #6
2000058e:	7073      	strb	r3, [r6, #1]
20000590:	4a34      	ldr	r2, [pc, #208]	; (20000664 <dcd_rp2040_irq+0x1c4>)
20000592:	ab02      	add	r3, sp, #8
20000594:	ca03      	ldmia	r2!, {r0, r1}
20000596:	c303      	stmia	r3!, {r0, r1}
20000598:	2101      	movs	r1, #1
2000059a:	0030      	movs	r0, r6
2000059c:	f000 f9be 	bl	2000091c <dcd_event_handler>
200005a0:	4b2e      	ldr	r3, [pc, #184]	; (2000065c <dcd_rp2040_irq+0x1bc>)
200005a2:	2280      	movs	r2, #128	; 0x80
200005a4:	0292      	lsls	r2, r2, #10
200005a6:	651a      	str	r2, [r3, #80]	; 0x50
200005a8:	04eb      	lsls	r3, r5, #19
200005aa:	d407      	bmi.n	200005bc <dcd_rp2040_irq+0x11c>
200005ac:	046b      	lsls	r3, r5, #17
200005ae:	d41e      	bmi.n	200005ee <dcd_rp2040_irq+0x14e>
200005b0:	042b      	lsls	r3, r5, #16
200005b2:	d42f      	bmi.n	20000614 <dcd_rp2040_irq+0x174>
200005b4:	42ac      	cmp	r4, r5
200005b6:	d141      	bne.n	2000063c <dcd_rp2040_irq+0x19c>
200005b8:	b005      	add	sp, #20
200005ba:	bdf0      	pop	{r4, r5, r6, r7, pc}
200005bc:	2380      	movs	r3, #128	; 0x80
200005be:	015b      	lsls	r3, r3, #5
200005c0:	431c      	orrs	r4, r3
200005c2:	4b21      	ldr	r3, [pc, #132]	; (20000648 <dcd_rp2040_irq+0x1a8>)
200005c4:	2200      	movs	r2, #0
200005c6:	601a      	str	r2, [r3, #0]
200005c8:	f7ff fef8 	bl	200003bc <reset_non_control_endpoints>
200005cc:	ae01      	add	r6, sp, #4
200005ce:	220c      	movs	r2, #12
200005d0:	2100      	movs	r1, #0
200005d2:	0030      	movs	r0, r6
200005d4:	f000 fab4 	bl	20000b40 <____wrap_memset_veneer>
200005d8:	2301      	movs	r3, #1
200005da:	7073      	strb	r3, [r6, #1]
200005dc:	2101      	movs	r1, #1
200005de:	0030      	movs	r0, r6
200005e0:	f000 f99c 	bl	2000091c <dcd_event_handler>
200005e4:	4b1d      	ldr	r3, [pc, #116]	; (2000065c <dcd_rp2040_irq+0x1bc>)
200005e6:	2280      	movs	r2, #128	; 0x80
200005e8:	0312      	lsls	r2, r2, #12
200005ea:	651a      	str	r2, [r3, #80]	; 0x50
200005ec:	e7de      	b.n	200005ac <dcd_rp2040_irq+0x10c>
200005ee:	2380      	movs	r3, #128	; 0x80
200005f0:	01db      	lsls	r3, r3, #7
200005f2:	431c      	orrs	r4, r3
200005f4:	ae01      	add	r6, sp, #4
200005f6:	220c      	movs	r2, #12
200005f8:	2100      	movs	r1, #0
200005fa:	0030      	movs	r0, r6
200005fc:	f000 faa0 	bl	20000b40 <____wrap_memset_veneer>
20000600:	2304      	movs	r3, #4
20000602:	7073      	strb	r3, [r6, #1]
20000604:	2101      	movs	r1, #1
20000606:	0030      	movs	r0, r6
20000608:	f000 f988 	bl	2000091c <dcd_event_handler>
2000060c:	4b13      	ldr	r3, [pc, #76]	; (2000065c <dcd_rp2040_irq+0x1bc>)
2000060e:	2210      	movs	r2, #16
20000610:	651a      	str	r2, [r3, #80]	; 0x50
20000612:	e7cd      	b.n	200005b0 <dcd_rp2040_irq+0x110>
20000614:	2380      	movs	r3, #128	; 0x80
20000616:	021b      	lsls	r3, r3, #8
20000618:	431c      	orrs	r4, r3
2000061a:	ae01      	add	r6, sp, #4
2000061c:	220c      	movs	r2, #12
2000061e:	2100      	movs	r1, #0
20000620:	0030      	movs	r0, r6
20000622:	f000 fa8d 	bl	20000b40 <____wrap_memset_veneer>
20000626:	2305      	movs	r3, #5
20000628:	7073      	strb	r3, [r6, #1]
2000062a:	2101      	movs	r1, #1
2000062c:	0030      	movs	r0, r6
2000062e:	f000 f975 	bl	2000091c <dcd_event_handler>
20000632:	4b0a      	ldr	r3, [pc, #40]	; (2000065c <dcd_rp2040_irq+0x1bc>)
20000634:	2280      	movs	r2, #128	; 0x80
20000636:	0112      	lsls	r2, r2, #4
20000638:	651a      	str	r2, [r3, #80]	; 0x50
2000063a:	e7bb      	b.n	200005b4 <dcd_rp2040_irq+0x114>
2000063c:	0021      	movs	r1, r4
2000063e:	4069      	eors	r1, r5
20000640:	4809      	ldr	r0, [pc, #36]	; (20000668 <dcd_rp2040_irq+0x1c8>)
20000642:	f000 faa5 	bl	20000b90 <__panic_veneer>
20000646:	46c0      	nop			; (mov r8, r8)
20000648:	50110000 	.word	0x50110000
2000064c:	40054000 	.word	0x40054000
20000650:	200013e8 	.word	0x200013e8
20000654:	200013f0 	.word	0x200013f0
20000658:	20001a52 	.word	0x20001a52
2000065c:	50113000 	.word	0x50113000
20000660:	ffff8000 	.word	0xffff8000
20000664:	50100000 	.word	0x50100000
20000668:	10008210 	.word	0x10008210

2000066c <e15_is_bulkin_ep>:
2000066c:	4b09      	ldr	r3, [pc, #36]	; (20000694 <e15_is_bulkin_ep+0x28>)
2000066e:	6c1b      	ldr	r3, [r3, #64]	; 0x40
20000670:	079b      	lsls	r3, r3, #30
20000672:	d40c      	bmi.n	2000068e <e15_is_bulkin_ep+0x22>
20000674:	7883      	ldrb	r3, [r0, #2]
20000676:	09db      	lsrs	r3, r3, #7
20000678:	2b01      	cmp	r3, #1
2000067a:	d001      	beq.n	20000680 <e15_is_bulkin_ep+0x14>
2000067c:	2000      	movs	r0, #0
2000067e:	e007      	b.n	20000690 <e15_is_bulkin_ep+0x24>
20000680:	7ec3      	ldrb	r3, [r0, #27]
20000682:	2b02      	cmp	r3, #2
20000684:	d001      	beq.n	2000068a <e15_is_bulkin_ep+0x1e>
20000686:	2000      	movs	r0, #0
20000688:	e002      	b.n	20000690 <e15_is_bulkin_ep+0x24>
2000068a:	2001      	movs	r0, #1
2000068c:	e000      	b.n	20000690 <e15_is_bulkin_ep+0x24>
2000068e:	2000      	movs	r0, #0
20000690:	4770      	bx	lr
20000692:	46c0      	nop			; (mov r8, r8)
20000694:	50110000 	.word	0x50110000

20000698 <e15_is_critical_frame_period>:
20000698:	b510      	push	{r4, lr}
2000069a:	f7ff ffe7 	bl	2000066c <e15_is_bulkin_ep>
2000069e:	2800      	cmp	r0, #0
200006a0:	d009      	beq.n	200006b6 <e15_is_critical_frame_period+0x1e>
200006a2:	4b06      	ldr	r3, [pc, #24]	; (200006bc <e15_is_critical_frame_period+0x24>)
200006a4:	6a9b      	ldr	r3, [r3, #40]	; 0x28
200006a6:	4a06      	ldr	r2, [pc, #24]	; (200006c0 <e15_is_critical_frame_period+0x28>)
200006a8:	6812      	ldr	r2, [r2, #0]
200006aa:	1a9b      	subs	r3, r3, r2
200006ac:	4a05      	ldr	r2, [pc, #20]	; (200006c4 <e15_is_critical_frame_period+0x2c>)
200006ae:	4694      	mov	ip, r2
200006b0:	4463      	add	r3, ip
200006b2:	2bc6      	cmp	r3, #198	; 0xc6
200006b4:	d800      	bhi.n	200006b8 <e15_is_critical_frame_period+0x20>
200006b6:	bd10      	pop	{r4, pc}
200006b8:	2000      	movs	r0, #0
200006ba:	e7fc      	b.n	200006b6 <e15_is_critical_frame_period+0x1e>
200006bc:	40054000 	.word	0x40054000
200006c0:	200013e8 	.word	0x200013e8
200006c4:	fffffce0 	.word	0xfffffce0

200006c8 <prepare_ep_buffer>:
200006c8:	b5f8      	push	{r3, r4, r5, r6, r7, lr}
200006ca:	0004      	movs	r4, r0
200006cc:	000f      	movs	r7, r1
200006ce:	8a83      	ldrh	r3, [r0, #20]
200006d0:	8b02      	ldrh	r2, [r0, #24]
200006d2:	1c1e      	adds	r6, r3, #0
200006d4:	4293      	cmp	r3, r2
200006d6:	d900      	bls.n	200006da <prepare_ep_buffer+0x12>
200006d8:	1c16      	adds	r6, r2, #0
200006da:	b2b6      	uxth	r6, r6
200006dc:	1b9b      	subs	r3, r3, r6
200006de:	82a3      	strh	r3, [r4, #20]
200006e0:	2580      	movs	r5, #128	; 0x80
200006e2:	00ed      	lsls	r5, r5, #3
200006e4:	4335      	orrs	r5, r6
200006e6:	78e3      	ldrb	r3, [r4, #3]
200006e8:	2b00      	cmp	r3, #0
200006ea:	d013      	beq.n	20000714 <prepare_ep_buffer+0x4c>
200006ec:	2280      	movs	r2, #128	; 0x80
200006ee:	0192      	lsls	r2, r2, #6
200006f0:	4315      	orrs	r5, r2
200006f2:	2201      	movs	r2, #1
200006f4:	4053      	eors	r3, r2
200006f6:	70e3      	strb	r3, [r4, #3]
200006f8:	7863      	ldrb	r3, [r4, #1]
200006fa:	2b00      	cmp	r3, #0
200006fc:	d00c      	beq.n	20000718 <prepare_ep_buffer+0x50>
200006fe:	8aa3      	ldrh	r3, [r4, #20]
20000700:	2b00      	cmp	r3, #0
20000702:	d102      	bne.n	2000070a <prepare_ep_buffer+0x42>
20000704:	2380      	movs	r3, #128	; 0x80
20000706:	01db      	lsls	r3, r3, #7
20000708:	431d      	orrs	r5, r3
2000070a:	2f00      	cmp	r7, #0
2000070c:	d000      	beq.n	20000710 <prepare_ep_buffer+0x48>
2000070e:	042d      	lsls	r5, r5, #16
20000710:	0028      	movs	r0, r5
20000712:	bdf8      	pop	{r3, r4, r5, r6, r7, pc}
20000714:	2200      	movs	r2, #0
20000716:	e7eb      	b.n	200006f0 <prepare_ep_buffer+0x28>
20000718:	01b8      	lsls	r0, r7, #6
2000071a:	68e3      	ldr	r3, [r4, #12]
2000071c:	469c      	mov	ip, r3
2000071e:	4460      	add	r0, ip
20000720:	0032      	movs	r2, r6
20000722:	6921      	ldr	r1, [r4, #16]
20000724:	f000 fa04 	bl	20000b30 <____wrap_memcpy_veneer>
20000728:	6923      	ldr	r3, [r4, #16]
2000072a:	469c      	mov	ip, r3
2000072c:	4466      	add	r6, ip
2000072e:	6126      	str	r6, [r4, #16]
20000730:	2380      	movs	r3, #128	; 0x80
20000732:	021b      	lsls	r3, r3, #8
20000734:	431d      	orrs	r5, r3
20000736:	e7e2      	b.n	200006fe <prepare_ep_buffer+0x36>

20000738 <sync_ep_buffer>:
20000738:	b570      	push	{r4, r5, r6, lr}
2000073a:	0004      	movs	r4, r0
2000073c:	6883      	ldr	r3, [r0, #8]
2000073e:	681b      	ldr	r3, [r3, #0]
20000740:	2900      	cmp	r1, #0
20000742:	d000      	beq.n	20000746 <sync_ep_buffer+0xe>
20000744:	0c1b      	lsrs	r3, r3, #16
20000746:	059d      	lsls	r5, r3, #22
20000748:	0dad      	lsrs	r5, r5, #22
2000074a:	7862      	ldrb	r2, [r4, #1]
2000074c:	2a00      	cmp	r2, #0
2000074e:	d112      	bne.n	20000776 <sync_ep_buffer+0x3e>
20000750:	041b      	lsls	r3, r3, #16
20000752:	d409      	bmi.n	20000768 <sync_ep_buffer+0x30>
20000754:	8ae3      	ldrh	r3, [r4, #22]
20000756:	195b      	adds	r3, r3, r5
20000758:	82e3      	strh	r3, [r4, #22]
2000075a:	8b23      	ldrh	r3, [r4, #24]
2000075c:	42ab      	cmp	r3, r5
2000075e:	d901      	bls.n	20000764 <sync_ep_buffer+0x2c>
20000760:	2300      	movs	r3, #0
20000762:	82a3      	strh	r3, [r4, #20]
20000764:	0028      	movs	r0, r5
20000766:	bd70      	pop	{r4, r5, r6, pc}
20000768:	2181      	movs	r1, #129	; 0x81
2000076a:	4b0f      	ldr	r3, [pc, #60]	; (200007a8 <sync_ep_buffer+0x70>)
2000076c:	4a0f      	ldr	r2, [pc, #60]	; (200007ac <sync_ep_buffer+0x74>)
2000076e:	0049      	lsls	r1, r1, #1
20000770:	480f      	ldr	r0, [pc, #60]	; (200007b0 <sync_ep_buffer+0x78>)
20000772:	f000 f9f5 	bl	20000b60 <____assert_func_veneer>
20000776:	041b      	lsls	r3, r3, #16
20000778:	d50e      	bpl.n	20000798 <sync_ep_buffer+0x60>
2000077a:	0189      	lsls	r1, r1, #6
2000077c:	68e3      	ldr	r3, [r4, #12]
2000077e:	469c      	mov	ip, r3
20000780:	4461      	add	r1, ip
20000782:	002a      	movs	r2, r5
20000784:	6920      	ldr	r0, [r4, #16]
20000786:	f000 f9d3 	bl	20000b30 <____wrap_memcpy_veneer>
2000078a:	8ae3      	ldrh	r3, [r4, #22]
2000078c:	195b      	adds	r3, r3, r5
2000078e:	82e3      	strh	r3, [r4, #22]
20000790:	6923      	ldr	r3, [r4, #16]
20000792:	195b      	adds	r3, r3, r5
20000794:	6123      	str	r3, [r4, #16]
20000796:	e7e0      	b.n	2000075a <sync_ep_buffer+0x22>
20000798:	210a      	movs	r1, #10
2000079a:	4b06      	ldr	r3, [pc, #24]	; (200007b4 <sync_ep_buffer+0x7c>)
2000079c:	4a03      	ldr	r2, [pc, #12]	; (200007ac <sync_ep_buffer+0x74>)
2000079e:	31ff      	adds	r1, #255	; 0xff
200007a0:	4803      	ldr	r0, [pc, #12]	; (200007b0 <sync_ep_buffer+0x78>)
200007a2:	f000 f9dd 	bl	20000b60 <____assert_func_veneer>
200007a6:	46c0      	nop			; (mov r8, r8)
200007a8:	10008290 	.word	0x10008290
200007ac:	1000838c 	.word	0x1000838c
200007b0:	100082b0 	.word	0x100082b0
200007b4:	10008320 	.word	0x10008320

200007b8 <_hw_endpoint_xfer_sync>:
200007b8:	b510      	push	{r4, lr}
200007ba:	0004      	movs	r4, r0
200007bc:	6883      	ldr	r3, [r0, #8]
200007be:	681b      	ldr	r3, [r3, #0]
200007c0:	2100      	movs	r1, #0
200007c2:	f7ff ffb9 	bl	20000738 <sync_ep_buffer>
200007c6:	6863      	ldr	r3, [r4, #4]
200007c8:	681b      	ldr	r3, [r3, #0]
200007ca:	005b      	lsls	r3, r3, #1
200007cc:	d502      	bpl.n	200007d4 <_hw_endpoint_xfer_sync+0x1c>
200007ce:	8b23      	ldrh	r3, [r4, #24]
200007d0:	4283      	cmp	r3, r0
200007d2:	d000      	beq.n	200007d6 <_hw_endpoint_xfer_sync+0x1e>
200007d4:	bd10      	pop	{r4, pc}
200007d6:	2101      	movs	r1, #1
200007d8:	0020      	movs	r0, r4
200007da:	f7ff ffad 	bl	20000738 <sync_ep_buffer>
200007de:	e7f9      	b.n	200007d4 <_hw_endpoint_xfer_sync+0x1c>

200007e0 <hw_endpoint_reset_transfer>:
200007e0:	2300      	movs	r3, #0
200007e2:	7683      	strb	r3, [r0, #26]
200007e4:	8283      	strh	r3, [r0, #20]
200007e6:	82c3      	strh	r3, [r0, #22]
200007e8:	6103      	str	r3, [r0, #16]
200007ea:	4770      	bx	lr

200007ec <_hw_endpoint_buffer_control_update32>:
200007ec:	b510      	push	{r4, lr}
200007ee:	2900      	cmp	r1, #0
200007f0:	d002      	beq.n	200007f8 <_hw_endpoint_buffer_control_update32+0xc>
200007f2:	6883      	ldr	r3, [r0, #8]
200007f4:	681b      	ldr	r3, [r3, #0]
200007f6:	4019      	ands	r1, r3
200007f8:	2a00      	cmp	r2, #0
200007fa:	d00f      	beq.n	2000081c <_hw_endpoint_buffer_control_update32+0x30>
200007fc:	4311      	orrs	r1, r2
200007fe:	0553      	lsls	r3, r2, #21
20000800:	d50c      	bpl.n	2000081c <_hw_endpoint_buffer_control_update32+0x30>
20000802:	6882      	ldr	r2, [r0, #8]
20000804:	6813      	ldr	r3, [r2, #0]
20000806:	055b      	lsls	r3, r3, #21
20000808:	d40b      	bmi.n	20000822 <_hw_endpoint_buffer_control_update32+0x36>
2000080a:	4b0b      	ldr	r3, [pc, #44]	; (20000838 <_hw_endpoint_buffer_control_update32+0x4c>)
2000080c:	400b      	ands	r3, r1
2000080e:	6013      	str	r3, [r2, #0]
20000810:	e7ff      	b.n	20000812 <_hw_endpoint_buffer_control_update32+0x26>
20000812:	e7ff      	b.n	20000814 <_hw_endpoint_buffer_control_update32+0x28>
20000814:	e7ff      	b.n	20000816 <_hw_endpoint_buffer_control_update32+0x2a>
20000816:	e7ff      	b.n	20000818 <_hw_endpoint_buffer_control_update32+0x2c>
20000818:	e7ff      	b.n	2000081a <_hw_endpoint_buffer_control_update32+0x2e>
2000081a:	e7ff      	b.n	2000081c <_hw_endpoint_buffer_control_update32+0x30>
2000081c:	6883      	ldr	r3, [r0, #8]
2000081e:	6019      	str	r1, [r3, #0]
20000820:	bd10      	pop	{r4, pc}
20000822:	7883      	ldrb	r3, [r0, #2]
20000824:	217f      	movs	r1, #127	; 0x7f
20000826:	4019      	ands	r1, r3
20000828:	09db      	lsrs	r3, r3, #7
2000082a:	009b      	lsls	r3, r3, #2
2000082c:	4a03      	ldr	r2, [pc, #12]	; (2000083c <_hw_endpoint_buffer_control_update32+0x50>)
2000082e:	589a      	ldr	r2, [r3, r2]
20000830:	4803      	ldr	r0, [pc, #12]	; (20000840 <_hw_endpoint_buffer_control_update32+0x54>)
20000832:	f000 f9ad 	bl	20000b90 <__panic_veneer>
20000836:	46c0      	nop			; (mov r8, r8)
20000838:	fffffbff 	.word	0xfffffbff
2000083c:	20000c80 	.word	0x20000c80
20000840:	10008340 	.word	0x10008340

20000844 <hw_endpoint_start_next_buffer>:
20000844:	b570      	push	{r4, r5, r6, lr}
20000846:	0004      	movs	r4, r0
20000848:	6843      	ldr	r3, [r0, #4]
2000084a:	681e      	ldr	r6, [r3, #0]
2000084c:	2100      	movs	r1, #0
2000084e:	f7ff ff3b 	bl	200006c8 <prepare_ep_buffer>
20000852:	2580      	movs	r5, #128	; 0x80
20000854:	016d      	lsls	r5, r5, #5
20000856:	4305      	orrs	r5, r0
20000858:	4b19      	ldr	r3, [pc, #100]	; (200008c0 <hw_endpoint_start_next_buffer+0x7c>)
2000085a:	6c1b      	ldr	r3, [r3, #64]	; 0x40
2000085c:	2202      	movs	r2, #2
2000085e:	0011      	movs	r1, r2
20000860:	4019      	ands	r1, r3
20000862:	421a      	tst	r2, r3
20000864:	d102      	bne.n	2000086c <hw_endpoint_start_next_buffer+0x28>
20000866:	78a3      	ldrb	r3, [r4, #2]
20000868:	09db      	lsrs	r3, r3, #7
2000086a:	d006      	beq.n	2000087a <hw_endpoint_start_next_buffer+0x36>
2000086c:	2900      	cmp	r1, #0
2000086e:	d006      	beq.n	2000087e <hw_endpoint_start_next_buffer+0x3a>
20000870:	78a3      	ldrb	r3, [r4, #2]
20000872:	065b      	lsls	r3, r3, #25
20000874:	d116      	bne.n	200008a4 <hw_endpoint_start_next_buffer+0x60>
20000876:	2300      	movs	r3, #0
20000878:	e002      	b.n	20000880 <hw_endpoint_start_next_buffer+0x3c>
2000087a:	2301      	movs	r3, #1
2000087c:	e000      	b.n	20000880 <hw_endpoint_start_next_buffer+0x3c>
2000087e:	2300      	movs	r3, #0
20000880:	8aa2      	ldrh	r2, [r4, #20]
20000882:	2a00      	cmp	r2, #0
20000884:	d001      	beq.n	2000088a <hw_endpoint_start_next_buffer+0x46>
20000886:	2b00      	cmp	r3, #0
20000888:	d00e      	beq.n	200008a8 <hw_endpoint_start_next_buffer+0x64>
2000088a:	4b0e      	ldr	r3, [pc, #56]	; (200008c4 <hw_endpoint_start_next_buffer+0x80>)
2000088c:	401e      	ands	r6, r3
2000088e:	2380      	movs	r3, #128	; 0x80
20000890:	059b      	lsls	r3, r3, #22
20000892:	4333      	orrs	r3, r6
20000894:	6862      	ldr	r2, [r4, #4]
20000896:	6013      	str	r3, [r2, #0]
20000898:	002a      	movs	r2, r5
2000089a:	2100      	movs	r1, #0
2000089c:	0020      	movs	r0, r4
2000089e:	f7ff ffa5 	bl	200007ec <_hw_endpoint_buffer_control_update32>
200008a2:	bd70      	pop	{r4, r5, r6, pc}
200008a4:	2301      	movs	r3, #1
200008a6:	e7eb      	b.n	20000880 <hw_endpoint_start_next_buffer+0x3c>
200008a8:	2101      	movs	r1, #1
200008aa:	0020      	movs	r0, r4
200008ac:	f7ff ff0c 	bl	200006c8 <prepare_ep_buffer>
200008b0:	4305      	orrs	r5, r0
200008b2:	4b05      	ldr	r3, [pc, #20]	; (200008c8 <hw_endpoint_start_next_buffer+0x84>)
200008b4:	401e      	ands	r6, r3
200008b6:	23a0      	movs	r3, #160	; 0xa0
200008b8:	05db      	lsls	r3, r3, #23
200008ba:	4333      	orrs	r3, r6
200008bc:	e7ea      	b.n	20000894 <hw_endpoint_start_next_buffer+0x50>
200008be:	46c0      	nop			; (mov r8, r8)
200008c0:	50110000 	.word	0x50110000
200008c4:	afffffff 	.word	0xafffffff
200008c8:	dfffffff 	.word	0xdfffffff

200008cc <hw_endpoint_xfer_continue>:
200008cc:	b570      	push	{r4, r5, r6, lr}
200008ce:	0004      	movs	r4, r0
200008d0:	7e85      	ldrb	r5, [r0, #26]
200008d2:	2d00      	cmp	r5, #0
200008d4:	d006      	beq.n	200008e4 <hw_endpoint_xfer_continue+0x18>
200008d6:	f7ff ff6f 	bl	200007b8 <_hw_endpoint_xfer_sync>
200008da:	8aa3      	ldrh	r3, [r4, #20]
200008dc:	2b00      	cmp	r3, #0
200008de:	d10b      	bne.n	200008f8 <hw_endpoint_xfer_continue+0x2c>
200008e0:	0028      	movs	r0, r5
200008e2:	bd70      	pop	{r4, r5, r6, pc}
200008e4:	7883      	ldrb	r3, [r0, #2]
200008e6:	217f      	movs	r1, #127	; 0x7f
200008e8:	4019      	ands	r1, r3
200008ea:	09db      	lsrs	r3, r3, #7
200008ec:	009b      	lsls	r3, r3, #2
200008ee:	4a09      	ldr	r2, [pc, #36]	; (20000914 <hw_endpoint_xfer_continue+0x48>)
200008f0:	589a      	ldr	r2, [r3, r2]
200008f2:	4809      	ldr	r0, [pc, #36]	; (20000918 <hw_endpoint_xfer_continue+0x4c>)
200008f4:	f000 f94c 	bl	20000b90 <__panic_veneer>
200008f8:	0020      	movs	r0, r4
200008fa:	f7ff fecd 	bl	20000698 <e15_is_critical_frame_period>
200008fe:	1e05      	subs	r5, r0, #0
20000900:	d003      	beq.n	2000090a <hw_endpoint_xfer_continue+0x3e>
20000902:	2301      	movs	r3, #1
20000904:	7723      	strb	r3, [r4, #28]
20000906:	2500      	movs	r5, #0
20000908:	e7ea      	b.n	200008e0 <hw_endpoint_xfer_continue+0x14>
2000090a:	0020      	movs	r0, r4
2000090c:	f7ff ff9a 	bl	20000844 <hw_endpoint_start_next_buffer>
20000910:	e7e6      	b.n	200008e0 <hw_endpoint_xfer_continue+0x14>
20000912:	46c0      	nop			; (mov r8, r8)
20000914:	20000c80 	.word	0x20000c80
20000918:	10008360 	.word	0x10008360

2000091c <dcd_event_handler>:
2000091c:	b530      	push	{r4, r5, lr}
2000091e:	b085      	sub	sp, #20
20000920:	0005      	movs	r5, r0
20000922:	7843      	ldrb	r3, [r0, #1]
20000924:	2b04      	cmp	r3, #4
20000926:	d100      	bne.n	2000092a <dcd_event_handler+0xe>
20000928:	e059      	b.n	200009de <dcd_event_handler+0xc2>
2000092a:	d806      	bhi.n	2000093a <dcd_event_handler+0x1e>
2000092c:	2b02      	cmp	r3, #2
2000092e:	d02b      	beq.n	20000988 <dcd_event_handler+0x6c>
20000930:	2b03      	cmp	r3, #3
20000932:	d000      	beq.n	20000936 <dcd_event_handler+0x1a>
20000934:	e0cb      	b.n	20000ace <dcd_event_handler+0x1b2>
20000936:	2400      	movs	r4, #0
20000938:	e083      	b.n	20000a42 <dcd_event_handler+0x126>
2000093a:	2b05      	cmp	r3, #5
2000093c:	d000      	beq.n	20000940 <dcd_event_handler+0x24>
2000093e:	e0c6      	b.n	20000ace <dcd_event_handler+0x1b2>
20000940:	4b70      	ldr	r3, [pc, #448]	; (20000b04 <dcd_event_handler+0x1e8>)
20000942:	781b      	ldrb	r3, [r3, #0]
20000944:	07db      	lsls	r3, r3, #31
20000946:	d548      	bpl.n	200009da <dcd_event_handler+0xbe>
20000948:	4a6e      	ldr	r2, [pc, #440]	; (20000b04 <dcd_event_handler+0x1e8>)
2000094a:	7813      	ldrb	r3, [r2, #0]
2000094c:	2104      	movs	r1, #4
2000094e:	438b      	bics	r3, r1
20000950:	7013      	strb	r3, [r2, #0]
20000952:	4b6d      	ldr	r3, [pc, #436]	; (20000b08 <dcd_event_handler+0x1ec>)
20000954:	681c      	ldr	r4, [r3, #0]
20000956:	0021      	movs	r1, r4
20000958:	3114      	adds	r1, #20
2000095a:	6962      	ldr	r2, [r4, #20]
2000095c:	f3ef 8010 	mrs	r0, PRIMASK
20000960:	b672      	cpsid	i
20000962:	6813      	ldr	r3, [r2, #0]
20000964:	2b00      	cmp	r3, #0
20000966:	d0fc      	beq.n	20000962 <dcd_event_handler+0x46>
20000968:	f3bf 8f5f 	dmb	sy
2000096c:	6048      	str	r0, [r1, #4]
2000096e:	0029      	movs	r1, r5
20000970:	0020      	movs	r0, r4
20000972:	f000 f8d5 	bl	20000b20 <__tu_fifo_write_veneer>
20000976:	6962      	ldr	r2, [r4, #20]
20000978:	69a3      	ldr	r3, [r4, #24]
2000097a:	f3bf 8f5f 	dmb	sy
2000097e:	2100      	movs	r1, #0
20000980:	6011      	str	r1, [r2, #0]
20000982:	f383 8810 	msr	PRIMASK, r3
20000986:	e028      	b.n	200009da <dcd_event_handler+0xbe>
20000988:	4b5e      	ldr	r3, [pc, #376]	; (20000b04 <dcd_event_handler+0x1e8>)
2000098a:	781a      	ldrb	r2, [r3, #0]
2000098c:	2101      	movs	r1, #1
2000098e:	438a      	bics	r2, r1
20000990:	701a      	strb	r2, [r3, #0]
20000992:	781a      	ldrb	r2, [r3, #0]
20000994:	3101      	adds	r1, #1
20000996:	438a      	bics	r2, r1
20000998:	701a      	strb	r2, [r3, #0]
2000099a:	2200      	movs	r2, #0
2000099c:	705a      	strb	r2, [r3, #1]
2000099e:	781a      	ldrb	r2, [r3, #0]
200009a0:	3102      	adds	r1, #2
200009a2:	438a      	bics	r2, r1
200009a4:	701a      	strb	r2, [r3, #0]
200009a6:	4b58      	ldr	r3, [pc, #352]	; (20000b08 <dcd_event_handler+0x1ec>)
200009a8:	681c      	ldr	r4, [r3, #0]
200009aa:	0021      	movs	r1, r4
200009ac:	3114      	adds	r1, #20
200009ae:	6962      	ldr	r2, [r4, #20]
200009b0:	f3ef 8010 	mrs	r0, PRIMASK
200009b4:	b672      	cpsid	i
200009b6:	6813      	ldr	r3, [r2, #0]
200009b8:	2b00      	cmp	r3, #0
200009ba:	d0fc      	beq.n	200009b6 <dcd_event_handler+0x9a>
200009bc:	f3bf 8f5f 	dmb	sy
200009c0:	6048      	str	r0, [r1, #4]
200009c2:	0029      	movs	r1, r5
200009c4:	0020      	movs	r0, r4
200009c6:	f000 f8ab 	bl	20000b20 <__tu_fifo_write_veneer>
200009ca:	6962      	ldr	r2, [r4, #20]
200009cc:	69a3      	ldr	r3, [r4, #24]
200009ce:	f3bf 8f5f 	dmb	sy
200009d2:	2100      	movs	r1, #0
200009d4:	6011      	str	r1, [r2, #0]
200009d6:	f383 8810 	msr	PRIMASK, r3
200009da:	b005      	add	sp, #20
200009dc:	bd30      	pop	{r4, r5, pc}
200009de:	4b49      	ldr	r3, [pc, #292]	; (20000b04 <dcd_event_handler+0x1e8>)
200009e0:	781b      	ldrb	r3, [r3, #0]
200009e2:	07db      	lsls	r3, r3, #31
200009e4:	d5f9      	bpl.n	200009da <dcd_event_handler+0xbe>
200009e6:	4a47      	ldr	r2, [pc, #284]	; (20000b04 <dcd_event_handler+0x1e8>)
200009e8:	7813      	ldrb	r3, [r2, #0]
200009ea:	2104      	movs	r1, #4
200009ec:	430b      	orrs	r3, r1
200009ee:	7013      	strb	r3, [r2, #0]
200009f0:	4b45      	ldr	r3, [pc, #276]	; (20000b08 <dcd_event_handler+0x1ec>)
200009f2:	681c      	ldr	r4, [r3, #0]
200009f4:	0021      	movs	r1, r4
200009f6:	3114      	adds	r1, #20
200009f8:	6962      	ldr	r2, [r4, #20]
200009fa:	f3ef 8010 	mrs	r0, PRIMASK
200009fe:	b672      	cpsid	i
20000a00:	6813      	ldr	r3, [r2, #0]
20000a02:	2b00      	cmp	r3, #0
20000a04:	d0fc      	beq.n	20000a00 <dcd_event_handler+0xe4>
20000a06:	f3bf 8f5f 	dmb	sy
20000a0a:	6048      	str	r0, [r1, #4]
20000a0c:	0029      	movs	r1, r5
20000a0e:	0020      	movs	r0, r4
20000a10:	f000 f886 	bl	20000b20 <__tu_fifo_write_veneer>
20000a14:	6962      	ldr	r2, [r4, #20]
20000a16:	69a3      	ldr	r3, [r4, #24]
20000a18:	f3bf 8f5f 	dmb	sy
20000a1c:	2100      	movs	r1, #0
20000a1e:	6011      	str	r1, [r2, #0]
20000a20:	f383 8810 	msr	PRIMASK, r3
20000a24:	e7d9      	b.n	200009da <dcd_event_handler+0xbe>
20000a26:	0063      	lsls	r3, r4, #1
20000a28:	191b      	adds	r3, r3, r4
20000a2a:	00da      	lsls	r2, r3, #3
20000a2c:	4b37      	ldr	r3, [pc, #220]	; (20000b0c <dcd_event_handler+0x1f0>)
20000a2e:	681b      	ldr	r3, [r3, #0]
20000a30:	189b      	adds	r3, r3, r2
20000a32:	e018      	b.n	20000a66 <dcd_event_handler+0x14a>
20000a34:	0023      	movs	r3, r4
20000a36:	e00f      	b.n	20000a58 <dcd_event_handler+0x13c>
20000a38:	7828      	ldrb	r0, [r5, #0]
20000a3a:	6869      	ldr	r1, [r5, #4]
20000a3c:	4798      	blx	r3
20000a3e:	3401      	adds	r4, #1
20000a40:	b2e4      	uxtb	r4, r4
20000a42:	4b33      	ldr	r3, [pc, #204]	; (20000b10 <dcd_event_handler+0x1f4>)
20000a44:	781b      	ldrb	r3, [r3, #0]
20000a46:	42a3      	cmp	r3, r4
20000a48:	d313      	bcc.n	20000a72 <dcd_event_handler+0x156>
20000a4a:	4a32      	ldr	r2, [pc, #200]	; (20000b14 <dcd_event_handler+0x1f8>)
20000a4c:	2a00      	cmp	r2, #0
20000a4e:	d0f1      	beq.n	20000a34 <dcd_event_handler+0x118>
20000a50:	42a3      	cmp	r3, r4
20000a52:	d8e8      	bhi.n	20000a26 <dcd_event_handler+0x10a>
20000a54:	1ae3      	subs	r3, r4, r3
20000a56:	b2db      	uxtb	r3, r3
20000a58:	2b00      	cmp	r3, #0
20000a5a:	d1f0      	bne.n	20000a3e <dcd_event_handler+0x122>
20000a5c:	005a      	lsls	r2, r3, #1
20000a5e:	18d2      	adds	r2, r2, r3
20000a60:	00d2      	lsls	r2, r2, #3
20000a62:	4b2d      	ldr	r3, [pc, #180]	; (20000b18 <dcd_event_handler+0x1fc>)
20000a64:	189b      	adds	r3, r3, r2
20000a66:	2b00      	cmp	r3, #0
20000a68:	d0e9      	beq.n	20000a3e <dcd_event_handler+0x122>
20000a6a:	695b      	ldr	r3, [r3, #20]
20000a6c:	2b00      	cmp	r3, #0
20000a6e:	d1e3      	bne.n	20000a38 <dcd_event_handler+0x11c>
20000a70:	e7e5      	b.n	20000a3e <dcd_event_handler+0x122>
20000a72:	4b24      	ldr	r3, [pc, #144]	; (20000b04 <dcd_event_handler+0x1e8>)
20000a74:	781b      	ldrb	r3, [r3, #0]
20000a76:	075b      	lsls	r3, r3, #29
20000a78:	d5af      	bpl.n	200009da <dcd_event_handler+0xbe>
20000a7a:	4a22      	ldr	r2, [pc, #136]	; (20000b04 <dcd_event_handler+0x1e8>)
20000a7c:	7813      	ldrb	r3, [r2, #0]
20000a7e:	2104      	movs	r1, #4
20000a80:	438b      	bics	r3, r1
20000a82:	7013      	strb	r3, [r2, #0]
20000a84:	220c      	movs	r2, #12
20000a86:	2100      	movs	r1, #0
20000a88:	a801      	add	r0, sp, #4
20000a8a:	f000 f859 	bl	20000b40 <____wrap_memset_veneer>
20000a8e:	782b      	ldrb	r3, [r5, #0]
20000a90:	466a      	mov	r2, sp
20000a92:	7113      	strb	r3, [r2, #4]
20000a94:	2305      	movs	r3, #5
20000a96:	7153      	strb	r3, [r2, #5]
20000a98:	4b1b      	ldr	r3, [pc, #108]	; (20000b08 <dcd_event_handler+0x1ec>)
20000a9a:	681c      	ldr	r4, [r3, #0]
20000a9c:	0021      	movs	r1, r4
20000a9e:	3114      	adds	r1, #20
20000aa0:	6962      	ldr	r2, [r4, #20]
20000aa2:	f3ef 8010 	mrs	r0, PRIMASK
20000aa6:	b672      	cpsid	i
20000aa8:	6813      	ldr	r3, [r2, #0]
20000aaa:	2b00      	cmp	r3, #0
20000aac:	d0fc      	beq.n	20000aa8 <dcd_event_handler+0x18c>
20000aae:	f3bf 8f5f 	dmb	sy
20000ab2:	6048      	str	r0, [r1, #4]
20000ab4:	a901      	add	r1, sp, #4
20000ab6:	0020      	movs	r0, r4
20000ab8:	f000 f832 	bl	20000b20 <__tu_fifo_write_veneer>
20000abc:	6962      	ldr	r2, [r4, #20]
20000abe:	69a3      	ldr	r3, [r4, #24]
20000ac0:	f3bf 8f5f 	dmb	sy
20000ac4:	2100      	movs	r1, #0
20000ac6:	6011      	str	r1, [r2, #0]
20000ac8:	f383 8810 	msr	PRIMASK, r3
20000acc:	e785      	b.n	200009da <dcd_event_handler+0xbe>
20000ace:	4b0e      	ldr	r3, [pc, #56]	; (20000b08 <dcd_event_handler+0x1ec>)
20000ad0:	681c      	ldr	r4, [r3, #0]
20000ad2:	0021      	movs	r1, r4
20000ad4:	3114      	adds	r1, #20
20000ad6:	6962      	ldr	r2, [r4, #20]
20000ad8:	f3ef 8010 	mrs	r0, PRIMASK
20000adc:	b672      	cpsid	i
20000ade:	6813      	ldr	r3, [r2, #0]
20000ae0:	2b00      	cmp	r3, #0
20000ae2:	d0fc      	beq.n	20000ade <dcd_event_handler+0x1c2>
20000ae4:	f3bf 8f5f 	dmb	sy
20000ae8:	6048      	str	r0, [r1, #4]
20000aea:	0029      	movs	r1, r5
20000aec:	0020      	movs	r0, r4
20000aee:	f000 f817 	bl	20000b20 <__tu_fifo_write_veneer>
20000af2:	6962      	ldr	r2, [r4, #20]
20000af4:	69a3      	ldr	r3, [r4, #24]
20000af6:	f3bf 8f5f 	dmb	sy
20000afa:	2100      	movs	r1, #0
20000afc:	6011      	str	r1, [r2, #0]
20000afe:	f383 8810 	msr	PRIMASK, r3
20000b02:	e76a      	b.n	200009da <dcd_event_handler+0xbe>
20000b04:	20001114 	.word	0x20001114
20000b08:	2000116c 	.word	0x2000116c
20000b0c:	20000dec 	.word	0x20000dec
20000b10:	20001a51 	.word	0x20001a51
20000b14:	100045c1 	.word	0x100045c1
20000b18:	10008428 	.word	0x10008428

20000b1c <__aeabi_idiv0>:
20000b1c:	4770      	bx	lr
20000b1e:	46c0      	nop			; (mov r8, r8)

20000b20 <__tu_fifo_write_veneer>:
20000b20:	b401      	push	{r0}
20000b22:	4802      	ldr	r0, [pc, #8]	; (20000b2c <__tu_fifo_write_veneer+0xc>)
20000b24:	4684      	mov	ip, r0
20000b26:	bc01      	pop	{r0}
20000b28:	4760      	bx	ip
20000b2a:	bf00      	nop
20000b2c:	10006a0d 	.word	0x10006a0d

20000b30 <____wrap_memcpy_veneer>:
20000b30:	b401      	push	{r0}
20000b32:	4802      	ldr	r0, [pc, #8]	; (20000b3c <____wrap_memcpy_veneer+0xc>)
20000b34:	4684      	mov	ip, r0
20000b36:	bc01      	pop	{r0}
20000b38:	4760      	bx	ip
20000b3a:	bf00      	nop
20000b3c:	10004019 	.word	0x10004019

20000b40 <____wrap_memset_veneer>:
20000b40:	b401      	push	{r0}
20000b42:	4802      	ldr	r0, [pc, #8]	; (20000b4c <____wrap_memset_veneer+0xc>)
20000b44:	4684      	mov	ip, r0
20000b46:	bc01      	pop	{r0}
20000b48:	4760      	bx	ip
20000b4a:	bf00      	nop
20000b4c:	1000400d 	.word	0x1000400d

20000b50 <____wrap___aeabi_lmul_veneer>:
20000b50:	b401      	push	{r0}
20000b52:	4802      	ldr	r0, [pc, #8]	; (20000b5c <____wrap___aeabi_lmul_veneer+0xc>)
20000b54:	4684      	mov	ip, r0
20000b56:	bc01      	pop	{r0}
20000b58:	4760      	bx	ip
20000b5a:	bf00      	nop
20000b5c:	10003f35 	.word	0x10003f35

20000b60 <____assert_func_veneer>:
20000b60:	b401      	push	{r0}
20000b62:	4802      	ldr	r0, [pc, #8]	; (20000b6c <____assert_func_veneer+0xc>)
20000b64:	4684      	mov	ip, r0
20000b66:	bc01      	pop	{r0}
20000b68:	4760      	bx	ip
20000b6a:	bf00      	nop
20000b6c:	100024ad 	.word	0x100024ad

20000b70 <__time_us_64_veneer>:
20000b70:	b401      	push	{r0}
20000b72:	4802      	ldr	r0, [pc, #8]	; (20000b7c <__time_us_64_veneer+0xc>)
20000b74:	4684      	mov	ip, r0
20000b76:	bc01      	pop	{r0}
20000b78:	4760      	bx	ip
20000b7a:	bf00      	nop
20000b7c:	10001845 	.word	0x10001845

20000b80 <__best_effort_wfe_or_timeout_veneer>:
20000b80:	b401      	push	{r0}
20000b82:	4802      	ldr	r0, [pc, #8]	; (20000b8c <__best_effort_wfe_or_timeout_veneer+0xc>)
20000b84:	4684      	mov	ip, r0
20000b86:	bc01      	pop	{r0}
20000b88:	4760      	bx	ip
20000b8a:	bf00      	nop
20000b8c:	100016f1 	.word	0x100016f1

20000b90 <__panic_veneer>:
20000b90:	b401      	push	{r0}
20000b92:	4802      	ldr	r0, [pc, #8]	; (20000b9c <__panic_veneer+0xc>)
20000b94:	4684      	mov	ip, r0
20000b96:	bc01      	pop	{r0}
20000b98:	4760      	bx	ip
20000b9a:	bf00      	nop
20000b9c:	100025e1 	.word	0x100025e1

20000ba0 <__hw_endpoint_get_by_addr_veneer>:
20000ba0:	b401      	push	{r0}
20000ba2:	4802      	ldr	r0, [pc, #8]	; (20000bac <__hw_endpoint_get_by_addr_veneer+0xc>)
20000ba4:	4684      	mov	ip, r0
20000ba6:	bc01      	pop	{r0}
20000ba8:	4760      	bx	ip
20000baa:	bf00      	nop
20000bac:	10004ba5 	.word	0x10004ba5

20000bb0 <striped_spin_lock_num>:
20000bb0:	00000010                                ....

20000bb4 <irq_handler_chain_slots>:
20000bb4:	00000000 	.word	0x00000000
20000bb8:	00010000 	.word	0x00010000
	...
20000bc4:	00020000 	.word	0x00020000
	...
20000bd0:	00030000 	.word	0x00030000
	...
20000bdc:	00ff0000 	.word	0x00ff0000
20000be0:	00000000 	.word	0x00000000

20000be4 <irq_handler_chain_first_slot>:
20000be4:	b501      	push	{r0, lr}
20000be6:	6848      	ldr	r0, [r1, #4]
20000be8:	3101      	adds	r1, #1
20000bea:	468e      	mov	lr, r1
20000bec:	4700      	bx	r0

20000bee <irq_handler_chain_remove_tail>:
20000bee:	4670      	mov	r0, lr
20000bf0:	3809      	subs	r0, #9
20000bf2:	4901      	ldr	r1, [pc, #4]	; (20000bf8 <irq_handler_chain_remove_tail+0xa>)
20000bf4:	4788      	blx	r1
20000bf6:	bd01      	pop	{r0, pc}
20000bf8:	10000a95 	.word	0x10000a95

20000bfc <default_alarm_pool>:
20000bfc:	20000c14 00000000 20000cc8 2000137c     ... ....... |.. 
	...

20000c14 <default_alarm_pool_heap>:
20000c14:	2000138c 00000000 00000000 00000010     ... ............
	...

20000c30 <aeabi_bits_funcs>:
20000c30:	00003350 	.word	0x00003350
20000c34:	0000334c 	.word	0x0000334c
20000c38:	00003354 	.word	0x00003354
20000c3c:	00003352 	.word	0x00003352

20000c40 <aeabi_bits_funcs_end>:
20000c40:	0000534d 	.word	0x0000534d
20000c44:	0000434d 	.word	0x0000434d
20000c48:	00003453 	.word	0x00003453
20000c4c:	00003443 	.word	0x00003443

20000c50 <stdio_uart>:
20000c50:	100042f1 00000000 10004365 1000440d     .B......eC...D..
20000c60:	00000000 00000100                       ........

20000c68 <stdio_usb>:
20000c68:	1000495d 00000000 10004899 100045f5     ]I.......H...E..
20000c78:	00000000 00000100                       ........

20000c80 <ep_dir_string>:
20000c80:	10007da0 10007d80                       .}...}..

20000c88 <_usbd_qdef>:
20000c88:	20001170 000c0010 00000000 00000000     p.. ............
	...

20000ca4 <_usbd_rhport>:
20000ca4:	000000ff                                ....

20000ca8 <print_mutex>:
	...

20000cb0 <__mutex_array_end>:
20000cb0:	10003ffd 	.word	0x10003ffd
20000cb4:	10003751 	.word	0x10003751
20000cb8:	10003e35 	.word	0x10003e35
20000cbc:	10003f75 	.word	0x10003f75

20000cc0 <__frame_dummy_init_array_entry>:
20000cc0:	100002e5 10004aed                       .....J..
