
C:/Users/Fish/Documents/GitHub/INF2004-Embedded/forensics_tool/build/UART/inj_rec.elf:     file format elf32-littlearm

Sections:
Idx Name          Size      VMA       LMA       File off  Algn
  0 .boot2        00000100  10000000  10000000  00001000  2**0
                  CONTENTS, ALLOC, LOAD, READONLY, CODE
  1 .text         00006d90  10000100  10000100  00001100  2**3
                  CONTENTS, ALLOC, LOAD, READONLY, CODE
  2 .rodata       00001834  10006e90  10006e90  00007e90  2**3
                  CONTENTS, ALLOC, LOAD, READONLY, DATA
  3 .binary_info  0000002c  100086c4  100086c4  000096c4  2**2
                  CONTENTS, ALLOC, LOAD, READONLY, DATA
  4 .ram_vector_table 000000c0  20000000  20000000  0000b000  2**2
                  ALLOC
  5 .data         00000c08  200000c0  100086f0  0000a0c0  2**4
                  CONTENTS, ALLOC, LOAD, READONLY, CODE
  6 .uninitialized_data 00000000  20000cc8  20000cc8  0000acc8  2**0
                  CONTENTS
  7 .scratch_x    00000000  20040000  20040000  0000acc8  2**0
                  CONTENTS
  8 .scratch_y    00000000  20041000  20041000  0000acc8  2**0
                  CONTENTS
  9 .bss          00000d94  20000cc8  20000cc8  0000b000  2**3
                  ALLOC
 10 .heap         00000800  20001a5c  20001a5c  0000acc8  2**2
                  CONTENTS, READONLY
 11 .stack_dummy  00000800  20041000  20041000  0000b4e0  2**5
                  CONTENTS, READONLY
 12 .ARM.attributes 00000028  00000000  00000000  0000bce0  2**0
                  CONTENTS, READONLY
 13 .comment      00000049  00000000  00000000  0000bd08  2**0
                  CONTENTS, READONLY
 14 .debug_info   00027148  00000000  00000000  0000bd51  2**0
                  CONTENTS, READONLY, DEBUGGING, OCTETS
 15 .debug_abbrev 000070b9  00000000  00000000  00032e99  2**0
                  CONTENTS, READONLY, DEBUGGING, OCTETS
 16 .debug_loc    00019ddd  00000000  00000000  00039f52  2**0
                  CONTENTS, READONLY, DEBUGGING, OCTETS
 17 .debug_aranges 00001448  00000000  00000000  00053d30  2**3
                  CONTENTS, READONLY, DEBUGGING, OCTETS
 18 .debug_ranges 000051c8  00000000  00000000  00055178  2**3
                  CONTENTS, READONLY, DEBUGGING, OCTETS
 19 .debug_line   00018c6a  00000000  00000000  0005a340  2**0
                  CONTENTS, READONLY, DEBUGGING, OCTETS
 20 .debug_str    00007875  00000000  00000000  00072faa  2**0
                  CONTENTS, READONLY, DEBUGGING, OCTETS
 21 .debug_frame  00002ba8  00000000  00000000  0007a820  2**2
                  CONTENTS, READONLY, DEBUGGING, OCTETS

C:/Users/Fish/Documents/GitHub/INF2004-Embedded/forensics_tool/build/UART/inj_rec.elf:     file format elf32-littlearm


Disassembly of section .boot2:

10000000 <__boot2_start__>:
10000000:	4b32b500 	.word	0x4b32b500
10000004:	60582021 	.word	0x60582021
10000008:	21026898 	.word	0x21026898
1000000c:	60984388 	.word	0x60984388
10000010:	611860d8 	.word	0x611860d8
10000014:	4b2e6158 	.word	0x4b2e6158
10000018:	60992100 	.word	0x60992100
1000001c:	61592102 	.word	0x61592102
10000020:	22f02101 	.word	0x22f02101
10000024:	492b5099 	.word	0x492b5099
10000028:	21016019 	.word	0x21016019
1000002c:	20356099 	.word	0x20356099
10000030:	f844f000 	.word	0xf844f000
10000034:	42902202 	.word	0x42902202
10000038:	2106d014 	.word	0x2106d014
1000003c:	f0006619 	.word	0xf0006619
10000040:	6e19f834 	.word	0x6e19f834
10000044:	66192101 	.word	0x66192101
10000048:	66182000 	.word	0x66182000
1000004c:	f000661a 	.word	0xf000661a
10000050:	6e19f82c 	.word	0x6e19f82c
10000054:	6e196e19 	.word	0x6e196e19
10000058:	f0002005 	.word	0xf0002005
1000005c:	2101f82f 	.word	0x2101f82f
10000060:	d1f94208 	.word	0xd1f94208
10000064:	60992100 	.word	0x60992100
10000068:	6019491b 	.word	0x6019491b
1000006c:	60592100 	.word	0x60592100
10000070:	481b491a 	.word	0x481b491a
10000074:	21016001 	.word	0x21016001
10000078:	21eb6099 	.word	0x21eb6099
1000007c:	21a06619 	.word	0x21a06619
10000080:	f0006619 	.word	0xf0006619
10000084:	2100f812 	.word	0x2100f812
10000088:	49166099 	.word	0x49166099
1000008c:	60014814 	.word	0x60014814
10000090:	60992101 	.word	0x60992101
10000094:	2800bc01 	.word	0x2800bc01
10000098:	4700d000 	.word	0x4700d000
1000009c:	49134812 	.word	0x49134812
100000a0:	c8036008 	.word	0xc8036008
100000a4:	8808f380 	.word	0x8808f380
100000a8:	b5034708 	.word	0xb5034708
100000ac:	20046a99 	.word	0x20046a99
100000b0:	d0fb4201 	.word	0xd0fb4201
100000b4:	42012001 	.word	0x42012001
100000b8:	bd03d1f8 	.word	0xbd03d1f8
100000bc:	6618b502 	.word	0x6618b502
100000c0:	f7ff6618 	.word	0xf7ff6618
100000c4:	6e18fff2 	.word	0x6e18fff2
100000c8:	bd026e18 	.word	0xbd026e18
100000cc:	40020000 	.word	0x40020000
100000d0:	18000000 	.word	0x18000000
100000d4:	00070000 	.word	0x00070000
100000d8:	005f0300 	.word	0x005f0300
100000dc:	00002221 	.word	0x00002221
100000e0:	180000f4 	.word	0x180000f4
100000e4:	a0002022 	.word	0xa0002022
100000e8:	10000100 	.word	0x10000100
100000ec:	e000ed08 	.word	0xe000ed08
	...
100000fc:	7a4eb274 	.word	0x7a4eb274

Disassembly of section .text:

10000100 <__VECTOR_TABLE>:
10000100:	20042000 	.word	0x20042000
10000104:	100001f7 	.word	0x100001f7
10000108:	100001c3 	.word	0x100001c3
1000010c:	100001c5 	.word	0x100001c5
10000110:	100001c1 	.word	0x100001c1
10000114:	100001c1 	.word	0x100001c1
10000118:	100001c1 	.word	0x100001c1
1000011c:	100001c1 	.word	0x100001c1
10000120:	100001c1 	.word	0x100001c1
10000124:	100001c1 	.word	0x100001c1
10000128:	100001c1 	.word	0x100001c1
1000012c:	100001c7 	.word	0x100001c7
10000130:	100001c1 	.word	0x100001c1
10000134:	100001c1 	.word	0x100001c1
10000138:	100001c9 	.word	0x100001c9
1000013c:	100001cb 	.word	0x100001cb
10000140:	100001cd 	.word	0x100001cd
10000144:	100001cd 	.word	0x100001cd
10000148:	100001cd 	.word	0x100001cd
1000014c:	100001cd 	.word	0x100001cd
10000150:	100001cd 	.word	0x100001cd
10000154:	100001cd 	.word	0x100001cd
10000158:	100001cd 	.word	0x100001cd
1000015c:	100001cd 	.word	0x100001cd
10000160:	100001cd 	.word	0x100001cd
10000164:	100001cd 	.word	0x100001cd
10000168:	100001cd 	.word	0x100001cd
1000016c:	100001cd 	.word	0x100001cd
10000170:	100001cd 	.word	0x100001cd
10000174:	100001cd 	.word	0x100001cd
10000178:	100001cd 	.word	0x100001cd
1000017c:	100001cd 	.word	0x100001cd
10000180:	100001cd 	.word	0x100001cd
10000184:	100001cd 	.word	0x100001cd
10000188:	100001cd 	.word	0x100001cd
1000018c:	100001cd 	.word	0x100001cd
10000190:	100001cd 	.word	0x100001cd
10000194:	100001cd 	.word	0x100001cd
10000198:	100001cd 	.word	0x100001cd
1000019c:	100001cd 	.word	0x100001cd
100001a0:	100001cd 	.word	0x100001cd
100001a4:	100001cd 	.word	0x100001cd
100001a8:	100001cd 	.word	0x100001cd
100001ac:	100001cd 	.word	0x100001cd
100001b0:	100001cd 	.word	0x100001cd
100001b4:	100001cd 	.word	0x100001cd
100001b8:	100001cd 	.word	0x100001cd
100001bc:	100001cd 	.word	0x100001cd

100001c0 <isr_invalid>:
100001c0:	be00      	bkpt	0x0000

100001c2 <isr_nmi>:
100001c2:	be00      	bkpt	0x0000

100001c4 <isr_hardfault>:
100001c4:	be00      	bkpt	0x0000

100001c6 <isr_svcall>:
100001c6:	be00      	bkpt	0x0000

100001c8 <isr_pendsv>:
100001c8:	be00      	bkpt	0x0000

100001ca <isr_systick>:
100001ca:	be00      	bkpt	0x0000

100001cc <__unhandled_user_irq>:
100001cc:	f3ef 8005 	mrs	r0, IPSR
100001d0:	3810      	subs	r0, #16

100001d2 <unhandled_user_irq_num_in_r0>:
100001d2:	be00      	bkpt	0x0000

100001d4 <binary_info_header>:
100001d4:	7188ebf2 	.word	0x7188ebf2
100001d8:	100086c4 	.word	0x100086c4
100001dc:	100086f0 	.word	0x100086f0
100001e0:	10000234 	.word	0x10000234
100001e4:	e71aa390 	.word	0xe71aa390

100001e8 <_entry_point>:
100001e8:	2000      	movs	r0, #0
100001ea:	491f      	ldr	r1, [pc, #124]	; (10000268 <hold_non_core0_in_bootrom+0xa>)
100001ec:	6008      	str	r0, [r1, #0]
100001ee:	c806      	ldmia	r0!, {r1, r2}
100001f0:	f381 8808 	msr	MSP, r1
100001f4:	4710      	bx	r2

100001f6 <_reset_handler>:
100001f6:	481d      	ldr	r0, [pc, #116]	; (1000026c <hold_non_core0_in_bootrom+0xe>)
100001f8:	6800      	ldr	r0, [r0, #0]
100001fa:	2800      	cmp	r0, #0
100001fc:	d12f      	bne.n	1000025e <hold_non_core0_in_bootrom>
100001fe:	a40d      	add	r4, pc, #52	; (adr r4, 10000234 <data_cpy_table>)
10000200:	cc0e      	ldmia	r4!, {r1, r2, r3}
10000202:	2900      	cmp	r1, #0
10000204:	d002      	beq.n	1000020c <_reset_handler+0x16>
10000206:	f000 f812 	bl	1000022e <data_cpy>
1000020a:	e7f9      	b.n	10000200 <_reset_handler+0xa>
1000020c:	4918      	ldr	r1, [pc, #96]	; (10000270 <hold_non_core0_in_bootrom+0x12>)
1000020e:	4a19      	ldr	r2, [pc, #100]	; (10000274 <hold_non_core0_in_bootrom+0x16>)
10000210:	2000      	movs	r0, #0
10000212:	e000      	b.n	10000216 <bss_fill_test>

10000214 <bss_fill_loop>:
10000214:	c101      	stmia	r1!, {r0}

10000216 <bss_fill_test>:
10000216:	4291      	cmp	r1, r2
10000218:	d1fc      	bne.n	10000214 <bss_fill_loop>

1000021a <platform_entry>:
1000021a:	4917      	ldr	r1, [pc, #92]	; (10000278 <hold_non_core0_in_bootrom+0x1a>)
1000021c:	4788      	blx	r1
1000021e:	4917      	ldr	r1, [pc, #92]	; (1000027c <hold_non_core0_in_bootrom+0x1e>)
10000220:	4788      	blx	r1
10000222:	4917      	ldr	r1, [pc, #92]	; (10000280 <hold_non_core0_in_bootrom+0x22>)
10000224:	4788      	blx	r1
10000226:	be00      	bkpt	0x0000
10000228:	e7fd      	b.n	10000226 <platform_entry+0xc>

1000022a <data_cpy_loop>:
1000022a:	c901      	ldmia	r1!, {r0}
1000022c:	c201      	stmia	r2!, {r0}

1000022e <data_cpy>:
1000022e:	429a      	cmp	r2, r3
10000230:	d3fb      	bcc.n	1000022a <data_cpy_loop>
10000232:	4770      	bx	lr

10000234 <data_cpy_table>:
10000234:	100086f0 	.word	0x100086f0
10000238:	200000c0 	.word	0x200000c0
1000023c:	20000cc8 	.word	0x20000cc8
10000240:	100092f8 	.word	0x100092f8
10000244:	20040000 	.word	0x20040000
10000248:	20040000 	.word	0x20040000
1000024c:	100092f8 	.word	0x100092f8
10000250:	20041000 	.word	0x20041000
10000254:	20041000 	.word	0x20041000
10000258:	00000000 	.word	0x00000000
1000025c:	4770      	bx	lr

1000025e <hold_non_core0_in_bootrom>:
1000025e:	4809      	ldr	r0, [pc, #36]	; (10000284 <hold_non_core0_in_bootrom+0x26>)
10000260:	f003 fba4 	bl	100039ac <rom_func_lookup>
10000264:	4700      	bx	r0
10000266:	0000      	.short	0x0000
10000268:	e000ed08 	.word	0xe000ed08
1000026c:	d0000000 	.word	0xd0000000
10000270:	20000cc8 	.word	0x20000cc8
10000274:	20001a5c 	.word	0x20001a5c
10000278:	10002735 	.word	0x10002735
1000027c:	10000545 	.word	0x10000545
10000280:	100026f1 	.word	0x100026f1
10000284:	00005657 	.word	0x00005657

10000288 <__bi_50>:
10000288:	50520006 5360b3ab 10007f8c              ..RP..`S....

10000294 <__bi_38>:
10000294:	50520006 02031c86 10007f9c              ..RP........

100002a0 <__bi_30>:
100002a0:	50520006 9da22254 10007fa4              ..RPT"......

100002ac <__bi_22>:
100002ac:	50520005 68f465de 100092f8              ..RP.e.h....

100002b8 <_init>:
100002b8:	b5f8      	push	{r3, r4, r5, r6, r7, lr}
100002ba:	46c0      	nop			; (mov r8, r8)

100002bc <__do_global_dtors_aux>:
100002bc:	b510      	push	{r4, lr}
100002be:	4c06      	ldr	r4, [pc, #24]	; (100002d8 <__do_global_dtors_aux+0x1c>)
100002c0:	7823      	ldrb	r3, [r4, #0]
100002c2:	2b00      	cmp	r3, #0
100002c4:	d107      	bne.n	100002d6 <__do_global_dtors_aux+0x1a>
100002c6:	4b05      	ldr	r3, [pc, #20]	; (100002dc <__do_global_dtors_aux+0x20>)
100002c8:	2b00      	cmp	r3, #0
100002ca:	d002      	beq.n	100002d2 <__do_global_dtors_aux+0x16>
100002cc:	4804      	ldr	r0, [pc, #16]	; (100002e0 <__do_global_dtors_aux+0x24>)
100002ce:	e000      	b.n	100002d2 <__do_global_dtors_aux+0x16>
100002d0:	bf00      	nop
100002d2:	2301      	movs	r3, #1
100002d4:	7023      	strb	r3, [r4, #0]
100002d6:	bd10      	pop	{r4, pc}
100002d8:	20000dd0 	.word	0x20000dd0
100002dc:	00000000 	.word	0x00000000
100002e0:	10006e90 	.word	0x10006e90

100002e4 <frame_dummy>:
100002e4:	4b04      	ldr	r3, [pc, #16]	; (100002f8 <frame_dummy+0x14>)
100002e6:	b510      	push	{r4, lr}
100002e8:	2b00      	cmp	r3, #0
100002ea:	d003      	beq.n	100002f4 <frame_dummy+0x10>
100002ec:	4903      	ldr	r1, [pc, #12]	; (100002fc <frame_dummy+0x18>)
100002ee:	4804      	ldr	r0, [pc, #16]	; (10000300 <frame_dummy+0x1c>)
100002f0:	e000      	b.n	100002f4 <frame_dummy+0x10>
100002f2:	bf00      	nop
100002f4:	bd10      	pop	{r4, pc}
100002f6:	46c0      	nop			; (mov r8, r8)
100002f8:	00000000 	.word	0x00000000
100002fc:	20000dd4 	.word	0x20000dd4
10000300:	10006e90 	.word	0x10006e90

10000304 <inject>:
10000304:	b530      	push	{r4, r5, lr}
10000306:	b083      	sub	sp, #12
10000308:	4b24      	ldr	r3, [pc, #144]	; (1000039c <inject+0x98>)
1000030a:	6818      	ldr	r0, [r3, #0]
1000030c:	2300      	movs	r3, #0
1000030e:	e015      	b.n	1000033c <inject+0x38>
10000310:	466b      	mov	r3, sp
10000312:	1dda      	adds	r2, r3, #7
10000314:	7014      	strb	r4, [r2, #0]
10000316:	2100      	movs	r1, #0
10000318:	e008      	b.n	1000032c <inject+0x28>
1000031a:	4b21      	ldr	r3, [pc, #132]	; (100003a0 <inject+0x9c>)
1000031c:	699b      	ldr	r3, [r3, #24]
1000031e:	069b      	lsls	r3, r3, #26
10000320:	d4fb      	bmi.n	1000031a <inject+0x16>
10000322:	7814      	ldrb	r4, [r2, #0]
10000324:	4b1e      	ldr	r3, [pc, #120]	; (100003a0 <inject+0x9c>)
10000326:	601c      	str	r4, [r3, #0]
10000328:	3101      	adds	r1, #1
1000032a:	3201      	adds	r2, #1
1000032c:	2900      	cmp	r1, #0
1000032e:	d0f4      	beq.n	1000031a <inject+0x16>
10000330:	7803      	ldrb	r3, [r0, #0]
10000332:	3b0d      	subs	r3, #13
10000334:	425a      	negs	r2, r3
10000336:	4153      	adcs	r3, r2
10000338:	b2db      	uxtb	r3, r3
1000033a:	3001      	adds	r0, #1
1000033c:	7804      	ldrb	r4, [r0, #0]
1000033e:	2c00      	cmp	r4, #0
10000340:	d027      	beq.n	10000392 <inject+0x8e>
10000342:	2b00      	cmp	r3, #0
10000344:	d1e4      	bne.n	10000310 <inject+0xc>
10000346:	4b17      	ldr	r3, [pc, #92]	; (100003a4 <inject+0xa0>)
10000348:	2200      	movs	r2, #0
1000034a:	5e9b      	ldrsh	r3, [r3, r2]
1000034c:	42a3      	cmp	r3, r4
1000034e:	d00f      	beq.n	10000370 <inject+0x6c>
10000350:	466b      	mov	r3, sp
10000352:	1dda      	adds	r2, r3, #7
10000354:	7014      	strb	r4, [r2, #0]
10000356:	2100      	movs	r1, #0
10000358:	2900      	cmp	r1, #0
1000035a:	d1e9      	bne.n	10000330 <inject+0x2c>
1000035c:	4b10      	ldr	r3, [pc, #64]	; (100003a0 <inject+0x9c>)
1000035e:	699b      	ldr	r3, [r3, #24]
10000360:	069b      	lsls	r3, r3, #26
10000362:	d4fb      	bmi.n	1000035c <inject+0x58>
10000364:	7814      	ldrb	r4, [r2, #0]
10000366:	4b0e      	ldr	r3, [pc, #56]	; (100003a0 <inject+0x9c>)
10000368:	601c      	str	r4, [r3, #0]
1000036a:	3101      	adds	r1, #1
1000036c:	3201      	adds	r2, #1
1000036e:	e7f3      	b.n	10000358 <inject+0x54>
10000370:	466b      	mov	r3, sp
10000372:	1dda      	adds	r2, r3, #7
10000374:	230d      	movs	r3, #13
10000376:	7013      	strb	r3, [r2, #0]
10000378:	2100      	movs	r1, #0
1000037a:	2900      	cmp	r1, #0
1000037c:	d1e8      	bne.n	10000350 <inject+0x4c>
1000037e:	4b08      	ldr	r3, [pc, #32]	; (100003a0 <inject+0x9c>)
10000380:	699b      	ldr	r3, [r3, #24]
10000382:	069b      	lsls	r3, r3, #26
10000384:	d4fb      	bmi.n	1000037e <inject+0x7a>
10000386:	7815      	ldrb	r5, [r2, #0]
10000388:	4b05      	ldr	r3, [pc, #20]	; (100003a0 <inject+0x9c>)
1000038a:	601d      	str	r5, [r3, #0]
1000038c:	3101      	adds	r1, #1
1000038e:	3201      	adds	r2, #1
10000390:	e7f3      	b.n	1000037a <inject+0x76>
10000392:	20c8      	movs	r0, #200	; 0xc8
10000394:	f001 fac8 	bl	10001928 <sleep_ms>
10000398:	b003      	add	sp, #12
1000039a:	bd30      	pop	{r4, r5, pc}
1000039c:	20000bb0 	.word	0x20000bb0
100003a0:	40034000 	.word	0x40034000
100003a4:	20001a38 	.word	0x20001a38

100003a8 <sniff>:
100003a8:	b500      	push	{lr}
100003aa:	b09b      	sub	sp, #108	; 0x6c
100003ac:	2000      	movs	r0, #0
100003ae:	e009      	b.n	100003c4 <sniff+0x1c>
100003b0:	466b      	mov	r3, sp
100003b2:	78da      	ldrb	r2, [r3, #3]
100003b4:	2a0a      	cmp	r2, #10
100003b6:	d01a      	beq.n	100003ee <sniff+0x46>
100003b8:	1c43      	adds	r3, r0, #1
100003ba:	a901      	add	r1, sp, #4
100003bc:	540a      	strb	r2, [r1, r0]
100003be:	2b63      	cmp	r3, #99	; 0x63
100003c0:	dc20      	bgt.n	10000404 <sniff+0x5c>
100003c2:	0018      	movs	r0, r3
100003c4:	4b14      	ldr	r3, [pc, #80]	; (10000418 <sniff+0x70>)
100003c6:	699b      	ldr	r3, [r3, #24]
100003c8:	2110      	movs	r1, #16
100003ca:	000a      	movs	r2, r1
100003cc:	401a      	ands	r2, r3
100003ce:	4219      	tst	r1, r3
100003d0:	d11f      	bne.n	10000412 <sniff+0x6a>
100003d2:	466b      	mov	r3, sp
100003d4:	1cd9      	adds	r1, r3, #3
100003d6:	2a00      	cmp	r2, #0
100003d8:	d1ea      	bne.n	100003b0 <sniff+0x8>
100003da:	4b0f      	ldr	r3, [pc, #60]	; (10000418 <sniff+0x70>)
100003dc:	699b      	ldr	r3, [r3, #24]
100003de:	06db      	lsls	r3, r3, #27
100003e0:	d4fb      	bmi.n	100003da <sniff+0x32>
100003e2:	4b0d      	ldr	r3, [pc, #52]	; (10000418 <sniff+0x70>)
100003e4:	681b      	ldr	r3, [r3, #0]
100003e6:	700b      	strb	r3, [r1, #0]
100003e8:	3201      	adds	r2, #1
100003ea:	3101      	adds	r1, #1
100003ec:	e7f3      	b.n	100003d6 <sniff+0x2e>
100003ee:	a901      	add	r1, sp, #4
100003f0:	480a      	ldr	r0, [pc, #40]	; (1000041c <sniff+0x74>)
100003f2:	f004 f88f 	bl	10004514 <__wrap_printf>
100003f6:	2264      	movs	r2, #100	; 0x64
100003f8:	2100      	movs	r1, #0
100003fa:	a801      	add	r0, sp, #4
100003fc:	f003 ff2c 	bl	10004258 <__wrap_memset>
10000400:	2300      	movs	r3, #0
10000402:	e7de      	b.n	100003c2 <sniff+0x1a>
10000404:	2264      	movs	r2, #100	; 0x64
10000406:	2100      	movs	r1, #0
10000408:	a801      	add	r0, sp, #4
1000040a:	f003 ff25 	bl	10004258 <__wrap_memset>
1000040e:	2300      	movs	r3, #0
10000410:	e7d7      	b.n	100003c2 <sniff+0x1a>
10000412:	b01b      	add	sp, #108	; 0x6c
10000414:	bd00      	pop	{pc}
10000416:	46c0      	nop			; (mov r8, r8)
10000418:	40034000 	.word	0x40034000
1000041c:	10006e90 	.word	0x10006e90

10000420 <test_uart1_tx>:
10000420:	b530      	push	{r4, r5, lr}
10000422:	b083      	sub	sp, #12
10000424:	2300      	movs	r3, #0
10000426:	4824      	ldr	r0, [pc, #144]	; (100004b8 <test_uart1_tx+0x98>)
10000428:	e015      	b.n	10000456 <test_uart1_tx+0x36>
1000042a:	466b      	mov	r3, sp
1000042c:	1dda      	adds	r2, r3, #7
1000042e:	7014      	strb	r4, [r2, #0]
10000430:	2100      	movs	r1, #0
10000432:	e008      	b.n	10000446 <test_uart1_tx+0x26>
10000434:	4b21      	ldr	r3, [pc, #132]	; (100004bc <test_uart1_tx+0x9c>)
10000436:	699b      	ldr	r3, [r3, #24]
10000438:	069b      	lsls	r3, r3, #26
1000043a:	d4fb      	bmi.n	10000434 <test_uart1_tx+0x14>
1000043c:	7814      	ldrb	r4, [r2, #0]
1000043e:	4b1f      	ldr	r3, [pc, #124]	; (100004bc <test_uart1_tx+0x9c>)
10000440:	601c      	str	r4, [r3, #0]
10000442:	3101      	adds	r1, #1
10000444:	3201      	adds	r2, #1
10000446:	2900      	cmp	r1, #0
10000448:	d0f4      	beq.n	10000434 <test_uart1_tx+0x14>
1000044a:	7803      	ldrb	r3, [r0, #0]
1000044c:	3b0d      	subs	r3, #13
1000044e:	425a      	negs	r2, r3
10000450:	4153      	adcs	r3, r2
10000452:	b2db      	uxtb	r3, r3
10000454:	3001      	adds	r0, #1
10000456:	7804      	ldrb	r4, [r0, #0]
10000458:	2c00      	cmp	r4, #0
1000045a:	d027      	beq.n	100004ac <test_uart1_tx+0x8c>
1000045c:	2b00      	cmp	r3, #0
1000045e:	d1e4      	bne.n	1000042a <test_uart1_tx+0xa>
10000460:	4b17      	ldr	r3, [pc, #92]	; (100004c0 <test_uart1_tx+0xa0>)
10000462:	2202      	movs	r2, #2
10000464:	5e9b      	ldrsh	r3, [r3, r2]
10000466:	42a3      	cmp	r3, r4
10000468:	d00f      	beq.n	1000048a <test_uart1_tx+0x6a>
1000046a:	466b      	mov	r3, sp
1000046c:	1dda      	adds	r2, r3, #7
1000046e:	7014      	strb	r4, [r2, #0]
10000470:	2100      	movs	r1, #0
10000472:	2900      	cmp	r1, #0
10000474:	d1e9      	bne.n	1000044a <test_uart1_tx+0x2a>
10000476:	4b11      	ldr	r3, [pc, #68]	; (100004bc <test_uart1_tx+0x9c>)
10000478:	699b      	ldr	r3, [r3, #24]
1000047a:	069b      	lsls	r3, r3, #26
1000047c:	d4fb      	bmi.n	10000476 <test_uart1_tx+0x56>
1000047e:	7814      	ldrb	r4, [r2, #0]
10000480:	4b0e      	ldr	r3, [pc, #56]	; (100004bc <test_uart1_tx+0x9c>)
10000482:	601c      	str	r4, [r3, #0]
10000484:	3101      	adds	r1, #1
10000486:	3201      	adds	r2, #1
10000488:	e7f3      	b.n	10000472 <test_uart1_tx+0x52>
1000048a:	466b      	mov	r3, sp
1000048c:	1dda      	adds	r2, r3, #7
1000048e:	230d      	movs	r3, #13
10000490:	7013      	strb	r3, [r2, #0]
10000492:	2100      	movs	r1, #0
10000494:	2900      	cmp	r1, #0
10000496:	d1e8      	bne.n	1000046a <test_uart1_tx+0x4a>
10000498:	4b08      	ldr	r3, [pc, #32]	; (100004bc <test_uart1_tx+0x9c>)
1000049a:	699b      	ldr	r3, [r3, #24]
1000049c:	069b      	lsls	r3, r3, #26
1000049e:	d4fb      	bmi.n	10000498 <test_uart1_tx+0x78>
100004a0:	7815      	ldrb	r5, [r2, #0]
100004a2:	4b06      	ldr	r3, [pc, #24]	; (100004bc <test_uart1_tx+0x9c>)
100004a4:	601d      	str	r5, [r3, #0]
100004a6:	3101      	adds	r1, #1
100004a8:	3201      	adds	r2, #1
100004aa:	e7f3      	b.n	10000494 <test_uart1_tx+0x74>
100004ac:	20c8      	movs	r0, #200	; 0xc8
100004ae:	f001 fa3b 	bl	10001928 <sleep_ms>
100004b2:	b003      	add	sp, #12
100004b4:	bd30      	pop	{r4, r5, pc}
100004b6:	46c0      	nop			; (mov r8, r8)
100004b8:	10006ea8 	.word	0x10006ea8
100004bc:	40038000 	.word	0x40038000
100004c0:	20001a38 	.word	0x20001a38

100004c4 <test_uart1_rx>:
100004c4:	b500      	push	{lr}
100004c6:	b09b      	sub	sp, #108	; 0x6c
100004c8:	2000      	movs	r0, #0
100004ca:	e009      	b.n	100004e0 <test_uart1_rx+0x1c>
100004cc:	466b      	mov	r3, sp
100004ce:	78da      	ldrb	r2, [r3, #3]
100004d0:	2a0a      	cmp	r2, #10
100004d2:	d01a      	beq.n	1000050a <test_uart1_rx+0x46>
100004d4:	1c43      	adds	r3, r0, #1
100004d6:	a901      	add	r1, sp, #4
100004d8:	540a      	strb	r2, [r1, r0]
100004da:	2b63      	cmp	r3, #99	; 0x63
100004dc:	dc20      	bgt.n	10000520 <test_uart1_rx+0x5c>
100004de:	0018      	movs	r0, r3
100004e0:	4b16      	ldr	r3, [pc, #88]	; (1000053c <test_uart1_rx+0x78>)
100004e2:	699b      	ldr	r3, [r3, #24]
100004e4:	2110      	movs	r1, #16
100004e6:	000a      	movs	r2, r1
100004e8:	401a      	ands	r2, r3
100004ea:	4219      	tst	r1, r3
100004ec:	d11f      	bne.n	1000052e <test_uart1_rx+0x6a>
100004ee:	466b      	mov	r3, sp
100004f0:	1cd9      	adds	r1, r3, #3
100004f2:	2a00      	cmp	r2, #0
100004f4:	d1ea      	bne.n	100004cc <test_uart1_rx+0x8>
100004f6:	4b11      	ldr	r3, [pc, #68]	; (1000053c <test_uart1_rx+0x78>)
100004f8:	699b      	ldr	r3, [r3, #24]
100004fa:	06db      	lsls	r3, r3, #27
100004fc:	d4fb      	bmi.n	100004f6 <test_uart1_rx+0x32>
100004fe:	4b0f      	ldr	r3, [pc, #60]	; (1000053c <test_uart1_rx+0x78>)
10000500:	681b      	ldr	r3, [r3, #0]
10000502:	700b      	strb	r3, [r1, #0]
10000504:	3201      	adds	r2, #1
10000506:	3101      	adds	r1, #1
10000508:	e7f3      	b.n	100004f2 <test_uart1_rx+0x2e>
1000050a:	a901      	add	r1, sp, #4
1000050c:	480c      	ldr	r0, [pc, #48]	; (10000540 <test_uart1_rx+0x7c>)
1000050e:	f004 f801 	bl	10004514 <__wrap_printf>
10000512:	2264      	movs	r2, #100	; 0x64
10000514:	2100      	movs	r1, #0
10000516:	a801      	add	r0, sp, #4
10000518:	f003 fe9e 	bl	10004258 <__wrap_memset>
1000051c:	2300      	movs	r3, #0
1000051e:	e7de      	b.n	100004de <test_uart1_rx+0x1a>
10000520:	2264      	movs	r2, #100	; 0x64
10000522:	2100      	movs	r1, #0
10000524:	a801      	add	r0, sp, #4
10000526:	f003 fe97 	bl	10004258 <__wrap_memset>
1000052a:	2300      	movs	r3, #0
1000052c:	e7d7      	b.n	100004de <test_uart1_rx+0x1a>
1000052e:	20fa      	movs	r0, #250	; 0xfa
10000530:	0040      	lsls	r0, r0, #1
10000532:	f001 f9f9 	bl	10001928 <sleep_ms>
10000536:	b01b      	add	sp, #108	; 0x6c
10000538:	bd00      	pop	{pc}
1000053a:	46c0      	nop			; (mov r8, r8)
1000053c:	40038000 	.word	0x40038000
10000540:	10006ebc 	.word	0x10006ebc

10000544 <main>:
10000544:	b510      	push	{r4, lr}
10000546:	f003 fff1 	bl	1000452c <stdio_init_all>
1000054a:	24e1      	movs	r4, #225	; 0xe1
1000054c:	0264      	lsls	r4, r4, #9
1000054e:	0021      	movs	r1, r4
10000550:	481e      	ldr	r0, [pc, #120]	; (100005cc <main+0x88>)
10000552:	f001 fe6b 	bl	1000222c <uart_init>
10000556:	2102      	movs	r1, #2
10000558:	2010      	movs	r0, #16
1000055a:	f000 f83b 	bl	100005d4 <gpio_set_function>
1000055e:	2102      	movs	r1, #2
10000560:	2011      	movs	r0, #17
10000562:	f000 f837 	bl	100005d4 <gpio_set_function>
10000566:	0021      	movs	r1, r4
10000568:	4819      	ldr	r0, [pc, #100]	; (100005d0 <main+0x8c>)
1000056a:	f001 fe5f 	bl	1000222c <uart_init>
1000056e:	2102      	movs	r1, #2
10000570:	2008      	movs	r0, #8
10000572:	f000 f82f 	bl	100005d4 <gpio_set_function>
10000576:	2102      	movs	r1, #2
10000578:	2009      	movs	r0, #9
1000057a:	f000 f82b 	bl	100005d4 <gpio_set_function>
1000057e:	200f      	movs	r0, #15
10000580:	f000 f85a 	bl	10000638 <gpio_init>
10000584:	23d0      	movs	r3, #208	; 0xd0
10000586:	061b      	lsls	r3, r3, #24
10000588:	2280      	movs	r2, #128	; 0x80
1000058a:	0212      	lsls	r2, r2, #8
1000058c:	629a      	str	r2, [r3, #40]	; 0x28
1000058e:	2200      	movs	r2, #0
10000590:	2101      	movs	r1, #1
10000592:	200f      	movs	r0, #15
10000594:	f000 f836 	bl	10000604 <gpio_set_pulls>
10000598:	e00a      	b.n	100005b0 <main+0x6c>
1000059a:	f7ff feb3 	bl	10000304 <inject>
1000059e:	200a      	movs	r0, #10
100005a0:	f001 f9c2 	bl	10001928 <sleep_ms>
100005a4:	f7ff ff8e 	bl	100004c4 <test_uart1_rx>
100005a8:	20fa      	movs	r0, #250	; 0xfa
100005aa:	0040      	lsls	r0, r0, #1
100005ac:	f001 f9bc 	bl	10001928 <sleep_ms>
100005b0:	23d0      	movs	r3, #208	; 0xd0
100005b2:	061b      	lsls	r3, r3, #24
100005b4:	685b      	ldr	r3, [r3, #4]
100005b6:	041b      	lsls	r3, r3, #16
100005b8:	d4ef      	bmi.n	1000059a <main+0x56>
100005ba:	f7ff ff31 	bl	10000420 <test_uart1_tx>
100005be:	200a      	movs	r0, #10
100005c0:	f001 f9b2 	bl	10001928 <sleep_ms>
100005c4:	f7ff fef0 	bl	100003a8 <sniff>
100005c8:	e7ee      	b.n	100005a8 <main+0x64>
100005ca:	46c0      	nop			; (mov r8, r8)
100005cc:	40034000 	.word	0x40034000
100005d0:	40038000 	.word	0x40038000

100005d4 <gpio_set_function>:
100005d4:	b510      	push	{r4, lr}
100005d6:	0083      	lsls	r3, r0, #2
100005d8:	4a08      	ldr	r2, [pc, #32]	; (100005fc <gpio_set_function+0x28>)
100005da:	4694      	mov	ip, r2
100005dc:	4463      	add	r3, ip
100005de:	681c      	ldr	r4, [r3, #0]
100005e0:	2240      	movs	r2, #64	; 0x40
100005e2:	4062      	eors	r2, r4
100005e4:	24c0      	movs	r4, #192	; 0xc0
100005e6:	4014      	ands	r4, r2
100005e8:	2280      	movs	r2, #128	; 0x80
100005ea:	0152      	lsls	r2, r2, #5
100005ec:	4313      	orrs	r3, r2
100005ee:	601c      	str	r4, [r3, #0]
100005f0:	00c0      	lsls	r0, r0, #3
100005f2:	4b03      	ldr	r3, [pc, #12]	; (10000600 <gpio_set_function+0x2c>)
100005f4:	469c      	mov	ip, r3
100005f6:	4460      	add	r0, ip
100005f8:	6041      	str	r1, [r0, #4]
100005fa:	bd10      	pop	{r4, pc}
100005fc:	4001c004 	.word	0x4001c004
10000600:	40014000 	.word	0x40014000

10000604 <gpio_set_pulls>:
10000604:	0080      	lsls	r0, r0, #2
10000606:	4b0b      	ldr	r3, [pc, #44]	; (10000634 <gpio_set_pulls+0x30>)
10000608:	469c      	mov	ip, r3
1000060a:	4460      	add	r0, ip
1000060c:	2900      	cmp	r1, #0
1000060e:	d00d      	beq.n	1000062c <gpio_set_pulls+0x28>
10000610:	2308      	movs	r3, #8
10000612:	2a00      	cmp	r2, #0
10000614:	d00c      	beq.n	10000630 <gpio_set_pulls+0x2c>
10000616:	2204      	movs	r2, #4
10000618:	4313      	orrs	r3, r2
1000061a:	6802      	ldr	r2, [r0, #0]
1000061c:	4053      	eors	r3, r2
1000061e:	220c      	movs	r2, #12
10000620:	4013      	ands	r3, r2
10000622:	2280      	movs	r2, #128	; 0x80
10000624:	0152      	lsls	r2, r2, #5
10000626:	4310      	orrs	r0, r2
10000628:	6003      	str	r3, [r0, #0]
1000062a:	4770      	bx	lr
1000062c:	2300      	movs	r3, #0
1000062e:	e7f0      	b.n	10000612 <gpio_set_pulls+0xe>
10000630:	2200      	movs	r2, #0
10000632:	e7f1      	b.n	10000618 <gpio_set_pulls+0x14>
10000634:	4001c004 	.word	0x4001c004

10000638 <gpio_init>:
10000638:	b510      	push	{r4, lr}
1000063a:	2301      	movs	r3, #1
1000063c:	4083      	lsls	r3, r0
1000063e:	22d0      	movs	r2, #208	; 0xd0
10000640:	0612      	lsls	r2, r2, #24
10000642:	6293      	str	r3, [r2, #40]	; 0x28
10000644:	6193      	str	r3, [r2, #24]
10000646:	2105      	movs	r1, #5
10000648:	f7ff ffc4 	bl	100005d4 <gpio_set_function>
1000064c:	bd10      	pop	{r4, pc}
	...

10000650 <running_on_fpga>:
10000650:	4b03      	ldr	r3, [pc, #12]	; (10000660 <running_on_fpga+0x10>)
10000652:	681b      	ldr	r3, [r3, #0]
10000654:	2002      	movs	r0, #2
10000656:	4018      	ands	r0, r3
10000658:	1e43      	subs	r3, r0, #1
1000065a:	4198      	sbcs	r0, r3
1000065c:	b2c0      	uxtb	r0, r0
1000065e:	4770      	bx	lr
10000660:	4006c000 	.word	0x4006c000

10000664 <hw_claim_lock>:
10000664:	f3ef 8010 	mrs	r0, PRIMASK
10000668:	b672      	cpsid	i
1000066a:	4b03      	ldr	r3, [pc, #12]	; (10000678 <hw_claim_lock+0x14>)
1000066c:	681b      	ldr	r3, [r3, #0]
1000066e:	2b00      	cmp	r3, #0
10000670:	d0fb      	beq.n	1000066a <hw_claim_lock+0x6>
10000672:	f3bf 8f5f 	dmb	sy
10000676:	4770      	bx	lr
10000678:	d000012c 	.word	0xd000012c

1000067c <hw_claim_unlock>:
1000067c:	f3bf 8f5f 	dmb	sy
10000680:	4b02      	ldr	r3, [pc, #8]	; (1000068c <hw_claim_unlock+0x10>)
10000682:	2200      	movs	r2, #0
10000684:	601a      	str	r2, [r3, #0]
10000686:	f380 8810 	msr	PRIMASK, r0
1000068a:	4770      	bx	lr
1000068c:	d000012c 	.word	0xd000012c

10000690 <hw_claim_or_assert>:
10000690:	b5f8      	push	{r3, r4, r5, r6, r7, lr}
10000692:	0006      	movs	r6, r0
10000694:	000c      	movs	r4, r1
10000696:	0015      	movs	r5, r2
10000698:	f7ff ffe4 	bl	10000664 <hw_claim_lock>
1000069c:	08e3      	lsrs	r3, r4, #3
1000069e:	18f7      	adds	r7, r6, r3
100006a0:	5cf1      	ldrb	r1, [r6, r3]
100006a2:	2207      	movs	r2, #7
100006a4:	4022      	ands	r2, r4
100006a6:	2301      	movs	r3, #1
100006a8:	4093      	lsls	r3, r2
100006aa:	420b      	tst	r3, r1
100006ac:	d105      	bne.n	100006ba <hw_claim_or_assert+0x2a>
100006ae:	b2db      	uxtb	r3, r3
100006b0:	430b      	orrs	r3, r1
100006b2:	703b      	strb	r3, [r7, #0]
100006b4:	f7ff ffe2 	bl	1000067c <hw_claim_unlock>
100006b8:	bdf8      	pop	{r3, r4, r5, r6, r7, pc}
100006ba:	0021      	movs	r1, r4
100006bc:	0028      	movs	r0, r5
100006be:	f002 f8b5 	bl	1000282c <panic>

100006c2 <hw_claim_unused_from_range>:
100006c2:	b5f0      	push	{r4, r5, r6, r7, lr}
100006c4:	b083      	sub	sp, #12
100006c6:	0006      	movs	r6, r0
100006c8:	9101      	str	r1, [sp, #4]
100006ca:	0014      	movs	r4, r2
100006cc:	001f      	movs	r7, r3
100006ce:	f7ff ffc9 	bl	10000664 <hw_claim_lock>
100006d2:	e000      	b.n	100006d6 <hw_claim_unused_from_range+0x14>
100006d4:	3401      	adds	r4, #1
100006d6:	42bc      	cmp	r4, r7
100006d8:	d80c      	bhi.n	100006f4 <hw_claim_unused_from_range+0x32>
100006da:	08e3      	lsrs	r3, r4, #3
100006dc:	18f5      	adds	r5, r6, r3
100006de:	5cf3      	ldrb	r3, [r6, r3]
100006e0:	2107      	movs	r1, #7
100006e2:	4021      	ands	r1, r4
100006e4:	2201      	movs	r2, #1
100006e6:	408a      	lsls	r2, r1
100006e8:	421a      	tst	r2, r3
100006ea:	d1f3      	bne.n	100006d4 <hw_claim_unused_from_range+0x12>
100006ec:	b2d2      	uxtb	r2, r2
100006ee:	431a      	orrs	r2, r3
100006f0:	702a      	strb	r2, [r5, #0]
100006f2:	e001      	b.n	100006f8 <hw_claim_unused_from_range+0x36>
100006f4:	2401      	movs	r4, #1
100006f6:	4264      	negs	r4, r4
100006f8:	f7ff ffc0 	bl	1000067c <hw_claim_unlock>
100006fc:	2c00      	cmp	r4, #0
100006fe:	db02      	blt.n	10000706 <hw_claim_unused_from_range+0x44>
10000700:	0020      	movs	r0, r4
10000702:	b003      	add	sp, #12
10000704:	bdf0      	pop	{r4, r5, r6, r7, pc}
10000706:	9b01      	ldr	r3, [sp, #4]
10000708:	2b00      	cmp	r3, #0
1000070a:	d0f9      	beq.n	10000700 <hw_claim_unused_from_range+0x3e>
1000070c:	9808      	ldr	r0, [sp, #32]
1000070e:	f002 f88d 	bl	1000282c <panic>
	...

10000714 <spin_locks_reset>:
10000714:	2300      	movs	r3, #0
10000716:	e007      	b.n	10000728 <spin_locks_reset+0x14>
10000718:	4a05      	ldr	r2, [pc, #20]	; (10000730 <spin_locks_reset+0x1c>)
1000071a:	189a      	adds	r2, r3, r2
1000071c:	0092      	lsls	r2, r2, #2
1000071e:	f3bf 8f5f 	dmb	sy
10000722:	2100      	movs	r1, #0
10000724:	6011      	str	r1, [r2, #0]
10000726:	3301      	adds	r3, #1
10000728:	2b1f      	cmp	r3, #31
1000072a:	d9f5      	bls.n	10000718 <spin_locks_reset+0x4>
1000072c:	4770      	bx	lr
1000072e:	46c0      	nop			; (mov r8, r8)
10000730:	34000040 	.word	0x34000040

10000734 <next_striped_spin_lock_num>:
10000734:	4a05      	ldr	r2, [pc, #20]	; (1000074c <next_striped_spin_lock_num+0x18>)
10000736:	7810      	ldrb	r0, [r2, #0]
10000738:	1c43      	adds	r3, r0, #1
1000073a:	b2db      	uxtb	r3, r3
1000073c:	7013      	strb	r3, [r2, #0]
1000073e:	2b17      	cmp	r3, #23
10000740:	d902      	bls.n	10000748 <next_striped_spin_lock_num+0x14>
10000742:	0013      	movs	r3, r2
10000744:	2210      	movs	r2, #16
10000746:	701a      	strb	r2, [r3, #0]
10000748:	4770      	bx	lr
1000074a:	46c0      	nop			; (mov r8, r8)
1000074c:	20000bb4 	.word	0x20000bb4

10000750 <spin_lock_claim_unused>:
10000750:	b500      	push	{lr}
10000752:	b083      	sub	sp, #12
10000754:	0001      	movs	r1, r0
10000756:	4b04      	ldr	r3, [pc, #16]	; (10000768 <spin_lock_claim_unused+0x18>)
10000758:	9300      	str	r3, [sp, #0]
1000075a:	231f      	movs	r3, #31
1000075c:	2218      	movs	r2, #24
1000075e:	4803      	ldr	r0, [pc, #12]	; (1000076c <spin_lock_claim_unused+0x1c>)
10000760:	f7ff ffaf 	bl	100006c2 <hw_claim_unused_from_range>
10000764:	b003      	add	sp, #12
10000766:	bd00      	pop	{pc}
10000768:	10006ee8 	.word	0x10006ee8
1000076c:	20001350 	.word	0x20001350

10000770 <set_raw_irq_handler_and_unlock>:
10000770:	4b07      	ldr	r3, [pc, #28]	; (10000790 <set_raw_irq_handler_and_unlock+0x20>)
10000772:	689b      	ldr	r3, [r3, #8]
10000774:	3010      	adds	r0, #16
10000776:	0080      	lsls	r0, r0, #2
10000778:	5019      	str	r1, [r3, r0]
1000077a:	f3bf 8f5f 	dmb	sy
1000077e:	f3bf 8f5f 	dmb	sy
10000782:	4b04      	ldr	r3, [pc, #16]	; (10000794 <set_raw_irq_handler_and_unlock+0x24>)
10000784:	2100      	movs	r1, #0
10000786:	6019      	str	r1, [r3, #0]
10000788:	f382 8810 	msr	PRIMASK, r2
1000078c:	4770      	bx	lr
1000078e:	46c0      	nop			; (mov r8, r8)
10000790:	e000ed00 	.word	0xe000ed00
10000794:	d0000124 	.word	0xd0000124

10000798 <make_branch>:
10000798:	b510      	push	{r4, lr}
1000079a:	1a09      	subs	r1, r1, r0
1000079c:	1f08      	subs	r0, r1, #4
1000079e:	4b0a      	ldr	r3, [pc, #40]	; (100007c8 <make_branch+0x30>)
100007a0:	469c      	mov	ip, r3
100007a2:	4461      	add	r1, ip
100007a4:	4a09      	ldr	r2, [pc, #36]	; (100007cc <make_branch+0x34>)
100007a6:	4291      	cmp	r1, r2
100007a8:	d808      	bhi.n	100007bc <make_branch+0x24>
100007aa:	07c3      	lsls	r3, r0, #31
100007ac:	d406      	bmi.n	100007bc <make_branch+0x24>
100007ae:	1040      	asrs	r0, r0, #1
100007b0:	0540      	lsls	r0, r0, #21
100007b2:	0d40      	lsrs	r0, r0, #21
100007b4:	4b06      	ldr	r3, [pc, #24]	; (100007d0 <make_branch+0x38>)
100007b6:	4318      	orrs	r0, r3
100007b8:	b280      	uxth	r0, r0
100007ba:	bd10      	pop	{r4, pc}
100007bc:	4b05      	ldr	r3, [pc, #20]	; (100007d4 <make_branch+0x3c>)
100007be:	4a06      	ldr	r2, [pc, #24]	; (100007d8 <make_branch+0x40>)
100007c0:	21a3      	movs	r1, #163	; 0xa3
100007c2:	4806      	ldr	r0, [pc, #24]	; (100007dc <make_branch+0x44>)
100007c4:	f001 ff98 	bl	100026f8 <__assert_func>
100007c8:	000007fc 	.word	0x000007fc
100007cc:	00000ffe 	.word	0x00000ffe
100007d0:	ffffe000 	.word	0xffffe000
100007d4:	10006f04 	.word	0x10006f04
100007d8:	10007190 	.word	0x10007190
100007dc:	10006f34 	.word	0x10006f34

100007e0 <insert_branch_and_link>:
100007e0:	b510      	push	{r4, lr}
100007e2:	1a09      	subs	r1, r1, r0
100007e4:	3904      	subs	r1, #4
100007e6:	084c      	lsrs	r4, r1, #1
100007e8:	0b09      	lsrs	r1, r1, #12
100007ea:	d108      	bne.n	100007fe <insert_branch_and_link+0x1e>
100007ec:	0549      	lsls	r1, r1, #21
100007ee:	0d49      	lsrs	r1, r1, #21
100007f0:	4a06      	ldr	r2, [pc, #24]	; (1000080c <insert_branch_and_link+0x2c>)
100007f2:	4311      	orrs	r1, r2
100007f4:	8001      	strh	r1, [r0, #0]
100007f6:	4b06      	ldr	r3, [pc, #24]	; (10000810 <insert_branch_and_link+0x30>)
100007f8:	4323      	orrs	r3, r4
100007fa:	8043      	strh	r3, [r0, #2]
100007fc:	bd10      	pop	{r4, pc}
100007fe:	4b05      	ldr	r3, [pc, #20]	; (10000814 <insert_branch_and_link+0x34>)
10000800:	4a05      	ldr	r2, [pc, #20]	; (10000818 <insert_branch_and_link+0x38>)
10000802:	21ab      	movs	r1, #171	; 0xab
10000804:	4805      	ldr	r0, [pc, #20]	; (1000081c <insert_branch_and_link+0x3c>)
10000806:	f001 ff77 	bl	100026f8 <__assert_func>
1000080a:	46c0      	nop			; (mov r8, r8)
1000080c:	fffff000 	.word	0xfffff000
10000810:	fffff800 	.word	0xfffff800
10000814:	10006f90 	.word	0x10006f90
10000818:	10007164 	.word	0x10007164
1000081c:	10006f34 	.word	0x10006f34

10000820 <irq_is_enabled>:
10000820:	2301      	movs	r3, #1
10000822:	4083      	lsls	r3, r0
10000824:	4a03      	ldr	r2, [pc, #12]	; (10000834 <irq_is_enabled+0x14>)
10000826:	6810      	ldr	r0, [r2, #0]
10000828:	4018      	ands	r0, r3
1000082a:	1e43      	subs	r3, r0, #1
1000082c:	4198      	sbcs	r0, r3
1000082e:	b2c0      	uxtb	r0, r0
10000830:	4770      	bx	lr
10000832:	46c0      	nop			; (mov r8, r8)
10000834:	e000e100 	.word	0xe000e100

10000838 <irq_set_mask_enabled>:
10000838:	2900      	cmp	r1, #0
1000083a:	d004      	beq.n	10000846 <irq_set_mask_enabled+0xe>
1000083c:	4b03      	ldr	r3, [pc, #12]	; (1000084c <irq_set_mask_enabled+0x14>)
1000083e:	6018      	str	r0, [r3, #0]
10000840:	4b03      	ldr	r3, [pc, #12]	; (10000850 <irq_set_mask_enabled+0x18>)
10000842:	6018      	str	r0, [r3, #0]
10000844:	4770      	bx	lr
10000846:	4b03      	ldr	r3, [pc, #12]	; (10000854 <irq_set_mask_enabled+0x1c>)
10000848:	6018      	str	r0, [r3, #0]
1000084a:	e7fb      	b.n	10000844 <irq_set_mask_enabled+0xc>
1000084c:	e000e280 	.word	0xe000e280
10000850:	e000e100 	.word	0xe000e100
10000854:	e000e180 	.word	0xe000e180

10000858 <irq_set_enabled>:
10000858:	b510      	push	{r4, lr}
1000085a:	2301      	movs	r3, #1
1000085c:	4083      	lsls	r3, r0
1000085e:	0018      	movs	r0, r3
10000860:	f7ff ffea 	bl	10000838 <irq_set_mask_enabled>
10000864:	bd10      	pop	{r4, pc}
	...

10000868 <irq_set_pending>:
10000868:	2301      	movs	r3, #1
1000086a:	4083      	lsls	r3, r0
1000086c:	4a01      	ldr	r2, [pc, #4]	; (10000874 <irq_set_pending+0xc>)
1000086e:	6013      	str	r3, [r2, #0]
10000870:	4770      	bx	lr
10000872:	46c0      	nop			; (mov r8, r8)
10000874:	e000e200 	.word	0xe000e200

10000878 <irq_get_vtable_handler>:
10000878:	4b02      	ldr	r3, [pc, #8]	; (10000884 <irq_get_vtable_handler+0xc>)
1000087a:	689b      	ldr	r3, [r3, #8]
1000087c:	3010      	adds	r0, #16
1000087e:	0080      	lsls	r0, r0, #2
10000880:	58c0      	ldr	r0, [r0, r3]
10000882:	4770      	bx	lr
10000884:	e000ed00 	.word	0xe000ed00

10000888 <irq_has_shared_handler>:
10000888:	b510      	push	{r4, lr}
1000088a:	f7ff fff5 	bl	10000878 <irq_get_vtable_handler>
1000088e:	2800      	cmp	r0, #0
10000890:	d005      	beq.n	1000089e <irq_has_shared_handler+0x16>
10000892:	4b05      	ldr	r3, [pc, #20]	; (100008a8 <irq_has_shared_handler+0x20>)
10000894:	1ac0      	subs	r0, r0, r3
10000896:	282f      	cmp	r0, #47	; 0x2f
10000898:	d803      	bhi.n	100008a2 <irq_has_shared_handler+0x1a>
1000089a:	2001      	movs	r0, #1
1000089c:	bd10      	pop	{r4, pc}
1000089e:	2000      	movs	r0, #0
100008a0:	e7fc      	b.n	1000089c <irq_has_shared_handler+0x14>
100008a2:	2000      	movs	r0, #0
100008a4:	e7fa      	b.n	1000089c <irq_has_shared_handler+0x14>
100008a6:	46c0      	nop			; (mov r8, r8)
100008a8:	20000bb8 	.word	0x20000bb8

100008ac <irq_set_exclusive_handler>:
100008ac:	b570      	push	{r4, r5, r6, lr}
100008ae:	0004      	movs	r4, r0
100008b0:	000d      	movs	r5, r1
100008b2:	f3ef 8610 	mrs	r6, PRIMASK
100008b6:	b672      	cpsid	i
100008b8:	4b0c      	ldr	r3, [pc, #48]	; (100008ec <irq_set_exclusive_handler+0x40>)
100008ba:	681b      	ldr	r3, [r3, #0]
100008bc:	2b00      	cmp	r3, #0
100008be:	d0fb      	beq.n	100008b8 <irq_set_exclusive_handler+0xc>
100008c0:	f3bf 8f5f 	dmb	sy
100008c4:	0020      	movs	r0, r4
100008c6:	f7ff ffd7 	bl	10000878 <irq_get_vtable_handler>
100008ca:	4b09      	ldr	r3, [pc, #36]	; (100008f0 <irq_set_exclusive_handler+0x44>)
100008cc:	4298      	cmp	r0, r3
100008ce:	d001      	beq.n	100008d4 <irq_set_exclusive_handler+0x28>
100008d0:	42a8      	cmp	r0, r5
100008d2:	d105      	bne.n	100008e0 <irq_set_exclusive_handler+0x34>
100008d4:	0032      	movs	r2, r6
100008d6:	0029      	movs	r1, r5
100008d8:	0020      	movs	r0, r4
100008da:	f7ff ff49 	bl	10000770 <set_raw_irq_handler_and_unlock>
100008de:	bd70      	pop	{r4, r5, r6, pc}
100008e0:	4b04      	ldr	r3, [pc, #16]	; (100008f4 <irq_set_exclusive_handler+0x48>)
100008e2:	4a05      	ldr	r2, [pc, #20]	; (100008f8 <irq_set_exclusive_handler+0x4c>)
100008e4:	2186      	movs	r1, #134	; 0x86
100008e6:	4805      	ldr	r0, [pc, #20]	; (100008fc <irq_set_exclusive_handler+0x50>)
100008e8:	f001 ff06 	bl	100026f8 <__assert_func>
100008ec:	d0000124 	.word	0xd0000124
100008f0:	100001cd 	.word	0x100001cd
100008f4:	10006fa0 	.word	0x10006fa0
100008f8:	100071c4 	.word	0x100071c4
100008fc:	10006f34 	.word	0x10006f34

10000900 <irq_add_shared_handler>:
10000900:	b5f0      	push	{r4, r5, r6, r7, lr}
10000902:	46de      	mov	lr, fp
10000904:	4657      	mov	r7, sl
10000906:	464e      	mov	r6, r9
10000908:	4645      	mov	r5, r8
1000090a:	b5e0      	push	{r5, r6, r7, lr}
1000090c:	b089      	sub	sp, #36	; 0x24
1000090e:	4681      	mov	r9, r0
10000910:	9101      	str	r1, [sp, #4]
10000912:	0015      	movs	r5, r2
10000914:	f3ef 8a10 	mrs	sl, PRIMASK
10000918:	b672      	cpsid	i
1000091a:	4b74      	ldr	r3, [pc, #464]	; (10000aec <irq_add_shared_handler+0x1ec>)
1000091c:	681b      	ldr	r3, [r3, #0]
1000091e:	2b00      	cmp	r3, #0
10000920:	d0fb      	beq.n	1000091a <irq_add_shared_handler+0x1a>
10000922:	f3bf 8f5f 	dmb	sy
10000926:	4b72      	ldr	r3, [pc, #456]	; (10000af0 <irq_add_shared_handler+0x1f0>)
10000928:	2700      	movs	r7, #0
1000092a:	57df      	ldrsb	r7, [r3, r7]
1000092c:	2f00      	cmp	r7, #0
1000092e:	db40      	blt.n	100009b2 <irq_add_shared_handler+0xb2>
10000930:	007c      	lsls	r4, r7, #1
10000932:	19e4      	adds	r4, r4, r7
10000934:	00a4      	lsls	r4, r4, #2
10000936:	486f      	ldr	r0, [pc, #444]	; (10000af4 <irq_add_shared_handler+0x1f4>)
10000938:	1824      	adds	r4, r4, r0
1000093a:	2206      	movs	r2, #6
1000093c:	56a2      	ldrsb	r2, [r4, r2]
1000093e:	4b6c      	ldr	r3, [pc, #432]	; (10000af0 <irq_add_shared_handler+0x1f0>)
10000940:	701a      	strb	r2, [r3, #0]
10000942:	4b6d      	ldr	r3, [pc, #436]	; (10000af8 <irq_add_shared_handler+0x1f8>)
10000944:	689a      	ldr	r2, [r3, #8]
10000946:	464b      	mov	r3, r9
10000948:	3310      	adds	r3, #16
1000094a:	009b      	lsls	r3, r3, #2
1000094c:	58d3      	ldr	r3, [r2, r3]
1000094e:	4698      	mov	r8, r3
10000950:	001e      	movs	r6, r3
10000952:	1a1b      	subs	r3, r3, r0
10000954:	2b2f      	cmp	r3, #47	; 0x2f
10000956:	d938      	bls.n	100009ca <irq_add_shared_handler+0xca>
10000958:	4b68      	ldr	r3, [pc, #416]	; (10000afc <irq_add_shared_handler+0x1fc>)
1000095a:	4598      	cmp	r8, r3
1000095c:	d12f      	bne.n	100009be <irq_add_shared_handler+0xbe>
1000095e:	ae05      	add	r6, sp, #20
10000960:	4b67      	ldr	r3, [pc, #412]	; (10000b00 <irq_add_shared_handler+0x200>)
10000962:	8033      	strh	r3, [r6, #0]
10000964:	007b      	lsls	r3, r7, #1
10000966:	469b      	mov	fp, r3
10000968:	19d8      	adds	r0, r3, r7
1000096a:	0080      	lsls	r0, r0, #2
1000096c:	4b61      	ldr	r3, [pc, #388]	; (10000af4 <irq_add_shared_handler+0x1f4>)
1000096e:	4698      	mov	r8, r3
10000970:	4440      	add	r0, r8
10000972:	3002      	adds	r0, #2
10000974:	4963      	ldr	r1, [pc, #396]	; (10000b04 <irq_add_shared_handler+0x204>)
10000976:	f7ff ff0f 	bl	10000798 <make_branch>
1000097a:	8070      	strh	r0, [r6, #2]
1000097c:	4b62      	ldr	r3, [pc, #392]	; (10000b08 <irq_add_shared_handler+0x208>)
1000097e:	80b3      	strh	r3, [r6, #4]
10000980:	23ff      	movs	r3, #255	; 0xff
10000982:	71b3      	strb	r3, [r6, #6]
10000984:	71f5      	strb	r5, [r6, #7]
10000986:	9b01      	ldr	r3, [sp, #4]
10000988:	9307      	str	r3, [sp, #28]
1000098a:	445f      	add	r7, fp
1000098c:	00bf      	lsls	r7, r7, #2
1000098e:	4447      	add	r7, r8
10000990:	ce0e      	ldmia	r6!, {r1, r2, r3}
10000992:	c70e      	stmia	r7!, {r1, r2, r3}
10000994:	2301      	movs	r3, #1
10000996:	431c      	orrs	r4, r3
10000998:	46a0      	mov	r8, r4
1000099a:	4652      	mov	r2, sl
1000099c:	4641      	mov	r1, r8
1000099e:	4648      	mov	r0, r9
100009a0:	f7ff fee6 	bl	10000770 <set_raw_irq_handler_and_unlock>
100009a4:	b009      	add	sp, #36	; 0x24
100009a6:	bcf0      	pop	{r4, r5, r6, r7}
100009a8:	46bb      	mov	fp, r7
100009aa:	46b2      	mov	sl, r6
100009ac:	46a9      	mov	r9, r5
100009ae:	46a0      	mov	r8, r4
100009b0:	bdf0      	pop	{r4, r5, r6, r7, pc}
100009b2:	4b56      	ldr	r3, [pc, #344]	; (10000b0c <irq_add_shared_handler+0x20c>)
100009b4:	4a56      	ldr	r2, [pc, #344]	; (10000b10 <irq_add_shared_handler+0x210>)
100009b6:	21d7      	movs	r1, #215	; 0xd7
100009b8:	4856      	ldr	r0, [pc, #344]	; (10000b14 <irq_add_shared_handler+0x214>)
100009ba:	f001 fe9d 	bl	100026f8 <__assert_func>
100009be:	4b56      	ldr	r3, [pc, #344]	; (10000b18 <irq_add_shared_handler+0x218>)
100009c0:	4a53      	ldr	r2, [pc, #332]	; (10000b10 <irq_add_shared_handler+0x210>)
100009c2:	21de      	movs	r1, #222	; 0xde
100009c4:	4853      	ldr	r0, [pc, #332]	; (10000b14 <irq_add_shared_handler+0x214>)
100009c6:	f001 fe97 	bl	100026f8 <__assert_func>
100009ca:	43c0      	mvns	r0, r0
100009cc:	4440      	add	r0, r8
100009ce:	210c      	movs	r1, #12
100009d0:	f003 f840 	bl	10003a54 <__wrap___aeabi_uidiv>
100009d4:	2900      	cmp	r1, #0
100009d6:	d112      	bne.n	100009fe <irq_add_shared_handler+0xfe>
100009d8:	2301      	movs	r3, #1
100009da:	439e      	bics	r6, r3
100009dc:	46b3      	mov	fp, r6
100009de:	0033      	movs	r3, r6
100009e0:	2600      	movs	r6, #0
100009e2:	79da      	ldrb	r2, [r3, #7]
100009e4:	42aa      	cmp	r2, r5
100009e6:	d911      	bls.n	10000a0c <irq_add_shared_handler+0x10c>
100009e8:	2106      	movs	r1, #6
100009ea:	5659      	ldrsb	r1, [r3, r1]
100009ec:	2900      	cmp	r1, #0
100009ee:	db0c      	blt.n	10000a0a <irq_add_shared_handler+0x10a>
100009f0:	004a      	lsls	r2, r1, #1
100009f2:	1852      	adds	r2, r2, r1
100009f4:	0092      	lsls	r2, r2, #2
100009f6:	001e      	movs	r6, r3
100009f8:	4b3e      	ldr	r3, [pc, #248]	; (10000af4 <irq_add_shared_handler+0x1f4>)
100009fa:	189b      	adds	r3, r3, r2
100009fc:	e7f1      	b.n	100009e2 <irq_add_shared_handler+0xe2>
100009fe:	4b47      	ldr	r3, [pc, #284]	; (10000b1c <irq_add_shared_handler+0x21c>)
10000a00:	4a43      	ldr	r2, [pc, #268]	; (10000b10 <irq_add_shared_handler+0x210>)
10000a02:	21ea      	movs	r1, #234	; 0xea
10000a04:	4843      	ldr	r0, [pc, #268]	; (10000b14 <irq_add_shared_handler+0x214>)
10000a06:	f001 fe77 	bl	100026f8 <__assert_func>
10000a0a:	001e      	movs	r6, r3
10000a0c:	2e00      	cmp	r6, #0
10000a0e:	d03a      	beq.n	10000a86 <irq_add_shared_handler+0x186>
10000a10:	ab05      	add	r3, sp, #20
10000a12:	4a43      	ldr	r2, [pc, #268]	; (10000b20 <irq_add_shared_handler+0x220>)
10000a14:	801a      	strh	r2, [r3, #0]
10000a16:	3a81      	subs	r2, #129	; 0x81
10000a18:	805a      	strh	r2, [r3, #2]
10000a1a:	2306      	movs	r3, #6
10000a1c:	56f3      	ldrsb	r3, [r6, r3]
10000a1e:	9302      	str	r3, [sp, #8]
10000a20:	2b00      	cmp	r3, #0
10000a22:	da17      	bge.n	10000a54 <irq_add_shared_handler+0x154>
10000a24:	483f      	ldr	r0, [pc, #252]	; (10000b24 <irq_add_shared_handler+0x224>)
10000a26:	ab05      	add	r3, sp, #20
10000a28:	469b      	mov	fp, r3
10000a2a:	8098      	strh	r0, [r3, #4]
10000a2c:	9a02      	ldr	r2, [sp, #8]
10000a2e:	719a      	strb	r2, [r3, #6]
10000a30:	71dd      	strb	r5, [r3, #7]
10000a32:	9a01      	ldr	r2, [sp, #4]
10000a34:	9207      	str	r2, [sp, #28]
10000a36:	1d30      	adds	r0, r6, #4
10000a38:	0021      	movs	r1, r4
10000a3a:	f7ff fead 	bl	10000798 <make_branch>
10000a3e:	80b0      	strh	r0, [r6, #4]
10000a40:	71b7      	strb	r7, [r6, #6]
10000a42:	007b      	lsls	r3, r7, #1
10000a44:	19db      	adds	r3, r3, r7
10000a46:	009b      	lsls	r3, r3, #2
10000a48:	4f2a      	ldr	r7, [pc, #168]	; (10000af4 <irq_add_shared_handler+0x1f4>)
10000a4a:	18ff      	adds	r7, r7, r3
10000a4c:	465b      	mov	r3, fp
10000a4e:	cb07      	ldmia	r3!, {r0, r1, r2}
10000a50:	c707      	stmia	r7!, {r0, r1, r2}
10000a52:	e7a2      	b.n	1000099a <irq_add_shared_handler+0x9a>
10000a54:	0078      	lsls	r0, r7, #1
10000a56:	19c0      	adds	r0, r0, r7
10000a58:	0080      	lsls	r0, r0, #2
10000a5a:	4b26      	ldr	r3, [pc, #152]	; (10000af4 <irq_add_shared_handler+0x1f4>)
10000a5c:	18c0      	adds	r0, r0, r3
10000a5e:	3004      	adds	r0, #4
10000a60:	1d32      	adds	r2, r6, #4
10000a62:	88b3      	ldrh	r3, [r6, #4]
10000a64:	0ad9      	lsrs	r1, r3, #11
10000a66:	291c      	cmp	r1, #28
10000a68:	d107      	bne.n	10000a7a <irq_add_shared_handler+0x17a>
10000a6a:	055b      	lsls	r3, r3, #21
10000a6c:	1559      	asrs	r1, r3, #21
10000a6e:	3102      	adds	r1, #2
10000a70:	0049      	lsls	r1, r1, #1
10000a72:	1851      	adds	r1, r2, r1
10000a74:	f7ff fe90 	bl	10000798 <make_branch>
10000a78:	e7d5      	b.n	10000a26 <irq_add_shared_handler+0x126>
10000a7a:	4b2b      	ldr	r3, [pc, #172]	; (10000b28 <irq_add_shared_handler+0x228>)
10000a7c:	4a2b      	ldr	r2, [pc, #172]	; (10000b2c <irq_add_shared_handler+0x22c>)
10000a7e:	21b1      	movs	r1, #177	; 0xb1
10000a80:	4824      	ldr	r0, [pc, #144]	; (10000b14 <irq_add_shared_handler+0x214>)
10000a82:	f001 fe39 	bl	100026f8 <__assert_func>
10000a86:	ae05      	add	r6, sp, #20
10000a88:	4b1d      	ldr	r3, [pc, #116]	; (10000b00 <irq_add_shared_handler+0x200>)
10000a8a:	8033      	strh	r3, [r6, #0]
10000a8c:	007b      	lsls	r3, r7, #1
10000a8e:	9302      	str	r3, [sp, #8]
10000a90:	19d8      	adds	r0, r3, r7
10000a92:	0080      	lsls	r0, r0, #2
10000a94:	4a17      	ldr	r2, [pc, #92]	; (10000af4 <irq_add_shared_handler+0x1f4>)
10000a96:	4690      	mov	r8, r2
10000a98:	0002      	movs	r2, r0
10000a9a:	4442      	add	r2, r8
10000a9c:	9203      	str	r2, [sp, #12]
10000a9e:	1c90      	adds	r0, r2, #2
10000aa0:	4918      	ldr	r1, [pc, #96]	; (10000b04 <irq_add_shared_handler+0x204>)
10000aa2:	f7ff fe79 	bl	10000798 <make_branch>
10000aa6:	8070      	strh	r0, [r6, #2]
10000aa8:	9a03      	ldr	r2, [sp, #12]
10000aaa:	1d10      	adds	r0, r2, #4
10000aac:	4659      	mov	r1, fp
10000aae:	f7ff fe73 	bl	10000798 <make_branch>
10000ab2:	80b0      	strh	r0, [r6, #4]
10000ab4:	4b1e      	ldr	r3, [pc, #120]	; (10000b30 <irq_add_shared_handler+0x230>)
10000ab6:	465a      	mov	r2, fp
10000ab8:	4641      	mov	r1, r8
10000aba:	1a52      	subs	r2, r2, r1
10000abc:	4152      	adcs	r2, r2
10000abe:	4353      	muls	r3, r2
10000ac0:	0d1b      	lsrs	r3, r3, #20
10000ac2:	71b3      	strb	r3, [r6, #6]
10000ac4:	71f5      	strb	r5, [r6, #7]
10000ac6:	9a01      	ldr	r2, [sp, #4]
10000ac8:	9207      	str	r2, [sp, #28]
10000aca:	9b02      	ldr	r3, [sp, #8]
10000acc:	469c      	mov	ip, r3
10000ace:	4467      	add	r7, ip
10000ad0:	00bf      	lsls	r7, r7, #2
10000ad2:	4447      	add	r7, r8
10000ad4:	ce0e      	ldmia	r6!, {r1, r2, r3}
10000ad6:	c70e      	stmia	r7!, {r1, r2, r3}
10000ad8:	4b11      	ldr	r3, [pc, #68]	; (10000b20 <irq_add_shared_handler+0x220>)
10000ada:	465a      	mov	r2, fp
10000adc:	8013      	strh	r3, [r2, #0]
10000ade:	3b81      	subs	r3, #129	; 0x81
10000ae0:	8053      	strh	r3, [r2, #2]
10000ae2:	2301      	movs	r3, #1
10000ae4:	431c      	orrs	r4, r3
10000ae6:	46a0      	mov	r8, r4
10000ae8:	e757      	b.n	1000099a <irq_add_shared_handler+0x9a>
10000aea:	46c0      	nop			; (mov r8, r8)
10000aec:	d0000124 	.word	0xd0000124
10000af0:	20001a55 	.word	0x20001a55
10000af4:	20000bb8 	.word	0x20000bb8
10000af8:	e000ed00 	.word	0xe000ed00
10000afc:	100001cd 	.word	0x100001cd
10000b00:	ffffa100 	.word	0xffffa100
10000b04:	20000be8 	.word	0x20000be8
10000b08:	ffffbd01 	.word	0xffffbd01
10000b0c:	10006fd8 	.word	0x10006fd8
10000b10:	100071ac 	.word	0x100071ac
10000b14:	10006f34 	.word	0x10006f34
10000b18:	10007000 	.word	0x10007000
10000b1c:	10007028 	.word	0x10007028
10000b20:	00004801 	.word	0x00004801
10000b24:	0000bd01 	.word	0x0000bd01
10000b28:	1000709c 	.word	0x1000709c
10000b2c:	1000719c 	.word	0x1000719c
10000b30:	0000aaaa 	.word	0x0000aaaa

10000b34 <irq_remove_handler>:
10000b34:	b5f0      	push	{r4, r5, r6, r7, lr}
10000b36:	46ce      	mov	lr, r9
10000b38:	4647      	mov	r7, r8
10000b3a:	b580      	push	{r7, lr}
10000b3c:	b083      	sub	sp, #12
10000b3e:	0006      	movs	r6, r0
10000b40:	000d      	movs	r5, r1
10000b42:	f3ef 8810 	mrs	r8, PRIMASK
10000b46:	b672      	cpsid	i
10000b48:	4b56      	ldr	r3, [pc, #344]	; (10000ca4 <irq_remove_handler+0x170>)
10000b4a:	681b      	ldr	r3, [r3, #0]
10000b4c:	2b00      	cmp	r3, #0
10000b4e:	d0fb      	beq.n	10000b48 <irq_remove_handler+0x14>
10000b50:	f3bf 8f5f 	dmb	sy
10000b54:	4b54      	ldr	r3, [pc, #336]	; (10000ca8 <irq_remove_handler+0x174>)
10000b56:	689a      	ldr	r2, [r3, #8]
10000b58:	0034      	movs	r4, r6
10000b5a:	3410      	adds	r4, #16
10000b5c:	00a3      	lsls	r3, r4, #2
10000b5e:	58d7      	ldr	r7, [r2, r3]
10000b60:	4b52      	ldr	r3, [pc, #328]	; (10000cac <irq_remove_handler+0x178>)
10000b62:	429f      	cmp	r7, r3
10000b64:	d007      	beq.n	10000b76 <irq_remove_handler+0x42>
10000b66:	42af      	cmp	r7, r5
10000b68:	d100      	bne.n	10000b6c <irq_remove_handler+0x38>
10000b6a:	e098      	b.n	10000c9e <irq_remove_handler+0x16a>
10000b6c:	9701      	str	r7, [sp, #4]
10000b6e:	4b50      	ldr	r3, [pc, #320]	; (10000cb0 <irq_remove_handler+0x17c>)
10000b70:	1afb      	subs	r3, r7, r3
10000b72:	2b2f      	cmp	r3, #47	; 0x2f
10000b74:	d909      	bls.n	10000b8a <irq_remove_handler+0x56>
10000b76:	4642      	mov	r2, r8
10000b78:	0039      	movs	r1, r7
10000b7a:	0030      	movs	r0, r6
10000b7c:	f7ff fdf8 	bl	10000770 <set_raw_irq_handler_and_unlock>
10000b80:	b003      	add	sp, #12
10000b82:	bcc0      	pop	{r6, r7}
10000b84:	46b9      	mov	r9, r7
10000b86:	46b0      	mov	r8, r6
10000b88:	bdf0      	pop	{r4, r5, r6, r7, pc}
10000b8a:	0030      	movs	r0, r6
10000b8c:	f7ff fe48 	bl	10000820 <irq_is_enabled>
10000b90:	4681      	mov	r9, r0
10000b92:	2100      	movs	r1, #0
10000b94:	0030      	movs	r0, r6
10000b96:	f7ff fe5f 	bl	10000858 <irq_set_enabled>
10000b9a:	f3bf 8f5f 	dmb	sy
10000b9e:	f3ef 8105 	mrs	r1, IPSR
10000ba2:	2900      	cmp	r1, #0
10000ba4:	d001      	beq.n	10000baa <irq_remove_handler+0x76>
10000ba6:	428c      	cmp	r4, r1
10000ba8:	d111      	bne.n	10000bce <irq_remove_handler+0x9a>
10000baa:	2301      	movs	r3, #1
10000bac:	9c01      	ldr	r4, [sp, #4]
10000bae:	439c      	bics	r4, r3
10000bb0:	2200      	movs	r2, #0
10000bb2:	68a3      	ldr	r3, [r4, #8]
10000bb4:	42ab      	cmp	r3, r5
10000bb6:	d012      	beq.n	10000bde <irq_remove_handler+0xaa>
10000bb8:	2206      	movs	r2, #6
10000bba:	56a2      	ldrsb	r2, [r4, r2]
10000bbc:	2a00      	cmp	r2, #0
10000bbe:	db0d      	blt.n	10000bdc <irq_remove_handler+0xa8>
10000bc0:	0053      	lsls	r3, r2, #1
10000bc2:	189b      	adds	r3, r3, r2
10000bc4:	009b      	lsls	r3, r3, #2
10000bc6:	0022      	movs	r2, r4
10000bc8:	4c39      	ldr	r4, [pc, #228]	; (10000cb0 <irq_remove_handler+0x17c>)
10000bca:	18e4      	adds	r4, r4, r3
10000bcc:	e7f1      	b.n	10000bb2 <irq_remove_handler+0x7e>
10000bce:	2136      	movs	r1, #54	; 0x36
10000bd0:	4b38      	ldr	r3, [pc, #224]	; (10000cb4 <irq_remove_handler+0x180>)
10000bd2:	4a39      	ldr	r2, [pc, #228]	; (10000cb8 <irq_remove_handler+0x184>)
10000bd4:	31ff      	adds	r1, #255	; 0xff
10000bd6:	4839      	ldr	r0, [pc, #228]	; (10000cbc <irq_remove_handler+0x188>)
10000bd8:	f001 fd8e 	bl	100026f8 <__assert_func>
10000bdc:	0022      	movs	r2, r4
10000bde:	42ab      	cmp	r3, r5
10000be0:	d156      	bne.n	10000c90 <irq_remove_handler+0x15c>
10000be2:	2506      	movs	r5, #6
10000be4:	5765      	ldrsb	r5, [r4, r5]
10000be6:	2d00      	cmp	r5, #0
10000be8:	db38      	blt.n	10000c5c <irq_remove_handler+0x128>
10000bea:	006b      	lsls	r3, r5, #1
10000bec:	195b      	adds	r3, r3, r5
10000bee:	009a      	lsls	r2, r3, #2
10000bf0:	4b2f      	ldr	r3, [pc, #188]	; (10000cb0 <irq_remove_handler+0x17c>)
10000bf2:	189b      	adds	r3, r3, r2
10000bf4:	689a      	ldr	r2, [r3, #8]
10000bf6:	60a2      	str	r2, [r4, #8]
10000bf8:	79da      	ldrb	r2, [r3, #7]
10000bfa:	71e2      	strb	r2, [r4, #7]
10000bfc:	2206      	movs	r2, #6
10000bfe:	569a      	ldrsb	r2, [r3, r2]
10000c00:	71a2      	strb	r2, [r4, #6]
10000c02:	799b      	ldrb	r3, [r3, #6]
10000c04:	b25b      	sxtb	r3, r3
10000c06:	2b00      	cmp	r3, #0
10000c08:	da0f      	bge.n	10000c2a <irq_remove_handler+0xf6>
10000c0a:	482d      	ldr	r0, [pc, #180]	; (10000cc0 <irq_remove_handler+0x18c>)
10000c0c:	80a0      	strh	r0, [r4, #4]
10000c0e:	006b      	lsls	r3, r5, #1
10000c10:	195b      	adds	r3, r3, r5
10000c12:	009b      	lsls	r3, r3, #2
10000c14:	4a26      	ldr	r2, [pc, #152]	; (10000cb0 <irq_remove_handler+0x17c>)
10000c16:	18d3      	adds	r3, r2, r3
10000c18:	4a2a      	ldr	r2, [pc, #168]	; (10000cc4 <irq_remove_handler+0x190>)
10000c1a:	7811      	ldrb	r1, [r2, #0]
10000c1c:	7199      	strb	r1, [r3, #6]
10000c1e:	7015      	strb	r5, [r2, #0]
10000c20:	4649      	mov	r1, r9
10000c22:	0030      	movs	r0, r6
10000c24:	f7ff fe18 	bl	10000858 <irq_set_enabled>
10000c28:	e7a5      	b.n	10000b76 <irq_remove_handler+0x42>
10000c2a:	1d20      	adds	r0, r4, #4
10000c2c:	006b      	lsls	r3, r5, #1
10000c2e:	195b      	adds	r3, r3, r5
10000c30:	009b      	lsls	r3, r3, #2
10000c32:	4a1f      	ldr	r2, [pc, #124]	; (10000cb0 <irq_remove_handler+0x17c>)
10000c34:	189b      	adds	r3, r3, r2
10000c36:	1d1a      	adds	r2, r3, #4
10000c38:	889b      	ldrh	r3, [r3, #4]
10000c3a:	0ad9      	lsrs	r1, r3, #11
10000c3c:	291c      	cmp	r1, #28
10000c3e:	d107      	bne.n	10000c50 <irq_remove_handler+0x11c>
10000c40:	055b      	lsls	r3, r3, #21
10000c42:	155b      	asrs	r3, r3, #21
10000c44:	3302      	adds	r3, #2
10000c46:	0059      	lsls	r1, r3, #1
10000c48:	1851      	adds	r1, r2, r1
10000c4a:	f7ff fda5 	bl	10000798 <make_branch>
10000c4e:	e7dd      	b.n	10000c0c <irq_remove_handler+0xd8>
10000c50:	4b1d      	ldr	r3, [pc, #116]	; (10000cc8 <irq_remove_handler+0x194>)
10000c52:	4a1e      	ldr	r2, [pc, #120]	; (10000ccc <irq_remove_handler+0x198>)
10000c54:	21b1      	movs	r1, #177	; 0xb1
10000c56:	4819      	ldr	r0, [pc, #100]	; (10000cbc <irq_remove_handler+0x188>)
10000c58:	f001 fd4e 	bl	100026f8 <__assert_func>
10000c5c:	2900      	cmp	r1, #0
10000c5e:	d112      	bne.n	10000c86 <irq_remove_handler+0x152>
10000c60:	2a00      	cmp	r2, #0
10000c62:	d00e      	beq.n	10000c82 <irq_remove_handler+0x14e>
10000c64:	23ff      	movs	r3, #255	; 0xff
10000c66:	7193      	strb	r3, [r2, #6]
10000c68:	4b19      	ldr	r3, [pc, #100]	; (10000cd0 <irq_remove_handler+0x19c>)
10000c6a:	8093      	strh	r3, [r2, #4]
10000c6c:	4a15      	ldr	r2, [pc, #84]	; (10000cc4 <irq_remove_handler+0x190>)
10000c6e:	7813      	ldrb	r3, [r2, #0]
10000c70:	71a3      	strb	r3, [r4, #6]
10000c72:	4b18      	ldr	r3, [pc, #96]	; (10000cd4 <irq_remove_handler+0x1a0>)
10000c74:	490e      	ldr	r1, [pc, #56]	; (10000cb0 <irq_remove_handler+0x17c>)
10000c76:	1a64      	subs	r4, r4, r1
10000c78:	4164      	adcs	r4, r4
10000c7a:	4363      	muls	r3, r4
10000c7c:	0d1b      	lsrs	r3, r3, #20
10000c7e:	7013      	strb	r3, [r2, #0]
10000c80:	e7ce      	b.n	10000c20 <irq_remove_handler+0xec>
10000c82:	4f0a      	ldr	r7, [pc, #40]	; (10000cac <irq_remove_handler+0x178>)
10000c84:	e7f2      	b.n	10000c6c <irq_remove_handler+0x138>
10000c86:	1d20      	adds	r0, r4, #4
10000c88:	4913      	ldr	r1, [pc, #76]	; (10000cd8 <irq_remove_handler+0x1a4>)
10000c8a:	f7ff fda9 	bl	100007e0 <insert_branch_and_link>
10000c8e:	e7c7      	b.n	10000c20 <irq_remove_handler+0xec>
10000c90:	216a      	movs	r1, #106	; 0x6a
10000c92:	4b12      	ldr	r3, [pc, #72]	; (10000cdc <irq_remove_handler+0x1a8>)
10000c94:	4a08      	ldr	r2, [pc, #32]	; (10000cb8 <irq_remove_handler+0x184>)
10000c96:	31ff      	adds	r1, #255	; 0xff
10000c98:	4808      	ldr	r0, [pc, #32]	; (10000cbc <irq_remove_handler+0x188>)
10000c9a:	f001 fd2d 	bl	100026f8 <__assert_func>
10000c9e:	4f03      	ldr	r7, [pc, #12]	; (10000cac <irq_remove_handler+0x178>)
10000ca0:	e769      	b.n	10000b76 <irq_remove_handler+0x42>
10000ca2:	46c0      	nop			; (mov r8, r8)
10000ca4:	d0000124 	.word	0xd0000124
10000ca8:	e000ed00 	.word	0xe000ed00
10000cac:	100001cd 	.word	0x100001cd
10000cb0:	20000bb8 	.word	0x20000bb8
10000cb4:	100070b4 	.word	0x100070b4
10000cb8:	1000717c 	.word	0x1000717c
10000cbc:	10006f34 	.word	0x10006f34
10000cc0:	0000bd01 	.word	0x0000bd01
10000cc4:	20001a55 	.word	0x20001a55
10000cc8:	1000709c 	.word	0x1000709c
10000ccc:	1000719c 	.word	0x1000719c
10000cd0:	ffffbd01 	.word	0xffffbd01
10000cd4:	0000aaaa 	.word	0x0000aaaa
10000cd8:	20000bf2 	.word	0x20000bf2
10000cdc:	100070e8 	.word	0x100070e8

10000ce0 <irq_add_tail_to_free_list>:
10000ce0:	b570      	push	{r4, r5, r6, lr}
10000ce2:	2101      	movs	r1, #1
10000ce4:	4301      	orrs	r1, r0
10000ce6:	4b2e      	ldr	r3, [pc, #184]	; (10000da0 <irq_add_tail_to_free_list+0xc0>)
10000ce8:	1acb      	subs	r3, r1, r3
10000cea:	2b2f      	cmp	r3, #47	; 0x2f
10000cec:	d828      	bhi.n	10000d40 <irq_add_tail_to_free_list+0x60>
10000cee:	f3ef 8305 	mrs	r3, IPSR
10000cf2:	2b00      	cmp	r3, #0
10000cf4:	d02b      	beq.n	10000d4e <irq_add_tail_to_free_list+0x6e>
10000cf6:	f3ef 8c10 	mrs	ip, PRIMASK
10000cfa:	b672      	cpsid	i
10000cfc:	4a29      	ldr	r2, [pc, #164]	; (10000da4 <irq_add_tail_to_free_list+0xc4>)
10000cfe:	6812      	ldr	r2, [r2, #0]
10000d00:	2a00      	cmp	r2, #0
10000d02:	d0fb      	beq.n	10000cfc <irq_add_tail_to_free_list+0x1c>
10000d04:	f3bf 8f5f 	dmb	sy
10000d08:	4a27      	ldr	r2, [pc, #156]	; (10000da8 <irq_add_tail_to_free_list+0xc8>)
10000d0a:	0004      	movs	r4, r0
10000d0c:	4d24      	ldr	r5, [pc, #144]	; (10000da0 <irq_add_tail_to_free_list+0xc0>)
10000d0e:	1b64      	subs	r4, r4, r5
10000d10:	4164      	adcs	r4, r4
10000d12:	4362      	muls	r2, r4
10000d14:	0d12      	lsrs	r2, r2, #20
10000d16:	b254      	sxtb	r4, r2
10000d18:	4a24      	ldr	r2, [pc, #144]	; (10000dac <irq_add_tail_to_free_list+0xcc>)
10000d1a:	6892      	ldr	r2, [r2, #8]
10000d1c:	009b      	lsls	r3, r3, #2
10000d1e:	58d2      	ldr	r2, [r2, r3]
10000d20:	428a      	cmp	r2, r1
10000d22:	d01b      	beq.n	10000d5c <irq_add_tail_to_free_list+0x7c>
10000d24:	2200      	movs	r2, #0
10000d26:	2a03      	cmp	r2, #3
10000d28:	d832      	bhi.n	10000d90 <irq_add_tail_to_free_list+0xb0>
10000d2a:	0053      	lsls	r3, r2, #1
10000d2c:	189b      	adds	r3, r3, r2
10000d2e:	009b      	lsls	r3, r3, #2
10000d30:	491b      	ldr	r1, [pc, #108]	; (10000da0 <irq_add_tail_to_free_list+0xc0>)
10000d32:	18cb      	adds	r3, r1, r3
10000d34:	799b      	ldrb	r3, [r3, #6]
10000d36:	b25b      	sxtb	r3, r3
10000d38:	42a3      	cmp	r3, r4
10000d3a:	d01f      	beq.n	10000d7c <irq_add_tail_to_free_list+0x9c>
10000d3c:	3201      	adds	r2, #1
10000d3e:	e7f2      	b.n	10000d26 <irq_add_tail_to_free_list+0x46>
10000d40:	21c7      	movs	r1, #199	; 0xc7
10000d42:	4b1b      	ldr	r3, [pc, #108]	; (10000db0 <irq_add_tail_to_free_list+0xd0>)
10000d44:	4a1b      	ldr	r2, [pc, #108]	; (10000db4 <irq_add_tail_to_free_list+0xd4>)
10000d46:	0049      	lsls	r1, r1, #1
10000d48:	481b      	ldr	r0, [pc, #108]	; (10000db8 <irq_add_tail_to_free_list+0xd8>)
10000d4a:	f001 fcd5 	bl	100026f8 <__assert_func>
10000d4e:	2192      	movs	r1, #146	; 0x92
10000d50:	4b1a      	ldr	r3, [pc, #104]	; (10000dbc <irq_add_tail_to_free_list+0xdc>)
10000d52:	4a18      	ldr	r2, [pc, #96]	; (10000db4 <irq_add_tail_to_free_list+0xd4>)
10000d54:	31ff      	adds	r1, #255	; 0xff
10000d56:	4818      	ldr	r0, [pc, #96]	; (10000db8 <irq_add_tail_to_free_list+0xd8>)
10000d58:	f001 fcce 	bl	100026f8 <__assert_func>
10000d5c:	4a13      	ldr	r2, [pc, #76]	; (10000dac <irq_add_tail_to_free_list+0xcc>)
10000d5e:	6892      	ldr	r2, [r2, #8]
10000d60:	4917      	ldr	r1, [pc, #92]	; (10000dc0 <irq_add_tail_to_free_list+0xe0>)
10000d62:	50d1      	str	r1, [r2, r3]
10000d64:	4b17      	ldr	r3, [pc, #92]	; (10000dc4 <irq_add_tail_to_free_list+0xe4>)
10000d66:	781a      	ldrb	r2, [r3, #0]
10000d68:	7182      	strb	r2, [r0, #6]
10000d6a:	701c      	strb	r4, [r3, #0]
10000d6c:	f3bf 8f5f 	dmb	sy
10000d70:	4b0c      	ldr	r3, [pc, #48]	; (10000da4 <irq_add_tail_to_free_list+0xc4>)
10000d72:	2200      	movs	r2, #0
10000d74:	601a      	str	r2, [r3, #0]
10000d76:	f38c 8810 	msr	PRIMASK, ip
10000d7a:	bd70      	pop	{r4, r5, r6, pc}
10000d7c:	000d      	movs	r5, r1
10000d7e:	0053      	lsls	r3, r2, #1
10000d80:	1899      	adds	r1, r3, r2
10000d82:	0089      	lsls	r1, r1, #2
10000d84:	1869      	adds	r1, r5, r1
10000d86:	26ff      	movs	r6, #255	; 0xff
10000d88:	718e      	strb	r6, [r1, #6]
10000d8a:	4a0f      	ldr	r2, [pc, #60]	; (10000dc8 <irq_add_tail_to_free_list+0xe8>)
10000d8c:	808a      	strh	r2, [r1, #4]
10000d8e:	e7e9      	b.n	10000d64 <irq_add_tail_to_free_list+0x84>
10000d90:	21d1      	movs	r1, #209	; 0xd1
10000d92:	4b0e      	ldr	r3, [pc, #56]	; (10000dcc <irq_add_tail_to_free_list+0xec>)
10000d94:	4a07      	ldr	r2, [pc, #28]	; (10000db4 <irq_add_tail_to_free_list+0xd4>)
10000d96:	0049      	lsls	r1, r1, #1
10000d98:	4807      	ldr	r0, [pc, #28]	; (10000db8 <irq_add_tail_to_free_list+0xd8>)
10000d9a:	f001 fcad 	bl	100026f8 <__assert_func>
10000d9e:	46c0      	nop			; (mov r8, r8)
10000da0:	20000bb8 	.word	0x20000bb8
10000da4:	d0000124 	.word	0xd0000124
10000da8:	0000aaaa 	.word	0x0000aaaa
10000dac:	e000ed00 	.word	0xe000ed00
10000db0:	100070f0 	.word	0x100070f0
10000db4:	10007148 	.word	0x10007148
10000db8:	10006f34 	.word	0x10006f34
10000dbc:	10007118 	.word	0x10007118
10000dc0:	100001cd 	.word	0x100001cd
10000dc4:	20001a55 	.word	0x20001a55
10000dc8:	ffffbd01 	.word	0xffffbd01
10000dcc:	10007124 	.word	0x10007124

10000dd0 <irq_init_priorities>:
10000dd0:	2200      	movs	r2, #0
10000dd2:	4b04      	ldr	r3, [pc, #16]	; (10000de4 <irq_init_priorities+0x14>)
10000dd4:	e002      	b.n	10000ddc <irq_init_priorities+0xc>
10000dd6:	4904      	ldr	r1, [pc, #16]	; (10000de8 <irq_init_priorities+0x18>)
10000dd8:	c302      	stmia	r3!, {r1}
10000dda:	3201      	adds	r2, #1
10000ddc:	2a07      	cmp	r2, #7
10000dde:	d9fa      	bls.n	10000dd6 <irq_init_priorities+0x6>
10000de0:	4770      	bx	lr
10000de2:	46c0      	nop			; (mov r8, r8)
10000de4:	e000e400 	.word	0xe000e400
10000de8:	80808080 	.word	0x80808080

10000dec <user_irq_claim_unused>:
10000dec:	b500      	push	{lr}
10000dee:	b083      	sub	sp, #12
10000df0:	0001      	movs	r1, r0
10000df2:	4b06      	ldr	r3, [pc, #24]	; (10000e0c <user_irq_claim_unused+0x20>)
10000df4:	9300      	str	r3, [sp, #0]
10000df6:	2305      	movs	r3, #5
10000df8:	2200      	movs	r2, #0
10000dfa:	4805      	ldr	r0, [pc, #20]	; (10000e10 <user_irq_claim_unused+0x24>)
10000dfc:	f7ff fc61 	bl	100006c2 <hw_claim_unused_from_range>
10000e00:	2800      	cmp	r0, #0
10000e02:	db01      	blt.n	10000e08 <user_irq_claim_unused+0x1c>
10000e04:	231f      	movs	r3, #31
10000e06:	1a18      	subs	r0, r3, r0
10000e08:	b003      	add	sp, #12
10000e0a:	bd00      	pop	{pc}
10000e0c:	1000712c 	.word	0x1000712c
10000e10:	20001a5a 	.word	0x20001a5a

10000e14 <lock_init>:
10000e14:	4b02      	ldr	r3, [pc, #8]	; (10000e20 <lock_init+0xc>)
10000e16:	469c      	mov	ip, r3
10000e18:	4461      	add	r1, ip
10000e1a:	0089      	lsls	r1, r1, #2
10000e1c:	6001      	str	r1, [r0, #0]
10000e1e:	4770      	bx	lr
10000e20:	34000040 	.word	0x34000040

10000e24 <mutex_init>:
10000e24:	b510      	push	{r4, lr}
10000e26:	0004      	movs	r4, r0
10000e28:	f7ff fc84 	bl	10000734 <next_striped_spin_lock_num>
10000e2c:	0001      	movs	r1, r0
10000e2e:	0020      	movs	r0, r4
10000e30:	f7ff fff0 	bl	10000e14 <lock_init>
10000e34:	23ff      	movs	r3, #255	; 0xff
10000e36:	7123      	strb	r3, [r4, #4]
10000e38:	f3bf 8f5f 	dmb	sy
10000e3c:	bd10      	pop	{r4, pc}

10000e3e <recursive_mutex_init>:
10000e3e:	b510      	push	{r4, lr}
10000e40:	0004      	movs	r4, r0
10000e42:	f7ff fc77 	bl	10000734 <next_striped_spin_lock_num>
10000e46:	0001      	movs	r1, r0
10000e48:	0020      	movs	r0, r4
10000e4a:	f7ff ffe3 	bl	10000e14 <lock_init>
10000e4e:	23ff      	movs	r3, #255	; 0xff
10000e50:	7123      	strb	r3, [r4, #4]
10000e52:	2300      	movs	r3, #0
10000e54:	7163      	strb	r3, [r4, #5]
10000e56:	f3bf 8f5f 	dmb	sy
10000e5a:	bd10      	pop	{r4, pc}

10000e5c <critical_section_init_with_lock_num>:
10000e5c:	4b03      	ldr	r3, [pc, #12]	; (10000e6c <critical_section_init_with_lock_num+0x10>)
10000e5e:	469c      	mov	ip, r3
10000e60:	4461      	add	r1, ip
10000e62:	0089      	lsls	r1, r1, #2
10000e64:	6001      	str	r1, [r0, #0]
10000e66:	f3bf 8f5f 	dmb	sy
10000e6a:	4770      	bx	lr
10000e6c:	34000040 	.word	0x34000040

10000e70 <critical_section_init>:
10000e70:	b510      	push	{r4, lr}
10000e72:	0004      	movs	r4, r0
10000e74:	2001      	movs	r0, #1
10000e76:	f7ff fc6b 	bl	10000750 <spin_lock_claim_unused>
10000e7a:	0001      	movs	r1, r0
10000e7c:	0020      	movs	r0, r4
10000e7e:	f7ff ffed 	bl	10000e5c <critical_section_init_with_lock_num>
10000e82:	bd10      	pop	{r4, pc}

10000e84 <alarm_pool_post_alloc_init>:
10000e84:	b570      	push	{r4, r5, r6, lr}
10000e86:	0005      	movs	r5, r0
10000e88:	000c      	movs	r4, r1
10000e8a:	0008      	movs	r0, r1
10000e8c:	f000 ff00 	bl	10001c90 <hardware_alarm_cancel>
10000e90:	4909      	ldr	r1, [pc, #36]	; (10000eb8 <alarm_pool_post_alloc_init+0x34>)
10000e92:	0020      	movs	r0, r4
10000e94:	f000 fe40 	bl	10001b18 <hardware_alarm_set_callback>
10000e98:	f7ff fc4c 	bl	10000734 <next_striped_spin_lock_num>
10000e9c:	4b07      	ldr	r3, [pc, #28]	; (10000ebc <alarm_pool_post_alloc_init+0x38>)
10000e9e:	469c      	mov	ip, r3
10000ea0:	4460      	add	r0, ip
10000ea2:	0080      	lsls	r0, r0, #2
10000ea4:	6068      	str	r0, [r5, #4]
10000ea6:	752c      	strb	r4, [r5, #20]
10000ea8:	23d0      	movs	r3, #208	; 0xd0
10000eaa:	061b      	lsls	r3, r3, #24
10000eac:	781b      	ldrb	r3, [r3, #0]
10000eae:	756b      	strb	r3, [r5, #21]
10000eb0:	00a4      	lsls	r4, r4, #2
10000eb2:	4b03      	ldr	r3, [pc, #12]	; (10000ec0 <alarm_pool_post_alloc_init+0x3c>)
10000eb4:	50e5      	str	r5, [r4, r3]
10000eb6:	bd70      	pop	{r4, r5, r6, pc}
10000eb8:	100011c9 	.word	0x100011c9
10000ebc:	34000040 	.word	0x34000040
10000ec0:	20001800 	.word	0x20001800

10000ec4 <sleep_until_callback>:
10000ec4:	4b0a      	ldr	r3, [pc, #40]	; (10000ef0 <sleep_until_callback+0x2c>)
10000ec6:	681a      	ldr	r2, [r3, #0]
10000ec8:	f3ef 8110 	mrs	r1, PRIMASK
10000ecc:	b672      	cpsid	i
10000ece:	6813      	ldr	r3, [r2, #0]
10000ed0:	2b00      	cmp	r3, #0
10000ed2:	d0fc      	beq.n	10000ece <sleep_until_callback+0xa>
10000ed4:	f3bf 8f5f 	dmb	sy
10000ed8:	4b05      	ldr	r3, [pc, #20]	; (10000ef0 <sleep_until_callback+0x2c>)
10000eda:	681b      	ldr	r3, [r3, #0]
10000edc:	f3bf 8f5f 	dmb	sy
10000ee0:	2200      	movs	r2, #0
10000ee2:	601a      	str	r2, [r3, #0]
10000ee4:	f381 8810 	msr	PRIMASK, r1
10000ee8:	bf40      	sev
10000eea:	2000      	movs	r0, #0
10000eec:	2100      	movs	r1, #0
10000eee:	4770      	bx	lr
10000ef0:	20001a1c 	.word	0x20001a1c

10000ef4 <timer_pool_entry_comparator>:
10000ef4:	b510      	push	{r4, lr}
10000ef6:	2900      	cmp	r1, #0
10000ef8:	d022      	beq.n	10000f40 <timer_pool_entry_comparator+0x4c>
10000efa:	6803      	ldr	r3, [r0, #0]
10000efc:	7b1b      	ldrb	r3, [r3, #12]
10000efe:	4299      	cmp	r1, r3
10000f00:	d81e      	bhi.n	10000f40 <timer_pool_entry_comparator+0x4c>
10000f02:	4b17      	ldr	r3, [pc, #92]	; (10000f60 <timer_pool_entry_comparator+0x6c>)
10000f04:	469c      	mov	ip, r3
10000f06:	4461      	add	r1, ip
10000f08:	0109      	lsls	r1, r1, #4
10000f0a:	6883      	ldr	r3, [r0, #8]
10000f0c:	469c      	mov	ip, r3
10000f0e:	4461      	add	r1, ip
10000f10:	680c      	ldr	r4, [r1, #0]
10000f12:	6849      	ldr	r1, [r1, #4]
10000f14:	2a00      	cmp	r2, #0
10000f16:	d019      	beq.n	10000f4c <timer_pool_entry_comparator+0x58>
10000f18:	6803      	ldr	r3, [r0, #0]
10000f1a:	7b1b      	ldrb	r3, [r3, #12]
10000f1c:	429a      	cmp	r2, r3
10000f1e:	d815      	bhi.n	10000f4c <timer_pool_entry_comparator+0x58>
10000f20:	6883      	ldr	r3, [r0, #8]
10000f22:	480f      	ldr	r0, [pc, #60]	; (10000f60 <timer_pool_entry_comparator+0x6c>)
10000f24:	4684      	mov	ip, r0
10000f26:	4462      	add	r2, ip
10000f28:	0112      	lsls	r2, r2, #4
10000f2a:	189a      	adds	r2, r3, r2
10000f2c:	6810      	ldr	r0, [r2, #0]
10000f2e:	6853      	ldr	r3, [r2, #4]
10000f30:	0002      	movs	r2, r0
10000f32:	2001      	movs	r0, #1
10000f34:	428b      	cmp	r3, r1
10000f36:	d801      	bhi.n	10000f3c <timer_pool_entry_comparator+0x48>
10000f38:	d00e      	beq.n	10000f58 <timer_pool_entry_comparator+0x64>
10000f3a:	2000      	movs	r0, #0
10000f3c:	b2c0      	uxtb	r0, r0
10000f3e:	bd10      	pop	{r4, pc}
10000f40:	4b08      	ldr	r3, [pc, #32]	; (10000f64 <timer_pool_entry_comparator+0x70>)
10000f42:	4a09      	ldr	r2, [pc, #36]	; (10000f68 <timer_pool_entry_comparator+0x74>)
10000f44:	213c      	movs	r1, #60	; 0x3c
10000f46:	4809      	ldr	r0, [pc, #36]	; (10000f6c <timer_pool_entry_comparator+0x78>)
10000f48:	f001 fbd6 	bl	100026f8 <__assert_func>
10000f4c:	4b05      	ldr	r3, [pc, #20]	; (10000f64 <timer_pool_entry_comparator+0x70>)
10000f4e:	4a06      	ldr	r2, [pc, #24]	; (10000f68 <timer_pool_entry_comparator+0x74>)
10000f50:	213c      	movs	r1, #60	; 0x3c
10000f52:	4806      	ldr	r0, [pc, #24]	; (10000f6c <timer_pool_entry_comparator+0x78>)
10000f54:	f001 fbd0 	bl	100026f8 <__assert_func>
10000f58:	42a2      	cmp	r2, r4
10000f5a:	d8ef      	bhi.n	10000f3c <timer_pool_entry_comparator+0x48>
10000f5c:	e7ed      	b.n	10000f3a <timer_pool_entry_comparator+0x46>
10000f5e:	46c0      	nop			; (mov r8, r8)
10000f60:	0fffffff 	.word	0x0fffffff
10000f64:	100073ac 	.word	0x100073ac
10000f68:	1000762c 	.word	0x1000762c
10000f6c:	10007358 	.word	0x10007358

10000f70 <ph_add_child_node>:
10000f70:	b510      	push	{r4, lr}
10000f72:	2900      	cmp	r1, #0
10000f74:	d01e      	beq.n	10000fb4 <ph_add_child_node+0x44>
10000f76:	7b03      	ldrb	r3, [r0, #12]
10000f78:	4299      	cmp	r1, r3
10000f7a:	d81b      	bhi.n	10000fb4 <ph_add_child_node+0x44>
10000f7c:	004b      	lsls	r3, r1, #1
10000f7e:	185b      	adds	r3, r3, r1
10000f80:	3b03      	subs	r3, #3
10000f82:	6804      	ldr	r4, [r0, #0]
10000f84:	46a4      	mov	ip, r4
10000f86:	4463      	add	r3, ip
10000f88:	2900      	cmp	r1, #0
10000f8a:	d019      	beq.n	10000fc0 <ph_add_child_node+0x50>
10000f8c:	2a00      	cmp	r2, #0
10000f8e:	d01d      	beq.n	10000fcc <ph_add_child_node+0x5c>
10000f90:	4291      	cmp	r1, r2
10000f92:	d021      	beq.n	10000fd8 <ph_add_child_node+0x68>
10000f94:	2a00      	cmp	r2, #0
10000f96:	d025      	beq.n	10000fe4 <ph_add_child_node+0x74>
10000f98:	7b04      	ldrb	r4, [r0, #12]
10000f9a:	42a2      	cmp	r2, r4
10000f9c:	d822      	bhi.n	10000fe4 <ph_add_child_node+0x74>
10000f9e:	6804      	ldr	r4, [r0, #0]
10000fa0:	0050      	lsls	r0, r2, #1
10000fa2:	1880      	adds	r0, r0, r2
10000fa4:	3803      	subs	r0, #3
10000fa6:	1820      	adds	r0, r4, r0
10000fa8:	7081      	strb	r1, [r0, #2]
10000faa:	7819      	ldrb	r1, [r3, #0]
10000fac:	2900      	cmp	r1, #0
10000fae:	d11f      	bne.n	10000ff0 <ph_add_child_node+0x80>
10000fb0:	701a      	strb	r2, [r3, #0]
10000fb2:	bd10      	pop	{r4, pc}
10000fb4:	4b10      	ldr	r3, [pc, #64]	; (10000ff8 <ph_add_child_node+0x88>)
10000fb6:	4a11      	ldr	r2, [pc, #68]	; (10000ffc <ph_add_child_node+0x8c>)
10000fb8:	2168      	movs	r1, #104	; 0x68
10000fba:	4811      	ldr	r0, [pc, #68]	; (10001000 <ph_add_child_node+0x90>)
10000fbc:	f001 fb9c 	bl	100026f8 <__assert_func>
10000fc0:	4b10      	ldr	r3, [pc, #64]	; (10001004 <ph_add_child_node+0x94>)
10000fc2:	4a11      	ldr	r2, [pc, #68]	; (10001008 <ph_add_child_node+0x98>)
10000fc4:	316f      	adds	r1, #111	; 0x6f
10000fc6:	480e      	ldr	r0, [pc, #56]	; (10001000 <ph_add_child_node+0x90>)
10000fc8:	f001 fb96 	bl	100026f8 <__assert_func>
10000fcc:	4b0f      	ldr	r3, [pc, #60]	; (1000100c <ph_add_child_node+0x9c>)
10000fce:	4a0e      	ldr	r2, [pc, #56]	; (10001008 <ph_add_child_node+0x98>)
10000fd0:	2170      	movs	r1, #112	; 0x70
10000fd2:	480b      	ldr	r0, [pc, #44]	; (10001000 <ph_add_child_node+0x90>)
10000fd4:	f001 fb90 	bl	100026f8 <__assert_func>
10000fd8:	4b0d      	ldr	r3, [pc, #52]	; (10001010 <ph_add_child_node+0xa0>)
10000fda:	4a0b      	ldr	r2, [pc, #44]	; (10001008 <ph_add_child_node+0x98>)
10000fdc:	2171      	movs	r1, #113	; 0x71
10000fde:	4808      	ldr	r0, [pc, #32]	; (10001000 <ph_add_child_node+0x90>)
10000fe0:	f001 fb8a 	bl	100026f8 <__assert_func>
10000fe4:	4b04      	ldr	r3, [pc, #16]	; (10000ff8 <ph_add_child_node+0x88>)
10000fe6:	4a05      	ldr	r2, [pc, #20]	; (10000ffc <ph_add_child_node+0x8c>)
10000fe8:	2168      	movs	r1, #104	; 0x68
10000fea:	4805      	ldr	r0, [pc, #20]	; (10001000 <ph_add_child_node+0x90>)
10000fec:	f001 fb84 	bl	100026f8 <__assert_func>
10000ff0:	7041      	strb	r1, [r0, #1]
10000ff2:	701a      	strb	r2, [r3, #0]
10000ff4:	e7dd      	b.n	10000fb2 <ph_add_child_node+0x42>
10000ff6:	46c0      	nop			; (mov r8, r8)
10000ff8:	100073d0 	.word	0x100073d0
10000ffc:	10007698 	.word	0x10007698
10001000:	100073ec 	.word	0x100073ec
10001004:	10007454 	.word	0x10007454
10001008:	10007674 	.word	0x10007674
1000100c:	10007460 	.word	0x10007460
10001010:	1000746c 	.word	0x1000746c

10001014 <ph_merge_nodes>:
10001014:	b570      	push	{r4, r5, r6, lr}
10001016:	0006      	movs	r6, r0
10001018:	000d      	movs	r5, r1
1000101a:	0014      	movs	r4, r2
1000101c:	2900      	cmp	r1, #0
1000101e:	d014      	beq.n	1000104a <ph_merge_nodes+0x36>
10001020:	2a00      	cmp	r2, #0
10001022:	d014      	beq.n	1000104e <ph_merge_nodes+0x3a>
10001024:	6880      	ldr	r0, [r0, #8]
10001026:	6873      	ldr	r3, [r6, #4]
10001028:	4798      	blx	r3
1000102a:	2800      	cmp	r0, #0
1000102c:	d006      	beq.n	1000103c <ph_merge_nodes+0x28>
1000102e:	0022      	movs	r2, r4
10001030:	0029      	movs	r1, r5
10001032:	0030      	movs	r0, r6
10001034:	f7ff ff9c 	bl	10000f70 <ph_add_child_node>
10001038:	0028      	movs	r0, r5
1000103a:	e007      	b.n	1000104c <ph_merge_nodes+0x38>
1000103c:	002a      	movs	r2, r5
1000103e:	0021      	movs	r1, r4
10001040:	0030      	movs	r0, r6
10001042:	f7ff ff95 	bl	10000f70 <ph_add_child_node>
10001046:	0020      	movs	r0, r4
10001048:	e000      	b.n	1000104c <ph_merge_nodes+0x38>
1000104a:	0010      	movs	r0, r2
1000104c:	bd70      	pop	{r4, r5, r6, pc}
1000104e:	0008      	movs	r0, r1
10001050:	e7fc      	b.n	1000104c <ph_merge_nodes+0x38>
	...

10001054 <add_alarm_under_lock>:
10001054:	b5f0      	push	{r4, r5, r6, r7, lr}
10001056:	b083      	sub	sp, #12
10001058:	0005      	movs	r5, r0
1000105a:	9200      	str	r2, [sp, #0]
1000105c:	9301      	str	r3, [sp, #4]
1000105e:	ab0a      	add	r3, sp, #40	; 0x28
10001060:	781c      	ldrb	r4, [r3, #0]
10001062:	ab0b      	add	r3, sp, #44	; 0x2c
10001064:	781f      	ldrb	r7, [r3, #0]
10001066:	2c00      	cmp	r4, #0
10001068:	d026      	beq.n	100010b8 <add_alarm_under_lock+0x64>
1000106a:	6803      	ldr	r3, [r0, #0]
1000106c:	7b5a      	ldrb	r2, [r3, #13]
1000106e:	4294      	cmp	r4, r2
10001070:	d107      	bne.n	10001082 <add_alarm_under_lock+0x2e>
10001072:	2301      	movs	r3, #1
10001074:	2b00      	cmp	r3, #0
10001076:	d119      	bne.n	100010ac <add_alarm_under_lock+0x58>
10001078:	2c00      	cmp	r4, #0
1000107a:	d13b      	bne.n	100010f4 <add_alarm_under_lock+0xa0>
1000107c:	0020      	movs	r0, r4
1000107e:	b003      	add	sp, #12
10001080:	bdf0      	pop	{r4, r5, r6, r7, pc}
10001082:	2c00      	cmp	r4, #0
10001084:	d00c      	beq.n	100010a0 <add_alarm_under_lock+0x4c>
10001086:	7b1a      	ldrb	r2, [r3, #12]
10001088:	4294      	cmp	r4, r2
1000108a:	d809      	bhi.n	100010a0 <add_alarm_under_lock+0x4c>
1000108c:	681a      	ldr	r2, [r3, #0]
1000108e:	0063      	lsls	r3, r4, #1
10001090:	191b      	adds	r3, r3, r4
10001092:	3b03      	subs	r3, #3
10001094:	18d3      	adds	r3, r2, r3
10001096:	789b      	ldrb	r3, [r3, #2]
10001098:	2b00      	cmp	r3, #0
1000109a:	d0eb      	beq.n	10001074 <add_alarm_under_lock+0x20>
1000109c:	2301      	movs	r3, #1
1000109e:	e7e9      	b.n	10001074 <add_alarm_under_lock+0x20>
100010a0:	4b3e      	ldr	r3, [pc, #248]	; (1000119c <add_alarm_under_lock+0x148>)
100010a2:	4a3f      	ldr	r2, [pc, #252]	; (100011a0 <add_alarm_under_lock+0x14c>)
100010a4:	2168      	movs	r1, #104	; 0x68
100010a6:	483f      	ldr	r0, [pc, #252]	; (100011a4 <add_alarm_under_lock+0x150>)
100010a8:	f001 fb26 	bl	100026f8 <__assert_func>
100010ac:	4b3e      	ldr	r3, [pc, #248]	; (100011a8 <add_alarm_under_lock+0x154>)
100010ae:	4a3f      	ldr	r2, [pc, #252]	; (100011ac <add_alarm_under_lock+0x158>)
100010b0:	2167      	movs	r1, #103	; 0x67
100010b2:	483f      	ldr	r0, [pc, #252]	; (100011b0 <add_alarm_under_lock+0x15c>)
100010b4:	f001 fb20 	bl	100026f8 <__assert_func>
100010b8:	6803      	ldr	r3, [r0, #0]
100010ba:	7b9c      	ldrb	r4, [r3, #14]
100010bc:	2c00      	cmp	r4, #0
100010be:	d0db      	beq.n	10001078 <add_alarm_under_lock+0x24>
100010c0:	d012      	beq.n	100010e8 <add_alarm_under_lock+0x94>
100010c2:	7b1a      	ldrb	r2, [r3, #12]
100010c4:	4294      	cmp	r4, r2
100010c6:	d80f      	bhi.n	100010e8 <add_alarm_under_lock+0x94>
100010c8:	0062      	lsls	r2, r4, #1
100010ca:	1912      	adds	r2, r2, r4
100010cc:	3a03      	subs	r2, #3
100010ce:	6819      	ldr	r1, [r3, #0]
100010d0:	468c      	mov	ip, r1
100010d2:	4462      	add	r2, ip
100010d4:	7851      	ldrb	r1, [r2, #1]
100010d6:	7399      	strb	r1, [r3, #14]
100010d8:	2900      	cmp	r1, #0
100010da:	d100      	bne.n	100010de <add_alarm_under_lock+0x8a>
100010dc:	73d9      	strb	r1, [r3, #15]
100010de:	2300      	movs	r3, #0
100010e0:	7093      	strb	r3, [r2, #2]
100010e2:	7053      	strb	r3, [r2, #1]
100010e4:	7013      	strb	r3, [r2, #0]
100010e6:	e7c7      	b.n	10001078 <add_alarm_under_lock+0x24>
100010e8:	4b2c      	ldr	r3, [pc, #176]	; (1000119c <add_alarm_under_lock+0x148>)
100010ea:	4a2d      	ldr	r2, [pc, #180]	; (100011a0 <add_alarm_under_lock+0x14c>)
100010ec:	2168      	movs	r1, #104	; 0x68
100010ee:	482d      	ldr	r0, [pc, #180]	; (100011a4 <add_alarm_under_lock+0x150>)
100010f0:	f001 fb02 	bl	100026f8 <__assert_func>
100010f4:	2c00      	cmp	r4, #0
100010f6:	d03a      	beq.n	1000116e <add_alarm_under_lock+0x11a>
100010f8:	682b      	ldr	r3, [r5, #0]
100010fa:	7b1b      	ldrb	r3, [r3, #12]
100010fc:	429c      	cmp	r4, r3
100010fe:	d836      	bhi.n	1000116e <add_alarm_under_lock+0x11a>
10001100:	4b2c      	ldr	r3, [pc, #176]	; (100011b4 <add_alarm_under_lock+0x160>)
10001102:	18e3      	adds	r3, r4, r3
10001104:	011b      	lsls	r3, r3, #4
10001106:	68aa      	ldr	r2, [r5, #8]
10001108:	4694      	mov	ip, r2
1000110a:	4463      	add	r3, ip
1000110c:	9a00      	ldr	r2, [sp, #0]
1000110e:	601a      	str	r2, [r3, #0]
10001110:	9a01      	ldr	r2, [sp, #4]
10001112:	605a      	str	r2, [r3, #4]
10001114:	9a08      	ldr	r2, [sp, #32]
10001116:	609a      	str	r2, [r3, #8]
10001118:	9a09      	ldr	r2, [sp, #36]	; 0x24
1000111a:	60da      	str	r2, [r3, #12]
1000111c:	682e      	ldr	r6, [r5, #0]
1000111e:	2c00      	cmp	r4, #0
10001120:	d02b      	beq.n	1000117a <add_alarm_under_lock+0x126>
10001122:	d030      	beq.n	10001186 <add_alarm_under_lock+0x132>
10001124:	7b33      	ldrb	r3, [r6, #12]
10001126:	429c      	cmp	r4, r3
10001128:	d82d      	bhi.n	10001186 <add_alarm_under_lock+0x132>
1000112a:	0063      	lsls	r3, r4, #1
1000112c:	191b      	adds	r3, r3, r4
1000112e:	3b03      	subs	r3, #3
10001130:	6832      	ldr	r2, [r6, #0]
10001132:	4694      	mov	ip, r2
10001134:	4463      	add	r3, ip
10001136:	2200      	movs	r2, #0
10001138:	709a      	strb	r2, [r3, #2]
1000113a:	705a      	strb	r2, [r3, #1]
1000113c:	701a      	strb	r2, [r3, #0]
1000113e:	7b71      	ldrb	r1, [r6, #13]
10001140:	0022      	movs	r2, r4
10001142:	0030      	movs	r0, r6
10001144:	f7ff ff66 	bl	10001014 <ph_merge_nodes>
10001148:	7370      	strb	r0, [r6, #13]
1000114a:	4284      	cmp	r4, r0
1000114c:	d000      	beq.n	10001150 <add_alarm_under_lock+0xfc>
1000114e:	e795      	b.n	1000107c <add_alarm_under_lock+0x28>
10001150:	7d28      	ldrb	r0, [r5, #20]
10001152:	9a00      	ldr	r2, [sp, #0]
10001154:	9b01      	ldr	r3, [sp, #4]
10001156:	f000 fd27 	bl	10001ba8 <hardware_alarm_set_target>
1000115a:	1e06      	subs	r6, r0, #0
1000115c:	d001      	beq.n	10001162 <add_alarm_under_lock+0x10e>
1000115e:	2f00      	cmp	r7, #0
10001160:	d017      	beq.n	10001192 <add_alarm_under_lock+0x13e>
10001162:	9b0c      	ldr	r3, [sp, #48]	; 0x30
10001164:	2b00      	cmp	r3, #0
10001166:	d100      	bne.n	1000116a <add_alarm_under_lock+0x116>
10001168:	e788      	b.n	1000107c <add_alarm_under_lock+0x28>
1000116a:	701e      	strb	r6, [r3, #0]
1000116c:	e786      	b.n	1000107c <add_alarm_under_lock+0x28>
1000116e:	4b12      	ldr	r3, [pc, #72]	; (100011b8 <add_alarm_under_lock+0x164>)
10001170:	4a12      	ldr	r2, [pc, #72]	; (100011bc <add_alarm_under_lock+0x168>)
10001172:	213c      	movs	r1, #60	; 0x3c
10001174:	480e      	ldr	r0, [pc, #56]	; (100011b0 <add_alarm_under_lock+0x15c>)
10001176:	f001 fabf 	bl	100026f8 <__assert_func>
1000117a:	4b11      	ldr	r3, [pc, #68]	; (100011c0 <add_alarm_under_lock+0x16c>)
1000117c:	4a11      	ldr	r2, [pc, #68]	; (100011c4 <add_alarm_under_lock+0x170>)
1000117e:	21a5      	movs	r1, #165	; 0xa5
10001180:	4808      	ldr	r0, [pc, #32]	; (100011a4 <add_alarm_under_lock+0x150>)
10001182:	f001 fab9 	bl	100026f8 <__assert_func>
10001186:	4b05      	ldr	r3, [pc, #20]	; (1000119c <add_alarm_under_lock+0x148>)
10001188:	4a05      	ldr	r2, [pc, #20]	; (100011a0 <add_alarm_under_lock+0x14c>)
1000118a:	2168      	movs	r1, #104	; 0x68
1000118c:	4805      	ldr	r0, [pc, #20]	; (100011a4 <add_alarm_under_lock+0x150>)
1000118e:	f001 fab3 	bl	100026f8 <__assert_func>
10001192:	6828      	ldr	r0, [r5, #0]
10001194:	0021      	movs	r1, r4
10001196:	f000 ff3f 	bl	10002018 <ph_remove_and_free_node>
1000119a:	e7e2      	b.n	10001162 <add_alarm_under_lock+0x10e>
1000119c:	100073d0 	.word	0x100073d0
100011a0:	10007698 	.word	0x10007698
100011a4:	100073ec 	.word	0x100073ec
100011a8:	10007484 	.word	0x10007484
100011ac:	100076a4 	.word	0x100076a4
100011b0:	10007358 	.word	0x10007358
100011b4:	0fffffff 	.word	0x0fffffff
100011b8:	100073ac 	.word	0x100073ac
100011bc:	1000762c 	.word	0x1000762c
100011c0:	10007354 	.word	0x10007354
100011c4:	10007688 	.word	0x10007688

100011c8 <alarm_pool_alarm_callback>:
100011c8:	b5f0      	push	{r4, r5, r6, r7, lr}
100011ca:	46de      	mov	lr, fp
100011cc:	4657      	mov	r7, sl
100011ce:	464e      	mov	r6, r9
100011d0:	4645      	mov	r5, r8
100011d2:	b5e0      	push	{r5, r6, r7, lr}
100011d4:	b08b      	sub	sp, #44	; 0x2c
100011d6:	9009      	str	r0, [sp, #36]	; 0x24
100011d8:	2300      	movs	r3, #0
100011da:	9308      	str	r3, [sp, #32]
100011dc:	0082      	lsls	r2, r0, #2
100011de:	4bb5      	ldr	r3, [pc, #724]	; (100014b4 <alarm_pool_alarm_callback+0x2ec>)
100011e0:	58d6      	ldr	r6, [r2, r3]
100011e2:	0037      	movs	r7, r6
100011e4:	e052      	b.n	1000128c <alarm_pool_alarm_callback+0xc4>
100011e6:	4bb4      	ldr	r3, [pc, #720]	; (100014b8 <alarm_pool_alarm_callback+0x2f0>)
100011e8:	4ab4      	ldr	r2, [pc, #720]	; (100014bc <alarm_pool_alarm_callback+0x2f4>)
100011ea:	213f      	movs	r1, #63	; 0x3f
100011ec:	48b4      	ldr	r0, [pc, #720]	; (100014c0 <alarm_pool_alarm_callback+0x2f8>)
100011ee:	f001 fa83 	bl	100026f8 <__assert_func>
100011f2:	4bb4      	ldr	r3, [pc, #720]	; (100014c4 <alarm_pool_alarm_callback+0x2fc>)
100011f4:	4ab4      	ldr	r2, [pc, #720]	; (100014c8 <alarm_pool_alarm_callback+0x300>)
100011f6:	213c      	movs	r1, #60	; 0x3c
100011f8:	48b4      	ldr	r0, [pc, #720]	; (100014cc <alarm_pool_alarm_callback+0x304>)
100011fa:	f001 fa7d 	bl	100026f8 <__assert_func>
100011fe:	2900      	cmp	r1, #0
10001200:	d101      	bne.n	10001206 <alarm_pool_alarm_callback+0x3e>
10001202:	2800      	cmp	r0, #0
10001204:	d169      	bne.n	100012da <alarm_pool_alarm_callback+0x112>
10001206:	2100      	movs	r1, #0
10001208:	4640      	mov	r0, r8
1000120a:	f000 fefb 	bl	10002004 <ph_remove_head>
1000120e:	42a0      	cmp	r0, r4
10001210:	d119      	bne.n	10001246 <alarm_pool_alarm_callback+0x7e>
10001212:	682a      	ldr	r2, [r5, #0]
10001214:	686b      	ldr	r3, [r5, #4]
10001216:	9206      	str	r2, [sp, #24]
10001218:	9307      	str	r3, [sp, #28]
1000121a:	68ab      	ldr	r3, [r5, #8]
1000121c:	4698      	mov	r8, r3
1000121e:	68eb      	ldr	r3, [r5, #12]
10001220:	469a      	mov	sl, r3
10001222:	4643      	mov	r3, r8
10001224:	2b00      	cmp	r3, #0
10001226:	d014      	beq.n	10001252 <alarm_pool_alarm_callback+0x8a>
10001228:	2c00      	cmp	r4, #0
1000122a:	d018      	beq.n	1000125e <alarm_pool_alarm_callback+0x96>
1000122c:	683b      	ldr	r3, [r7, #0]
1000122e:	7b1b      	ldrb	r3, [r3, #12]
10001230:	429c      	cmp	r4, r3
10001232:	d814      	bhi.n	1000125e <alarm_pool_alarm_callback+0x96>
10001234:	1e63      	subs	r3, r4, #1
10001236:	68fa      	ldr	r2, [r7, #12]
10001238:	5cd3      	ldrb	r3, [r2, r3]
1000123a:	9308      	str	r3, [sp, #32]
1000123c:	021b      	lsls	r3, r3, #8
1000123e:	4318      	orrs	r0, r3
10001240:	6138      	str	r0, [r7, #16]
10001242:	2000      	movs	r0, #0
10001244:	e015      	b.n	10001272 <alarm_pool_alarm_callback+0xaa>
10001246:	4ba2      	ldr	r3, [pc, #648]	; (100014d0 <alarm_pool_alarm_callback+0x308>)
10001248:	4aa2      	ldr	r2, [pc, #648]	; (100014d4 <alarm_pool_alarm_callback+0x30c>)
1000124a:	218e      	movs	r1, #142	; 0x8e
1000124c:	489f      	ldr	r0, [pc, #636]	; (100014cc <alarm_pool_alarm_callback+0x304>)
1000124e:	f001 fa53 	bl	100026f8 <__assert_func>
10001252:	4ba1      	ldr	r3, [pc, #644]	; (100014d8 <alarm_pool_alarm_callback+0x310>)
10001254:	4a9f      	ldr	r2, [pc, #636]	; (100014d4 <alarm_pool_alarm_callback+0x30c>)
10001256:	2192      	movs	r1, #146	; 0x92
10001258:	489c      	ldr	r0, [pc, #624]	; (100014cc <alarm_pool_alarm_callback+0x304>)
1000125a:	f001 fa4d 	bl	100026f8 <__assert_func>
1000125e:	4b99      	ldr	r3, [pc, #612]	; (100014c4 <alarm_pool_alarm_callback+0x2fc>)
10001260:	4a9e      	ldr	r2, [pc, #632]	; (100014dc <alarm_pool_alarm_callback+0x314>)
10001262:	2141      	movs	r1, #65	; 0x41
10001264:	4899      	ldr	r0, [pc, #612]	; (100014cc <alarm_pool_alarm_callback+0x304>)
10001266:	f001 fa47 	bl	100026f8 <__assert_func>
1000126a:	2300      	movs	r3, #0
1000126c:	469a      	mov	sl, r3
1000126e:	4698      	mov	r8, r3
10001270:	2000      	movs	r0, #0
10001272:	687b      	ldr	r3, [r7, #4]
10001274:	f3bf 8f5f 	dmb	sy
10001278:	2200      	movs	r2, #0
1000127a:	601a      	str	r2, [r3, #0]
1000127c:	f386 8810 	msr	PRIMASK, r6
10001280:	4643      	mov	r3, r8
10001282:	2b00      	cmp	r3, #0
10001284:	d132      	bne.n	100012ec <alarm_pool_alarm_callback+0x124>
10001286:	2800      	cmp	r0, #0
10001288:	d100      	bne.n	1000128c <alarm_pool_alarm_callback+0xc4>
1000128a:	e10c      	b.n	100014a6 <alarm_pool_alarm_callback+0x2de>
1000128c:	f000 fc00 	bl	10001a90 <time_us_64>
10001290:	0002      	movs	r2, r0
10001292:	1e0b      	subs	r3, r1, #0
10001294:	dba7      	blt.n	100011e6 <alarm_pool_alarm_callback+0x1e>
10001296:	2000      	movs	r0, #0
10001298:	2100      	movs	r1, #0
1000129a:	9006      	str	r0, [sp, #24]
1000129c:	9107      	str	r1, [sp, #28]
1000129e:	6878      	ldr	r0, [r7, #4]
100012a0:	f3ef 8610 	mrs	r6, PRIMASK
100012a4:	b672      	cpsid	i
100012a6:	6801      	ldr	r1, [r0, #0]
100012a8:	2900      	cmp	r1, #0
100012aa:	d0fc      	beq.n	100012a6 <alarm_pool_alarm_callback+0xde>
100012ac:	f3bf 8f5f 	dmb	sy
100012b0:	6839      	ldr	r1, [r7, #0]
100012b2:	4688      	mov	r8, r1
100012b4:	7b4c      	ldrb	r4, [r1, #13]
100012b6:	2c00      	cmp	r4, #0
100012b8:	d0d7      	beq.n	1000126a <alarm_pool_alarm_callback+0xa2>
100012ba:	d09a      	beq.n	100011f2 <alarm_pool_alarm_callback+0x2a>
100012bc:	7b09      	ldrb	r1, [r1, #12]
100012be:	428c      	cmp	r4, r1
100012c0:	d897      	bhi.n	100011f2 <alarm_pool_alarm_callback+0x2a>
100012c2:	4987      	ldr	r1, [pc, #540]	; (100014e0 <alarm_pool_alarm_callback+0x318>)
100012c4:	1865      	adds	r5, r4, r1
100012c6:	012d      	lsls	r5, r5, #4
100012c8:	68b9      	ldr	r1, [r7, #8]
100012ca:	468c      	mov	ip, r1
100012cc:	4465      	add	r5, ip
100012ce:	6828      	ldr	r0, [r5, #0]
100012d0:	6869      	ldr	r1, [r5, #4]
100012d2:	1a80      	subs	r0, r0, r2
100012d4:	4199      	sbcs	r1, r3
100012d6:	2900      	cmp	r1, #0
100012d8:	dd91      	ble.n	100011fe <alarm_pool_alarm_callback+0x36>
100012da:	682a      	ldr	r2, [r5, #0]
100012dc:	686b      	ldr	r3, [r5, #4]
100012de:	9809      	ldr	r0, [sp, #36]	; 0x24
100012e0:	f000 fc62 	bl	10001ba8 <hardware_alarm_set_target>
100012e4:	2300      	movs	r3, #0
100012e6:	469a      	mov	sl, r3
100012e8:	4698      	mov	r8, r3
100012ea:	e7c2      	b.n	10001272 <alarm_pool_alarm_callback+0xaa>
100012ec:	9b08      	ldr	r3, [sp, #32]
100012ee:	021b      	lsls	r3, r3, #8
100012f0:	4323      	orrs	r3, r4
100012f2:	4699      	mov	r9, r3
100012f4:	4651      	mov	r1, sl
100012f6:	0018      	movs	r0, r3
100012f8:	47c0      	blx	r8
100012fa:	0005      	movs	r5, r0
100012fc:	000e      	movs	r6, r1
100012fe:	687a      	ldr	r2, [r7, #4]
10001300:	f3ef 8b10 	mrs	fp, PRIMASK
10001304:	b672      	cpsid	i
10001306:	6813      	ldr	r3, [r2, #0]
10001308:	4259      	negs	r1, r3
1000130a:	414b      	adcs	r3, r1
1000130c:	b2d9      	uxtb	r1, r3
1000130e:	2b00      	cmp	r3, #0
10001310:	d1f9      	bne.n	10001306 <alarm_pool_alarm_callback+0x13e>
10001312:	f3bf 8f5f 	dmb	sy
10001316:	2e00      	cmp	r6, #0
10001318:	db1e      	blt.n	10001358 <alarm_pool_alarm_callback+0x190>
1000131a:	2e00      	cmp	r6, #0
1000131c:	dd46      	ble.n	100013ac <alarm_pool_alarm_callback+0x1e4>
1000131e:	693b      	ldr	r3, [r7, #16]
10001320:	2b00      	cmp	r3, #0
10001322:	d047      	beq.n	100013b4 <alarm_pool_alarm_callback+0x1ec>
10001324:	454b      	cmp	r3, r9
10001326:	d16d      	bne.n	10001404 <alarm_pool_alarm_callback+0x23c>
10001328:	f000 fbb2 	bl	10001a90 <time_us_64>
1000132c:	0002      	movs	r2, r0
1000132e:	1e0b      	subs	r3, r1, #0
10001330:	db6e      	blt.n	10001410 <alarm_pool_alarm_callback+0x248>
10001332:	1952      	adds	r2, r2, r5
10001334:	4173      	adcs	r3, r6
10001336:	2b00      	cmp	r3, #0
10001338:	db70      	blt.n	1000141c <alarm_pool_alarm_callback+0x254>
1000133a:	2b00      	cmp	r3, #0
1000133c:	db72      	blt.n	10001424 <alarm_pool_alarm_callback+0x25c>
1000133e:	2100      	movs	r1, #0
10001340:	9104      	str	r1, [sp, #16]
10001342:	3101      	adds	r1, #1
10001344:	9103      	str	r1, [sp, #12]
10001346:	9402      	str	r4, [sp, #8]
10001348:	4651      	mov	r1, sl
1000134a:	9101      	str	r1, [sp, #4]
1000134c:	4641      	mov	r1, r8
1000134e:	9100      	str	r1, [sp, #0]
10001350:	0038      	movs	r0, r7
10001352:	f7ff fe7f 	bl	10001054 <add_alarm_under_lock>
10001356:	e04c      	b.n	100013f2 <alarm_pool_alarm_callback+0x22a>
10001358:	693b      	ldr	r3, [r7, #16]
1000135a:	2b00      	cmp	r3, #0
1000135c:	d0dd      	beq.n	1000131a <alarm_pool_alarm_callback+0x152>
1000135e:	454b      	cmp	r3, r9
10001360:	d114      	bne.n	1000138c <alarm_pool_alarm_callback+0x1c4>
10001362:	9a06      	ldr	r2, [sp, #24]
10001364:	9b07      	ldr	r3, [sp, #28]
10001366:	1b52      	subs	r2, r2, r5
10001368:	41b3      	sbcs	r3, r6
1000136a:	2b00      	cmp	r3, #0
1000136c:	db14      	blt.n	10001398 <alarm_pool_alarm_callback+0x1d0>
1000136e:	2b00      	cmp	r3, #0
10001370:	db16      	blt.n	100013a0 <alarm_pool_alarm_callback+0x1d8>
10001372:	2100      	movs	r1, #0
10001374:	9104      	str	r1, [sp, #16]
10001376:	3101      	adds	r1, #1
10001378:	9103      	str	r1, [sp, #12]
1000137a:	9402      	str	r4, [sp, #8]
1000137c:	4651      	mov	r1, sl
1000137e:	9101      	str	r1, [sp, #4]
10001380:	4641      	mov	r1, r8
10001382:	9100      	str	r1, [sp, #0]
10001384:	0038      	movs	r0, r7
10001386:	f7ff fe65 	bl	10001054 <add_alarm_under_lock>
1000138a:	e032      	b.n	100013f2 <alarm_pool_alarm_callback+0x22a>
1000138c:	4b55      	ldr	r3, [pc, #340]	; (100014e4 <alarm_pool_alarm_callback+0x31c>)
1000138e:	4a51      	ldr	r2, [pc, #324]	; (100014d4 <alarm_pool_alarm_callback+0x30c>)
10001390:	21a1      	movs	r1, #161	; 0xa1
10001392:	484e      	ldr	r0, [pc, #312]	; (100014cc <alarm_pool_alarm_callback+0x304>)
10001394:	f001 f9b0 	bl	100026f8 <__assert_func>
10001398:	2201      	movs	r2, #1
1000139a:	4252      	negs	r2, r2
1000139c:	4b52      	ldr	r3, [pc, #328]	; (100014e8 <alarm_pool_alarm_callback+0x320>)
1000139e:	e7e6      	b.n	1000136e <alarm_pool_alarm_callback+0x1a6>
100013a0:	4b45      	ldr	r3, [pc, #276]	; (100014b8 <alarm_pool_alarm_callback+0x2f0>)
100013a2:	4a46      	ldr	r2, [pc, #280]	; (100014bc <alarm_pool_alarm_callback+0x2f4>)
100013a4:	213f      	movs	r1, #63	; 0x3f
100013a6:	4846      	ldr	r0, [pc, #280]	; (100014c0 <alarm_pool_alarm_callback+0x2f8>)
100013a8:	f001 f9a6 	bl	100026f8 <__assert_func>
100013ac:	2e00      	cmp	r6, #0
100013ae:	d101      	bne.n	100013b4 <alarm_pool_alarm_callback+0x1ec>
100013b0:	2d00      	cmp	r5, #0
100013b2:	d1b4      	bne.n	1000131e <alarm_pool_alarm_callback+0x156>
100013b4:	683b      	ldr	r3, [r7, #0]
100013b6:	2c00      	cmp	r4, #0
100013b8:	d050      	beq.n	1000145c <alarm_pool_alarm_callback+0x294>
100013ba:	7b5a      	ldrb	r2, [r3, #13]
100013bc:	4294      	cmp	r4, r2
100013be:	d137      	bne.n	10001430 <alarm_pool_alarm_callback+0x268>
100013c0:	2101      	movs	r1, #1
100013c2:	2900      	cmp	r1, #0
100013c4:	d14a      	bne.n	1000145c <alarm_pool_alarm_callback+0x294>
100013c6:	7bda      	ldrb	r2, [r3, #15]
100013c8:	2a00      	cmp	r2, #0
100013ca:	d14d      	bne.n	10001468 <alarm_pool_alarm_callback+0x2a0>
100013cc:	7b9a      	ldrb	r2, [r3, #14]
100013ce:	2a00      	cmp	r2, #0
100013d0:	d103      	bne.n	100013da <alarm_pool_alarm_callback+0x212>
100013d2:	7bda      	ldrb	r2, [r3, #15]
100013d4:	2a00      	cmp	r2, #0
100013d6:	d15a      	bne.n	1000148e <alarm_pool_alarm_callback+0x2c6>
100013d8:	739c      	strb	r4, [r3, #14]
100013da:	73dc      	strb	r4, [r3, #15]
100013dc:	2c00      	cmp	r4, #0
100013de:	d05c      	beq.n	1000149a <alarm_pool_alarm_callback+0x2d2>
100013e0:	683b      	ldr	r3, [r7, #0]
100013e2:	7b1b      	ldrb	r3, [r3, #12]
100013e4:	429c      	cmp	r4, r3
100013e6:	d858      	bhi.n	1000149a <alarm_pool_alarm_callback+0x2d2>
100013e8:	68fa      	ldr	r2, [r7, #12]
100013ea:	3c01      	subs	r4, #1
100013ec:	5d13      	ldrb	r3, [r2, r4]
100013ee:	3301      	adds	r3, #1
100013f0:	5513      	strb	r3, [r2, r4]
100013f2:	2300      	movs	r3, #0
100013f4:	613b      	str	r3, [r7, #16]
100013f6:	687a      	ldr	r2, [r7, #4]
100013f8:	f3bf 8f5f 	dmb	sy
100013fc:	6013      	str	r3, [r2, #0]
100013fe:	f38b 8810 	msr	PRIMASK, fp
10001402:	e743      	b.n	1000128c <alarm_pool_alarm_callback+0xc4>
10001404:	4b37      	ldr	r3, [pc, #220]	; (100014e4 <alarm_pool_alarm_callback+0x31c>)
10001406:	4a33      	ldr	r2, [pc, #204]	; (100014d4 <alarm_pool_alarm_callback+0x30c>)
10001408:	21a4      	movs	r1, #164	; 0xa4
1000140a:	4830      	ldr	r0, [pc, #192]	; (100014cc <alarm_pool_alarm_callback+0x304>)
1000140c:	f001 f974 	bl	100026f8 <__assert_func>
10001410:	4b29      	ldr	r3, [pc, #164]	; (100014b8 <alarm_pool_alarm_callback+0x2f0>)
10001412:	4a2a      	ldr	r2, [pc, #168]	; (100014bc <alarm_pool_alarm_callback+0x2f4>)
10001414:	213f      	movs	r1, #63	; 0x3f
10001416:	482a      	ldr	r0, [pc, #168]	; (100014c0 <alarm_pool_alarm_callback+0x2f8>)
10001418:	f001 f96e 	bl	100026f8 <__assert_func>
1000141c:	2201      	movs	r2, #1
1000141e:	4252      	negs	r2, r2
10001420:	4b31      	ldr	r3, [pc, #196]	; (100014e8 <alarm_pool_alarm_callback+0x320>)
10001422:	e78a      	b.n	1000133a <alarm_pool_alarm_callback+0x172>
10001424:	4b24      	ldr	r3, [pc, #144]	; (100014b8 <alarm_pool_alarm_callback+0x2f0>)
10001426:	4a25      	ldr	r2, [pc, #148]	; (100014bc <alarm_pool_alarm_callback+0x2f4>)
10001428:	213f      	movs	r1, #63	; 0x3f
1000142a:	4825      	ldr	r0, [pc, #148]	; (100014c0 <alarm_pool_alarm_callback+0x2f8>)
1000142c:	f001 f964 	bl	100026f8 <__assert_func>
10001430:	2c00      	cmp	r4, #0
10001432:	d00d      	beq.n	10001450 <alarm_pool_alarm_callback+0x288>
10001434:	7b1a      	ldrb	r2, [r3, #12]
10001436:	4294      	cmp	r4, r2
10001438:	d80a      	bhi.n	10001450 <alarm_pool_alarm_callback+0x288>
1000143a:	0062      	lsls	r2, r4, #1
1000143c:	1912      	adds	r2, r2, r4
1000143e:	3a03      	subs	r2, #3
10001440:	6818      	ldr	r0, [r3, #0]
10001442:	4684      	mov	ip, r0
10001444:	4462      	add	r2, ip
10001446:	7892      	ldrb	r2, [r2, #2]
10001448:	2a00      	cmp	r2, #0
1000144a:	d0ba      	beq.n	100013c2 <alarm_pool_alarm_callback+0x1fa>
1000144c:	2101      	movs	r1, #1
1000144e:	e7b8      	b.n	100013c2 <alarm_pool_alarm_callback+0x1fa>
10001450:	4b26      	ldr	r3, [pc, #152]	; (100014ec <alarm_pool_alarm_callback+0x324>)
10001452:	4a27      	ldr	r2, [pc, #156]	; (100014f0 <alarm_pool_alarm_callback+0x328>)
10001454:	2168      	movs	r1, #104	; 0x68
10001456:	4827      	ldr	r0, [pc, #156]	; (100014f4 <alarm_pool_alarm_callback+0x32c>)
10001458:	f001 f94e 	bl	100026f8 <__assert_func>
1000145c:	4b26      	ldr	r3, [pc, #152]	; (100014f8 <alarm_pool_alarm_callback+0x330>)
1000145e:	4a27      	ldr	r2, [pc, #156]	; (100014fc <alarm_pool_alarm_callback+0x334>)
10001460:	21f6      	movs	r1, #246	; 0xf6
10001462:	4824      	ldr	r0, [pc, #144]	; (100014f4 <alarm_pool_alarm_callback+0x32c>)
10001464:	f001 f948 	bl	100026f8 <__assert_func>
10001468:	2a00      	cmp	r2, #0
1000146a:	d00a      	beq.n	10001482 <alarm_pool_alarm_callback+0x2ba>
1000146c:	7b19      	ldrb	r1, [r3, #12]
1000146e:	428a      	cmp	r2, r1
10001470:	d807      	bhi.n	10001482 <alarm_pool_alarm_callback+0x2ba>
10001472:	0051      	lsls	r1, r2, #1
10001474:	188a      	adds	r2, r1, r2
10001476:	3a03      	subs	r2, #3
10001478:	6819      	ldr	r1, [r3, #0]
1000147a:	468c      	mov	ip, r1
1000147c:	4462      	add	r2, ip
1000147e:	7054      	strb	r4, [r2, #1]
10001480:	e7a4      	b.n	100013cc <alarm_pool_alarm_callback+0x204>
10001482:	4b1a      	ldr	r3, [pc, #104]	; (100014ec <alarm_pool_alarm_callback+0x324>)
10001484:	4a1a      	ldr	r2, [pc, #104]	; (100014f0 <alarm_pool_alarm_callback+0x328>)
10001486:	2168      	movs	r1, #104	; 0x68
10001488:	481a      	ldr	r0, [pc, #104]	; (100014f4 <alarm_pool_alarm_callback+0x32c>)
1000148a:	f001 f935 	bl	100026f8 <__assert_func>
1000148e:	4b1c      	ldr	r3, [pc, #112]	; (10001500 <alarm_pool_alarm_callback+0x338>)
10001490:	4a1a      	ldr	r2, [pc, #104]	; (100014fc <alarm_pool_alarm_callback+0x334>)
10001492:	21fb      	movs	r1, #251	; 0xfb
10001494:	4817      	ldr	r0, [pc, #92]	; (100014f4 <alarm_pool_alarm_callback+0x32c>)
10001496:	f001 f92f 	bl	100026f8 <__assert_func>
1000149a:	4b0a      	ldr	r3, [pc, #40]	; (100014c4 <alarm_pool_alarm_callback+0x2fc>)
1000149c:	4a0f      	ldr	r2, [pc, #60]	; (100014dc <alarm_pool_alarm_callback+0x314>)
1000149e:	2141      	movs	r1, #65	; 0x41
100014a0:	480a      	ldr	r0, [pc, #40]	; (100014cc <alarm_pool_alarm_callback+0x304>)
100014a2:	f001 f929 	bl	100026f8 <__assert_func>
100014a6:	b00b      	add	sp, #44	; 0x2c
100014a8:	bcf0      	pop	{r4, r5, r6, r7}
100014aa:	46bb      	mov	fp, r7
100014ac:	46b2      	mov	sl, r6
100014ae:	46a9      	mov	r9, r5
100014b0:	46a0      	mov	r8, r4
100014b2:	bdf0      	pop	{r4, r5, r6, r7, pc}
100014b4:	20001800 	.word	0x20001800
100014b8:	10007250 	.word	0x10007250
100014bc:	100075f8 	.word	0x100075f8
100014c0:	1000726c 	.word	0x1000726c
100014c4:	100073ac 	.word	0x100073ac
100014c8:	1000762c 	.word	0x1000762c
100014cc:	10007358 	.word	0x10007358
100014d0:	100074ac 	.word	0x100074ac
100014d4:	10007610 	.word	0x10007610
100014d8:	100074c4 	.word	0x100074c4
100014dc:	10007650 	.word	0x10007650
100014e0:	0fffffff 	.word	0x0fffffff
100014e4:	100074d0 	.word	0x100074d0
100014e8:	7fffffff 	.word	0x7fffffff
100014ec:	100073d0 	.word	0x100073d0
100014f0:	10007698 	.word	0x10007698
100014f4:	100073ec 	.word	0x100073ec
100014f8:	1000750c 	.word	0x1000750c
100014fc:	10007664 	.word	0x10007664
10001500:	10007530 	.word	0x10007530

10001504 <alarm_pool_init_default>:
10001504:	b510      	push	{r4, lr}
10001506:	4b0c      	ldr	r3, [pc, #48]	; (10001538 <alarm_pool_init_default+0x34>)
10001508:	685b      	ldr	r3, [r3, #4]
1000150a:	2b00      	cmp	r3, #0
1000150c:	d004      	beq.n	10001518 <alarm_pool_init_default+0x14>
1000150e:	210a      	movs	r1, #10
10001510:	480a      	ldr	r0, [pc, #40]	; (1000153c <alarm_pool_init_default+0x38>)
10001512:	f7ff fc7f 	bl	10000e14 <lock_init>
10001516:	bd10      	pop	{r4, pc}
10001518:	4c07      	ldr	r4, [pc, #28]	; (10001538 <alarm_pool_init_default+0x34>)
1000151a:	0023      	movs	r3, r4
1000151c:	4a08      	ldr	r2, [pc, #32]	; (10001540 <alarm_pool_init_default+0x3c>)
1000151e:	2110      	movs	r1, #16
10001520:	6820      	ldr	r0, [r4, #0]
10001522:	f000 fc7f 	bl	10001e24 <ph_post_alloc_init>
10001526:	2003      	movs	r0, #3
10001528:	f000 faa6 	bl	10001a78 <hardware_alarm_claim>
1000152c:	2103      	movs	r1, #3
1000152e:	0020      	movs	r0, r4
10001530:	f7ff fca8 	bl	10000e84 <alarm_pool_post_alloc_init>
10001534:	e7eb      	b.n	1000150e <alarm_pool_init_default+0xa>
10001536:	46c0      	nop			; (mov r8, r8)
10001538:	20000c00 	.word	0x20000c00
1000153c:	20001a1c 	.word	0x20001a1c
10001540:	10000ef5 	.word	0x10000ef5

10001544 <alarm_pool_get_default>:
10001544:	b510      	push	{r4, lr}
10001546:	4b06      	ldr	r3, [pc, #24]	; (10001560 <alarm_pool_get_default+0x1c>)
10001548:	685b      	ldr	r3, [r3, #4]
1000154a:	2b00      	cmp	r3, #0
1000154c:	d001      	beq.n	10001552 <alarm_pool_get_default+0xe>
1000154e:	4804      	ldr	r0, [pc, #16]	; (10001560 <alarm_pool_get_default+0x1c>)
10001550:	bd10      	pop	{r4, pc}
10001552:	4b04      	ldr	r3, [pc, #16]	; (10001564 <alarm_pool_get_default+0x20>)
10001554:	4a04      	ldr	r2, [pc, #16]	; (10001568 <alarm_pool_get_default+0x24>)
10001556:	215e      	movs	r1, #94	; 0x5e
10001558:	4804      	ldr	r0, [pc, #16]	; (1000156c <alarm_pool_get_default+0x28>)
1000155a:	f001 f8cd 	bl	100026f8 <__assert_func>
1000155e:	46c0      	nop			; (mov r8, r8)
10001560:	20000c00 	.word	0x20000c00
10001564:	10007544 	.word	0x10007544
10001568:	10007638 	.word	0x10007638
1000156c:	10007358 	.word	0x10007358

10001570 <alarm_pool_add_alarm_at>:
10001570:	b5f0      	push	{r4, r5, r6, r7, lr}
10001572:	46de      	mov	lr, fp
10001574:	4657      	mov	r7, sl
10001576:	464e      	mov	r6, r9
10001578:	4645      	mov	r5, r8
1000157a:	b5e0      	push	{r5, r6, r7, lr}
1000157c:	b08b      	sub	sp, #44	; 0x2c
1000157e:	4680      	mov	r8, r0
10001580:	0016      	movs	r6, r2
10001582:	001f      	movs	r7, r3
10001584:	9b14      	ldr	r3, [sp, #80]	; 0x50
10001586:	469a      	mov	sl, r3
10001588:	9b15      	ldr	r3, [sp, #84]	; 0x54
1000158a:	4699      	mov	r9, r3
1000158c:	ab16      	add	r3, sp, #88	; 0x58
1000158e:	781b      	ldrb	r3, [r3, #0]
10001590:	469b      	mov	fp, r3
10001592:	231f      	movs	r3, #31
10001594:	aa02      	add	r2, sp, #8
10001596:	4694      	mov	ip, r2
10001598:	4463      	add	r3, ip
1000159a:	2200      	movs	r2, #0
1000159c:	701a      	strb	r2, [r3, #0]
1000159e:	e02b      	b.n	100015f8 <alarm_pool_add_alarm_at+0x88>
100015a0:	2800      	cmp	r0, #0
100015a2:	d009      	beq.n	100015b8 <alarm_pool_add_alarm_at+0x48>
100015a4:	4642      	mov	r2, r8
100015a6:	6812      	ldr	r2, [r2, #0]
100015a8:	7b12      	ldrb	r2, [r2, #12]
100015aa:	4290      	cmp	r0, r2
100015ac:	d804      	bhi.n	100015b8 <alarm_pool_add_alarm_at+0x48>
100015ae:	1e42      	subs	r2, r0, #1
100015b0:	4641      	mov	r1, r8
100015b2:	68c9      	ldr	r1, [r1, #12]
100015b4:	5c8a      	ldrb	r2, [r1, r2]
100015b6:	e041      	b.n	1000163c <alarm_pool_add_alarm_at+0xcc>
100015b8:	4b40      	ldr	r3, [pc, #256]	; (100016bc <alarm_pool_add_alarm_at+0x14c>)
100015ba:	4a41      	ldr	r2, [pc, #260]	; (100016c0 <alarm_pool_add_alarm_at+0x150>)
100015bc:	2141      	movs	r1, #65	; 0x41
100015be:	4841      	ldr	r0, [pc, #260]	; (100016c4 <alarm_pool_add_alarm_at+0x154>)
100015c0:	f001 f89a 	bl	100026f8 <__assert_func>
100015c4:	9807      	ldr	r0, [sp, #28]
100015c6:	e04c      	b.n	10001662 <alarm_pool_add_alarm_at+0xf2>
100015c8:	1b36      	subs	r6, r6, r4
100015ca:	41af      	sbcs	r7, r5
100015cc:	2f00      	cmp	r7, #0
100015ce:	db07      	blt.n	100015e0 <alarm_pool_add_alarm_at+0x70>
100015d0:	2f00      	cmp	r7, #0
100015d2:	da11      	bge.n	100015f8 <alarm_pool_add_alarm_at+0x88>
100015d4:	4b3c      	ldr	r3, [pc, #240]	; (100016c8 <alarm_pool_add_alarm_at+0x158>)
100015d6:	4a3d      	ldr	r2, [pc, #244]	; (100016cc <alarm_pool_add_alarm_at+0x15c>)
100015d8:	213f      	movs	r1, #63	; 0x3f
100015da:	483d      	ldr	r0, [pc, #244]	; (100016d0 <alarm_pool_add_alarm_at+0x160>)
100015dc:	f001 f88c 	bl	100026f8 <__assert_func>
100015e0:	2601      	movs	r6, #1
100015e2:	4276      	negs	r6, r6
100015e4:	4f3b      	ldr	r7, [pc, #236]	; (100016d4 <alarm_pool_add_alarm_at+0x164>)
100015e6:	e7f3      	b.n	100015d0 <alarm_pool_add_alarm_at+0x60>
100015e8:	4b37      	ldr	r3, [pc, #220]	; (100016c8 <alarm_pool_add_alarm_at+0x158>)
100015ea:	4a38      	ldr	r2, [pc, #224]	; (100016cc <alarm_pool_add_alarm_at+0x15c>)
100015ec:	213f      	movs	r1, #63	; 0x3f
100015ee:	4838      	ldr	r0, [pc, #224]	; (100016d0 <alarm_pool_add_alarm_at+0x160>)
100015f0:	f001 f882 	bl	100026f8 <__assert_func>
100015f4:	2f00      	cmp	r7, #0
100015f6:	db4f      	blt.n	10001698 <alarm_pool_add_alarm_at+0x128>
100015f8:	4643      	mov	r3, r8
100015fa:	685a      	ldr	r2, [r3, #4]
100015fc:	f3ef 8410 	mrs	r4, PRIMASK
10001600:	b672      	cpsid	i
10001602:	6813      	ldr	r3, [r2, #0]
10001604:	4259      	negs	r1, r3
10001606:	414b      	adcs	r3, r1
10001608:	b2d9      	uxtb	r1, r3
1000160a:	9107      	str	r1, [sp, #28]
1000160c:	2b00      	cmp	r3, #0
1000160e:	d1f8      	bne.n	10001602 <alarm_pool_add_alarm_at+0x92>
10001610:	f3bf 8f5f 	dmb	sy
10001614:	331f      	adds	r3, #31
10001616:	aa02      	add	r2, sp, #8
10001618:	4694      	mov	ip, r2
1000161a:	4463      	add	r3, ip
1000161c:	9304      	str	r3, [sp, #16]
1000161e:	2300      	movs	r3, #0
10001620:	9303      	str	r3, [sp, #12]
10001622:	9302      	str	r3, [sp, #8]
10001624:	464b      	mov	r3, r9
10001626:	9301      	str	r3, [sp, #4]
10001628:	4653      	mov	r3, sl
1000162a:	9300      	str	r3, [sp, #0]
1000162c:	0032      	movs	r2, r6
1000162e:	003b      	movs	r3, r7
10001630:	4640      	mov	r0, r8
10001632:	f7ff fd0f 	bl	10001054 <add_alarm_under_lock>
10001636:	1e03      	subs	r3, r0, #0
10001638:	d1b2      	bne.n	100015a0 <alarm_pool_add_alarm_at+0x30>
1000163a:	0002      	movs	r2, r0
1000163c:	4641      	mov	r1, r8
1000163e:	6849      	ldr	r1, [r1, #4]
10001640:	f3bf 8f5f 	dmb	sy
10001644:	2500      	movs	r5, #0
10001646:	600d      	str	r5, [r1, #0]
10001648:	f384 8810 	msr	PRIMASK, r4
1000164c:	2b00      	cmp	r3, #0
1000164e:	d029      	beq.n	100016a4 <alarm_pool_add_alarm_at+0x134>
10001650:	231f      	movs	r3, #31
10001652:	a902      	add	r1, sp, #8
10001654:	468c      	mov	ip, r1
10001656:	4463      	add	r3, ip
10001658:	781b      	ldrb	r3, [r3, #0]
1000165a:	2b00      	cmp	r3, #0
1000165c:	d1b2      	bne.n	100015c4 <alarm_pool_add_alarm_at+0x54>
1000165e:	0212      	lsls	r2, r2, #8
10001660:	4310      	orrs	r0, r2
10001662:	2b00      	cmp	r3, #0
10001664:	d020      	beq.n	100016a8 <alarm_pool_add_alarm_at+0x138>
10001666:	465b      	mov	r3, fp
10001668:	2b00      	cmp	r3, #0
1000166a:	d01d      	beq.n	100016a8 <alarm_pool_add_alarm_at+0x138>
1000166c:	4649      	mov	r1, r9
1000166e:	47d0      	blx	sl
10001670:	0004      	movs	r4, r0
10001672:	000d      	movs	r5, r1
10001674:	0003      	movs	r3, r0
10001676:	430b      	orrs	r3, r1
10001678:	d01d      	beq.n	100016b6 <alarm_pool_add_alarm_at+0x146>
1000167a:	2900      	cmp	r1, #0
1000167c:	dba4      	blt.n	100015c8 <alarm_pool_add_alarm_at+0x58>
1000167e:	f000 fa07 	bl	10001a90 <time_us_64>
10001682:	0006      	movs	r6, r0
10001684:	1e0f      	subs	r7, r1, #0
10001686:	dbaf      	blt.n	100015e8 <alarm_pool_add_alarm_at+0x78>
10001688:	1936      	adds	r6, r6, r4
1000168a:	416f      	adcs	r7, r5
1000168c:	2f00      	cmp	r7, #0
1000168e:	dab1      	bge.n	100015f4 <alarm_pool_add_alarm_at+0x84>
10001690:	2601      	movs	r6, #1
10001692:	4276      	negs	r6, r6
10001694:	4f0f      	ldr	r7, [pc, #60]	; (100016d4 <alarm_pool_add_alarm_at+0x164>)
10001696:	e7ad      	b.n	100015f4 <alarm_pool_add_alarm_at+0x84>
10001698:	4b0b      	ldr	r3, [pc, #44]	; (100016c8 <alarm_pool_add_alarm_at+0x158>)
1000169a:	4a0c      	ldr	r2, [pc, #48]	; (100016cc <alarm_pool_add_alarm_at+0x15c>)
1000169c:	213f      	movs	r1, #63	; 0x3f
1000169e:	480c      	ldr	r0, [pc, #48]	; (100016d0 <alarm_pool_add_alarm_at+0x160>)
100016a0:	f001 f82a 	bl	100026f8 <__assert_func>
100016a4:	2001      	movs	r0, #1
100016a6:	4240      	negs	r0, r0
100016a8:	b00b      	add	sp, #44	; 0x2c
100016aa:	bcf0      	pop	{r4, r5, r6, r7}
100016ac:	46bb      	mov	fp, r7
100016ae:	46b2      	mov	sl, r6
100016b0:	46a9      	mov	r9, r5
100016b2:	46a0      	mov	r8, r4
100016b4:	bdf0      	pop	{r4, r5, r6, r7, pc}
100016b6:	9807      	ldr	r0, [sp, #28]
100016b8:	e7f6      	b.n	100016a8 <alarm_pool_add_alarm_at+0x138>
100016ba:	46c0      	nop			; (mov r8, r8)
100016bc:	100073ac 	.word	0x100073ac
100016c0:	10007650 	.word	0x10007650
100016c4:	10007358 	.word	0x10007358
100016c8:	10007250 	.word	0x10007250
100016cc:	100075f8 	.word	0x100075f8
100016d0:	1000726c 	.word	0x1000726c
100016d4:	7fffffff 	.word	0x7fffffff

100016d8 <alarm_pool_cancel_alarm>:
100016d8:	b5f8      	push	{r3, r4, r5, r6, r7, lr}
100016da:	0004      	movs	r4, r0
100016dc:	2900      	cmp	r1, #0
100016de:	d100      	bne.n	100016e2 <alarm_pool_cancel_alarm+0xa>
100016e0:	e062      	b.n	100017a8 <alarm_pool_cancel_alarm+0xd0>
100016e2:	6842      	ldr	r2, [r0, #4]
100016e4:	f3ef 8510 	mrs	r5, PRIMASK
100016e8:	b672      	cpsid	i
100016ea:	6813      	ldr	r3, [r2, #0]
100016ec:	4258      	negs	r0, r3
100016ee:	4143      	adcs	r3, r0
100016f0:	b2d8      	uxtb	r0, r3
100016f2:	2b00      	cmp	r3, #0
100016f4:	d1f9      	bne.n	100016ea <alarm_pool_cancel_alarm+0x12>
100016f6:	f3bf 8f5f 	dmb	sy
100016fa:	b2cb      	uxtb	r3, r1
100016fc:	6822      	ldr	r2, [r4, #0]
100016fe:	7b56      	ldrb	r6, [r2, #13]
10001700:	42b3      	cmp	r3, r6
10001702:	d11b      	bne.n	1000173c <alarm_pool_cancel_alarm+0x64>
10001704:	2001      	movs	r0, #1
10001706:	2800      	cmp	r0, #0
10001708:	d048      	beq.n	1000179c <alarm_pool_cancel_alarm+0xc4>
1000170a:	6920      	ldr	r0, [r4, #16]
1000170c:	4288      	cmp	r0, r1
1000170e:	d02b      	beq.n	10001768 <alarm_pool_cancel_alarm+0x90>
10001710:	0a09      	lsrs	r1, r1, #8
10001712:	b2c9      	uxtb	r1, r1
10001714:	2b00      	cmp	r3, #0
10001716:	d02e      	beq.n	10001776 <alarm_pool_cancel_alarm+0x9e>
10001718:	6820      	ldr	r0, [r4, #0]
1000171a:	7b00      	ldrb	r0, [r0, #12]
1000171c:	4283      	cmp	r3, r0
1000171e:	d82a      	bhi.n	10001776 <alarm_pool_cancel_alarm+0x9e>
10001720:	1e58      	subs	r0, r3, #1
10001722:	68e6      	ldr	r6, [r4, #12]
10001724:	5c30      	ldrb	r0, [r6, r0]
10001726:	4288      	cmp	r0, r1
10001728:	d02b      	beq.n	10001782 <alarm_pool_cancel_alarm+0xaa>
1000172a:	2000      	movs	r0, #0
1000172c:	6863      	ldr	r3, [r4, #4]
1000172e:	f3bf 8f5f 	dmb	sy
10001732:	2200      	movs	r2, #0
10001734:	601a      	str	r2, [r3, #0]
10001736:	f385 8810 	msr	PRIMASK, r5
1000173a:	bdf8      	pop	{r3, r4, r5, r6, r7, pc}
1000173c:	2b00      	cmp	r3, #0
1000173e:	d00d      	beq.n	1000175c <alarm_pool_cancel_alarm+0x84>
10001740:	7b16      	ldrb	r6, [r2, #12]
10001742:	42b3      	cmp	r3, r6
10001744:	d80a      	bhi.n	1000175c <alarm_pool_cancel_alarm+0x84>
10001746:	005e      	lsls	r6, r3, #1
10001748:	18f6      	adds	r6, r6, r3
1000174a:	3e03      	subs	r6, #3
1000174c:	6817      	ldr	r7, [r2, #0]
1000174e:	46bc      	mov	ip, r7
10001750:	4466      	add	r6, ip
10001752:	78b6      	ldrb	r6, [r6, #2]
10001754:	2e00      	cmp	r6, #0
10001756:	d0d6      	beq.n	10001706 <alarm_pool_cancel_alarm+0x2e>
10001758:	2001      	movs	r0, #1
1000175a:	e7d4      	b.n	10001706 <alarm_pool_cancel_alarm+0x2e>
1000175c:	4b13      	ldr	r3, [pc, #76]	; (100017ac <alarm_pool_cancel_alarm+0xd4>)
1000175e:	4a14      	ldr	r2, [pc, #80]	; (100017b0 <alarm_pool_cancel_alarm+0xd8>)
10001760:	2168      	movs	r1, #104	; 0x68
10001762:	4814      	ldr	r0, [pc, #80]	; (100017b4 <alarm_pool_cancel_alarm+0xdc>)
10001764:	f000 ffc8 	bl	100026f8 <__assert_func>
10001768:	212c      	movs	r1, #44	; 0x2c
1000176a:	4b13      	ldr	r3, [pc, #76]	; (100017b8 <alarm_pool_cancel_alarm+0xe0>)
1000176c:	4a13      	ldr	r2, [pc, #76]	; (100017bc <alarm_pool_cancel_alarm+0xe4>)
1000176e:	31ff      	adds	r1, #255	; 0xff
10001770:	4813      	ldr	r0, [pc, #76]	; (100017c0 <alarm_pool_cancel_alarm+0xe8>)
10001772:	f000 ffc1 	bl	100026f8 <__assert_func>
10001776:	4b13      	ldr	r3, [pc, #76]	; (100017c4 <alarm_pool_cancel_alarm+0xec>)
10001778:	4a13      	ldr	r2, [pc, #76]	; (100017c8 <alarm_pool_cancel_alarm+0xf0>)
1000177a:	2141      	movs	r1, #65	; 0x41
1000177c:	4810      	ldr	r0, [pc, #64]	; (100017c0 <alarm_pool_cancel_alarm+0xe8>)
1000177e:	f000 ffbb 	bl	100026f8 <__assert_func>
10001782:	0019      	movs	r1, r3
10001784:	0010      	movs	r0, r2
10001786:	f000 fc47 	bl	10002018 <ph_remove_and_free_node>
1000178a:	2800      	cmp	r0, #0
1000178c:	d1ce      	bne.n	1000172c <alarm_pool_cancel_alarm+0x54>
1000178e:	2199      	movs	r1, #153	; 0x99
10001790:	4b0e      	ldr	r3, [pc, #56]	; (100017cc <alarm_pool_cancel_alarm+0xf4>)
10001792:	4a0a      	ldr	r2, [pc, #40]	; (100017bc <alarm_pool_cancel_alarm+0xe4>)
10001794:	0049      	lsls	r1, r1, #1
10001796:	480a      	ldr	r0, [pc, #40]	; (100017c0 <alarm_pool_cancel_alarm+0xe8>)
10001798:	f000 ffae 	bl	100026f8 <__assert_func>
1000179c:	6923      	ldr	r3, [r4, #16]
1000179e:	428b      	cmp	r3, r1
100017a0:	d1c4      	bne.n	1000172c <alarm_pool_cancel_alarm+0x54>
100017a2:	2300      	movs	r3, #0
100017a4:	6123      	str	r3, [r4, #16]
100017a6:	e7c1      	b.n	1000172c <alarm_pool_cancel_alarm+0x54>
100017a8:	2000      	movs	r0, #0
100017aa:	e7c6      	b.n	1000173a <alarm_pool_cancel_alarm+0x62>
100017ac:	100073d0 	.word	0x100073d0
100017b0:	10007698 	.word	0x10007698
100017b4:	100073ec 	.word	0x100073ec
100017b8:	10007568 	.word	0x10007568
100017bc:	100075e0 	.word	0x100075e0
100017c0:	10007358 	.word	0x10007358
100017c4:	100073ac 	.word	0x100073ac
100017c8:	10007650 	.word	0x10007650
100017cc:	1000758c 	.word	0x1000758c

100017d0 <alarm_pool_core_num>:
100017d0:	7d40      	ldrb	r0, [r0, #21]
100017d2:	4770      	bx	lr

100017d4 <sleep_until>:
100017d4:	b5f0      	push	{r4, r5, r6, r7, lr}
100017d6:	b087      	sub	sp, #28
100017d8:	0006      	movs	r6, r0
100017da:	000f      	movs	r7, r1
100017dc:	f3ef 8305 	mrs	r3, IPSR
100017e0:	2b00      	cmp	r3, #0
100017e2:	d11f      	bne.n	10001824 <sleep_until+0x50>
100017e4:	2406      	movs	r4, #6
100017e6:	4264      	negs	r4, r4
100017e8:	17e5      	asrs	r5, r4, #31
100017ea:	19a4      	adds	r4, r4, r6
100017ec:	417d      	adcs	r5, r7
100017ee:	428d      	cmp	r5, r1
100017f0:	d802      	bhi.n	100017f8 <sleep_until+0x24>
100017f2:	d103      	bne.n	100017fc <sleep_until+0x28>
100017f4:	4284      	cmp	r4, r0
100017f6:	d901      	bls.n	100017fc <sleep_until+0x28>
100017f8:	2400      	movs	r4, #0
100017fa:	2500      	movs	r5, #0
100017fc:	2d00      	cmp	r5, #0
100017fe:	db14      	blt.n	1000182a <sleep_until+0x56>
10001800:	9404      	str	r4, [sp, #16]
10001802:	9505      	str	r5, [sp, #20]
10001804:	f000 f944 	bl	10001a90 <time_us_64>
10001808:	0002      	movs	r2, r0
1000180a:	1e0b      	subs	r3, r1, #0
1000180c:	db13      	blt.n	10001836 <sleep_until+0x62>
1000180e:	1aa4      	subs	r4, r4, r2
10001810:	419d      	sbcs	r5, r3
10001812:	2d00      	cmp	r5, #0
10001814:	dc17      	bgt.n	10001846 <sleep_until+0x72>
10001816:	d014      	beq.n	10001842 <sleep_until+0x6e>
10001818:	0030      	movs	r0, r6
1000181a:	0039      	movs	r1, r7
1000181c:	f000 f944 	bl	10001aa8 <busy_wait_until>
10001820:	b007      	add	sp, #28
10001822:	bdf0      	pop	{r4, r5, r6, r7, pc}
10001824:	4823      	ldr	r0, [pc, #140]	; (100018b4 <sleep_until+0xe0>)
10001826:	f001 f801 	bl	1000282c <panic>
1000182a:	4b23      	ldr	r3, [pc, #140]	; (100018b8 <sleep_until+0xe4>)
1000182c:	4a23      	ldr	r2, [pc, #140]	; (100018bc <sleep_until+0xe8>)
1000182e:	213f      	movs	r1, #63	; 0x3f
10001830:	4823      	ldr	r0, [pc, #140]	; (100018c0 <sleep_until+0xec>)
10001832:	f000 ff61 	bl	100026f8 <__assert_func>
10001836:	4b20      	ldr	r3, [pc, #128]	; (100018b8 <sleep_until+0xe4>)
10001838:	4a20      	ldr	r2, [pc, #128]	; (100018bc <sleep_until+0xe8>)
1000183a:	213f      	movs	r1, #63	; 0x3f
1000183c:	4820      	ldr	r0, [pc, #128]	; (100018c0 <sleep_until+0xec>)
1000183e:	f000 ff5b 	bl	100026f8 <__assert_func>
10001842:	2c00      	cmp	r4, #0
10001844:	d0e8      	beq.n	10001818 <sleep_until+0x44>
10001846:	f7ff fe7d 	bl	10001544 <alarm_pool_get_default>
1000184a:	2300      	movs	r3, #0
1000184c:	9302      	str	r3, [sp, #8]
1000184e:	9301      	str	r3, [sp, #4]
10001850:	4b1c      	ldr	r3, [pc, #112]	; (100018c4 <sleep_until+0xf0>)
10001852:	9300      	str	r3, [sp, #0]
10001854:	9a04      	ldr	r2, [sp, #16]
10001856:	9b05      	ldr	r3, [sp, #20]
10001858:	f7ff fe8a 	bl	10001570 <alarm_pool_add_alarm_at>
1000185c:	2800      	cmp	r0, #0
1000185e:	da18      	bge.n	10001892 <sleep_until+0xbe>
10001860:	e7da      	b.n	10001818 <sleep_until+0x44>
10001862:	2300      	movs	r3, #0
10001864:	e000      	b.n	10001868 <sleep_until+0x94>
10001866:	2300      	movs	r3, #0
10001868:	2b00      	cmp	r3, #0
1000186a:	d1d5      	bne.n	10001818 <sleep_until+0x44>
1000186c:	4b16      	ldr	r3, [pc, #88]	; (100018c8 <sleep_until+0xf4>)
1000186e:	681a      	ldr	r2, [r3, #0]
10001870:	f3ef 8110 	mrs	r1, PRIMASK
10001874:	b672      	cpsid	i
10001876:	6813      	ldr	r3, [r2, #0]
10001878:	2b00      	cmp	r3, #0
1000187a:	d0fc      	beq.n	10001876 <sleep_until+0xa2>
1000187c:	f3bf 8f5f 	dmb	sy
10001880:	4b11      	ldr	r3, [pc, #68]	; (100018c8 <sleep_until+0xf4>)
10001882:	681b      	ldr	r3, [r3, #0]
10001884:	f3bf 8f5f 	dmb	sy
10001888:	2200      	movs	r2, #0
1000188a:	601a      	str	r2, [r3, #0]
1000188c:	f381 8810 	msr	PRIMASK, r1
10001890:	bf20      	wfe
10001892:	9904      	ldr	r1, [sp, #16]
10001894:	9a05      	ldr	r2, [sp, #20]
10001896:	4b0d      	ldr	r3, [pc, #52]	; (100018cc <sleep_until+0xf8>)
10001898:	6a5b      	ldr	r3, [r3, #36]	; 0x24
1000189a:	429a      	cmp	r2, r3
1000189c:	d8e3      	bhi.n	10001866 <sleep_until+0x92>
1000189e:	480b      	ldr	r0, [pc, #44]	; (100018cc <sleep_until+0xf8>)
100018a0:	6a80      	ldr	r0, [r0, #40]	; 0x28
100018a2:	4288      	cmp	r0, r1
100018a4:	d203      	bcs.n	100018ae <sleep_until+0xda>
100018a6:	429a      	cmp	r2, r3
100018a8:	d0db      	beq.n	10001862 <sleep_until+0x8e>
100018aa:	2301      	movs	r3, #1
100018ac:	e7dc      	b.n	10001868 <sleep_until+0x94>
100018ae:	2301      	movs	r3, #1
100018b0:	e7da      	b.n	10001868 <sleep_until+0x94>
100018b2:	46c0      	nop			; (mov r8, r8)
100018b4:	10007590 	.word	0x10007590
100018b8:	10007250 	.word	0x10007250
100018bc:	100075f8 	.word	0x100075f8
100018c0:	1000726c 	.word	0x1000726c
100018c4:	10000ec5 	.word	0x10000ec5
100018c8:	20001a1c 	.word	0x20001a1c
100018cc:	40054000 	.word	0x40054000

100018d0 <sleep_us>:
100018d0:	b570      	push	{r4, r5, r6, lr}
100018d2:	0004      	movs	r4, r0
100018d4:	000d      	movs	r5, r1
100018d6:	f000 f8db 	bl	10001a90 <time_us_64>
100018da:	0002      	movs	r2, r0
100018dc:	1e0b      	subs	r3, r1, #0
100018de:	db0a      	blt.n	100018f6 <sleep_us+0x26>
100018e0:	0020      	movs	r0, r4
100018e2:	0029      	movs	r1, r5
100018e4:	1880      	adds	r0, r0, r2
100018e6:	4159      	adcs	r1, r3
100018e8:	2900      	cmp	r1, #0
100018ea:	db0a      	blt.n	10001902 <sleep_us+0x32>
100018ec:	2900      	cmp	r1, #0
100018ee:	db0c      	blt.n	1000190a <sleep_us+0x3a>
100018f0:	f7ff ff70 	bl	100017d4 <sleep_until>
100018f4:	bd70      	pop	{r4, r5, r6, pc}
100018f6:	4b08      	ldr	r3, [pc, #32]	; (10001918 <sleep_us+0x48>)
100018f8:	4a08      	ldr	r2, [pc, #32]	; (1000191c <sleep_us+0x4c>)
100018fa:	213f      	movs	r1, #63	; 0x3f
100018fc:	4808      	ldr	r0, [pc, #32]	; (10001920 <sleep_us+0x50>)
100018fe:	f000 fefb 	bl	100026f8 <__assert_func>
10001902:	2001      	movs	r0, #1
10001904:	4240      	negs	r0, r0
10001906:	4907      	ldr	r1, [pc, #28]	; (10001924 <sleep_us+0x54>)
10001908:	e7f0      	b.n	100018ec <sleep_us+0x1c>
1000190a:	4b03      	ldr	r3, [pc, #12]	; (10001918 <sleep_us+0x48>)
1000190c:	4a03      	ldr	r2, [pc, #12]	; (1000191c <sleep_us+0x4c>)
1000190e:	213f      	movs	r1, #63	; 0x3f
10001910:	4803      	ldr	r0, [pc, #12]	; (10001920 <sleep_us+0x50>)
10001912:	f000 fef1 	bl	100026f8 <__assert_func>
10001916:	46c0      	nop			; (mov r8, r8)
10001918:	10007250 	.word	0x10007250
1000191c:	100075f8 	.word	0x100075f8
10001920:	1000726c 	.word	0x1000726c
10001924:	7fffffff 	.word	0x7fffffff

10001928 <sleep_ms>:
10001928:	b510      	push	{r4, lr}
1000192a:	22fa      	movs	r2, #250	; 0xfa
1000192c:	0092      	lsls	r2, r2, #2
1000192e:	2300      	movs	r3, #0
10001930:	2100      	movs	r1, #0
10001932:	f002 fc25 	bl	10004180 <__wrap___aeabi_lmul>
10001936:	f7ff ffcb 	bl	100018d0 <sleep_us>
1000193a:	bd10      	pop	{r4, pc}

1000193c <best_effort_wfe_or_timeout>:
1000193c:	b570      	push	{r4, r5, r6, lr}
1000193e:	b084      	sub	sp, #16
10001940:	0005      	movs	r5, r0
10001942:	000c      	movs	r4, r1
10001944:	f3ef 8305 	mrs	r3, IPSR
10001948:	2b00      	cmp	r3, #0
1000194a:	d11e      	bne.n	1000198a <best_effort_wfe_or_timeout+0x4e>
1000194c:	f7ff fdfa 	bl	10001544 <alarm_pool_get_default>
10001950:	2300      	movs	r3, #0
10001952:	9302      	str	r3, [sp, #8]
10001954:	9301      	str	r3, [sp, #4]
10001956:	4b22      	ldr	r3, [pc, #136]	; (100019e0 <best_effort_wfe_or_timeout+0xa4>)
10001958:	9300      	str	r3, [sp, #0]
1000195a:	002a      	movs	r2, r5
1000195c:	0023      	movs	r3, r4
1000195e:	f7ff fe07 	bl	10001570 <alarm_pool_add_alarm_at>
10001962:	1e06      	subs	r6, r0, #0
10001964:	dd23      	ble.n	100019ae <best_effort_wfe_or_timeout+0x72>
10001966:	bf20      	wfe
10001968:	f7ff fdec 	bl	10001544 <alarm_pool_get_default>
1000196c:	0031      	movs	r1, r6
1000196e:	f7ff feb3 	bl	100016d8 <alarm_pool_cancel_alarm>
10001972:	4b1c      	ldr	r3, [pc, #112]	; (100019e4 <best_effort_wfe_or_timeout+0xa8>)
10001974:	6a5b      	ldr	r3, [r3, #36]	; 0x24
10001976:	429c      	cmp	r4, r3
10001978:	d82d      	bhi.n	100019d6 <best_effort_wfe_or_timeout+0x9a>
1000197a:	4a1a      	ldr	r2, [pc, #104]	; (100019e4 <best_effort_wfe_or_timeout+0xa8>)
1000197c:	6a92      	ldr	r2, [r2, #40]	; 0x28
1000197e:	42aa      	cmp	r2, r5
10001980:	d22c      	bcs.n	100019dc <best_effort_wfe_or_timeout+0xa0>
10001982:	429c      	cmp	r4, r3
10001984:	d025      	beq.n	100019d2 <best_effort_wfe_or_timeout+0x96>
10001986:	2001      	movs	r0, #1
10001988:	e026      	b.n	100019d8 <best_effort_wfe_or_timeout+0x9c>
1000198a:	4b16      	ldr	r3, [pc, #88]	; (100019e4 <best_effort_wfe_or_timeout+0xa8>)
1000198c:	6a5b      	ldr	r3, [r3, #36]	; 0x24
1000198e:	4299      	cmp	r1, r3
10001990:	d809      	bhi.n	100019a6 <best_effort_wfe_or_timeout+0x6a>
10001992:	4a14      	ldr	r2, [pc, #80]	; (100019e4 <best_effort_wfe_or_timeout+0xa8>)
10001994:	6a92      	ldr	r2, [r2, #40]	; 0x28
10001996:	4282      	cmp	r2, r0
10001998:	d207      	bcs.n	100019aa <best_effort_wfe_or_timeout+0x6e>
1000199a:	4299      	cmp	r1, r3
1000199c:	d001      	beq.n	100019a2 <best_effort_wfe_or_timeout+0x66>
1000199e:	2001      	movs	r0, #1
100019a0:	e01a      	b.n	100019d8 <best_effort_wfe_or_timeout+0x9c>
100019a2:	2000      	movs	r0, #0
100019a4:	e018      	b.n	100019d8 <best_effort_wfe_or_timeout+0x9c>
100019a6:	2000      	movs	r0, #0
100019a8:	e016      	b.n	100019d8 <best_effort_wfe_or_timeout+0x9c>
100019aa:	2001      	movs	r0, #1
100019ac:	e014      	b.n	100019d8 <best_effort_wfe_or_timeout+0x9c>
100019ae:	4b0d      	ldr	r3, [pc, #52]	; (100019e4 <best_effort_wfe_or_timeout+0xa8>)
100019b0:	6a5b      	ldr	r3, [r3, #36]	; 0x24
100019b2:	429c      	cmp	r4, r3
100019b4:	d809      	bhi.n	100019ca <best_effort_wfe_or_timeout+0x8e>
100019b6:	4a0b      	ldr	r2, [pc, #44]	; (100019e4 <best_effort_wfe_or_timeout+0xa8>)
100019b8:	6a92      	ldr	r2, [r2, #40]	; 0x28
100019ba:	42aa      	cmp	r2, r5
100019bc:	d207      	bcs.n	100019ce <best_effort_wfe_or_timeout+0x92>
100019be:	429c      	cmp	r4, r3
100019c0:	d001      	beq.n	100019c6 <best_effort_wfe_or_timeout+0x8a>
100019c2:	2001      	movs	r0, #1
100019c4:	e008      	b.n	100019d8 <best_effort_wfe_or_timeout+0x9c>
100019c6:	2000      	movs	r0, #0
100019c8:	e006      	b.n	100019d8 <best_effort_wfe_or_timeout+0x9c>
100019ca:	2000      	movs	r0, #0
100019cc:	e004      	b.n	100019d8 <best_effort_wfe_or_timeout+0x9c>
100019ce:	2001      	movs	r0, #1
100019d0:	e002      	b.n	100019d8 <best_effort_wfe_or_timeout+0x9c>
100019d2:	2000      	movs	r0, #0
100019d4:	e000      	b.n	100019d8 <best_effort_wfe_or_timeout+0x9c>
100019d6:	2000      	movs	r0, #0
100019d8:	b004      	add	sp, #16
100019da:	bd70      	pop	{r4, r5, r6, pc}
100019dc:	2001      	movs	r0, #1
100019de:	e7fb      	b.n	100019d8 <best_effort_wfe_or_timeout+0x9c>
100019e0:	10000ec5 	.word	0x10000ec5
100019e4:	40054000 	.word	0x40054000

100019e8 <hardware_alarm_irq_handler>:
100019e8:	b570      	push	{r4, r5, r6, lr}
100019ea:	f3ef 8005 	mrs	r0, IPSR
100019ee:	3810      	subs	r0, #16
100019f0:	f3ef 8c10 	mrs	ip, PRIMASK
100019f4:	b672      	cpsid	i
100019f6:	4b1a      	ldr	r3, [pc, #104]	; (10001a60 <hardware_alarm_irq_handler+0x78>)
100019f8:	681b      	ldr	r3, [r3, #0]
100019fa:	2b00      	cmp	r3, #0
100019fc:	d0fb      	beq.n	100019f6 <hardware_alarm_irq_handler+0xe>
100019fe:	f3bf 8f5f 	dmb	sy
10001a02:	2201      	movs	r2, #1
10001a04:	0013      	movs	r3, r2
10001a06:	4083      	lsls	r3, r0
10001a08:	4916      	ldr	r1, [pc, #88]	; (10001a64 <hardware_alarm_irq_handler+0x7c>)
10001a0a:	634b      	str	r3, [r1, #52]	; 0x34
10001a0c:	4916      	ldr	r1, [pc, #88]	; (10001a68 <hardware_alarm_irq_handler+0x80>)
10001a0e:	600b      	str	r3, [r1, #0]
10001a10:	4916      	ldr	r1, [pc, #88]	; (10001a6c <hardware_alarm_irq_handler+0x84>)
10001a12:	7809      	ldrb	r1, [r1, #0]
10001a14:	000c      	movs	r4, r1
10001a16:	40c4      	lsrs	r4, r0
10001a18:	4222      	tst	r2, r4
10001a1a:	d014      	beq.n	10001a46 <hardware_alarm_irq_handler+0x5e>
10001a1c:	4a11      	ldr	r2, [pc, #68]	; (10001a64 <hardware_alarm_irq_handler+0x7c>)
10001a1e:	6a54      	ldr	r4, [r2, #36]	; 0x24
10001a20:	0082      	lsls	r2, r0, #2
10001a22:	4d13      	ldr	r5, [pc, #76]	; (10001a70 <hardware_alarm_irq_handler+0x88>)
10001a24:	5952      	ldr	r2, [r2, r5]
10001a26:	4294      	cmp	r4, r2
10001a28:	d306      	bcc.n	10001a38 <hardware_alarm_irq_handler+0x50>
10001a2a:	0082      	lsls	r2, r0, #2
10001a2c:	4c11      	ldr	r4, [pc, #68]	; (10001a74 <hardware_alarm_irq_handler+0x8c>)
10001a2e:	5912      	ldr	r2, [r2, r4]
10001a30:	4399      	bics	r1, r3
10001a32:	4b0e      	ldr	r3, [pc, #56]	; (10001a6c <hardware_alarm_irq_handler+0x84>)
10001a34:	7019      	strb	r1, [r3, #0]
10001a36:	e007      	b.n	10001a48 <hardware_alarm_irq_handler+0x60>
10001a38:	4a0a      	ldr	r2, [pc, #40]	; (10001a64 <hardware_alarm_irq_handler+0x7c>)
10001a3a:	1d03      	adds	r3, r0, #4
10001a3c:	009b      	lsls	r3, r3, #2
10001a3e:	5899      	ldr	r1, [r3, r2]
10001a40:	5099      	str	r1, [r3, r2]
10001a42:	2200      	movs	r2, #0
10001a44:	e000      	b.n	10001a48 <hardware_alarm_irq_handler+0x60>
10001a46:	2200      	movs	r2, #0
10001a48:	f3bf 8f5f 	dmb	sy
10001a4c:	4b04      	ldr	r3, [pc, #16]	; (10001a60 <hardware_alarm_irq_handler+0x78>)
10001a4e:	2100      	movs	r1, #0
10001a50:	6019      	str	r1, [r3, #0]
10001a52:	f38c 8810 	msr	PRIMASK, ip
10001a56:	2a00      	cmp	r2, #0
10001a58:	d000      	beq.n	10001a5c <hardware_alarm_irq_handler+0x74>
10001a5a:	4790      	blx	r2
10001a5c:	bd70      	pop	{r4, r5, r6, pc}
10001a5e:	46c0      	nop			; (mov r8, r8)
10001a60:	d0000128 	.word	0xd0000128
10001a64:	40054000 	.word	0x40054000
10001a68:	4005703c 	.word	0x4005703c
10001a6c:	20001a59 	.word	0x20001a59
10001a70:	20001a28 	.word	0x20001a28
10001a74:	20001230 	.word	0x20001230

10001a78 <hardware_alarm_claim>:
10001a78:	b510      	push	{r4, lr}
10001a7a:	0001      	movs	r1, r0
10001a7c:	4a02      	ldr	r2, [pc, #8]	; (10001a88 <hardware_alarm_claim+0x10>)
10001a7e:	4803      	ldr	r0, [pc, #12]	; (10001a8c <hardware_alarm_claim+0x14>)
10001a80:	f7fe fe06 	bl	10000690 <hw_claim_or_assert>
10001a84:	bd10      	pop	{r4, pc}
10001a86:	46c0      	nop			; (mov r8, r8)
10001a88:	100076bc 	.word	0x100076bc
10001a8c:	20001a54 	.word	0x20001a54

10001a90 <time_us_64>:
10001a90:	4b04      	ldr	r3, [pc, #16]	; (10001aa4 <time_us_64+0x14>)
10001a92:	6a5b      	ldr	r3, [r3, #36]	; 0x24
10001a94:	4a03      	ldr	r2, [pc, #12]	; (10001aa4 <time_us_64+0x14>)
10001a96:	6a90      	ldr	r0, [r2, #40]	; 0x28
10001a98:	0019      	movs	r1, r3
10001a9a:	6a53      	ldr	r3, [r2, #36]	; 0x24
10001a9c:	4299      	cmp	r1, r3
10001a9e:	d1f9      	bne.n	10001a94 <time_us_64+0x4>
10001aa0:	4770      	bx	lr
10001aa2:	46c0      	nop			; (mov r8, r8)
10001aa4:	40054000 	.word	0x40054000

10001aa8 <busy_wait_until>:
10001aa8:	4b08      	ldr	r3, [pc, #32]	; (10001acc <busy_wait_until+0x24>)
10001aaa:	6a5b      	ldr	r3, [r3, #36]	; 0x24
10001aac:	e001      	b.n	10001ab2 <busy_wait_until+0xa>
10001aae:	4b07      	ldr	r3, [pc, #28]	; (10001acc <busy_wait_until+0x24>)
10001ab0:	6a5b      	ldr	r3, [r3, #36]	; 0x24
10001ab2:	428b      	cmp	r3, r1
10001ab4:	d3fb      	bcc.n	10001aae <busy_wait_until+0x6>
10001ab6:	e001      	b.n	10001abc <busy_wait_until+0x14>
10001ab8:	4b04      	ldr	r3, [pc, #16]	; (10001acc <busy_wait_until+0x24>)
10001aba:	6a5b      	ldr	r3, [r3, #36]	; 0x24
10001abc:	428b      	cmp	r3, r1
10001abe:	d103      	bne.n	10001ac8 <busy_wait_until+0x20>
10001ac0:	4b02      	ldr	r3, [pc, #8]	; (10001acc <busy_wait_until+0x24>)
10001ac2:	6a9b      	ldr	r3, [r3, #40]	; 0x28
10001ac4:	4283      	cmp	r3, r0
10001ac6:	d3f7      	bcc.n	10001ab8 <busy_wait_until+0x10>
10001ac8:	4770      	bx	lr
10001aca:	46c0      	nop			; (mov r8, r8)
10001acc:	40054000 	.word	0x40054000

10001ad0 <busy_wait_us>:
10001ad0:	b570      	push	{r4, r5, r6, lr}
10001ad2:	0004      	movs	r4, r0
10001ad4:	000d      	movs	r5, r1
10001ad6:	f7ff ffdb 	bl	10001a90 <time_us_64>
10001ada:	0002      	movs	r2, r0
10001adc:	000b      	movs	r3, r1
10001ade:	0020      	movs	r0, r4
10001ae0:	0029      	movs	r1, r5
10001ae2:	1880      	adds	r0, r0, r2
10001ae4:	4159      	adcs	r1, r3
10001ae6:	428b      	cmp	r3, r1
10001ae8:	d802      	bhi.n	10001af0 <busy_wait_us+0x20>
10001aea:	d104      	bne.n	10001af6 <busy_wait_us+0x26>
10001aec:	4282      	cmp	r2, r0
10001aee:	d902      	bls.n	10001af6 <busy_wait_us+0x26>
10001af0:	2001      	movs	r0, #1
10001af2:	4240      	negs	r0, r0
10001af4:	17c1      	asrs	r1, r0, #31
10001af6:	2900      	cmp	r1, #0
10001af8:	db02      	blt.n	10001b00 <busy_wait_us+0x30>
10001afa:	f7ff ffd5 	bl	10001aa8 <busy_wait_until>
10001afe:	bd70      	pop	{r4, r5, r6, pc}
10001b00:	4b02      	ldr	r3, [pc, #8]	; (10001b0c <busy_wait_us+0x3c>)
10001b02:	4a03      	ldr	r2, [pc, #12]	; (10001b10 <busy_wait_us+0x40>)
10001b04:	213f      	movs	r1, #63	; 0x3f
10001b06:	4803      	ldr	r0, [pc, #12]	; (10001b14 <busy_wait_us+0x44>)
10001b08:	f000 fdf6 	bl	100026f8 <__assert_func>
10001b0c:	10007250 	.word	0x10007250
10001b10:	10007780 	.word	0x10007780
10001b14:	1000726c 	.word	0x1000726c

10001b18 <hardware_alarm_set_callback>:
10001b18:	b570      	push	{r4, r5, r6, lr}
10001b1a:	0004      	movs	r4, r0
10001b1c:	000d      	movs	r5, r1
10001b1e:	f3ef 8610 	mrs	r6, PRIMASK
10001b22:	b672      	cpsid	i
10001b24:	4b1b      	ldr	r3, [pc, #108]	; (10001b94 <hardware_alarm_set_callback+0x7c>)
10001b26:	681b      	ldr	r3, [r3, #0]
10001b28:	2b00      	cmp	r3, #0
10001b2a:	d0fb      	beq.n	10001b24 <hardware_alarm_set_callback+0xc>
10001b2c:	f3bf 8f5f 	dmb	sy
10001b30:	2d00      	cmp	r5, #0
10001b32:	d01c      	beq.n	10001b6e <hardware_alarm_set_callback+0x56>
10001b34:	0020      	movs	r0, r4
10001b36:	f7fe fe9f 	bl	10000878 <irq_get_vtable_handler>
10001b3a:	4b17      	ldr	r3, [pc, #92]	; (10001b98 <hardware_alarm_set_callback+0x80>)
10001b3c:	4283      	cmp	r3, r0
10001b3e:	d00b      	beq.n	10001b58 <hardware_alarm_set_callback+0x40>
10001b40:	0019      	movs	r1, r3
10001b42:	0020      	movs	r0, r4
10001b44:	f7fe feb2 	bl	100008ac <irq_set_exclusive_handler>
10001b48:	2101      	movs	r1, #1
10001b4a:	0020      	movs	r0, r4
10001b4c:	f7fe fe84 	bl	10000858 <irq_set_enabled>
10001b50:	2301      	movs	r3, #1
10001b52:	40a3      	lsls	r3, r4
10001b54:	4a11      	ldr	r2, [pc, #68]	; (10001b9c <hardware_alarm_set_callback+0x84>)
10001b56:	6013      	str	r3, [r2, #0]
10001b58:	00a4      	lsls	r4, r4, #2
10001b5a:	4b11      	ldr	r3, [pc, #68]	; (10001ba0 <hardware_alarm_set_callback+0x88>)
10001b5c:	50e5      	str	r5, [r4, r3]
10001b5e:	f3bf 8f5f 	dmb	sy
10001b62:	4b0c      	ldr	r3, [pc, #48]	; (10001b94 <hardware_alarm_set_callback+0x7c>)
10001b64:	2200      	movs	r2, #0
10001b66:	601a      	str	r2, [r3, #0]
10001b68:	f386 8810 	msr	PRIMASK, r6
10001b6c:	bd70      	pop	{r4, r5, r6, pc}
10001b6e:	00a2      	lsls	r2, r4, #2
10001b70:	4b0b      	ldr	r3, [pc, #44]	; (10001ba0 <hardware_alarm_set_callback+0x88>)
10001b72:	2100      	movs	r1, #0
10001b74:	50d1      	str	r1, [r2, r3]
10001b76:	2201      	movs	r2, #1
10001b78:	40a2      	lsls	r2, r4
10001b7a:	490a      	ldr	r1, [pc, #40]	; (10001ba4 <hardware_alarm_set_callback+0x8c>)
10001b7c:	780b      	ldrb	r3, [r1, #0]
10001b7e:	4393      	bics	r3, r2
10001b80:	700b      	strb	r3, [r1, #0]
10001b82:	4905      	ldr	r1, [pc, #20]	; (10001b98 <hardware_alarm_set_callback+0x80>)
10001b84:	0020      	movs	r0, r4
10001b86:	f7fe ffd5 	bl	10000b34 <irq_remove_handler>
10001b8a:	2100      	movs	r1, #0
10001b8c:	0020      	movs	r0, r4
10001b8e:	f7fe fe63 	bl	10000858 <irq_set_enabled>
10001b92:	e7e4      	b.n	10001b5e <hardware_alarm_set_callback+0x46>
10001b94:	d0000128 	.word	0xd0000128
10001b98:	100019e9 	.word	0x100019e9
10001b9c:	40056038 	.word	0x40056038
10001ba0:	20001230 	.word	0x20001230
10001ba4:	20001a59 	.word	0x20001a59

10001ba8 <hardware_alarm_set_target>:
10001ba8:	b5f0      	push	{r4, r5, r6, r7, lr}
10001baa:	46de      	mov	lr, fp
10001bac:	b500      	push	{lr}
10001bae:	b084      	sub	sp, #16
10001bb0:	0004      	movs	r4, r0
10001bb2:	0015      	movs	r5, r2
10001bb4:	9201      	str	r2, [sp, #4]
10001bb6:	001e      	movs	r6, r3
10001bb8:	9302      	str	r3, [sp, #8]
10001bba:	f7ff ff69 	bl	10001a90 <time_us_64>
10001bbe:	9503      	str	r5, [sp, #12]
10001bc0:	428e      	cmp	r6, r1
10001bc2:	d802      	bhi.n	10001bca <hardware_alarm_set_target+0x22>
10001bc4:	d14e      	bne.n	10001c64 <hardware_alarm_set_target+0xbc>
10001bc6:	4285      	cmp	r5, r0
10001bc8:	d94c      	bls.n	10001c64 <hardware_alarm_set_target+0xbc>
10001bca:	f3ef 8b10 	mrs	fp, PRIMASK
10001bce:	b672      	cpsid	i
10001bd0:	4b27      	ldr	r3, [pc, #156]	; (10001c70 <hardware_alarm_set_target+0xc8>)
10001bd2:	681b      	ldr	r3, [r3, #0]
10001bd4:	2b00      	cmp	r3, #0
10001bd6:	d0fb      	beq.n	10001bd0 <hardware_alarm_set_target+0x28>
10001bd8:	f3bf 8f5f 	dmb	sy
10001bdc:	4a25      	ldr	r2, [pc, #148]	; (10001c74 <hardware_alarm_set_target+0xcc>)
10001bde:	7817      	ldrb	r7, [r2, #0]
10001be0:	2501      	movs	r5, #1
10001be2:	40a5      	lsls	r5, r4
10001be4:	b2eb      	uxtb	r3, r5
10001be6:	433b      	orrs	r3, r7
10001be8:	7013      	strb	r3, [r2, #0]
10001bea:	4b23      	ldr	r3, [pc, #140]	; (10001c78 <hardware_alarm_set_target+0xd0>)
10001bec:	635d      	str	r5, [r3, #52]	; 0x34
10001bee:	1d22      	adds	r2, r4, #4
10001bf0:	0092      	lsls	r2, r2, #2
10001bf2:	9901      	ldr	r1, [sp, #4]
10001bf4:	50d1      	str	r1, [r2, r3]
10001bf6:	00a2      	lsls	r2, r4, #2
10001bf8:	4920      	ldr	r1, [pc, #128]	; (10001c7c <hardware_alarm_set_target+0xd4>)
10001bfa:	9802      	ldr	r0, [sp, #8]
10001bfc:	5050      	str	r0, [r2, r1]
10001bfe:	6a1b      	ldr	r3, [r3, #32]
10001c00:	422b      	tst	r3, r5
10001c02:	d112      	bne.n	10001c2a <hardware_alarm_set_target+0x82>
10001c04:	4b1c      	ldr	r3, [pc, #112]	; (10001c78 <hardware_alarm_set_target+0xd0>)
10001c06:	6c1b      	ldr	r3, [r3, #64]	; 0x40
10001c08:	422b      	tst	r3, r5
10001c0a:	d008      	beq.n	10001c1e <hardware_alarm_set_target+0x76>
10001c0c:	2000      	movs	r0, #0
10001c0e:	f3bf 8f5f 	dmb	sy
10001c12:	4b17      	ldr	r3, [pc, #92]	; (10001c70 <hardware_alarm_set_target+0xc8>)
10001c14:	2200      	movs	r2, #0
10001c16:	601a      	str	r2, [r3, #0]
10001c18:	f38b 8810 	msr	PRIMASK, fp
10001c1c:	e023      	b.n	10001c66 <hardware_alarm_set_target+0xbe>
10001c1e:	4b18      	ldr	r3, [pc, #96]	; (10001c80 <hardware_alarm_set_target+0xd8>)
10001c20:	4a18      	ldr	r2, [pc, #96]	; (10001c84 <hardware_alarm_set_target+0xdc>)
10001c22:	21c5      	movs	r1, #197	; 0xc5
10001c24:	4818      	ldr	r0, [pc, #96]	; (10001c88 <hardware_alarm_set_target+0xe0>)
10001c26:	f000 fd67 	bl	100026f8 <__assert_func>
10001c2a:	f7ff ff31 	bl	10001a90 <time_us_64>
10001c2e:	428e      	cmp	r6, r1
10001c30:	d814      	bhi.n	10001c5c <hardware_alarm_set_target+0xb4>
10001c32:	d102      	bne.n	10001c3a <hardware_alarm_set_target+0x92>
10001c34:	9b03      	ldr	r3, [sp, #12]
10001c36:	4283      	cmp	r3, r0
10001c38:	d810      	bhi.n	10001c5c <hardware_alarm_set_target+0xb4>
10001c3a:	4b0e      	ldr	r3, [pc, #56]	; (10001c74 <hardware_alarm_set_target+0xcc>)
10001c3c:	781b      	ldrb	r3, [r3, #0]
10001c3e:	42bb      	cmp	r3, r7
10001c40:	d00e      	beq.n	10001c60 <hardware_alarm_set_target+0xb8>
10001c42:	4b0d      	ldr	r3, [pc, #52]	; (10001c78 <hardware_alarm_set_target+0xd0>)
10001c44:	621d      	str	r5, [r3, #32]
10001c46:	635d      	str	r5, [r3, #52]	; 0x34
10001c48:	201f      	movs	r0, #31
10001c4a:	4004      	ands	r4, r0
10001c4c:	2301      	movs	r3, #1
10001c4e:	40a3      	lsls	r3, r4
10001c50:	4a0e      	ldr	r2, [pc, #56]	; (10001c8c <hardware_alarm_set_target+0xe4>)
10001c52:	6013      	str	r3, [r2, #0]
10001c54:	4b07      	ldr	r3, [pc, #28]	; (10001c74 <hardware_alarm_set_target+0xcc>)
10001c56:	701f      	strb	r7, [r3, #0]
10001c58:	381e      	subs	r0, #30
10001c5a:	e7d8      	b.n	10001c0e <hardware_alarm_set_target+0x66>
10001c5c:	2000      	movs	r0, #0
10001c5e:	e7d6      	b.n	10001c0e <hardware_alarm_set_target+0x66>
10001c60:	2001      	movs	r0, #1
10001c62:	e7d4      	b.n	10001c0e <hardware_alarm_set_target+0x66>
10001c64:	2001      	movs	r0, #1
10001c66:	b004      	add	sp, #16
10001c68:	bc80      	pop	{r7}
10001c6a:	46bb      	mov	fp, r7
10001c6c:	bdf0      	pop	{r4, r5, r6, r7, pc}
10001c6e:	46c0      	nop			; (mov r8, r8)
10001c70:	d0000128 	.word	0xd0000128
10001c74:	20001a59 	.word	0x20001a59
10001c78:	40054000 	.word	0x40054000
10001c7c:	20001a28 	.word	0x20001a28
10001c80:	100076e0 	.word	0x100076e0
10001c84:	10007764 	.word	0x10007764
10001c88:	10007704 	.word	0x10007704
10001c8c:	e000e280 	.word	0xe000e280

10001c90 <hardware_alarm_cancel>:
10001c90:	f3ef 8c10 	mrs	ip, PRIMASK
10001c94:	b672      	cpsid	i
10001c96:	4b0b      	ldr	r3, [pc, #44]	; (10001cc4 <hardware_alarm_cancel+0x34>)
10001c98:	681b      	ldr	r3, [r3, #0]
10001c9a:	2b00      	cmp	r3, #0
10001c9c:	d0fb      	beq.n	10001c96 <hardware_alarm_cancel+0x6>
10001c9e:	f3bf 8f5f 	dmb	sy
10001ca2:	2301      	movs	r3, #1
10001ca4:	4083      	lsls	r3, r0
10001ca6:	4a08      	ldr	r2, [pc, #32]	; (10001cc8 <hardware_alarm_cancel+0x38>)
10001ca8:	6213      	str	r3, [r2, #32]
10001caa:	4908      	ldr	r1, [pc, #32]	; (10001ccc <hardware_alarm_cancel+0x3c>)
10001cac:	780a      	ldrb	r2, [r1, #0]
10001cae:	439a      	bics	r2, r3
10001cb0:	700a      	strb	r2, [r1, #0]
10001cb2:	f3bf 8f5f 	dmb	sy
10001cb6:	4b03      	ldr	r3, [pc, #12]	; (10001cc4 <hardware_alarm_cancel+0x34>)
10001cb8:	2200      	movs	r2, #0
10001cba:	601a      	str	r2, [r3, #0]
10001cbc:	f38c 8810 	msr	PRIMASK, ip
10001cc0:	4770      	bx	lr
10001cc2:	46c0      	nop			; (mov r8, r8)
10001cc4:	d0000128 	.word	0xd0000128
10001cc8:	40054000 	.word	0x40054000
10001ccc:	20001a59 	.word	0x20001a59

10001cd0 <ph_add_child_node>:
10001cd0:	b510      	push	{r4, lr}
10001cd2:	2900      	cmp	r1, #0
10001cd4:	d01e      	beq.n	10001d14 <ph_add_child_node+0x44>
10001cd6:	7b03      	ldrb	r3, [r0, #12]
10001cd8:	4299      	cmp	r1, r3
10001cda:	d81b      	bhi.n	10001d14 <ph_add_child_node+0x44>
10001cdc:	004b      	lsls	r3, r1, #1
10001cde:	185b      	adds	r3, r3, r1
10001ce0:	3b03      	subs	r3, #3
10001ce2:	6804      	ldr	r4, [r0, #0]
10001ce4:	46a4      	mov	ip, r4
10001ce6:	4463      	add	r3, ip
10001ce8:	2900      	cmp	r1, #0
10001cea:	d019      	beq.n	10001d20 <ph_add_child_node+0x50>
10001cec:	2a00      	cmp	r2, #0
10001cee:	d01d      	beq.n	10001d2c <ph_add_child_node+0x5c>
10001cf0:	4291      	cmp	r1, r2
10001cf2:	d021      	beq.n	10001d38 <ph_add_child_node+0x68>
10001cf4:	2a00      	cmp	r2, #0
10001cf6:	d025      	beq.n	10001d44 <ph_add_child_node+0x74>
10001cf8:	7b04      	ldrb	r4, [r0, #12]
10001cfa:	42a2      	cmp	r2, r4
10001cfc:	d822      	bhi.n	10001d44 <ph_add_child_node+0x74>
10001cfe:	6804      	ldr	r4, [r0, #0]
10001d00:	0050      	lsls	r0, r2, #1
10001d02:	1880      	adds	r0, r0, r2
10001d04:	3803      	subs	r0, #3
10001d06:	1820      	adds	r0, r4, r0
10001d08:	7081      	strb	r1, [r0, #2]
10001d0a:	7819      	ldrb	r1, [r3, #0]
10001d0c:	2900      	cmp	r1, #0
10001d0e:	d11f      	bne.n	10001d50 <ph_add_child_node+0x80>
10001d10:	701a      	strb	r2, [r3, #0]
10001d12:	bd10      	pop	{r4, pc}
10001d14:	4b10      	ldr	r3, [pc, #64]	; (10001d58 <ph_add_child_node+0x88>)
10001d16:	4a11      	ldr	r2, [pc, #68]	; (10001d5c <ph_add_child_node+0x8c>)
10001d18:	2168      	movs	r1, #104	; 0x68
10001d1a:	4811      	ldr	r0, [pc, #68]	; (10001d60 <ph_add_child_node+0x90>)
10001d1c:	f000 fcec 	bl	100026f8 <__assert_func>
10001d20:	4b10      	ldr	r3, [pc, #64]	; (10001d64 <ph_add_child_node+0x94>)
10001d22:	4a11      	ldr	r2, [pc, #68]	; (10001d68 <ph_add_child_node+0x98>)
10001d24:	316f      	adds	r1, #111	; 0x6f
10001d26:	480e      	ldr	r0, [pc, #56]	; (10001d60 <ph_add_child_node+0x90>)
10001d28:	f000 fce6 	bl	100026f8 <__assert_func>
10001d2c:	4b0f      	ldr	r3, [pc, #60]	; (10001d6c <ph_add_child_node+0x9c>)
10001d2e:	4a0e      	ldr	r2, [pc, #56]	; (10001d68 <ph_add_child_node+0x98>)
10001d30:	2170      	movs	r1, #112	; 0x70
10001d32:	480b      	ldr	r0, [pc, #44]	; (10001d60 <ph_add_child_node+0x90>)
10001d34:	f000 fce0 	bl	100026f8 <__assert_func>
10001d38:	4b0d      	ldr	r3, [pc, #52]	; (10001d70 <ph_add_child_node+0xa0>)
10001d3a:	4a0b      	ldr	r2, [pc, #44]	; (10001d68 <ph_add_child_node+0x98>)
10001d3c:	2171      	movs	r1, #113	; 0x71
10001d3e:	4808      	ldr	r0, [pc, #32]	; (10001d60 <ph_add_child_node+0x90>)
10001d40:	f000 fcda 	bl	100026f8 <__assert_func>
10001d44:	4b04      	ldr	r3, [pc, #16]	; (10001d58 <ph_add_child_node+0x88>)
10001d46:	4a05      	ldr	r2, [pc, #20]	; (10001d5c <ph_add_child_node+0x8c>)
10001d48:	2168      	movs	r1, #104	; 0x68
10001d4a:	4805      	ldr	r0, [pc, #20]	; (10001d60 <ph_add_child_node+0x90>)
10001d4c:	f000 fcd4 	bl	100026f8 <__assert_func>
10001d50:	7041      	strb	r1, [r0, #1]
10001d52:	701a      	strb	r2, [r3, #0]
10001d54:	e7dd      	b.n	10001d12 <ph_add_child_node+0x42>
10001d56:	46c0      	nop			; (mov r8, r8)
10001d58:	100073d0 	.word	0x100073d0
10001d5c:	100078a0 	.word	0x100078a0
10001d60:	100073ec 	.word	0x100073ec
10001d64:	10007454 	.word	0x10007454
10001d68:	1000788c 	.word	0x1000788c
10001d6c:	10007460 	.word	0x10007460
10001d70:	1000746c 	.word	0x1000746c

10001d74 <ph_merge_nodes>:
10001d74:	b570      	push	{r4, r5, r6, lr}
10001d76:	0006      	movs	r6, r0
10001d78:	000d      	movs	r5, r1
10001d7a:	0014      	movs	r4, r2
10001d7c:	2900      	cmp	r1, #0
10001d7e:	d014      	beq.n	10001daa <ph_merge_nodes+0x36>
10001d80:	2a00      	cmp	r2, #0
10001d82:	d014      	beq.n	10001dae <ph_merge_nodes+0x3a>
10001d84:	6880      	ldr	r0, [r0, #8]
10001d86:	6873      	ldr	r3, [r6, #4]
10001d88:	4798      	blx	r3
10001d8a:	2800      	cmp	r0, #0
10001d8c:	d006      	beq.n	10001d9c <ph_merge_nodes+0x28>
10001d8e:	0022      	movs	r2, r4
10001d90:	0029      	movs	r1, r5
10001d92:	0030      	movs	r0, r6
10001d94:	f7ff ff9c 	bl	10001cd0 <ph_add_child_node>
10001d98:	0028      	movs	r0, r5
10001d9a:	e007      	b.n	10001dac <ph_merge_nodes+0x38>
10001d9c:	002a      	movs	r2, r5
10001d9e:	0021      	movs	r1, r4
10001da0:	0030      	movs	r0, r6
10001da2:	f7ff ff95 	bl	10001cd0 <ph_add_child_node>
10001da6:	0020      	movs	r0, r4
10001da8:	e000      	b.n	10001dac <ph_merge_nodes+0x38>
10001daa:	0010      	movs	r0, r2
10001dac:	bd70      	pop	{r4, r5, r6, pc}
10001dae:	0008      	movs	r0, r1
10001db0:	e7fc      	b.n	10001dac <ph_merge_nodes+0x38>
	...

10001db4 <ph_clear>:
10001db4:	b510      	push	{r4, lr}
10001db6:	2300      	movs	r3, #0
10001db8:	7343      	strb	r3, [r0, #13]
10001dba:	3301      	adds	r3, #1
10001dbc:	7383      	strb	r3, [r0, #14]
10001dbe:	7b03      	ldrb	r3, [r0, #12]
10001dc0:	73c3      	strb	r3, [r0, #15]
10001dc2:	2301      	movs	r3, #1
10001dc4:	7b02      	ldrb	r2, [r0, #12]
10001dc6:	429a      	cmp	r2, r3
10001dc8:	d914      	bls.n	10001df4 <ph_clear+0x40>
10001dca:	2b00      	cmp	r3, #0
10001dcc:	d00c      	beq.n	10001de8 <ph_clear+0x34>
10001dce:	7b02      	ldrb	r2, [r0, #12]
10001dd0:	4293      	cmp	r3, r2
10001dd2:	d809      	bhi.n	10001de8 <ph_clear+0x34>
10001dd4:	005a      	lsls	r2, r3, #1
10001dd6:	18d2      	adds	r2, r2, r3
10001dd8:	3a03      	subs	r2, #3
10001dda:	6801      	ldr	r1, [r0, #0]
10001ddc:	468c      	mov	ip, r1
10001dde:	4462      	add	r2, ip
10001de0:	3301      	adds	r3, #1
10001de2:	b2db      	uxtb	r3, r3
10001de4:	7053      	strb	r3, [r2, #1]
10001de6:	e7ed      	b.n	10001dc4 <ph_clear+0x10>
10001de8:	4b0b      	ldr	r3, [pc, #44]	; (10001e18 <ph_clear+0x64>)
10001dea:	4a0c      	ldr	r2, [pc, #48]	; (10001e1c <ph_clear+0x68>)
10001dec:	2168      	movs	r1, #104	; 0x68
10001dee:	480c      	ldr	r0, [pc, #48]	; (10001e20 <ph_clear+0x6c>)
10001df0:	f000 fc82 	bl	100026f8 <__assert_func>
10001df4:	2a00      	cmp	r2, #0
10001df6:	d009      	beq.n	10001e0c <ph_clear+0x58>
10001df8:	4292      	cmp	r2, r2
10001dfa:	d807      	bhi.n	10001e0c <ph_clear+0x58>
10001dfc:	6801      	ldr	r1, [r0, #0]
10001dfe:	0053      	lsls	r3, r2, #1
10001e00:	189a      	adds	r2, r3, r2
10001e02:	3a03      	subs	r2, #3
10001e04:	188a      	adds	r2, r1, r2
10001e06:	2300      	movs	r3, #0
10001e08:	7053      	strb	r3, [r2, #1]
10001e0a:	bd10      	pop	{r4, pc}
10001e0c:	4b02      	ldr	r3, [pc, #8]	; (10001e18 <ph_clear+0x64>)
10001e0e:	4a03      	ldr	r2, [pc, #12]	; (10001e1c <ph_clear+0x68>)
10001e10:	2168      	movs	r1, #104	; 0x68
10001e12:	4803      	ldr	r0, [pc, #12]	; (10001e20 <ph_clear+0x6c>)
10001e14:	f000 fc70 	bl	100026f8 <__assert_func>
10001e18:	100073d0 	.word	0x100073d0
10001e1c:	100078a0 	.word	0x100078a0
10001e20:	100073ec 	.word	0x100073ec

10001e24 <ph_post_alloc_init>:
10001e24:	b510      	push	{r4, lr}
10001e26:	7301      	strb	r1, [r0, #12]
10001e28:	6042      	str	r2, [r0, #4]
10001e2a:	6083      	str	r3, [r0, #8]
10001e2c:	f7ff ffc2 	bl	10001db4 <ph_clear>
10001e30:	bd10      	pop	{r4, pc}
	...

10001e34 <ph_merge_two_pass>:
10001e34:	b570      	push	{r4, r5, r6, lr}
10001e36:	0004      	movs	r4, r0
10001e38:	1e08      	subs	r0, r1, #0
10001e3a:	d100      	bne.n	10001e3e <ph_merge_two_pass+0xa>
10001e3c:	bd70      	pop	{r4, r5, r6, pc}
10001e3e:	2900      	cmp	r1, #0
10001e40:	d034      	beq.n	10001eac <ph_merge_two_pass+0x78>
10001e42:	7b23      	ldrb	r3, [r4, #12]
10001e44:	4299      	cmp	r1, r3
10001e46:	d831      	bhi.n	10001eac <ph_merge_two_pass+0x78>
10001e48:	004b      	lsls	r3, r1, #1
10001e4a:	185b      	adds	r3, r3, r1
10001e4c:	3b03      	subs	r3, #3
10001e4e:	6822      	ldr	r2, [r4, #0]
10001e50:	4694      	mov	ip, r2
10001e52:	4463      	add	r3, ip
10001e54:	785a      	ldrb	r2, [r3, #1]
10001e56:	2a00      	cmp	r2, #0
10001e58:	d0f0      	beq.n	10001e3c <ph_merge_two_pass+0x8>
10001e5a:	d02d      	beq.n	10001eb8 <ph_merge_two_pass+0x84>
10001e5c:	7b23      	ldrb	r3, [r4, #12]
10001e5e:	429a      	cmp	r2, r3
10001e60:	d82a      	bhi.n	10001eb8 <ph_merge_two_pass+0x84>
10001e62:	0053      	lsls	r3, r2, #1
10001e64:	189b      	adds	r3, r3, r2
10001e66:	3b03      	subs	r3, #3
10001e68:	6821      	ldr	r1, [r4, #0]
10001e6a:	468c      	mov	ip, r1
10001e6c:	4463      	add	r3, ip
10001e6e:	785d      	ldrb	r5, [r3, #1]
10001e70:	2100      	movs	r1, #0
10001e72:	7059      	strb	r1, [r3, #1]
10001e74:	2800      	cmp	r0, #0
10001e76:	d025      	beq.n	10001ec4 <ph_merge_two_pass+0x90>
10001e78:	7b23      	ldrb	r3, [r4, #12]
10001e7a:	4298      	cmp	r0, r3
10001e7c:	d822      	bhi.n	10001ec4 <ph_merge_two_pass+0x90>
10001e7e:	0043      	lsls	r3, r0, #1
10001e80:	181b      	adds	r3, r3, r0
10001e82:	3b03      	subs	r3, #3
10001e84:	6821      	ldr	r1, [r4, #0]
10001e86:	468c      	mov	ip, r1
10001e88:	4463      	add	r3, ip
10001e8a:	2100      	movs	r1, #0
10001e8c:	7059      	strb	r1, [r3, #1]
10001e8e:	0001      	movs	r1, r0
10001e90:	0020      	movs	r0, r4
10001e92:	f7ff ff6f 	bl	10001d74 <ph_merge_nodes>
10001e96:	0006      	movs	r6, r0
10001e98:	0029      	movs	r1, r5
10001e9a:	0020      	movs	r0, r4
10001e9c:	f7ff ffca 	bl	10001e34 <ph_merge_two_pass>
10001ea0:	0002      	movs	r2, r0
10001ea2:	0031      	movs	r1, r6
10001ea4:	0020      	movs	r0, r4
10001ea6:	f7ff ff65 	bl	10001d74 <ph_merge_nodes>
10001eaa:	e7c7      	b.n	10001e3c <ph_merge_two_pass+0x8>
10001eac:	4b08      	ldr	r3, [pc, #32]	; (10001ed0 <ph_merge_two_pass+0x9c>)
10001eae:	4a09      	ldr	r2, [pc, #36]	; (10001ed4 <ph_merge_two_pass+0xa0>)
10001eb0:	2168      	movs	r1, #104	; 0x68
10001eb2:	4809      	ldr	r0, [pc, #36]	; (10001ed8 <ph_merge_two_pass+0xa4>)
10001eb4:	f000 fc20 	bl	100026f8 <__assert_func>
10001eb8:	4b05      	ldr	r3, [pc, #20]	; (10001ed0 <ph_merge_two_pass+0x9c>)
10001eba:	4a06      	ldr	r2, [pc, #24]	; (10001ed4 <ph_merge_two_pass+0xa0>)
10001ebc:	2168      	movs	r1, #104	; 0x68
10001ebe:	4806      	ldr	r0, [pc, #24]	; (10001ed8 <ph_merge_two_pass+0xa4>)
10001ec0:	f000 fc1a 	bl	100026f8 <__assert_func>
10001ec4:	4b02      	ldr	r3, [pc, #8]	; (10001ed0 <ph_merge_two_pass+0x9c>)
10001ec6:	4a03      	ldr	r2, [pc, #12]	; (10001ed4 <ph_merge_two_pass+0xa0>)
10001ec8:	2168      	movs	r1, #104	; 0x68
10001eca:	4803      	ldr	r0, [pc, #12]	; (10001ed8 <ph_merge_two_pass+0xa4>)
10001ecc:	f000 fc14 	bl	100026f8 <__assert_func>
10001ed0:	100073d0 	.word	0x100073d0
10001ed4:	100078a0 	.word	0x100078a0
10001ed8:	100073ec 	.word	0x100073ec

10001edc <ph_remove_any_head>:
10001edc:	b570      	push	{r4, r5, r6, lr}
10001ede:	0005      	movs	r5, r0
10001ee0:	000c      	movs	r4, r1
10001ee2:	0016      	movs	r6, r2
10001ee4:	2900      	cmp	r1, #0
10001ee6:	d02f      	beq.n	10001f48 <ph_remove_any_head+0x6c>
10001ee8:	d034      	beq.n	10001f54 <ph_remove_any_head+0x78>
10001eea:	7b03      	ldrb	r3, [r0, #12]
10001eec:	4299      	cmp	r1, r3
10001eee:	d831      	bhi.n	10001f54 <ph_remove_any_head+0x78>
10001ef0:	004b      	lsls	r3, r1, #1
10001ef2:	185b      	adds	r3, r3, r1
10001ef4:	3b03      	subs	r3, #3
10001ef6:	6802      	ldr	r2, [r0, #0]
10001ef8:	4694      	mov	ip, r2
10001efa:	4463      	add	r3, ip
10001efc:	785a      	ldrb	r2, [r3, #1]
10001efe:	2a00      	cmp	r2, #0
10001f00:	d12e      	bne.n	10001f60 <ph_remove_any_head+0x84>
10001f02:	789a      	ldrb	r2, [r3, #2]
10001f04:	2a00      	cmp	r2, #0
10001f06:	d131      	bne.n	10001f6c <ph_remove_any_head+0x90>
10001f08:	7819      	ldrb	r1, [r3, #0]
10001f0a:	f7ff ff93 	bl	10001e34 <ph_merge_two_pass>
10001f0e:	0003      	movs	r3, r0
10001f10:	2e00      	cmp	r6, #0
10001f12:	d00a      	beq.n	10001f2a <ph_remove_any_head+0x4e>
10001f14:	7bea      	ldrb	r2, [r5, #15]
10001f16:	2a00      	cmp	r2, #0
10001f18:	d12e      	bne.n	10001f78 <ph_remove_any_head+0x9c>
10001f1a:	7baa      	ldrb	r2, [r5, #14]
10001f1c:	2a00      	cmp	r2, #0
10001f1e:	d103      	bne.n	10001f28 <ph_remove_any_head+0x4c>
10001f20:	7bea      	ldrb	r2, [r5, #15]
10001f22:	2a00      	cmp	r2, #0
10001f24:	d13b      	bne.n	10001f9e <ph_remove_any_head+0xc2>
10001f26:	73ac      	strb	r4, [r5, #14]
10001f28:	73ec      	strb	r4, [r5, #15]
10001f2a:	2b00      	cmp	r3, #0
10001f2c:	d13d      	bne.n	10001faa <ph_remove_any_head+0xce>
10001f2e:	2c00      	cmp	r4, #0
10001f30:	d04f      	beq.n	10001fd2 <ph_remove_any_head+0xf6>
10001f32:	7b2b      	ldrb	r3, [r5, #12]
10001f34:	429c      	cmp	r4, r3
10001f36:	d84c      	bhi.n	10001fd2 <ph_remove_any_head+0xf6>
10001f38:	682b      	ldr	r3, [r5, #0]
10001f3a:	0061      	lsls	r1, r4, #1
10001f3c:	190c      	adds	r4, r1, r4
10001f3e:	3c03      	subs	r4, #3
10001f40:	191c      	adds	r4, r3, r4
10001f42:	2300      	movs	r3, #0
10001f44:	7063      	strb	r3, [r4, #1]
10001f46:	bd70      	pop	{r4, r5, r6, pc}
10001f48:	4b25      	ldr	r3, [pc, #148]	; (10001fe0 <ph_remove_any_head+0x104>)
10001f4a:	4a26      	ldr	r2, [pc, #152]	; (10001fe4 <ph_remove_any_head+0x108>)
10001f4c:	2138      	movs	r1, #56	; 0x38
10001f4e:	4826      	ldr	r0, [pc, #152]	; (10001fe8 <ph_remove_any_head+0x10c>)
10001f50:	f000 fbd2 	bl	100026f8 <__assert_func>
10001f54:	4b25      	ldr	r3, [pc, #148]	; (10001fec <ph_remove_any_head+0x110>)
10001f56:	4a26      	ldr	r2, [pc, #152]	; (10001ff0 <ph_remove_any_head+0x114>)
10001f58:	2168      	movs	r1, #104	; 0x68
10001f5a:	4826      	ldr	r0, [pc, #152]	; (10001ff4 <ph_remove_any_head+0x118>)
10001f5c:	f000 fbcc 	bl	100026f8 <__assert_func>
10001f60:	4b25      	ldr	r3, [pc, #148]	; (10001ff8 <ph_remove_any_head+0x11c>)
10001f62:	4a20      	ldr	r2, [pc, #128]	; (10001fe4 <ph_remove_any_head+0x108>)
10001f64:	213a      	movs	r1, #58	; 0x3a
10001f66:	4820      	ldr	r0, [pc, #128]	; (10001fe8 <ph_remove_any_head+0x10c>)
10001f68:	f000 fbc6 	bl	100026f8 <__assert_func>
10001f6c:	4b23      	ldr	r3, [pc, #140]	; (10001ffc <ph_remove_any_head+0x120>)
10001f6e:	4a1d      	ldr	r2, [pc, #116]	; (10001fe4 <ph_remove_any_head+0x108>)
10001f70:	213b      	movs	r1, #59	; 0x3b
10001f72:	481d      	ldr	r0, [pc, #116]	; (10001fe8 <ph_remove_any_head+0x10c>)
10001f74:	f000 fbc0 	bl	100026f8 <__assert_func>
10001f78:	2a00      	cmp	r2, #0
10001f7a:	d00a      	beq.n	10001f92 <ph_remove_any_head+0xb6>
10001f7c:	7b29      	ldrb	r1, [r5, #12]
10001f7e:	428a      	cmp	r2, r1
10001f80:	d807      	bhi.n	10001f92 <ph_remove_any_head+0xb6>
10001f82:	0051      	lsls	r1, r2, #1
10001f84:	188a      	adds	r2, r1, r2
10001f86:	3a03      	subs	r2, #3
10001f88:	6829      	ldr	r1, [r5, #0]
10001f8a:	468c      	mov	ip, r1
10001f8c:	4462      	add	r2, ip
10001f8e:	7054      	strb	r4, [r2, #1]
10001f90:	e7c3      	b.n	10001f1a <ph_remove_any_head+0x3e>
10001f92:	4b16      	ldr	r3, [pc, #88]	; (10001fec <ph_remove_any_head+0x110>)
10001f94:	4a16      	ldr	r2, [pc, #88]	; (10001ff0 <ph_remove_any_head+0x114>)
10001f96:	2168      	movs	r1, #104	; 0x68
10001f98:	4816      	ldr	r0, [pc, #88]	; (10001ff4 <ph_remove_any_head+0x118>)
10001f9a:	f000 fbad 	bl	100026f8 <__assert_func>
10001f9e:	4b18      	ldr	r3, [pc, #96]	; (10002000 <ph_remove_any_head+0x124>)
10001fa0:	4a10      	ldr	r2, [pc, #64]	; (10001fe4 <ph_remove_any_head+0x108>)
10001fa2:	2142      	movs	r1, #66	; 0x42
10001fa4:	4810      	ldr	r0, [pc, #64]	; (10001fe8 <ph_remove_any_head+0x10c>)
10001fa6:	f000 fba7 	bl	100026f8 <__assert_func>
10001faa:	2b00      	cmp	r3, #0
10001fac:	d00b      	beq.n	10001fc6 <ph_remove_any_head+0xea>
10001fae:	7b2a      	ldrb	r2, [r5, #12]
10001fb0:	4293      	cmp	r3, r2
10001fb2:	d808      	bhi.n	10001fc6 <ph_remove_any_head+0xea>
10001fb4:	0043      	lsls	r3, r0, #1
10001fb6:	181b      	adds	r3, r3, r0
10001fb8:	3b03      	subs	r3, #3
10001fba:	682a      	ldr	r2, [r5, #0]
10001fbc:	4694      	mov	ip, r2
10001fbe:	4463      	add	r3, ip
10001fc0:	2200      	movs	r2, #0
10001fc2:	709a      	strb	r2, [r3, #2]
10001fc4:	e7b3      	b.n	10001f2e <ph_remove_any_head+0x52>
10001fc6:	4b09      	ldr	r3, [pc, #36]	; (10001fec <ph_remove_any_head+0x110>)
10001fc8:	4a09      	ldr	r2, [pc, #36]	; (10001ff0 <ph_remove_any_head+0x114>)
10001fca:	2168      	movs	r1, #104	; 0x68
10001fcc:	4809      	ldr	r0, [pc, #36]	; (10001ff4 <ph_remove_any_head+0x118>)
10001fce:	f000 fb93 	bl	100026f8 <__assert_func>
10001fd2:	4b06      	ldr	r3, [pc, #24]	; (10001fec <ph_remove_any_head+0x110>)
10001fd4:	4a06      	ldr	r2, [pc, #24]	; (10001ff0 <ph_remove_any_head+0x114>)
10001fd6:	2168      	movs	r1, #104	; 0x68
10001fd8:	4806      	ldr	r0, [pc, #24]	; (10001ff4 <ph_remove_any_head+0x118>)
10001fda:	f000 fb8d 	bl	100026f8 <__assert_func>
10001fde:	46c0      	nop			; (mov r8, r8)
10001fe0:	10007798 	.word	0x10007798
10001fe4:	10007878 	.word	0x10007878
10001fe8:	100077a0 	.word	0x100077a0
10001fec:	100073d0 	.word	0x100073d0
10001ff0:	100078a0 	.word	0x100078a0
10001ff4:	100073ec 	.word	0x100073ec
10001ff8:	100077f4 	.word	0x100077f4
10001ffc:	1000781c 	.word	0x1000781c
10002000:	10007530 	.word	0x10007530

10002004 <ph_remove_head>:
10002004:	b570      	push	{r4, r5, r6, lr}
10002006:	0004      	movs	r4, r0
10002008:	000a      	movs	r2, r1
1000200a:	7b45      	ldrb	r5, [r0, #13]
1000200c:	0029      	movs	r1, r5
1000200e:	f7ff ff65 	bl	10001edc <ph_remove_any_head>
10002012:	7360      	strb	r0, [r4, #13]
10002014:	0028      	movs	r0, r5
10002016:	bd70      	pop	{r4, r5, r6, pc}

10002018 <ph_remove_and_free_node>:
10002018:	b570      	push	{r4, r5, r6, lr}
1000201a:	0004      	movs	r4, r0
1000201c:	2900      	cmp	r1, #0
1000201e:	d067      	beq.n	100020f0 <ph_remove_and_free_node+0xd8>
10002020:	7b43      	ldrb	r3, [r0, #13]
10002022:	428b      	cmp	r3, r1
10002024:	d00e      	beq.n	10002044 <ph_remove_and_free_node+0x2c>
10002026:	2900      	cmp	r1, #0
10002028:	d011      	beq.n	1000204e <ph_remove_and_free_node+0x36>
1000202a:	7b03      	ldrb	r3, [r0, #12]
1000202c:	4299      	cmp	r1, r3
1000202e:	d80e      	bhi.n	1000204e <ph_remove_and_free_node+0x36>
10002030:	004b      	lsls	r3, r1, #1
10002032:	185b      	adds	r3, r3, r1
10002034:	3b03      	subs	r3, #3
10002036:	6802      	ldr	r2, [r0, #0]
10002038:	18d0      	adds	r0, r2, r3
1000203a:	7883      	ldrb	r3, [r0, #2]
1000203c:	2b00      	cmp	r3, #0
1000203e:	d10c      	bne.n	1000205a <ph_remove_and_free_node+0x42>
10002040:	2000      	movs	r0, #0
10002042:	e056      	b.n	100020f2 <ph_remove_and_free_node+0xda>
10002044:	2101      	movs	r1, #1
10002046:	f7ff ffdd 	bl	10002004 <ph_remove_head>
1000204a:	2001      	movs	r0, #1
1000204c:	e051      	b.n	100020f2 <ph_remove_and_free_node+0xda>
1000204e:	4b29      	ldr	r3, [pc, #164]	; (100020f4 <ph_remove_and_free_node+0xdc>)
10002050:	4a29      	ldr	r2, [pc, #164]	; (100020f8 <ph_remove_and_free_node+0xe0>)
10002052:	2168      	movs	r1, #104	; 0x68
10002054:	4829      	ldr	r0, [pc, #164]	; (100020fc <ph_remove_and_free_node+0xe4>)
10002056:	f000 fb4f 	bl	100026f8 <__assert_func>
1000205a:	2b00      	cmp	r3, #0
1000205c:	d020      	beq.n	100020a0 <ph_remove_and_free_node+0x88>
1000205e:	7b22      	ldrb	r2, [r4, #12]
10002060:	4293      	cmp	r3, r2
10002062:	d81d      	bhi.n	100020a0 <ph_remove_and_free_node+0x88>
10002064:	005a      	lsls	r2, r3, #1
10002066:	18d3      	adds	r3, r2, r3
10002068:	3b03      	subs	r3, #3
1000206a:	6822      	ldr	r2, [r4, #0]
1000206c:	18d2      	adds	r2, r2, r3
1000206e:	6825      	ldr	r5, [r4, #0]
10002070:	5ceb      	ldrb	r3, [r5, r3]
10002072:	428b      	cmp	r3, r1
10002074:	d01a      	beq.n	100020ac <ph_remove_and_free_node+0x94>
10002076:	2b00      	cmp	r3, #0
10002078:	d01b      	beq.n	100020b2 <ph_remove_and_free_node+0x9a>
1000207a:	7b22      	ldrb	r2, [r4, #12]
1000207c:	4293      	cmp	r3, r2
1000207e:	d818      	bhi.n	100020b2 <ph_remove_and_free_node+0x9a>
10002080:	005a      	lsls	r2, r3, #1
10002082:	18d3      	adds	r3, r2, r3
10002084:	3b03      	subs	r3, #3
10002086:	6822      	ldr	r2, [r4, #0]
10002088:	18d2      	adds	r2, r2, r3
1000208a:	7853      	ldrb	r3, [r2, #1]
1000208c:	428b      	cmp	r3, r1
1000208e:	d016      	beq.n	100020be <ph_remove_and_free_node+0xa6>
10002090:	2b00      	cmp	r3, #0
10002092:	d1f0      	bne.n	10002076 <ph_remove_and_free_node+0x5e>
10002094:	4b1a      	ldr	r3, [pc, #104]	; (10002100 <ph_remove_and_free_node+0xe8>)
10002096:	4a1b      	ldr	r2, [pc, #108]	; (10002104 <ph_remove_and_free_node+0xec>)
10002098:	216b      	movs	r1, #107	; 0x6b
1000209a:	481b      	ldr	r0, [pc, #108]	; (10002108 <ph_remove_and_free_node+0xf0>)
1000209c:	f000 fb2c 	bl	100026f8 <__assert_func>
100020a0:	4b14      	ldr	r3, [pc, #80]	; (100020f4 <ph_remove_and_free_node+0xdc>)
100020a2:	4a15      	ldr	r2, [pc, #84]	; (100020f8 <ph_remove_and_free_node+0xe0>)
100020a4:	2168      	movs	r1, #104	; 0x68
100020a6:	4815      	ldr	r0, [pc, #84]	; (100020fc <ph_remove_and_free_node+0xe4>)
100020a8:	f000 fb26 	bl	100026f8 <__assert_func>
100020ac:	7843      	ldrb	r3, [r0, #1]
100020ae:	7013      	strb	r3, [r2, #0]
100020b0:	e007      	b.n	100020c2 <ph_remove_and_free_node+0xaa>
100020b2:	4b10      	ldr	r3, [pc, #64]	; (100020f4 <ph_remove_and_free_node+0xdc>)
100020b4:	4a10      	ldr	r2, [pc, #64]	; (100020f8 <ph_remove_and_free_node+0xe0>)
100020b6:	2168      	movs	r1, #104	; 0x68
100020b8:	4810      	ldr	r0, [pc, #64]	; (100020fc <ph_remove_and_free_node+0xe4>)
100020ba:	f000 fb1d 	bl	100026f8 <__assert_func>
100020be:	7843      	ldrb	r3, [r0, #1]
100020c0:	7053      	strb	r3, [r2, #1]
100020c2:	2300      	movs	r3, #0
100020c4:	7083      	strb	r3, [r0, #2]
100020c6:	7043      	strb	r3, [r0, #1]
100020c8:	2201      	movs	r2, #1
100020ca:	0020      	movs	r0, r4
100020cc:	f7ff ff06 	bl	10001edc <ph_remove_any_head>
100020d0:	0002      	movs	r2, r0
100020d2:	7b61      	ldrb	r1, [r4, #13]
100020d4:	4281      	cmp	r1, r0
100020d6:	d005      	beq.n	100020e4 <ph_remove_and_free_node+0xcc>
100020d8:	0020      	movs	r0, r4
100020da:	f7ff fe4b 	bl	10001d74 <ph_merge_nodes>
100020de:	7360      	strb	r0, [r4, #13]
100020e0:	2001      	movs	r0, #1
100020e2:	e006      	b.n	100020f2 <ph_remove_and_free_node+0xda>
100020e4:	4b09      	ldr	r3, [pc, #36]	; (1000210c <ph_remove_and_free_node+0xf4>)
100020e6:	4a07      	ldr	r2, [pc, #28]	; (10002104 <ph_remove_and_free_node+0xec>)
100020e8:	2171      	movs	r1, #113	; 0x71
100020ea:	4807      	ldr	r0, [pc, #28]	; (10002108 <ph_remove_and_free_node+0xf0>)
100020ec:	f000 fb04 	bl	100026f8 <__assert_func>
100020f0:	2000      	movs	r0, #0
100020f2:	bd70      	pop	{r4, r5, r6, pc}
100020f4:	100073d0 	.word	0x100073d0
100020f8:	100078a0 	.word	0x100078a0
100020fc:	100073ec 	.word	0x100073ec
10002100:	10007124 	.word	0x10007124
10002104:	10007860 	.word	0x10007860
10002108:	100077a0 	.word	0x100077a0
1000210c:	10007840 	.word	0x10007840

10002110 <uart_disable_before_lcr_write>:
10002110:	b570      	push	{r4, r5, r6, lr}
10002112:	6b04      	ldr	r4, [r0, #48]	; 0x30
10002114:	07e3      	lsls	r3, r4, #31
10002116:	d401      	bmi.n	1000211c <uart_disable_before_lcr_write+0xc>
10002118:	0020      	movs	r0, r4
1000211a:	bd70      	pop	{r4, r5, r6, pc}
1000211c:	0002      	movs	r2, r0
1000211e:	3230      	adds	r2, #48	; 0x30
10002120:	23c0      	movs	r3, #192	; 0xc0
10002122:	019b      	lsls	r3, r3, #6
10002124:	4313      	orrs	r3, r2
10002126:	4a0a      	ldr	r2, [pc, #40]	; (10002150 <uart_disable_before_lcr_write+0x40>)
10002128:	601a      	str	r2, [r3, #0]
1000212a:	6a45      	ldr	r5, [r0, #36]	; 0x24
1000212c:	6a82      	ldr	r2, [r0, #40]	; 0x28
1000212e:	01ad      	lsls	r5, r5, #6
10002130:	18ad      	adds	r5, r5, r2
10002132:	02ad      	lsls	r5, r5, #10
10002134:	2006      	movs	r0, #6
10002136:	f000 f9bd 	bl	100024b4 <clock_get_hz>
1000213a:	4906      	ldr	r1, [pc, #24]	; (10002154 <uart_disable_before_lcr_write+0x44>)
1000213c:	f001 fc8a 	bl	10003a54 <__wrap___aeabi_uidiv>
10002140:	0001      	movs	r1, r0
10002142:	0028      	movs	r0, r5
10002144:	f001 fc86 	bl	10003a54 <__wrap___aeabi_uidiv>
10002148:	2100      	movs	r1, #0
1000214a:	f7ff fcc1 	bl	10001ad0 <busy_wait_us>
1000214e:	e7e3      	b.n	10002118 <uart_disable_before_lcr_write+0x8>
10002150:	00000301 	.word	0x00000301
10002154:	00000e4e 	.word	0x00000e4e

10002158 <uart_write_lcr_bits_masked>:
10002158:	b570      	push	{r4, r5, r6, lr}
1000215a:	0004      	movs	r4, r0
1000215c:	000e      	movs	r6, r1
1000215e:	0015      	movs	r5, r2
10002160:	f7ff ffd6 	bl	10002110 <uart_disable_before_lcr_write>
10002164:	0022      	movs	r2, r4
10002166:	322c      	adds	r2, #44	; 0x2c
10002168:	6ae1      	ldr	r1, [r4, #44]	; 0x2c
1000216a:	404e      	eors	r6, r1
1000216c:	4035      	ands	r5, r6
1000216e:	2380      	movs	r3, #128	; 0x80
10002170:	015b      	lsls	r3, r3, #5
10002172:	4313      	orrs	r3, r2
10002174:	601d      	str	r5, [r3, #0]
10002176:	6320      	str	r0, [r4, #48]	; 0x30
10002178:	bd70      	pop	{r4, r5, r6, pc}
	...

1000217c <uart_set_baudrate>:
1000217c:	b570      	push	{r4, r5, r6, lr}
1000217e:	0005      	movs	r5, r0
10002180:	000c      	movs	r4, r1
10002182:	2006      	movs	r0, #6
10002184:	f000 f996 	bl	100024b4 <clock_get_hz>
10002188:	00c0      	lsls	r0, r0, #3
1000218a:	0021      	movs	r1, r4
1000218c:	f001 fc62 	bl	10003a54 <__wrap___aeabi_uidiv>
10002190:	09c6      	lsrs	r6, r0, #7
10002192:	d008      	beq.n	100021a6 <uart_set_baudrate+0x2a>
10002194:	4b0e      	ldr	r3, [pc, #56]	; (100021d0 <uart_set_baudrate+0x54>)
10002196:	429e      	cmp	r6, r3
10002198:	d816      	bhi.n	100021c8 <uart_set_baudrate+0x4c>
1000219a:	237f      	movs	r3, #127	; 0x7f
1000219c:	4018      	ands	r0, r3
1000219e:	3001      	adds	r0, #1
100021a0:	0034      	movs	r4, r6
100021a2:	0846      	lsrs	r6, r0, #1
100021a4:	e000      	b.n	100021a8 <uart_set_baudrate+0x2c>
100021a6:	2401      	movs	r4, #1
100021a8:	626c      	str	r4, [r5, #36]	; 0x24
100021aa:	62ae      	str	r6, [r5, #40]	; 0x28
100021ac:	2200      	movs	r2, #0
100021ae:	2100      	movs	r1, #0
100021b0:	0028      	movs	r0, r5
100021b2:	f7ff ffd1 	bl	10002158 <uart_write_lcr_bits_masked>
100021b6:	2006      	movs	r0, #6
100021b8:	f000 f97c 	bl	100024b4 <clock_get_hz>
100021bc:	0080      	lsls	r0, r0, #2
100021be:	01a1      	lsls	r1, r4, #6
100021c0:	1989      	adds	r1, r1, r6
100021c2:	f001 fc47 	bl	10003a54 <__wrap___aeabi_uidiv>
100021c6:	bd70      	pop	{r4, r5, r6, pc}
100021c8:	2600      	movs	r6, #0
100021ca:	4c02      	ldr	r4, [pc, #8]	; (100021d4 <uart_set_baudrate+0x58>)
100021cc:	e7ec      	b.n	100021a8 <uart_set_baudrate+0x2c>
100021ce:	46c0      	nop			; (mov r8, r8)
100021d0:	0000fffe 	.word	0x0000fffe
100021d4:	0000ffff 	.word	0x0000ffff

100021d8 <uart_set_format>:
100021d8:	b510      	push	{r4, lr}
100021da:	3905      	subs	r1, #5
100021dc:	0149      	lsls	r1, r1, #5
100021de:	3a01      	subs	r2, #1
100021e0:	00d2      	lsls	r2, r2, #3
100021e2:	4311      	orrs	r1, r2
100021e4:	2b00      	cmp	r3, #0
100021e6:	d009      	beq.n	100021fc <uart_set_format+0x24>
100021e8:	2202      	movs	r2, #2
100021ea:	430a      	orrs	r2, r1
100021ec:	2b01      	cmp	r3, #1
100021ee:	d007      	beq.n	10002200 <uart_set_format+0x28>
100021f0:	2100      	movs	r1, #0
100021f2:	4311      	orrs	r1, r2
100021f4:	226e      	movs	r2, #110	; 0x6e
100021f6:	f7ff ffaf 	bl	10002158 <uart_write_lcr_bits_masked>
100021fa:	bd10      	pop	{r4, pc}
100021fc:	2200      	movs	r2, #0
100021fe:	e7f4      	b.n	100021ea <uart_set_format+0x12>
10002200:	2104      	movs	r1, #4
10002202:	e7f6      	b.n	100021f2 <uart_set_format+0x1a>

10002204 <uart_set_translate_crlf>:
10002204:	2900      	cmp	r1, #0
10002206:	d009      	beq.n	1000221c <uart_set_translate_crlf+0x18>
10002208:	220a      	movs	r2, #10
1000220a:	4b06      	ldr	r3, [pc, #24]	; (10002224 <uart_set_translate_crlf+0x20>)
1000220c:	469c      	mov	ip, r3
1000220e:	4460      	add	r0, ip
10002210:	4243      	negs	r3, r0
10002212:	4158      	adcs	r0, r3
10002214:	0040      	lsls	r0, r0, #1
10002216:	4b04      	ldr	r3, [pc, #16]	; (10002228 <uart_set_translate_crlf+0x24>)
10002218:	52c2      	strh	r2, [r0, r3]
1000221a:	4770      	bx	lr
1000221c:	2280      	movs	r2, #128	; 0x80
1000221e:	0052      	lsls	r2, r2, #1
10002220:	e7f3      	b.n	1000220a <uart_set_translate_crlf+0x6>
10002222:	46c0      	nop			; (mov r8, r8)
10002224:	bffc8000 	.word	0xbffc8000
10002228:	20001a38 	.word	0x20001a38

1000222c <uart_init>:
1000222c:	b570      	push	{r4, r5, r6, lr}
1000222e:	0005      	movs	r5, r0
10002230:	000c      	movs	r4, r1
10002232:	2006      	movs	r0, #6
10002234:	f000 f93e 	bl	100024b4 <clock_get_hz>
10002238:	1e06      	subs	r6, r0, #0
1000223a:	d027      	beq.n	1000228c <uart_init+0x60>
1000223c:	4b16      	ldr	r3, [pc, #88]	; (10002298 <uart_init+0x6c>)
1000223e:	429d      	cmp	r5, r3
10002240:	d026      	beq.n	10002290 <uart_init+0x64>
10002242:	2280      	movs	r2, #128	; 0x80
10002244:	03d2      	lsls	r2, r2, #15
10002246:	4b15      	ldr	r3, [pc, #84]	; (1000229c <uart_init+0x70>)
10002248:	601a      	str	r2, [r3, #0]
1000224a:	4b15      	ldr	r3, [pc, #84]	; (100022a0 <uart_init+0x74>)
1000224c:	601a      	str	r2, [r3, #0]
1000224e:	4b15      	ldr	r3, [pc, #84]	; (100022a4 <uart_init+0x78>)
10002250:	689b      	ldr	r3, [r3, #8]
10002252:	0011      	movs	r1, r2
10002254:	4399      	bics	r1, r3
10002256:	d1fa      	bne.n	1000224e <uart_init+0x22>
10002258:	2100      	movs	r1, #0
1000225a:	0028      	movs	r0, r5
1000225c:	f7ff ffd2 	bl	10002204 <uart_set_translate_crlf>
10002260:	0021      	movs	r1, r4
10002262:	0028      	movs	r0, r5
10002264:	f7ff ff8a 	bl	1000217c <uart_set_baudrate>
10002268:	0006      	movs	r6, r0
1000226a:	2300      	movs	r3, #0
1000226c:	2201      	movs	r2, #1
1000226e:	2108      	movs	r1, #8
10002270:	0028      	movs	r0, r5
10002272:	f7ff ffb1 	bl	100021d8 <uart_set_format>
10002276:	002a      	movs	r2, r5
10002278:	322c      	adds	r2, #44	; 0x2c
1000227a:	2380      	movs	r3, #128	; 0x80
1000227c:	019b      	lsls	r3, r3, #6
1000227e:	4313      	orrs	r3, r2
10002280:	2210      	movs	r2, #16
10002282:	601a      	str	r2, [r3, #0]
10002284:	4b08      	ldr	r3, [pc, #32]	; (100022a8 <uart_init+0x7c>)
10002286:	632b      	str	r3, [r5, #48]	; 0x30
10002288:	2303      	movs	r3, #3
1000228a:	64ab      	str	r3, [r5, #72]	; 0x48
1000228c:	0030      	movs	r0, r6
1000228e:	bd70      	pop	{r4, r5, r6, pc}
10002290:	2280      	movs	r2, #128	; 0x80
10002292:	0412      	lsls	r2, r2, #16
10002294:	e7d7      	b.n	10002246 <uart_init+0x1a>
10002296:	46c0      	nop			; (mov r8, r8)
10002298:	40038000 	.word	0x40038000
1000229c:	4000e000 	.word	0x4000e000
100022a0:	4000f000 	.word	0x4000f000
100022a4:	4000c000 	.word	0x4000c000
100022a8:	00000301 	.word	0x00000301

100022ac <clock_configure>:
100022ac:	b5f8      	push	{r3, r4, r5, r6, r7, lr}
100022ae:	46de      	mov	lr, fp
100022b0:	4657      	mov	r7, sl
100022b2:	464e      	mov	r6, r9
100022b4:	4645      	mov	r5, r8
100022b6:	b5e0      	push	{r5, r6, r7, lr}
100022b8:	0005      	movs	r5, r0
100022ba:	000f      	movs	r7, r1
100022bc:	4692      	mov	sl, r2
100022be:	9a0a      	ldr	r2, [sp, #40]	; 0x28
100022c0:	4293      	cmp	r3, r2
100022c2:	d350      	bcc.n	10002366 <clock_configure+0xba>
100022c4:	0e1a      	lsrs	r2, r3, #24
100022c6:	4691      	mov	r9, r2
100022c8:	021e      	lsls	r6, r3, #8
100022ca:	9a0a      	ldr	r2, [sp, #40]	; 0x28
100022cc:	2300      	movs	r3, #0
100022ce:	0030      	movs	r0, r6
100022d0:	4649      	mov	r1, r9
100022d2:	f001 fbfd 	bl	10003ad0 <__wrap___aeabi_uldivmod>
100022d6:	4680      	mov	r8, r0
100022d8:	006c      	lsls	r4, r5, #1
100022da:	1964      	adds	r4, r4, r5
100022dc:	00a4      	lsls	r4, r4, #2
100022de:	4b30      	ldr	r3, [pc, #192]	; (100023a0 <clock_configure+0xf4>)
100022e0:	469c      	mov	ip, r3
100022e2:	4464      	add	r4, ip
100022e4:	6863      	ldr	r3, [r4, #4]
100022e6:	4283      	cmp	r3, r0
100022e8:	d200      	bcs.n	100022ec <clock_configure+0x40>
100022ea:	6060      	str	r0, [r4, #4]
100022ec:	1f2b      	subs	r3, r5, #4
100022ee:	b2db      	uxtb	r3, r3
100022f0:	469b      	mov	fp, r3
100022f2:	2b01      	cmp	r3, #1
100022f4:	d93d      	bls.n	10002372 <clock_configure+0xc6>
100022f6:	23c0      	movs	r3, #192	; 0xc0
100022f8:	019b      	lsls	r3, r3, #6
100022fa:	4323      	orrs	r3, r4
100022fc:	2280      	movs	r2, #128	; 0x80
100022fe:	0112      	lsls	r2, r2, #4
10002300:	601a      	str	r2, [r3, #0]
10002302:	00ab      	lsls	r3, r5, #2
10002304:	4a27      	ldr	r2, [pc, #156]	; (100023a4 <clock_configure+0xf8>)
10002306:	5899      	ldr	r1, [r3, r2]
10002308:	2900      	cmp	r1, #0
1000230a:	d007      	beq.n	1000231c <clock_configure+0x70>
1000230c:	6950      	ldr	r0, [r2, #20]
1000230e:	f001 fba1 	bl	10003a54 <__wrap___aeabi_uidiv>
10002312:	1c43      	adds	r3, r0, #1
10002314:	0058      	lsls	r0, r3, #1
10002316:	18c0      	adds	r0, r0, r3
10002318:	3803      	subs	r0, #3
1000231a:	d2fd      	bcs.n	10002318 <clock_configure+0x6c>
1000231c:	4653      	mov	r3, sl
1000231e:	015a      	lsls	r2, r3, #5
10002320:	6823      	ldr	r3, [r4, #0]
10002322:	405a      	eors	r2, r3
10002324:	23e0      	movs	r3, #224	; 0xe0
10002326:	401a      	ands	r2, r3
10002328:	2380      	movs	r3, #128	; 0x80
1000232a:	015b      	lsls	r3, r3, #5
1000232c:	4323      	orrs	r3, r4
1000232e:	601a      	str	r2, [r3, #0]
10002330:	465a      	mov	r2, fp
10002332:	2a01      	cmp	r2, #1
10002334:	d928      	bls.n	10002388 <clock_configure+0xdc>
10002336:	2380      	movs	r3, #128	; 0x80
10002338:	019b      	lsls	r3, r3, #6
1000233a:	4323      	orrs	r3, r4
1000233c:	2280      	movs	r2, #128	; 0x80
1000233e:	0112      	lsls	r2, r2, #4
10002340:	601a      	str	r2, [r3, #0]
10002342:	4643      	mov	r3, r8
10002344:	6063      	str	r3, [r4, #4]
10002346:	4642      	mov	r2, r8
10002348:	2300      	movs	r3, #0
1000234a:	0030      	movs	r0, r6
1000234c:	4649      	mov	r1, r9
1000234e:	f001 fbbf 	bl	10003ad0 <__wrap___aeabi_uldivmod>
10002352:	00ad      	lsls	r5, r5, #2
10002354:	4b13      	ldr	r3, [pc, #76]	; (100023a4 <clock_configure+0xf8>)
10002356:	5158      	str	r0, [r3, r5]
10002358:	2001      	movs	r0, #1
1000235a:	bcf0      	pop	{r4, r5, r6, r7}
1000235c:	46bb      	mov	fp, r7
1000235e:	46b2      	mov	sl, r6
10002360:	46a9      	mov	r9, r5
10002362:	46a0      	mov	r8, r4
10002364:	bdf8      	pop	{r3, r4, r5, r6, r7, pc}
10002366:	4b10      	ldr	r3, [pc, #64]	; (100023a8 <clock_configure+0xfc>)
10002368:	4a10      	ldr	r2, [pc, #64]	; (100023ac <clock_configure+0x100>)
1000236a:	2133      	movs	r1, #51	; 0x33
1000236c:	4810      	ldr	r0, [pc, #64]	; (100023b0 <clock_configure+0x104>)
1000236e:	f000 f9c3 	bl	100026f8 <__assert_func>
10002372:	2f01      	cmp	r7, #1
10002374:	d1bf      	bne.n	100022f6 <clock_configure+0x4a>
10002376:	23c0      	movs	r3, #192	; 0xc0
10002378:	019b      	lsls	r3, r3, #6
1000237a:	4323      	orrs	r3, r4
1000237c:	2203      	movs	r2, #3
1000237e:	601a      	str	r2, [r3, #0]
10002380:	68a3      	ldr	r3, [r4, #8]
10002382:	07db      	lsls	r3, r3, #31
10002384:	d5fc      	bpl.n	10002380 <clock_configure+0xd4>
10002386:	e7c9      	b.n	1000231c <clock_configure+0x70>
10002388:	6821      	ldr	r1, [r4, #0]
1000238a:	4079      	eors	r1, r7
1000238c:	2203      	movs	r2, #3
1000238e:	400a      	ands	r2, r1
10002390:	601a      	str	r2, [r3, #0]
10002392:	68a2      	ldr	r2, [r4, #8]
10002394:	2301      	movs	r3, #1
10002396:	40bb      	lsls	r3, r7
10002398:	4213      	tst	r3, r2
1000239a:	d0fa      	beq.n	10002392 <clock_configure+0xe6>
1000239c:	e7cb      	b.n	10002336 <clock_configure+0x8a>
1000239e:	46c0      	nop			; (mov r8, r8)
100023a0:	40008000 	.word	0x40008000
100023a4:	20001354 	.word	0x20001354
100023a8:	100078ac 	.word	0x100078ac
100023ac:	10007920 	.word	0x10007920
100023b0:	100078c0 	.word	0x100078c0

100023b4 <clocks_init>:
100023b4:	b530      	push	{r4, r5, lr}
100023b6:	b083      	sub	sp, #12
100023b8:	200c      	movs	r0, #12
100023ba:	f000 f911 	bl	100025e0 <watchdog_start_tick>
100023be:	f7fe f947 	bl	10000650 <running_on_fpga>
100023c2:	2800      	cmp	r0, #0
100023c4:	d00d      	beq.n	100023e2 <clocks_init+0x2e>
100023c6:	2300      	movs	r3, #0
100023c8:	e004      	b.n	100023d4 <clocks_init+0x20>
100023ca:	0099      	lsls	r1, r3, #2
100023cc:	4a2d      	ldr	r2, [pc, #180]	; (10002484 <clocks_init+0xd0>)
100023ce:	482e      	ldr	r0, [pc, #184]	; (10002488 <clocks_init+0xd4>)
100023d0:	5088      	str	r0, [r1, r2]
100023d2:	3301      	adds	r3, #1
100023d4:	2b09      	cmp	r3, #9
100023d6:	d9f8      	bls.n	100023ca <clocks_init+0x16>
100023d8:	4b2a      	ldr	r3, [pc, #168]	; (10002484 <clocks_init+0xd0>)
100023da:	4a2c      	ldr	r2, [pc, #176]	; (1000248c <clocks_init+0xd8>)
100023dc:	625a      	str	r2, [r3, #36]	; 0x24
100023de:	b003      	add	sp, #12
100023e0:	bd30      	pop	{r4, r5, pc}
100023e2:	4b2b      	ldr	r3, [pc, #172]	; (10002490 <clocks_init+0xdc>)
100023e4:	2200      	movs	r2, #0
100023e6:	679a      	str	r2, [r3, #120]	; 0x78
100023e8:	f000 f96c 	bl	100026c4 <xosc_init>
100023ec:	4b29      	ldr	r3, [pc, #164]	; (10002494 <clocks_init+0xe0>)
100023ee:	2201      	movs	r2, #1
100023f0:	601a      	str	r2, [r3, #0]
100023f2:	4b27      	ldr	r3, [pc, #156]	; (10002490 <clocks_init+0xdc>)
100023f4:	6c5b      	ldr	r3, [r3, #68]	; 0x44
100023f6:	2b01      	cmp	r3, #1
100023f8:	d1fb      	bne.n	100023f2 <clocks_init+0x3e>
100023fa:	4b27      	ldr	r3, [pc, #156]	; (10002498 <clocks_init+0xe4>)
100023fc:	2203      	movs	r2, #3
100023fe:	601a      	str	r2, [r3, #0]
10002400:	4b23      	ldr	r3, [pc, #140]	; (10002490 <clocks_init+0xdc>)
10002402:	6b9b      	ldr	r3, [r3, #56]	; 0x38
10002404:	2b01      	cmp	r3, #1
10002406:	d1fb      	bne.n	10002400 <clocks_init+0x4c>
10002408:	3301      	adds	r3, #1
1000240a:	9300      	str	r3, [sp, #0]
1000240c:	3304      	adds	r3, #4
1000240e:	4a23      	ldr	r2, [pc, #140]	; (1000249c <clocks_init+0xe8>)
10002410:	2101      	movs	r1, #1
10002412:	4823      	ldr	r0, [pc, #140]	; (100024a0 <clocks_init+0xec>)
10002414:	f000 f854 	bl	100024c0 <pll_init>
10002418:	2305      	movs	r3, #5
1000241a:	9300      	str	r3, [sp, #0]
1000241c:	4a21      	ldr	r2, [pc, #132]	; (100024a4 <clocks_init+0xf0>)
1000241e:	2101      	movs	r1, #1
10002420:	4821      	ldr	r0, [pc, #132]	; (100024a8 <clocks_init+0xf4>)
10002422:	f000 f84d 	bl	100024c0 <pll_init>
10002426:	4b21      	ldr	r3, [pc, #132]	; (100024ac <clocks_init+0xf8>)
10002428:	9300      	str	r3, [sp, #0]
1000242a:	2200      	movs	r2, #0
1000242c:	2102      	movs	r1, #2
1000242e:	2004      	movs	r0, #4
10002430:	f7ff ff3c 	bl	100022ac <clock_configure>
10002434:	4d1e      	ldr	r5, [pc, #120]	; (100024b0 <clocks_init+0xfc>)
10002436:	9500      	str	r5, [sp, #0]
10002438:	002b      	movs	r3, r5
1000243a:	2200      	movs	r2, #0
1000243c:	2101      	movs	r1, #1
1000243e:	2005      	movs	r0, #5
10002440:	f7ff ff34 	bl	100022ac <clock_configure>
10002444:	4c10      	ldr	r4, [pc, #64]	; (10002488 <clocks_init+0xd4>)
10002446:	9400      	str	r4, [sp, #0]
10002448:	0023      	movs	r3, r4
1000244a:	2200      	movs	r2, #0
1000244c:	2100      	movs	r1, #0
1000244e:	2007      	movs	r0, #7
10002450:	f7ff ff2c 	bl	100022ac <clock_configure>
10002454:	9400      	str	r4, [sp, #0]
10002456:	0023      	movs	r3, r4
10002458:	2200      	movs	r2, #0
1000245a:	2100      	movs	r1, #0
1000245c:	2008      	movs	r0, #8
1000245e:	f7ff ff25 	bl	100022ac <clock_configure>
10002462:	4b0a      	ldr	r3, [pc, #40]	; (1000248c <clocks_init+0xd8>)
10002464:	9300      	str	r3, [sp, #0]
10002466:	0023      	movs	r3, r4
10002468:	2200      	movs	r2, #0
1000246a:	2100      	movs	r1, #0
1000246c:	2009      	movs	r0, #9
1000246e:	f7ff ff1d 	bl	100022ac <clock_configure>
10002472:	9500      	str	r5, [sp, #0]
10002474:	002b      	movs	r3, r5
10002476:	2200      	movs	r2, #0
10002478:	2100      	movs	r1, #0
1000247a:	2006      	movs	r0, #6
1000247c:	f7ff ff16 	bl	100022ac <clock_configure>
10002480:	e7ad      	b.n	100023de <clocks_init+0x2a>
10002482:	46c0      	nop			; (mov r8, r8)
10002484:	20001354 	.word	0x20001354
10002488:	02dc6c00 	.word	0x02dc6c00
1000248c:	0000b71b 	.word	0x0000b71b
10002490:	40008000 	.word	0x40008000
10002494:	4000b03c 	.word	0x4000b03c
10002498:	4000b030 	.word	0x4000b030
1000249c:	59682f00 	.word	0x59682f00
100024a0:	40028000 	.word	0x40028000
100024a4:	47868c00 	.word	0x47868c00
100024a8:	4002c000 	.word	0x4002c000
100024ac:	00b71b00 	.word	0x00b71b00
100024b0:	07735940 	.word	0x07735940

100024b4 <clock_get_hz>:
100024b4:	0080      	lsls	r0, r0, #2
100024b6:	4b01      	ldr	r3, [pc, #4]	; (100024bc <clock_get_hz+0x8>)
100024b8:	58c0      	ldr	r0, [r0, r3]
100024ba:	4770      	bx	lr
100024bc:	20001354 	.word	0x20001354

100024c0 <pll_init>:
100024c0:	b5f0      	push	{r4, r5, r6, r7, lr}
100024c2:	46c6      	mov	lr, r8
100024c4:	b500      	push	{lr}
100024c6:	0004      	movs	r4, r0
100024c8:	000e      	movs	r6, r1
100024ca:	0017      	movs	r7, r2
100024cc:	001d      	movs	r5, r3
100024ce:	4837      	ldr	r0, [pc, #220]	; (100025ac <pll_init+0xec>)
100024d0:	f001 fac0 	bl	10003a54 <__wrap___aeabi_uidiv>
100024d4:	4680      	mov	r8, r0
100024d6:	4b36      	ldr	r3, [pc, #216]	; (100025b0 <pll_init+0xf0>)
100024d8:	18fa      	adds	r2, r7, r3
100024da:	4b36      	ldr	r3, [pc, #216]	; (100025b4 <pll_init+0xf4>)
100024dc:	429a      	cmp	r2, r3
100024de:	d839      	bhi.n	10002554 <pll_init+0x94>
100024e0:	0001      	movs	r1, r0
100024e2:	0038      	movs	r0, r7
100024e4:	f001 fab6 	bl	10003a54 <__wrap___aeabi_uidiv>
100024e8:	0002      	movs	r2, r0
100024ea:	3a10      	subs	r2, #16
100024ec:	2398      	movs	r3, #152	; 0x98
100024ee:	005b      	lsls	r3, r3, #1
100024f0:	429a      	cmp	r2, r3
100024f2:	d835      	bhi.n	10002560 <pll_init+0xa0>
100024f4:	1e6b      	subs	r3, r5, #1
100024f6:	2b06      	cmp	r3, #6
100024f8:	d838      	bhi.n	1000256c <pll_init+0xac>
100024fa:	9b06      	ldr	r3, [sp, #24]
100024fc:	3b01      	subs	r3, #1
100024fe:	2b06      	cmp	r3, #6
10002500:	d834      	bhi.n	1000256c <pll_init+0xac>
10002502:	093f      	lsrs	r7, r7, #4
10002504:	4547      	cmp	r7, r8
10002506:	d337      	bcc.n	10002578 <pll_init+0xb8>
10002508:	042d      	lsls	r5, r5, #16
1000250a:	9b06      	ldr	r3, [sp, #24]
1000250c:	031a      	lsls	r2, r3, #12
1000250e:	4315      	orrs	r5, r2
10002510:	6823      	ldr	r3, [r4, #0]
10002512:	2b00      	cmp	r3, #0
10002514:	db36      	blt.n	10002584 <pll_init+0xc4>
10002516:	4b28      	ldr	r3, [pc, #160]	; (100025b8 <pll_init+0xf8>)
10002518:	429c      	cmp	r4, r3
1000251a:	d044      	beq.n	100025a6 <pll_init+0xe6>
1000251c:	2280      	movs	r2, #128	; 0x80
1000251e:	0152      	lsls	r2, r2, #5
10002520:	4b26      	ldr	r3, [pc, #152]	; (100025bc <pll_init+0xfc>)
10002522:	601a      	str	r2, [r3, #0]
10002524:	4b26      	ldr	r3, [pc, #152]	; (100025c0 <pll_init+0x100>)
10002526:	601a      	str	r2, [r3, #0]
10002528:	4b26      	ldr	r3, [pc, #152]	; (100025c4 <pll_init+0x104>)
1000252a:	689b      	ldr	r3, [r3, #8]
1000252c:	0011      	movs	r1, r2
1000252e:	4399      	bics	r1, r3
10002530:	d1fa      	bne.n	10002528 <pll_init+0x68>
10002532:	6026      	str	r6, [r4, #0]
10002534:	60a0      	str	r0, [r4, #8]
10002536:	1d23      	adds	r3, r4, #4
10002538:	22c0      	movs	r2, #192	; 0xc0
1000253a:	0192      	lsls	r2, r2, #6
1000253c:	431a      	orrs	r2, r3
1000253e:	2321      	movs	r3, #33	; 0x21
10002540:	6013      	str	r3, [r2, #0]
10002542:	6823      	ldr	r3, [r4, #0]
10002544:	2b00      	cmp	r3, #0
10002546:	dafc      	bge.n	10002542 <pll_init+0x82>
10002548:	60e5      	str	r5, [r4, #12]
1000254a:	2308      	movs	r3, #8
1000254c:	6013      	str	r3, [r2, #0]
1000254e:	bc80      	pop	{r7}
10002550:	46b8      	mov	r8, r7
10002552:	bdf0      	pop	{r4, r5, r6, r7, pc}
10002554:	4b1c      	ldr	r3, [pc, #112]	; (100025c8 <pll_init+0x108>)
10002556:	4a1d      	ldr	r2, [pc, #116]	; (100025cc <pll_init+0x10c>)
10002558:	2111      	movs	r1, #17
1000255a:	481d      	ldr	r0, [pc, #116]	; (100025d0 <pll_init+0x110>)
1000255c:	f000 f8cc 	bl	100026f8 <__assert_func>
10002560:	4b1c      	ldr	r3, [pc, #112]	; (100025d4 <pll_init+0x114>)
10002562:	4a1a      	ldr	r2, [pc, #104]	; (100025cc <pll_init+0x10c>)
10002564:	2119      	movs	r1, #25
10002566:	481a      	ldr	r0, [pc, #104]	; (100025d0 <pll_init+0x110>)
10002568:	f000 f8c6 	bl	100026f8 <__assert_func>
1000256c:	4b1a      	ldr	r3, [pc, #104]	; (100025d8 <pll_init+0x118>)
1000256e:	4a17      	ldr	r2, [pc, #92]	; (100025cc <pll_init+0x10c>)
10002570:	211c      	movs	r1, #28
10002572:	4817      	ldr	r0, [pc, #92]	; (100025d0 <pll_init+0x110>)
10002574:	f000 f8c0 	bl	100026f8 <__assert_func>
10002578:	4b18      	ldr	r3, [pc, #96]	; (100025dc <pll_init+0x11c>)
1000257a:	4a14      	ldr	r2, [pc, #80]	; (100025cc <pll_init+0x10c>)
1000257c:	2123      	movs	r1, #35	; 0x23
1000257e:	4814      	ldr	r0, [pc, #80]	; (100025d0 <pll_init+0x110>)
10002580:	f000 f8ba 	bl	100026f8 <__assert_func>
10002584:	6822      	ldr	r2, [r4, #0]
10002586:	233f      	movs	r3, #63	; 0x3f
10002588:	4013      	ands	r3, r2
1000258a:	42b3      	cmp	r3, r6
1000258c:	d1c3      	bne.n	10002516 <pll_init+0x56>
1000258e:	68a3      	ldr	r3, [r4, #8]
10002590:	051b      	lsls	r3, r3, #20
10002592:	0d1b      	lsrs	r3, r3, #20
10002594:	4283      	cmp	r3, r0
10002596:	d1be      	bne.n	10002516 <pll_init+0x56>
10002598:	68e3      	ldr	r3, [r4, #12]
1000259a:	22ee      	movs	r2, #238	; 0xee
1000259c:	02d2      	lsls	r2, r2, #11
1000259e:	4013      	ands	r3, r2
100025a0:	42ab      	cmp	r3, r5
100025a2:	d1b8      	bne.n	10002516 <pll_init+0x56>
100025a4:	e7d3      	b.n	1000254e <pll_init+0x8e>
100025a6:	2280      	movs	r2, #128	; 0x80
100025a8:	0192      	lsls	r2, r2, #6
100025aa:	e7b9      	b.n	10002520 <pll_init+0x60>
100025ac:	00b71b00 	.word	0x00b71b00
100025b0:	d34be880 	.word	0xd34be880
100025b4:	32a9f880 	.word	0x32a9f880
100025b8:	4002c000 	.word	0x4002c000
100025bc:	4000e000 	.word	0x4000e000
100025c0:	4000f000 	.word	0x4000f000
100025c4:	4000c000 	.word	0x4000c000
100025c8:	10007930 	.word	0x10007930
100025cc:	10007a70 	.word	0x10007a70
100025d0:	10007990 	.word	0x10007990
100025d4:	100079ec 	.word	0x100079ec
100025d8:	10007a08 	.word	0x10007a08
100025dc:	10007a54 	.word	0x10007a54

100025e0 <watchdog_start_tick>:
100025e0:	2380      	movs	r3, #128	; 0x80
100025e2:	009b      	lsls	r3, r3, #2
100025e4:	4303      	orrs	r3, r0
100025e6:	4a01      	ldr	r2, [pc, #4]	; (100025ec <watchdog_start_tick+0xc>)
100025e8:	62d3      	str	r3, [r2, #44]	; 0x2c
100025ea:	4770      	bx	lr
100025ec:	40058000 	.word	0x40058000

100025f0 <watchdog_update>:
100025f0:	4b02      	ldr	r3, [pc, #8]	; (100025fc <watchdog_update+0xc>)
100025f2:	681a      	ldr	r2, [r3, #0]
100025f4:	4b02      	ldr	r3, [pc, #8]	; (10002600 <watchdog_update+0x10>)
100025f6:	605a      	str	r2, [r3, #4]
100025f8:	4770      	bx	lr
100025fa:	46c0      	nop			; (mov r8, r8)
100025fc:	200017f0 	.word	0x200017f0
10002600:	40058000 	.word	0x40058000

10002604 <_watchdog_enable>:
10002604:	b510      	push	{r4, lr}
10002606:	0002      	movs	r2, r0
10002608:	4b16      	ldr	r3, [pc, #88]	; (10002664 <_watchdog_enable+0x60>)
1000260a:	2080      	movs	r0, #128	; 0x80
1000260c:	05c0      	lsls	r0, r0, #23
1000260e:	6018      	str	r0, [r3, #0]
10002610:	4b15      	ldr	r3, [pc, #84]	; (10002668 <_watchdog_enable+0x64>)
10002612:	4816      	ldr	r0, [pc, #88]	; (1000266c <_watchdog_enable+0x68>)
10002614:	6018      	str	r0, [r3, #0]
10002616:	2900      	cmp	r1, #0
10002618:	d00a      	beq.n	10002630 <_watchdog_enable+0x2c>
1000261a:	4b15      	ldr	r3, [pc, #84]	; (10002670 <_watchdog_enable+0x6c>)
1000261c:	21e0      	movs	r1, #224	; 0xe0
1000261e:	04c9      	lsls	r1, r1, #19
10002620:	6019      	str	r1, [r3, #0]
10002622:	2a00      	cmp	r2, #0
10002624:	d109      	bne.n	1000263a <_watchdog_enable+0x36>
10002626:	4b12      	ldr	r3, [pc, #72]	; (10002670 <_watchdog_enable+0x6c>)
10002628:	2280      	movs	r2, #128	; 0x80
1000262a:	0612      	lsls	r2, r2, #24
1000262c:	601a      	str	r2, [r3, #0]
1000262e:	bd10      	pop	{r4, pc}
10002630:	4b0c      	ldr	r3, [pc, #48]	; (10002664 <_watchdog_enable+0x60>)
10002632:	21e0      	movs	r1, #224	; 0xe0
10002634:	04c9      	lsls	r1, r1, #19
10002636:	6019      	str	r1, [r3, #0]
10002638:	e7f3      	b.n	10002622 <_watchdog_enable+0x1e>
1000263a:	0153      	lsls	r3, r2, #5
1000263c:	1a9b      	subs	r3, r3, r2
1000263e:	0098      	lsls	r0, r3, #2
10002640:	1880      	adds	r0, r0, r2
10002642:	0100      	lsls	r0, r0, #4
10002644:	4b0b      	ldr	r3, [pc, #44]	; (10002674 <_watchdog_enable+0x70>)
10002646:	6018      	str	r0, [r3, #0]
10002648:	2380      	movs	r3, #128	; 0x80
1000264a:	045b      	lsls	r3, r3, #17
1000264c:	4298      	cmp	r0, r3
1000264e:	d302      	bcc.n	10002656 <_watchdog_enable+0x52>
10002650:	4b08      	ldr	r3, [pc, #32]	; (10002674 <_watchdog_enable+0x70>)
10002652:	4a09      	ldr	r2, [pc, #36]	; (10002678 <_watchdog_enable+0x74>)
10002654:	601a      	str	r2, [r3, #0]
10002656:	f7ff ffcb 	bl	100025f0 <watchdog_update>
1000265a:	4b05      	ldr	r3, [pc, #20]	; (10002670 <_watchdog_enable+0x6c>)
1000265c:	2280      	movs	r2, #128	; 0x80
1000265e:	05d2      	lsls	r2, r2, #23
10002660:	601a      	str	r2, [r3, #0]
10002662:	e7e4      	b.n	1000262e <_watchdog_enable+0x2a>
10002664:	4005b000 	.word	0x4005b000
10002668:	40012008 	.word	0x40012008
1000266c:	0001fffc 	.word	0x0001fffc
10002670:	4005a000 	.word	0x4005a000
10002674:	200017f0 	.word	0x200017f0
10002678:	00ffffff 	.word	0x00ffffff

1000267c <watchdog_reboot>:
1000267c:	b510      	push	{r4, lr}
1000267e:	0003      	movs	r3, r0
10002680:	0010      	movs	r0, r2
10002682:	4a0c      	ldr	r2, [pc, #48]	; (100026b4 <watchdog_reboot+0x38>)
10002684:	2480      	movs	r4, #128	; 0x80
10002686:	05e4      	lsls	r4, r4, #23
10002688:	6014      	str	r4, [r2, #0]
1000268a:	2b00      	cmp	r3, #0
1000268c:	d00d      	beq.n	100026aa <watchdog_reboot+0x2e>
1000268e:	2201      	movs	r2, #1
10002690:	4313      	orrs	r3, r2
10002692:	4a09      	ldr	r2, [pc, #36]	; (100026b8 <watchdog_reboot+0x3c>)
10002694:	4c09      	ldr	r4, [pc, #36]	; (100026bc <watchdog_reboot+0x40>)
10002696:	61d4      	str	r4, [r2, #28]
10002698:	4c09      	ldr	r4, [pc, #36]	; (100026c0 <watchdog_reboot+0x44>)
1000269a:	405c      	eors	r4, r3
1000269c:	6214      	str	r4, [r2, #32]
1000269e:	6251      	str	r1, [r2, #36]	; 0x24
100026a0:	6293      	str	r3, [r2, #40]	; 0x28
100026a2:	2100      	movs	r1, #0
100026a4:	f7ff ffae 	bl	10002604 <_watchdog_enable>
100026a8:	bd10      	pop	{r4, pc}
100026aa:	4b03      	ldr	r3, [pc, #12]	; (100026b8 <watchdog_reboot+0x3c>)
100026ac:	2200      	movs	r2, #0
100026ae:	61da      	str	r2, [r3, #28]
100026b0:	e7f7      	b.n	100026a2 <watchdog_reboot+0x26>
100026b2:	46c0      	nop			; (mov r8, r8)
100026b4:	4005b000 	.word	0x4005b000
100026b8:	40058000 	.word	0x40058000
100026bc:	b007c0d3 	.word	0xb007c0d3
100026c0:	4ff83f2d 	.word	0x4ff83f2d

100026c4 <xosc_init>:
100026c4:	4b06      	ldr	r3, [pc, #24]	; (100026e0 <xosc_init+0x1c>)
100026c6:	22aa      	movs	r2, #170	; 0xaa
100026c8:	0112      	lsls	r2, r2, #4
100026ca:	601a      	str	r2, [r3, #0]
100026cc:	222f      	movs	r2, #47	; 0x2f
100026ce:	60da      	str	r2, [r3, #12]
100026d0:	4b04      	ldr	r3, [pc, #16]	; (100026e4 <xosc_init+0x20>)
100026d2:	4a05      	ldr	r2, [pc, #20]	; (100026e8 <xosc_init+0x24>)
100026d4:	601a      	str	r2, [r3, #0]
100026d6:	4b02      	ldr	r3, [pc, #8]	; (100026e0 <xosc_init+0x1c>)
100026d8:	685b      	ldr	r3, [r3, #4]
100026da:	2b00      	cmp	r3, #0
100026dc:	dafb      	bge.n	100026d6 <xosc_init+0x12>
100026de:	4770      	bx	lr
100026e0:	40024000 	.word	0x40024000
100026e4:	40026000 	.word	0x40026000
100026e8:	00fab000 	.word	0x00fab000

100026ec <_exit>:
100026ec:	be00      	bkpt	0x0000
100026ee:	e7fd      	b.n	100026ec <_exit>

100026f0 <exit>:
100026f0:	b510      	push	{r4, lr}
100026f2:	f7ff fffb 	bl	100026ec <_exit>
	...

100026f8 <__assert_func>:
100026f8:	b510      	push	{r4, lr}
100026fa:	b082      	sub	sp, #8
100026fc:	000c      	movs	r4, r1
100026fe:	0019      	movs	r1, r3
10002700:	2a00      	cmp	r2, #0
10002702:	d00c      	beq.n	1000271e <__assert_func+0x26>
10002704:	4b08      	ldr	r3, [pc, #32]	; (10002728 <__assert_func+0x30>)
10002706:	2a00      	cmp	r2, #0
10002708:	d00b      	beq.n	10002722 <__assert_func+0x2a>
1000270a:	9201      	str	r2, [sp, #4]
1000270c:	9300      	str	r3, [sp, #0]
1000270e:	0023      	movs	r3, r4
10002710:	0002      	movs	r2, r0
10002712:	4806      	ldr	r0, [pc, #24]	; (1000272c <__assert_func+0x34>)
10002714:	f001 fefe 	bl	10004514 <__wrap_printf>
10002718:	2001      	movs	r0, #1
1000271a:	f7ff ffe7 	bl	100026ec <_exit>
1000271e:	4b04      	ldr	r3, [pc, #16]	; (10002730 <__assert_func+0x38>)
10002720:	e7f1      	b.n	10002706 <__assert_func+0xe>
10002722:	4a03      	ldr	r2, [pc, #12]	; (10002730 <__assert_func+0x38>)
10002724:	e7f1      	b.n	1000270a <__assert_func+0x12>
10002726:	46c0      	nop			; (mov r8, r8)
10002728:	10007a7c 	.word	0x10007a7c
1000272c:	10007a8c 	.word	0x10007a8c
10002730:	10006ea4 	.word	0x10006ea4

10002734 <runtime_init>:
10002734:	b570      	push	{r4, r5, r6, lr}
10002736:	4b2b      	ldr	r3, [pc, #172]	; (100027e4 <runtime_init+0xb0>)
10002738:	4a2b      	ldr	r2, [pc, #172]	; (100027e8 <runtime_init+0xb4>)
1000273a:	601a      	str	r2, [r3, #0]
1000273c:	4b2b      	ldr	r3, [pc, #172]	; (100027ec <runtime_init+0xb8>)
1000273e:	4a2c      	ldr	r2, [pc, #176]	; (100027f0 <runtime_init+0xbc>)
10002740:	601a      	str	r2, [r3, #0]
10002742:	4b2c      	ldr	r3, [pc, #176]	; (100027f4 <runtime_init+0xc0>)
10002744:	689a      	ldr	r2, [r3, #8]
10002746:	4b2a      	ldr	r3, [pc, #168]	; (100027f0 <runtime_init+0xbc>)
10002748:	4393      	bics	r3, r2
1000274a:	d1fa      	bne.n	10002742 <runtime_init+0xe>
1000274c:	4c2a      	ldr	r4, [pc, #168]	; (100027f8 <runtime_init+0xc4>)
1000274e:	e001      	b.n	10002754 <runtime_init+0x20>
10002750:	cc08      	ldmia	r4!, {r3}
10002752:	4798      	blx	r3
10002754:	4b29      	ldr	r3, [pc, #164]	; (100027fc <runtime_init+0xc8>)
10002756:	429c      	cmp	r4, r3
10002758:	d3fa      	bcc.n	10002750 <runtime_init+0x1c>
1000275a:	f7ff fe2b 	bl	100023b4 <clocks_init>
1000275e:	4b23      	ldr	r3, [pc, #140]	; (100027ec <runtime_init+0xb8>)
10002760:	4a27      	ldr	r2, [pc, #156]	; (10002800 <runtime_init+0xcc>)
10002762:	601a      	str	r2, [r3, #0]
10002764:	4b23      	ldr	r3, [pc, #140]	; (100027f4 <runtime_init+0xc0>)
10002766:	689b      	ldr	r3, [r3, #8]
10002768:	43db      	mvns	r3, r3
1000276a:	01db      	lsls	r3, r3, #7
1000276c:	d1fa      	bne.n	10002764 <runtime_init+0x30>
1000276e:	4b25      	ldr	r3, [pc, #148]	; (10002804 <runtime_init+0xd0>)
10002770:	2240      	movs	r2, #64	; 0x40
10002772:	679a      	str	r2, [r3, #120]	; 0x78
10002774:	675a      	str	r2, [r3, #116]	; 0x74
10002776:	671a      	str	r2, [r3, #112]	; 0x70
10002778:	66da      	str	r2, [r3, #108]	; 0x6c
1000277a:	4c23      	ldr	r4, [pc, #140]	; (10002808 <runtime_init+0xd4>)
1000277c:	e009      	b.n	10002792 <runtime_init+0x5e>
1000277e:	4b23      	ldr	r3, [pc, #140]	; (1000280c <runtime_init+0xd8>)
10002780:	4a23      	ldr	r2, [pc, #140]	; (10002810 <runtime_init+0xdc>)
10002782:	2187      	movs	r1, #135	; 0x87
10002784:	4823      	ldr	r0, [pc, #140]	; (10002814 <runtime_init+0xe0>)
10002786:	f7ff ffb7 	bl	100026f8 <__assert_func>
1000278a:	0020      	movs	r0, r4
1000278c:	f7fe fb4a 	bl	10000e24 <mutex_init>
10002790:	3408      	adds	r4, #8
10002792:	4b21      	ldr	r3, [pc, #132]	; (10002818 <runtime_init+0xe4>)
10002794:	429c      	cmp	r4, r3
10002796:	d209      	bcs.n	100027ac <runtime_init+0x78>
10002798:	6823      	ldr	r3, [r4, #0]
1000279a:	2b00      	cmp	r3, #0
1000279c:	d0f5      	beq.n	1000278a <runtime_init+0x56>
1000279e:	2b01      	cmp	r3, #1
100027a0:	d1ed      	bne.n	1000277e <runtime_init+0x4a>
100027a2:	0020      	movs	r0, r4
100027a4:	f7fe fb4b 	bl	10000e3e <recursive_mutex_init>
100027a8:	3408      	adds	r4, #8
100027aa:	e7f2      	b.n	10002792 <runtime_init+0x5e>
100027ac:	4c1b      	ldr	r4, [pc, #108]	; (1000281c <runtime_init+0xe8>)
100027ae:	68a1      	ldr	r1, [r4, #8]
100027b0:	4d1b      	ldr	r5, [pc, #108]	; (10002820 <runtime_init+0xec>)
100027b2:	22c0      	movs	r2, #192	; 0xc0
100027b4:	0028      	movs	r0, r5
100027b6:	f001 fd55 	bl	10004264 <__wrap___aeabi_memcpy>
100027ba:	60a5      	str	r5, [r4, #8]
100027bc:	f3ef 8305 	mrs	r3, IPSR
100027c0:	2b00      	cmp	r3, #0
100027c2:	d000      	beq.n	100027c6 <runtime_init+0x92>
100027c4:	be00      	bkpt	0x0000
100027c6:	f7fd ffa5 	bl	10000714 <spin_locks_reset>
100027ca:	f7fe fb01 	bl	10000dd0 <irq_init_priorities>
100027ce:	f7fe fe99 	bl	10001504 <alarm_pool_init_default>
100027d2:	4c14      	ldr	r4, [pc, #80]	; (10002824 <runtime_init+0xf0>)
100027d4:	e001      	b.n	100027da <runtime_init+0xa6>
100027d6:	cc08      	ldmia	r4!, {r3}
100027d8:	4798      	blx	r3
100027da:	4b13      	ldr	r3, [pc, #76]	; (10002828 <runtime_init+0xf4>)
100027dc:	429c      	cmp	r4, r3
100027de:	d3fa      	bcc.n	100027d6 <runtime_init+0xa2>
100027e0:	bd70      	pop	{r4, r5, r6, pc}
100027e2:	46c0      	nop			; (mov r8, r8)
100027e4:	4000e000 	.word	0x4000e000
100027e8:	fefbcdbf 	.word	0xfefbcdbf
100027ec:	4000f000 	.word	0x4000f000
100027f0:	003c7ffe 	.word	0x003c7ffe
100027f4:	4000c000 	.word	0x4000c000
100027f8:	20000cb0 	.word	0x20000cb0
100027fc:	20000cc0 	.word	0x20000cc0
10002800:	01ffffff 	.word	0x01ffffff
10002804:	4001f000 	.word	0x4001f000
10002808:	20000ca8 	.word	0x20000ca8
1000280c:	10007abc 	.word	0x10007abc
10002810:	10007b4c 	.word	0x10007b4c
10002814:	10007adc 	.word	0x10007adc
10002818:	20000cb0 	.word	0x20000cb0
1000281c:	e000ed00 	.word	0xe000ed00
10002820:	20000000 	.word	0x20000000
10002824:	20000cc0 	.word	0x20000cc0
10002828:	20000cc8 	.word	0x20000cc8

1000282c <panic>:
1000282c:	b40f      	push	{r0, r1, r2, r3}
1000282e:	b500      	push	{lr}
10002830:	b083      	sub	sp, #12
10002832:	4808      	ldr	r0, [pc, #32]	; (10002854 <panic+0x28>)
10002834:	f001 fe3e 	bl	100044b4 <__wrap_puts>
10002838:	9b04      	ldr	r3, [sp, #16]
1000283a:	2b00      	cmp	r3, #0
1000283c:	d007      	beq.n	1000284e <panic+0x22>
1000283e:	a905      	add	r1, sp, #20
10002840:	9101      	str	r1, [sp, #4]
10002842:	0018      	movs	r0, r3
10002844:	f001 fe46 	bl	100044d4 <__wrap_vprintf>
10002848:	4803      	ldr	r0, [pc, #12]	; (10002858 <panic+0x2c>)
1000284a:	f001 fe33 	bl	100044b4 <__wrap_puts>
1000284e:	2001      	movs	r0, #1
10002850:	f7ff ff4c 	bl	100026ec <_exit>
10002854:	10007b3c 	.word	0x10007b3c
10002858:	10006ee4 	.word	0x10006ee4

1000285c <_out_null>:
1000285c:	4770      	bx	lr

1000285e <_out_fct>:
1000285e:	b510      	push	{r4, lr}
10002860:	2800      	cmp	r0, #0
10002862:	d002      	beq.n	1000286a <_out_fct+0xc>
10002864:	680b      	ldr	r3, [r1, #0]
10002866:	6849      	ldr	r1, [r1, #4]
10002868:	4798      	blx	r3
1000286a:	bd10      	pop	{r4, pc}

1000286c <_atoi>:
1000286c:	0001      	movs	r1, r0
1000286e:	2000      	movs	r0, #0
10002870:	e007      	b.n	10002882 <_atoi+0x16>
10002872:	0083      	lsls	r3, r0, #2
10002874:	181b      	adds	r3, r3, r0
10002876:	005b      	lsls	r3, r3, #1
10002878:	1c50      	adds	r0, r2, #1
1000287a:	6008      	str	r0, [r1, #0]
1000287c:	7810      	ldrb	r0, [r2, #0]
1000287e:	18c0      	adds	r0, r0, r3
10002880:	3830      	subs	r0, #48	; 0x30
10002882:	680a      	ldr	r2, [r1, #0]
10002884:	7813      	ldrb	r3, [r2, #0]
10002886:	3b30      	subs	r3, #48	; 0x30
10002888:	b2db      	uxtb	r3, r3
1000288a:	2b09      	cmp	r3, #9
1000288c:	d9f1      	bls.n	10002872 <_atoi+0x6>
1000288e:	4770      	bx	lr

10002890 <_out_rev>:
10002890:	b5f0      	push	{r4, r5, r6, r7, lr}
10002892:	46de      	mov	lr, fp
10002894:	4657      	mov	r7, sl
10002896:	464e      	mov	r6, r9
10002898:	4645      	mov	r5, r8
1000289a:	b5e0      	push	{r5, r6, r7, lr}
1000289c:	b083      	sub	sp, #12
1000289e:	4693      	mov	fp, r2
100028a0:	001f      	movs	r7, r3
100028a2:	9b0c      	ldr	r3, [sp, #48]	; 0x30
100028a4:	469a      	mov	sl, r3
100028a6:	9c0d      	ldr	r4, [sp, #52]	; 0x34
100028a8:	9b0e      	ldr	r3, [sp, #56]	; 0x38
100028aa:	4699      	mov	r9, r3
100028ac:	9b0f      	ldr	r3, [sp, #60]	; 0x3c
100028ae:	079b      	lsls	r3, r3, #30
100028b0:	d003      	beq.n	100028ba <_out_rev+0x2a>
100028b2:	46b8      	mov	r8, r7
100028b4:	000f      	movs	r7, r1
100028b6:	0006      	movs	r6, r0
100028b8:	e022      	b.n	10002900 <_out_rev+0x70>
100028ba:	9201      	str	r2, [sp, #4]
100028bc:	46a3      	mov	fp, r4
100028be:	4688      	mov	r8, r1
100028c0:	464e      	mov	r6, r9
100028c2:	46b9      	mov	r9, r7
100028c4:	0007      	movs	r7, r0
100028c6:	42b4      	cmp	r4, r6
100028c8:	d207      	bcs.n	100028da <_out_rev+0x4a>
100028ca:	1c55      	adds	r5, r2, #1
100028cc:	464b      	mov	r3, r9
100028ce:	4641      	mov	r1, r8
100028d0:	2020      	movs	r0, #32
100028d2:	47b8      	blx	r7
100028d4:	3401      	adds	r4, #1
100028d6:	002a      	movs	r2, r5
100028d8:	e7f5      	b.n	100028c6 <_out_rev+0x36>
100028da:	003d      	movs	r5, r7
100028dc:	464f      	mov	r7, r9
100028de:	465c      	mov	r4, fp
100028e0:	9b01      	ldr	r3, [sp, #4]
100028e2:	469b      	mov	fp, r3
100028e4:	46b1      	mov	r9, r6
100028e6:	4646      	mov	r6, r8
100028e8:	46b8      	mov	r8, r7
100028ea:	0037      	movs	r7, r6
100028ec:	002e      	movs	r6, r5
100028ee:	e007      	b.n	10002900 <_out_rev+0x70>
100028f0:	3c01      	subs	r4, #1
100028f2:	1c55      	adds	r5, r2, #1
100028f4:	4653      	mov	r3, sl
100028f6:	5d18      	ldrb	r0, [r3, r4]
100028f8:	4643      	mov	r3, r8
100028fa:	0039      	movs	r1, r7
100028fc:	47b0      	blx	r6
100028fe:	002a      	movs	r2, r5
10002900:	2c00      	cmp	r4, #0
10002902:	d1f5      	bne.n	100028f0 <_out_rev+0x60>
10002904:	0035      	movs	r5, r6
10002906:	003e      	movs	r6, r7
10002908:	4647      	mov	r7, r8
1000290a:	9b0f      	ldr	r3, [sp, #60]	; 0x3c
1000290c:	079b      	lsls	r3, r3, #30
1000290e:	d407      	bmi.n	10002920 <_out_rev+0x90>
10002910:	0010      	movs	r0, r2
10002912:	b003      	add	sp, #12
10002914:	bcf0      	pop	{r4, r5, r6, r7}
10002916:	46bb      	mov	fp, r7
10002918:	46b2      	mov	sl, r6
1000291a:	46a9      	mov	r9, r5
1000291c:	46a0      	mov	r8, r4
1000291e:	bdf0      	pop	{r4, r5, r6, r7, pc}
10002920:	46b0      	mov	r8, r6
10002922:	464e      	mov	r6, r9
10002924:	46b9      	mov	r9, r7
10002926:	002f      	movs	r7, r5
10002928:	465d      	mov	r5, fp
1000292a:	1b53      	subs	r3, r2, r5
1000292c:	42b3      	cmp	r3, r6
1000292e:	d2ef      	bcs.n	10002910 <_out_rev+0x80>
10002930:	1c54      	adds	r4, r2, #1
10002932:	464b      	mov	r3, r9
10002934:	4641      	mov	r1, r8
10002936:	2020      	movs	r0, #32
10002938:	47b8      	blx	r7
1000293a:	0022      	movs	r2, r4
1000293c:	e7f5      	b.n	1000292a <_out_rev+0x9a>

1000293e <_ntoa_format>:
1000293e:	b5f0      	push	{r4, r5, r6, r7, lr}
10002940:	46ce      	mov	lr, r9
10002942:	4647      	mov	r7, r8
10002944:	b580      	push	{r7, lr}
10002946:	b085      	sub	sp, #20
10002948:	4694      	mov	ip, r2
1000294a:	4698      	mov	r8, r3
1000294c:	9d0c      	ldr	r5, [sp, #48]	; 0x30
1000294e:	9c0d      	ldr	r4, [sp, #52]	; 0x34
10002950:	ab0e      	add	r3, sp, #56	; 0x38
10002952:	781b      	ldrb	r3, [r3, #0]
10002954:	4699      	mov	r9, r3
10002956:	9a10      	ldr	r2, [sp, #64]	; 0x40
10002958:	9b11      	ldr	r3, [sp, #68]	; 0x44
1000295a:	9e12      	ldr	r6, [sp, #72]	; 0x48
1000295c:	07b7      	lsls	r7, r6, #30
1000295e:	d41c      	bmi.n	1000299a <_ntoa_format+0x5c>
10002960:	2b00      	cmp	r3, #0
10002962:	d00c      	beq.n	1000297e <_ntoa_format+0x40>
10002964:	07f7      	lsls	r7, r6, #31
10002966:	d50a      	bpl.n	1000297e <_ntoa_format+0x40>
10002968:	464f      	mov	r7, r9
1000296a:	2f00      	cmp	r7, #0
1000296c:	d102      	bne.n	10002974 <_ntoa_format+0x36>
1000296e:	370c      	adds	r7, #12
10002970:	4237      	tst	r7, r6
10002972:	d004      	beq.n	1000297e <_ntoa_format+0x40>
10002974:	3b01      	subs	r3, #1
10002976:	e002      	b.n	1000297e <_ntoa_format+0x40>
10002978:	2730      	movs	r7, #48	; 0x30
1000297a:	552f      	strb	r7, [r5, r4]
1000297c:	3401      	adds	r4, #1
1000297e:	4294      	cmp	r4, r2
10002980:	d201      	bcs.n	10002986 <_ntoa_format+0x48>
10002982:	2c1f      	cmp	r4, #31
10002984:	d9f8      	bls.n	10002978 <_ntoa_format+0x3a>
10002986:	07f7      	lsls	r7, r6, #31
10002988:	d507      	bpl.n	1000299a <_ntoa_format+0x5c>
1000298a:	429c      	cmp	r4, r3
1000298c:	d205      	bcs.n	1000299a <_ntoa_format+0x5c>
1000298e:	2c1f      	cmp	r4, #31
10002990:	d803      	bhi.n	1000299a <_ntoa_format+0x5c>
10002992:	2730      	movs	r7, #48	; 0x30
10002994:	552f      	strb	r7, [r5, r4]
10002996:	3401      	adds	r4, #1
10002998:	e7f5      	b.n	10002986 <_ntoa_format+0x48>
1000299a:	06f7      	lsls	r7, r6, #27
1000299c:	d515      	bpl.n	100029ca <_ntoa_format+0x8c>
1000299e:	0577      	lsls	r7, r6, #21
100029a0:	d405      	bmi.n	100029ae <_ntoa_format+0x70>
100029a2:	2c00      	cmp	r4, #0
100029a4:	d003      	beq.n	100029ae <_ntoa_format+0x70>
100029a6:	4294      	cmp	r4, r2
100029a8:	d024      	beq.n	100029f4 <_ntoa_format+0xb6>
100029aa:	429c      	cmp	r4, r3
100029ac:	d022      	beq.n	100029f4 <_ntoa_format+0xb6>
100029ae:	9a0f      	ldr	r2, [sp, #60]	; 0x3c
100029b0:	2a10      	cmp	r2, #16
100029b2:	d02b      	beq.n	10002a0c <_ntoa_format+0xce>
100029b4:	9a0f      	ldr	r2, [sp, #60]	; 0x3c
100029b6:	2a10      	cmp	r2, #16
100029b8:	d030      	beq.n	10002a1c <_ntoa_format+0xde>
100029ba:	9a0f      	ldr	r2, [sp, #60]	; 0x3c
100029bc:	2a02      	cmp	r2, #2
100029be:	d035      	beq.n	10002a2c <_ntoa_format+0xee>
100029c0:	2c1f      	cmp	r4, #31
100029c2:	d802      	bhi.n	100029ca <_ntoa_format+0x8c>
100029c4:	2230      	movs	r2, #48	; 0x30
100029c6:	552a      	strb	r2, [r5, r4]
100029c8:	3401      	adds	r4, #1
100029ca:	2c1f      	cmp	r4, #31
100029cc:	d805      	bhi.n	100029da <_ntoa_format+0x9c>
100029ce:	464a      	mov	r2, r9
100029d0:	2a00      	cmp	r2, #0
100029d2:	d031      	beq.n	10002a38 <_ntoa_format+0xfa>
100029d4:	222d      	movs	r2, #45	; 0x2d
100029d6:	552a      	strb	r2, [r5, r4]
100029d8:	3401      	adds	r4, #1
100029da:	9603      	str	r6, [sp, #12]
100029dc:	9302      	str	r3, [sp, #8]
100029de:	9401      	str	r4, [sp, #4]
100029e0:	9500      	str	r5, [sp, #0]
100029e2:	4643      	mov	r3, r8
100029e4:	4662      	mov	r2, ip
100029e6:	f7ff ff53 	bl	10002890 <_out_rev>
100029ea:	b005      	add	sp, #20
100029ec:	bcc0      	pop	{r6, r7}
100029ee:	46b9      	mov	r9, r7
100029f0:	46b0      	mov	r8, r6
100029f2:	bdf0      	pop	{r4, r5, r6, r7, pc}
100029f4:	1e62      	subs	r2, r4, #1
100029f6:	2c01      	cmp	r4, #1
100029f8:	d006      	beq.n	10002a08 <_ntoa_format+0xca>
100029fa:	9f0f      	ldr	r7, [sp, #60]	; 0x3c
100029fc:	2f10      	cmp	r7, #16
100029fe:	d001      	beq.n	10002a04 <_ntoa_format+0xc6>
10002a00:	0014      	movs	r4, r2
10002a02:	e7d4      	b.n	100029ae <_ntoa_format+0x70>
10002a04:	3c02      	subs	r4, #2
10002a06:	e7d2      	b.n	100029ae <_ntoa_format+0x70>
10002a08:	0014      	movs	r4, r2
10002a0a:	e7d0      	b.n	100029ae <_ntoa_format+0x70>
10002a0c:	06b2      	lsls	r2, r6, #26
10002a0e:	d4d1      	bmi.n	100029b4 <_ntoa_format+0x76>
10002a10:	2c1f      	cmp	r4, #31
10002a12:	d8cf      	bhi.n	100029b4 <_ntoa_format+0x76>
10002a14:	2278      	movs	r2, #120	; 0x78
10002a16:	552a      	strb	r2, [r5, r4]
10002a18:	3401      	adds	r4, #1
10002a1a:	e7d1      	b.n	100029c0 <_ntoa_format+0x82>
10002a1c:	06b2      	lsls	r2, r6, #26
10002a1e:	d5cc      	bpl.n	100029ba <_ntoa_format+0x7c>
10002a20:	2c1f      	cmp	r4, #31
10002a22:	d8ca      	bhi.n	100029ba <_ntoa_format+0x7c>
10002a24:	2258      	movs	r2, #88	; 0x58
10002a26:	552a      	strb	r2, [r5, r4]
10002a28:	3401      	adds	r4, #1
10002a2a:	e7c9      	b.n	100029c0 <_ntoa_format+0x82>
10002a2c:	2c1f      	cmp	r4, #31
10002a2e:	d8c7      	bhi.n	100029c0 <_ntoa_format+0x82>
10002a30:	3260      	adds	r2, #96	; 0x60
10002a32:	552a      	strb	r2, [r5, r4]
10002a34:	3401      	adds	r4, #1
10002a36:	e7c3      	b.n	100029c0 <_ntoa_format+0x82>
10002a38:	0772      	lsls	r2, r6, #29
10002a3a:	d503      	bpl.n	10002a44 <_ntoa_format+0x106>
10002a3c:	222b      	movs	r2, #43	; 0x2b
10002a3e:	552a      	strb	r2, [r5, r4]
10002a40:	3401      	adds	r4, #1
10002a42:	e7ca      	b.n	100029da <_ntoa_format+0x9c>
10002a44:	0732      	lsls	r2, r6, #28
10002a46:	d5c8      	bpl.n	100029da <_ntoa_format+0x9c>
10002a48:	2220      	movs	r2, #32
10002a4a:	552a      	strb	r2, [r5, r4]
10002a4c:	3401      	adds	r4, #1
10002a4e:	e7c4      	b.n	100029da <_ntoa_format+0x9c>

10002a50 <_ntoa_long>:
10002a50:	b5f0      	push	{r4, r5, r6, r7, lr}
10002a52:	46de      	mov	lr, fp
10002a54:	4657      	mov	r7, sl
10002a56:	464e      	mov	r6, r9
10002a58:	4645      	mov	r5, r8
10002a5a:	b5e0      	push	{r5, r6, r7, lr}
10002a5c:	b093      	sub	sp, #76	; 0x4c
10002a5e:	4681      	mov	r9, r0
10002a60:	468a      	mov	sl, r1
10002a62:	9208      	str	r2, [sp, #32]
10002a64:	9309      	str	r3, [sp, #36]	; 0x24
10002a66:	ab1c      	add	r3, sp, #112	; 0x70
10002a68:	cb10      	ldmia	r3!, {r4}
10002a6a:	781b      	ldrb	r3, [r3, #0]
10002a6c:	469b      	mov	fp, r3
10002a6e:	9d1e      	ldr	r5, [sp, #120]	; 0x78
10002a70:	9b21      	ldr	r3, [sp, #132]	; 0x84
10002a72:	4698      	mov	r8, r3
10002a74:	2c00      	cmp	r4, #0
10002a76:	d103      	bne.n	10002a80 <_ntoa_long+0x30>
10002a78:	2310      	movs	r3, #16
10002a7a:	4642      	mov	r2, r8
10002a7c:	439a      	bics	r2, r3
10002a7e:	4690      	mov	r8, r2
10002a80:	2380      	movs	r3, #128	; 0x80
10002a82:	00db      	lsls	r3, r3, #3
10002a84:	4646      	mov	r6, r8
10002a86:	401e      	ands	r6, r3
10002a88:	4642      	mov	r2, r8
10002a8a:	421a      	tst	r2, r3
10002a8c:	d012      	beq.n	10002ab4 <_ntoa_long+0x64>
10002a8e:	2c00      	cmp	r4, #0
10002a90:	d022      	beq.n	10002ad8 <_ntoa_long+0x88>
10002a92:	2600      	movs	r6, #0
10002a94:	e00e      	b.n	10002ab4 <_ntoa_long+0x64>
10002a96:	3330      	adds	r3, #48	; 0x30
10002a98:	b2d9      	uxtb	r1, r3
10002a9a:	1c77      	adds	r7, r6, #1
10002a9c:	ab0a      	add	r3, sp, #40	; 0x28
10002a9e:	5599      	strb	r1, [r3, r6]
10002aa0:	0029      	movs	r1, r5
10002aa2:	0020      	movs	r0, r4
10002aa4:	f000 ffd6 	bl	10003a54 <__wrap___aeabi_uidiv>
10002aa8:	42ac      	cmp	r4, r5
10002aaa:	d316      	bcc.n	10002ada <_ntoa_long+0x8a>
10002aac:	2f1f      	cmp	r7, #31
10002aae:	d814      	bhi.n	10002ada <_ntoa_long+0x8a>
10002ab0:	003e      	movs	r6, r7
10002ab2:	0004      	movs	r4, r0
10002ab4:	0029      	movs	r1, r5
10002ab6:	0020      	movs	r0, r4
10002ab8:	f000 ffcc 	bl	10003a54 <__wrap___aeabi_uidiv>
10002abc:	b2cb      	uxtb	r3, r1
10002abe:	2b09      	cmp	r3, #9
10002ac0:	d9e9      	bls.n	10002a96 <_ntoa_long+0x46>
10002ac2:	4642      	mov	r2, r8
10002ac4:	0692      	lsls	r2, r2, #26
10002ac6:	d505      	bpl.n	10002ad4 <_ntoa_long+0x84>
10002ac8:	2141      	movs	r1, #65	; 0x41
10002aca:	18c9      	adds	r1, r1, r3
10002acc:	b2c9      	uxtb	r1, r1
10002ace:	390a      	subs	r1, #10
10002ad0:	b2c9      	uxtb	r1, r1
10002ad2:	e7e2      	b.n	10002a9a <_ntoa_long+0x4a>
10002ad4:	2161      	movs	r1, #97	; 0x61
10002ad6:	e7f8      	b.n	10002aca <_ntoa_long+0x7a>
10002ad8:	0027      	movs	r7, r4
10002ada:	4643      	mov	r3, r8
10002adc:	9306      	str	r3, [sp, #24]
10002ade:	9b20      	ldr	r3, [sp, #128]	; 0x80
10002ae0:	9305      	str	r3, [sp, #20]
10002ae2:	9b1f      	ldr	r3, [sp, #124]	; 0x7c
10002ae4:	9304      	str	r3, [sp, #16]
10002ae6:	9503      	str	r5, [sp, #12]
10002ae8:	465b      	mov	r3, fp
10002aea:	9302      	str	r3, [sp, #8]
10002aec:	9701      	str	r7, [sp, #4]
10002aee:	ab0a      	add	r3, sp, #40	; 0x28
10002af0:	9300      	str	r3, [sp, #0]
10002af2:	9b09      	ldr	r3, [sp, #36]	; 0x24
10002af4:	9a08      	ldr	r2, [sp, #32]
10002af6:	4651      	mov	r1, sl
10002af8:	4648      	mov	r0, r9
10002afa:	f7ff ff20 	bl	1000293e <_ntoa_format>
10002afe:	b013      	add	sp, #76	; 0x4c
10002b00:	bcf0      	pop	{r4, r5, r6, r7}
10002b02:	46bb      	mov	fp, r7
10002b04:	46b2      	mov	sl, r6
10002b06:	46a9      	mov	r9, r5
10002b08:	46a0      	mov	r8, r4
10002b0a:	bdf0      	pop	{r4, r5, r6, r7, pc}

10002b0c <_ntoa_long_long>:
10002b0c:	b5f0      	push	{r4, r5, r6, r7, lr}
10002b0e:	46de      	mov	lr, fp
10002b10:	4657      	mov	r7, sl
10002b12:	464e      	mov	r6, r9
10002b14:	4645      	mov	r5, r8
10002b16:	b5e0      	push	{r5, r6, r7, lr}
10002b18:	b095      	sub	sp, #84	; 0x54
10002b1a:	9008      	str	r0, [sp, #32]
10002b1c:	9109      	str	r1, [sp, #36]	; 0x24
10002b1e:	920a      	str	r2, [sp, #40]	; 0x28
10002b20:	930b      	str	r3, [sp, #44]	; 0x2c
10002b22:	9e1e      	ldr	r6, [sp, #120]	; 0x78
10002b24:	9c1f      	ldr	r4, [sp, #124]	; 0x7c
10002b26:	ab20      	add	r3, sp, #128	; 0x80
10002b28:	781b      	ldrb	r3, [r3, #0]
10002b2a:	469b      	mov	fp, r3
10002b2c:	9b22      	ldr	r3, [sp, #136]	; 0x88
10002b2e:	4699      	mov	r9, r3
10002b30:	9d23      	ldr	r5, [sp, #140]	; 0x8c
10002b32:	9b26      	ldr	r3, [sp, #152]	; 0x98
10002b34:	469a      	mov	sl, r3
10002b36:	0033      	movs	r3, r6
10002b38:	4323      	orrs	r3, r4
10002b3a:	d103      	bne.n	10002b44 <_ntoa_long_long+0x38>
10002b3c:	3310      	adds	r3, #16
10002b3e:	4652      	mov	r2, sl
10002b40:	439a      	bics	r2, r3
10002b42:	4692      	mov	sl, r2
10002b44:	2380      	movs	r3, #128	; 0x80
10002b46:	00db      	lsls	r3, r3, #3
10002b48:	4657      	mov	r7, sl
10002b4a:	401f      	ands	r7, r3
10002b4c:	4652      	mov	r2, sl
10002b4e:	421a      	tst	r2, r3
10002b50:	d019      	beq.n	10002b86 <_ntoa_long_long+0x7a>
10002b52:	0033      	movs	r3, r6
10002b54:	4323      	orrs	r3, r4
10002b56:	d02d      	beq.n	10002bb4 <_ntoa_long_long+0xa8>
10002b58:	2700      	movs	r7, #0
10002b5a:	e014      	b.n	10002b86 <_ntoa_long_long+0x7a>
10002b5c:	3330      	adds	r3, #48	; 0x30
10002b5e:	b2da      	uxtb	r2, r3
10002b60:	1c7b      	adds	r3, r7, #1
10002b62:	4698      	mov	r8, r3
10002b64:	ab0c      	add	r3, sp, #48	; 0x30
10002b66:	55da      	strb	r2, [r3, r7]
10002b68:	464a      	mov	r2, r9
10002b6a:	002b      	movs	r3, r5
10002b6c:	0030      	movs	r0, r6
10002b6e:	0021      	movs	r1, r4
10002b70:	f000 ffae 	bl	10003ad0 <__wrap___aeabi_uldivmod>
10002b74:	42a5      	cmp	r5, r4
10002b76:	d81f      	bhi.n	10002bb8 <_ntoa_long_long+0xac>
10002b78:	d019      	beq.n	10002bae <_ntoa_long_long+0xa2>
10002b7a:	4643      	mov	r3, r8
10002b7c:	2b1f      	cmp	r3, #31
10002b7e:	d81b      	bhi.n	10002bb8 <_ntoa_long_long+0xac>
10002b80:	4647      	mov	r7, r8
10002b82:	0006      	movs	r6, r0
10002b84:	000c      	movs	r4, r1
10002b86:	464a      	mov	r2, r9
10002b88:	002b      	movs	r3, r5
10002b8a:	0030      	movs	r0, r6
10002b8c:	0021      	movs	r1, r4
10002b8e:	f000 ff9f 	bl	10003ad0 <__wrap___aeabi_uldivmod>
10002b92:	b2d3      	uxtb	r3, r2
10002b94:	2b09      	cmp	r3, #9
10002b96:	d9e1      	bls.n	10002b5c <_ntoa_long_long+0x50>
10002b98:	4652      	mov	r2, sl
10002b9a:	0692      	lsls	r2, r2, #26
10002b9c:	d505      	bpl.n	10002baa <_ntoa_long_long+0x9e>
10002b9e:	2241      	movs	r2, #65	; 0x41
10002ba0:	18d2      	adds	r2, r2, r3
10002ba2:	b2d2      	uxtb	r2, r2
10002ba4:	3a0a      	subs	r2, #10
10002ba6:	b2d2      	uxtb	r2, r2
10002ba8:	e7da      	b.n	10002b60 <_ntoa_long_long+0x54>
10002baa:	2261      	movs	r2, #97	; 0x61
10002bac:	e7f8      	b.n	10002ba0 <_ntoa_long_long+0x94>
10002bae:	45b1      	cmp	r9, r6
10002bb0:	d9e3      	bls.n	10002b7a <_ntoa_long_long+0x6e>
10002bb2:	e001      	b.n	10002bb8 <_ntoa_long_long+0xac>
10002bb4:	2300      	movs	r3, #0
10002bb6:	4698      	mov	r8, r3
10002bb8:	4653      	mov	r3, sl
10002bba:	9306      	str	r3, [sp, #24]
10002bbc:	9b25      	ldr	r3, [sp, #148]	; 0x94
10002bbe:	9305      	str	r3, [sp, #20]
10002bc0:	9b24      	ldr	r3, [sp, #144]	; 0x90
10002bc2:	9304      	str	r3, [sp, #16]
10002bc4:	464b      	mov	r3, r9
10002bc6:	9303      	str	r3, [sp, #12]
10002bc8:	465b      	mov	r3, fp
10002bca:	9302      	str	r3, [sp, #8]
10002bcc:	4643      	mov	r3, r8
10002bce:	9301      	str	r3, [sp, #4]
10002bd0:	ab0c      	add	r3, sp, #48	; 0x30
10002bd2:	9300      	str	r3, [sp, #0]
10002bd4:	9b0b      	ldr	r3, [sp, #44]	; 0x2c
10002bd6:	9a0a      	ldr	r2, [sp, #40]	; 0x28
10002bd8:	9909      	ldr	r1, [sp, #36]	; 0x24
10002bda:	9808      	ldr	r0, [sp, #32]
10002bdc:	f7ff feaf 	bl	1000293e <_ntoa_format>
10002be0:	b015      	add	sp, #84	; 0x54
10002be2:	bcf0      	pop	{r4, r5, r6, r7}
10002be4:	46bb      	mov	fp, r7
10002be6:	46b2      	mov	sl, r6
10002be8:	46a9      	mov	r9, r5
10002bea:	46a0      	mov	r8, r4
10002bec:	bdf0      	pop	{r4, r5, r6, r7, pc}
	...

10002bf0 <_etoa>:
10002bf0:	b5f0      	push	{r4, r5, r6, r7, lr}
10002bf2:	46de      	mov	lr, fp
10002bf4:	4657      	mov	r7, sl
10002bf6:	464e      	mov	r6, r9
10002bf8:	4645      	mov	r5, r8
10002bfa:	b5e0      	push	{r5, r6, r7, lr}
10002bfc:	b091      	sub	sp, #68	; 0x44
10002bfe:	4683      	mov	fp, r0
10002c00:	468a      	mov	sl, r1
10002c02:	920c      	str	r2, [sp, #48]	; 0x30
10002c04:	4698      	mov	r8, r3
10002c06:	9c1a      	ldr	r4, [sp, #104]	; 0x68
10002c08:	9408      	str	r4, [sp, #32]
10002c0a:	9d1b      	ldr	r5, [sp, #108]	; 0x6c
10002c0c:	9509      	str	r5, [sp, #36]	; 0x24
10002c0e:	0022      	movs	r2, r4
10002c10:	002b      	movs	r3, r5
10002c12:	0020      	movs	r0, r4
10002c14:	0029      	movs	r1, r5
10002c16:	f001 f9d6 	bl	10003fc6 <__wrap___aeabi_dcmpun>
10002c1a:	2800      	cmp	r0, #0
10002c1c:	d000      	beq.n	10002c20 <_etoa+0x30>
10002c1e:	e0e5      	b.n	10002dec <_etoa+0x1fc>
10002c20:	2201      	movs	r2, #1
10002c22:	4252      	negs	r2, r2
10002c24:	4bd7      	ldr	r3, [pc, #860]	; (10002f84 <_etoa+0x394>)
10002c26:	0020      	movs	r0, r4
10002c28:	0029      	movs	r1, r5
10002c2a:	f001 f9c7 	bl	10003fbc <__wrap___aeabi_dcmpgt>
10002c2e:	2800      	cmp	r0, #0
10002c30:	d000      	beq.n	10002c34 <_etoa+0x44>
10002c32:	e0db      	b.n	10002dec <_etoa+0x1fc>
10002c34:	2201      	movs	r2, #1
10002c36:	4252      	negs	r2, r2
10002c38:	4bd3      	ldr	r3, [pc, #844]	; (10002f88 <_etoa+0x398>)
10002c3a:	0020      	movs	r0, r4
10002c3c:	0029      	movs	r1, r5
10002c3e:	f001 f9a7 	bl	10003f90 <__wrap___aeabi_dcmplt>
10002c42:	2800      	cmp	r0, #0
10002c44:	d000      	beq.n	10002c48 <_etoa+0x58>
10002c46:	e0d1      	b.n	10002dec <_etoa+0x1fc>
10002c48:	2200      	movs	r2, #0
10002c4a:	2300      	movs	r3, #0
10002c4c:	9e08      	ldr	r6, [sp, #32]
10002c4e:	0030      	movs	r0, r6
10002c50:	9d09      	ldr	r5, [sp, #36]	; 0x24
10002c52:	0029      	movs	r1, r5
10002c54:	f001 f99c 	bl	10003f90 <__wrap___aeabi_dcmplt>
10002c58:	2800      	cmp	r0, #0
10002c5a:	d000      	beq.n	10002c5e <_etoa+0x6e>
10002c5c:	e0dd      	b.n	10002e1a <_etoa+0x22a>
10002c5e:	9808      	ldr	r0, [sp, #32]
10002c60:	9909      	ldr	r1, [sp, #36]	; 0x24
10002c62:	9006      	str	r0, [sp, #24]
10002c64:	9107      	str	r1, [sp, #28]
10002c66:	2380      	movs	r3, #128	; 0x80
10002c68:	00db      	lsls	r3, r3, #3
10002c6a:	9a1e      	ldr	r2, [sp, #120]	; 0x78
10002c6c:	401a      	ands	r2, r3
10002c6e:	920d      	str	r2, [sp, #52]	; 0x34
10002c70:	9a1e      	ldr	r2, [sp, #120]	; 0x78
10002c72:	421a      	tst	r2, r3
10002c74:	d101      	bne.n	10002c7a <_etoa+0x8a>
10002c76:	2306      	movs	r3, #6
10002c78:	931c      	str	r3, [sp, #112]	; 0x70
10002c7a:	9806      	ldr	r0, [sp, #24]
10002c7c:	9907      	ldr	r1, [sp, #28]
10002c7e:	0004      	movs	r4, r0
10002c80:	000d      	movs	r5, r1
10002c82:	000a      	movs	r2, r1
10002c84:	0006      	movs	r6, r0
10002c86:	4302      	orrs	r2, r0
10002c88:	d100      	bne.n	10002c8c <_etoa+0x9c>
10002c8a:	e0d1      	b.n	10002e30 <_etoa+0x240>
10002c8c:	0d08      	lsrs	r0, r1, #20
10002c8e:	0540      	lsls	r0, r0, #21
10002c90:	0d40      	lsrs	r0, r0, #21
10002c92:	4cbe      	ldr	r4, [pc, #760]	; (10002f8c <_etoa+0x39c>)
10002c94:	46a4      	mov	ip, r4
10002c96:	4460      	add	r0, ip
10002c98:	030a      	lsls	r2, r1, #12
10002c9a:	0b12      	lsrs	r2, r2, #12
10002c9c:	4bbc      	ldr	r3, [pc, #752]	; (10002f90 <_etoa+0x3a0>)
10002c9e:	4313      	orrs	r3, r2
10002ca0:	001f      	movs	r7, r3
10002ca2:	f001 f9a3 	bl	10003fec <__wrap___aeabi_i2d>
10002ca6:	4abb      	ldr	r2, [pc, #748]	; (10002f94 <_etoa+0x3a4>)
10002ca8:	4bbb      	ldr	r3, [pc, #748]	; (10002f98 <_etoa+0x3a8>)
10002caa:	f001 f932 	bl	10003f12 <__wrap___aeabi_dmul>
10002cae:	4abb      	ldr	r2, [pc, #748]	; (10002f9c <_etoa+0x3ac>)
10002cb0:	4bbb      	ldr	r3, [pc, #748]	; (10002fa0 <_etoa+0x3b0>)
10002cb2:	f001 f90f 	bl	10003ed4 <__wrap___aeabi_dadd>
10002cb6:	0004      	movs	r4, r0
10002cb8:	000d      	movs	r5, r1
10002cba:	2200      	movs	r2, #0
10002cbc:	4bb9      	ldr	r3, [pc, #740]	; (10002fa4 <_etoa+0x3b4>)
10002cbe:	0030      	movs	r0, r6
10002cc0:	0039      	movs	r1, r7
10002cc2:	f001 f902 	bl	10003eca <__wrap___aeabi_dsub>
10002cc6:	4ab8      	ldr	r2, [pc, #736]	; (10002fa8 <_etoa+0x3b8>)
10002cc8:	4bb8      	ldr	r3, [pc, #736]	; (10002fac <_etoa+0x3bc>)
10002cca:	f001 f922 	bl	10003f12 <__wrap___aeabi_dmul>
10002cce:	0002      	movs	r2, r0
10002cd0:	000b      	movs	r3, r1
10002cd2:	0020      	movs	r0, r4
10002cd4:	0029      	movs	r1, r5
10002cd6:	f001 f8fd 	bl	10003ed4 <__wrap___aeabi_dadd>
10002cda:	f001 f99f 	bl	1000401c <__wrap___aeabi_d2iz>
10002cde:	4681      	mov	r9, r0
10002ce0:	f001 f984 	bl	10003fec <__wrap___aeabi_i2d>
10002ce4:	0004      	movs	r4, r0
10002ce6:	000d      	movs	r5, r1
10002ce8:	4ab1      	ldr	r2, [pc, #708]	; (10002fb0 <_etoa+0x3c0>)
10002cea:	4bb2      	ldr	r3, [pc, #712]	; (10002fb4 <_etoa+0x3c4>)
10002cec:	f001 f911 	bl	10003f12 <__wrap___aeabi_dmul>
10002cf0:	2200      	movs	r2, #0
10002cf2:	4bb1      	ldr	r3, [pc, #708]	; (10002fb8 <_etoa+0x3c8>)
10002cf4:	f001 f8ee 	bl	10003ed4 <__wrap___aeabi_dadd>
10002cf8:	f001 f990 	bl	1000401c <__wrap___aeabi_d2iz>
10002cfc:	0006      	movs	r6, r0
10002cfe:	4aaf      	ldr	r2, [pc, #700]	; (10002fbc <_etoa+0x3cc>)
10002d00:	4baf      	ldr	r3, [pc, #700]	; (10002fc0 <_etoa+0x3d0>)
10002d02:	0020      	movs	r0, r4
10002d04:	0029      	movs	r1, r5
10002d06:	f001 f904 	bl	10003f12 <__wrap___aeabi_dmul>
10002d0a:	0004      	movs	r4, r0
10002d0c:	000d      	movs	r5, r1
10002d0e:	0030      	movs	r0, r6
10002d10:	f001 f96c 	bl	10003fec <__wrap___aeabi_i2d>
10002d14:	4aab      	ldr	r2, [pc, #684]	; (10002fc4 <_etoa+0x3d4>)
10002d16:	4bac      	ldr	r3, [pc, #688]	; (10002fc8 <_etoa+0x3d8>)
10002d18:	f001 f8fb 	bl	10003f12 <__wrap___aeabi_dmul>
10002d1c:	0002      	movs	r2, r0
10002d1e:	000b      	movs	r3, r1
10002d20:	0020      	movs	r0, r4
10002d22:	0029      	movs	r1, r5
10002d24:	f001 f8d1 	bl	10003eca <__wrap___aeabi_dsub>
10002d28:	0004      	movs	r4, r0
10002d2a:	000d      	movs	r5, r1
10002d2c:	0002      	movs	r2, r0
10002d2e:	000b      	movs	r3, r1
10002d30:	f001 f8ef 	bl	10003f12 <__wrap___aeabi_dmul>
10002d34:	900a      	str	r0, [sp, #40]	; 0x28
10002d36:	910b      	str	r1, [sp, #44]	; 0x2c
10002d38:	4ba4      	ldr	r3, [pc, #656]	; (10002fcc <_etoa+0x3dc>)
10002d3a:	18f3      	adds	r3, r6, r3
10002d3c:	2600      	movs	r6, #0
10002d3e:	051f      	lsls	r7, r3, #20
10002d40:	0022      	movs	r2, r4
10002d42:	002b      	movs	r3, r5
10002d44:	0020      	movs	r0, r4
10002d46:	0029      	movs	r1, r5
10002d48:	f001 f8c4 	bl	10003ed4 <__wrap___aeabi_dadd>
10002d4c:	900e      	str	r0, [sp, #56]	; 0x38
10002d4e:	910f      	str	r1, [sp, #60]	; 0x3c
10002d50:	0022      	movs	r2, r4
10002d52:	002b      	movs	r3, r5
10002d54:	2000      	movs	r0, #0
10002d56:	2180      	movs	r1, #128	; 0x80
10002d58:	05c9      	lsls	r1, r1, #23
10002d5a:	f001 f8b6 	bl	10003eca <__wrap___aeabi_dsub>
10002d5e:	0004      	movs	r4, r0
10002d60:	000d      	movs	r5, r1
10002d62:	2200      	movs	r2, #0
10002d64:	4b9a      	ldr	r3, [pc, #616]	; (10002fd0 <_etoa+0x3e0>)
10002d66:	980a      	ldr	r0, [sp, #40]	; 0x28
10002d68:	990b      	ldr	r1, [sp, #44]	; 0x2c
10002d6a:	f001 f8b8 	bl	10003ede <__wrap___aeabi_ddiv>
10002d6e:	2200      	movs	r2, #0
10002d70:	4b98      	ldr	r3, [pc, #608]	; (10002fd4 <_etoa+0x3e4>)
10002d72:	f001 f8af 	bl	10003ed4 <__wrap___aeabi_dadd>
10002d76:	0002      	movs	r2, r0
10002d78:	000b      	movs	r3, r1
10002d7a:	980a      	ldr	r0, [sp, #40]	; 0x28
10002d7c:	990b      	ldr	r1, [sp, #44]	; 0x2c
10002d7e:	f001 f8ae 	bl	10003ede <__wrap___aeabi_ddiv>
10002d82:	2200      	movs	r2, #0
10002d84:	4b94      	ldr	r3, [pc, #592]	; (10002fd8 <_etoa+0x3e8>)
10002d86:	f001 f8a5 	bl	10003ed4 <__wrap___aeabi_dadd>
10002d8a:	0002      	movs	r2, r0
10002d8c:	000b      	movs	r3, r1
10002d8e:	980a      	ldr	r0, [sp, #40]	; 0x28
10002d90:	990b      	ldr	r1, [sp, #44]	; 0x2c
10002d92:	f001 f8a4 	bl	10003ede <__wrap___aeabi_ddiv>
10002d96:	0002      	movs	r2, r0
10002d98:	000b      	movs	r3, r1
10002d9a:	0020      	movs	r0, r4
10002d9c:	0029      	movs	r1, r5
10002d9e:	f001 f899 	bl	10003ed4 <__wrap___aeabi_dadd>
10002da2:	0002      	movs	r2, r0
10002da4:	000b      	movs	r3, r1
10002da6:	980e      	ldr	r0, [sp, #56]	; 0x38
10002da8:	990f      	ldr	r1, [sp, #60]	; 0x3c
10002daa:	f001 f898 	bl	10003ede <__wrap___aeabi_ddiv>
10002dae:	2200      	movs	r2, #0
10002db0:	4b77      	ldr	r3, [pc, #476]	; (10002f90 <_etoa+0x3a0>)
10002db2:	f001 f88f 	bl	10003ed4 <__wrap___aeabi_dadd>
10002db6:	0032      	movs	r2, r6
10002db8:	003b      	movs	r3, r7
10002dba:	f001 f8aa 	bl	10003f12 <__wrap___aeabi_dmul>
10002dbe:	0006      	movs	r6, r0
10002dc0:	000f      	movs	r7, r1
10002dc2:	0004      	movs	r4, r0
10002dc4:	000d      	movs	r5, r1
10002dc6:	9a06      	ldr	r2, [sp, #24]
10002dc8:	9b07      	ldr	r3, [sp, #28]
10002dca:	f001 f8f7 	bl	10003fbc <__wrap___aeabi_dcmpgt>
10002dce:	2800      	cmp	r0, #0
10002dd0:	d030      	beq.n	10002e34 <_etoa+0x244>
10002dd2:	2301      	movs	r3, #1
10002dd4:	425b      	negs	r3, r3
10002dd6:	469c      	mov	ip, r3
10002dd8:	44e1      	add	r9, ip
10002dda:	2200      	movs	r2, #0
10002ddc:	4b7d      	ldr	r3, [pc, #500]	; (10002fd4 <_etoa+0x3e4>)
10002dde:	0030      	movs	r0, r6
10002de0:	0039      	movs	r1, r7
10002de2:	f001 f87c 	bl	10003ede <__wrap___aeabi_ddiv>
10002de6:	0004      	movs	r4, r0
10002de8:	000d      	movs	r5, r1
10002dea:	e023      	b.n	10002e34 <_etoa+0x244>
10002dec:	9b1e      	ldr	r3, [sp, #120]	; 0x78
10002dee:	9304      	str	r3, [sp, #16]
10002df0:	9b1d      	ldr	r3, [sp, #116]	; 0x74
10002df2:	9303      	str	r3, [sp, #12]
10002df4:	9b1c      	ldr	r3, [sp, #112]	; 0x70
10002df6:	9302      	str	r3, [sp, #8]
10002df8:	9a08      	ldr	r2, [sp, #32]
10002dfa:	9b09      	ldr	r3, [sp, #36]	; 0x24
10002dfc:	9200      	str	r2, [sp, #0]
10002dfe:	9301      	str	r3, [sp, #4]
10002e00:	4643      	mov	r3, r8
10002e02:	9a0c      	ldr	r2, [sp, #48]	; 0x30
10002e04:	4651      	mov	r1, sl
10002e06:	4658      	mov	r0, fp
10002e08:	f000 f8fc 	bl	10003004 <_ftoa>
10002e0c:	b011      	add	sp, #68	; 0x44
10002e0e:	bcf0      	pop	{r4, r5, r6, r7}
10002e10:	46bb      	mov	fp, r7
10002e12:	46b2      	mov	sl, r6
10002e14:	46a9      	mov	r9, r5
10002e16:	46a0      	mov	r8, r4
10002e18:	bdf0      	pop	{r4, r5, r6, r7, pc}
10002e1a:	2300      	movs	r3, #0
10002e1c:	2400      	movs	r4, #0
10002e1e:	9306      	str	r3, [sp, #24]
10002e20:	9407      	str	r4, [sp, #28]
10002e22:	9606      	str	r6, [sp, #24]
10002e24:	2380      	movs	r3, #128	; 0x80
10002e26:	061b      	lsls	r3, r3, #24
10002e28:	469c      	mov	ip, r3
10002e2a:	4465      	add	r5, ip
10002e2c:	9507      	str	r5, [sp, #28]
10002e2e:	e71a      	b.n	10002c66 <_etoa+0x76>
10002e30:	2300      	movs	r3, #0
10002e32:	4699      	mov	r9, r3
10002e34:	464b      	mov	r3, r9
10002e36:	3363      	adds	r3, #99	; 0x63
10002e38:	2bc6      	cmp	r3, #198	; 0xc6
10002e3a:	d81e      	bhi.n	10002e7a <_etoa+0x28a>
10002e3c:	2604      	movs	r6, #4
10002e3e:	9b1e      	ldr	r3, [sp, #120]	; 0x78
10002e40:	051b      	lsls	r3, r3, #20
10002e42:	d526      	bpl.n	10002e92 <_etoa+0x2a2>
10002e44:	002b      	movs	r3, r5
10002e46:	4323      	orrs	r3, r4
10002e48:	d00f      	beq.n	10002e6a <_etoa+0x27a>
10002e4a:	4a64      	ldr	r2, [pc, #400]	; (10002fdc <_etoa+0x3ec>)
10002e4c:	4b64      	ldr	r3, [pc, #400]	; (10002fe0 <_etoa+0x3f0>)
10002e4e:	9806      	ldr	r0, [sp, #24]
10002e50:	9907      	ldr	r1, [sp, #28]
10002e52:	f001 f8ab 	bl	10003fac <__wrap___aeabi_dcmpge>
10002e56:	2800      	cmp	r0, #0
10002e58:	d079      	beq.n	10002f4e <_etoa+0x35e>
10002e5a:	2200      	movs	r2, #0
10002e5c:	4b61      	ldr	r3, [pc, #388]	; (10002fe4 <_etoa+0x3f4>)
10002e5e:	9806      	ldr	r0, [sp, #24]
10002e60:	9907      	ldr	r1, [sp, #28]
10002e62:	f001 f895 	bl	10003f90 <__wrap___aeabi_dcmplt>
10002e66:	2800      	cmp	r0, #0
10002e68:	d071      	beq.n	10002f4e <_etoa+0x35e>
10002e6a:	9b1c      	ldr	r3, [sp, #112]	; 0x70
10002e6c:	454b      	cmp	r3, r9
10002e6e:	dd06      	ble.n	10002e7e <_etoa+0x28e>
10002e70:	464a      	mov	r2, r9
10002e72:	1a98      	subs	r0, r3, r2
10002e74:	1e43      	subs	r3, r0, #1
10002e76:	931c      	str	r3, [sp, #112]	; 0x70
10002e78:	e003      	b.n	10002e82 <_etoa+0x292>
10002e7a:	2605      	movs	r6, #5
10002e7c:	e7df      	b.n	10002e3e <_etoa+0x24e>
10002e7e:	2300      	movs	r3, #0
10002e80:	931c      	str	r3, [sp, #112]	; 0x70
10002e82:	2380      	movs	r3, #128	; 0x80
10002e84:	00db      	lsls	r3, r3, #3
10002e86:	9a1e      	ldr	r2, [sp, #120]	; 0x78
10002e88:	431a      	orrs	r2, r3
10002e8a:	921e      	str	r2, [sp, #120]	; 0x78
10002e8c:	2600      	movs	r6, #0
10002e8e:	2300      	movs	r3, #0
10002e90:	4699      	mov	r9, r3
10002e92:	9b1d      	ldr	r3, [sp, #116]	; 0x74
10002e94:	429e      	cmp	r6, r3
10002e96:	d264      	bcs.n	10002f62 <_etoa+0x372>
10002e98:	1b9f      	subs	r7, r3, r6
10002e9a:	2302      	movs	r3, #2
10002e9c:	9a1e      	ldr	r2, [sp, #120]	; 0x78
10002e9e:	401a      	ands	r2, r3
10002ea0:	920a      	str	r2, [sp, #40]	; 0x28
10002ea2:	9a1e      	ldr	r2, [sp, #120]	; 0x78
10002ea4:	4213      	tst	r3, r2
10002ea6:	d002      	beq.n	10002eae <_etoa+0x2be>
10002ea8:	2e00      	cmp	r6, #0
10002eaa:	d000      	beq.n	10002eae <_etoa+0x2be>
10002eac:	2700      	movs	r7, #0
10002eae:	464b      	mov	r3, r9
10002eb0:	2b00      	cmp	r3, #0
10002eb2:	d007      	beq.n	10002ec4 <_etoa+0x2d4>
10002eb4:	0022      	movs	r2, r4
10002eb6:	002b      	movs	r3, r5
10002eb8:	9806      	ldr	r0, [sp, #24]
10002eba:	9907      	ldr	r1, [sp, #28]
10002ebc:	f001 f80f 	bl	10003ede <__wrap___aeabi_ddiv>
10002ec0:	9006      	str	r0, [sp, #24]
10002ec2:	9107      	str	r1, [sp, #28]
10002ec4:	2200      	movs	r2, #0
10002ec6:	2300      	movs	r3, #0
10002ec8:	9808      	ldr	r0, [sp, #32]
10002eca:	9909      	ldr	r1, [sp, #36]	; 0x24
10002ecc:	f001 f860 	bl	10003f90 <__wrap___aeabi_dcmplt>
10002ed0:	2800      	cmp	r0, #0
10002ed2:	d148      	bne.n	10002f66 <_etoa+0x376>
10002ed4:	4b44      	ldr	r3, [pc, #272]	; (10002fe8 <_etoa+0x3f8>)
10002ed6:	9a1e      	ldr	r2, [sp, #120]	; 0x78
10002ed8:	4013      	ands	r3, r2
10002eda:	9304      	str	r3, [sp, #16]
10002edc:	9703      	str	r7, [sp, #12]
10002ede:	9b1c      	ldr	r3, [sp, #112]	; 0x70
10002ee0:	9302      	str	r3, [sp, #8]
10002ee2:	9b06      	ldr	r3, [sp, #24]
10002ee4:	9c07      	ldr	r4, [sp, #28]
10002ee6:	9300      	str	r3, [sp, #0]
10002ee8:	9401      	str	r4, [sp, #4]
10002eea:	4643      	mov	r3, r8
10002eec:	9a0c      	ldr	r2, [sp, #48]	; 0x30
10002eee:	4651      	mov	r1, sl
10002ef0:	4658      	mov	r0, fp
10002ef2:	f000 f887 	bl	10003004 <_ftoa>
10002ef6:	2e00      	cmp	r6, #0
10002ef8:	d100      	bne.n	10002efc <_etoa+0x30c>
10002efa:	e787      	b.n	10002e0c <_etoa+0x21c>
10002efc:	9b1e      	ldr	r3, [sp, #120]	; 0x78
10002efe:	069b      	lsls	r3, r3, #26
10002f00:	d53d      	bpl.n	10002f7e <_etoa+0x38e>
10002f02:	2545      	movs	r5, #69	; 0x45
10002f04:	1c44      	adds	r4, r0, #1
10002f06:	4643      	mov	r3, r8
10002f08:	0002      	movs	r2, r0
10002f0a:	4651      	mov	r1, sl
10002f0c:	0028      	movs	r0, r5
10002f0e:	47d8      	blx	fp
10002f10:	464b      	mov	r3, r9
10002f12:	17da      	asrs	r2, r3, #31
10002f14:	189b      	adds	r3, r3, r2
10002f16:	4053      	eors	r3, r2
10002f18:	2205      	movs	r2, #5
10002f1a:	9205      	str	r2, [sp, #20]
10002f1c:	3e01      	subs	r6, #1
10002f1e:	9604      	str	r6, [sp, #16]
10002f20:	2200      	movs	r2, #0
10002f22:	9203      	str	r2, [sp, #12]
10002f24:	320a      	adds	r2, #10
10002f26:	9202      	str	r2, [sp, #8]
10002f28:	464a      	mov	r2, r9
10002f2a:	0fd0      	lsrs	r0, r2, #31
10002f2c:	9001      	str	r0, [sp, #4]
10002f2e:	9300      	str	r3, [sp, #0]
10002f30:	4643      	mov	r3, r8
10002f32:	0022      	movs	r2, r4
10002f34:	4651      	mov	r1, sl
10002f36:	4658      	mov	r0, fp
10002f38:	f7ff fd8a 	bl	10002a50 <_ntoa_long>
10002f3c:	9b0a      	ldr	r3, [sp, #40]	; 0x28
10002f3e:	2b00      	cmp	r3, #0
10002f40:	d100      	bne.n	10002f44 <_etoa+0x354>
10002f42:	e763      	b.n	10002e0c <_etoa+0x21c>
10002f44:	0002      	movs	r2, r0
10002f46:	465f      	mov	r7, fp
10002f48:	9e0c      	ldr	r6, [sp, #48]	; 0x30
10002f4a:	9d1d      	ldr	r5, [sp, #116]	; 0x74
10002f4c:	e054      	b.n	10002ff8 <_etoa+0x408>
10002f4e:	9b1c      	ldr	r3, [sp, #112]	; 0x70
10002f50:	2b00      	cmp	r3, #0
10002f52:	d09e      	beq.n	10002e92 <_etoa+0x2a2>
10002f54:	9b0d      	ldr	r3, [sp, #52]	; 0x34
10002f56:	2b00      	cmp	r3, #0
10002f58:	d09b      	beq.n	10002e92 <_etoa+0x2a2>
10002f5a:	9b1c      	ldr	r3, [sp, #112]	; 0x70
10002f5c:	3b01      	subs	r3, #1
10002f5e:	931c      	str	r3, [sp, #112]	; 0x70
10002f60:	e797      	b.n	10002e92 <_etoa+0x2a2>
10002f62:	2700      	movs	r7, #0
10002f64:	e799      	b.n	10002e9a <_etoa+0x2aa>
10002f66:	9c06      	ldr	r4, [sp, #24]
10002f68:	9d07      	ldr	r5, [sp, #28]
10002f6a:	0022      	movs	r2, r4
10002f6c:	0029      	movs	r1, r5
10002f6e:	2080      	movs	r0, #128	; 0x80
10002f70:	0600      	lsls	r0, r0, #24
10002f72:	4684      	mov	ip, r0
10002f74:	4461      	add	r1, ip
10002f76:	000b      	movs	r3, r1
10002f78:	9206      	str	r2, [sp, #24]
10002f7a:	9307      	str	r3, [sp, #28]
10002f7c:	e7aa      	b.n	10002ed4 <_etoa+0x2e4>
10002f7e:	2565      	movs	r5, #101	; 0x65
10002f80:	e7c0      	b.n	10002f04 <_etoa+0x314>
10002f82:	46c0      	nop			; (mov r8, r8)
10002f84:	7fefffff 	.word	0x7fefffff
10002f88:	ffefffff 	.word	0xffefffff
10002f8c:	fffffc01 	.word	0xfffffc01
10002f90:	3ff00000 	.word	0x3ff00000
10002f94:	509f79fb 	.word	0x509f79fb
10002f98:	3fd34413 	.word	0x3fd34413
10002f9c:	8b60c8b3 	.word	0x8b60c8b3
10002fa0:	3fc68a28 	.word	0x3fc68a28
10002fa4:	3ff80000 	.word	0x3ff80000
10002fa8:	636f4361 	.word	0x636f4361
10002fac:	3fd287a7 	.word	0x3fd287a7
10002fb0:	0979a371 	.word	0x0979a371
10002fb4:	400a934f 	.word	0x400a934f
10002fb8:	3fe00000 	.word	0x3fe00000
10002fbc:	bbb55516 	.word	0xbbb55516
10002fc0:	40026bb1 	.word	0x40026bb1
10002fc4:	fefa39ef 	.word	0xfefa39ef
10002fc8:	3fe62e42 	.word	0x3fe62e42
10002fcc:	000003ff 	.word	0x000003ff
10002fd0:	402c0000 	.word	0x402c0000
10002fd4:	40240000 	.word	0x40240000
10002fd8:	40180000 	.word	0x40180000
10002fdc:	eb1c432d 	.word	0xeb1c432d
10002fe0:	3f1a36e2 	.word	0x3f1a36e2
10002fe4:	412e8480 	.word	0x412e8480
10002fe8:	fffff7ff 	.word	0xfffff7ff
10002fec:	1c54      	adds	r4, r2, #1
10002fee:	4643      	mov	r3, r8
10002ff0:	4651      	mov	r1, sl
10002ff2:	2020      	movs	r0, #32
10002ff4:	47b8      	blx	r7
10002ff6:	0022      	movs	r2, r4
10002ff8:	1b93      	subs	r3, r2, r6
10002ffa:	42ab      	cmp	r3, r5
10002ffc:	d3f6      	bcc.n	10002fec <_etoa+0x3fc>
10002ffe:	0010      	movs	r0, r2
10003000:	e704      	b.n	10002e0c <_etoa+0x21c>
10003002:	46c0      	nop			; (mov r8, r8)

10003004 <_ftoa>:
10003004:	b5f0      	push	{r4, r5, r6, r7, lr}
10003006:	46de      	mov	lr, fp
10003008:	4657      	mov	r7, sl
1000300a:	464e      	mov	r6, r9
1000300c:	4645      	mov	r5, r8
1000300e:	b5e0      	push	{r5, r6, r7, lr}
10003010:	b095      	sub	sp, #84	; 0x54
10003012:	9006      	str	r0, [sp, #24]
10003014:	9107      	str	r1, [sp, #28]
10003016:	4693      	mov	fp, r2
10003018:	4699      	mov	r9, r3
1000301a:	9f20      	ldr	r7, [sp, #128]	; 0x80
1000301c:	9a1e      	ldr	r2, [sp, #120]	; 0x78
1000301e:	9b1f      	ldr	r3, [sp, #124]	; 0x7c
10003020:	0010      	movs	r0, r2
10003022:	0019      	movs	r1, r3
10003024:	f000 ffcf 	bl	10003fc6 <__wrap___aeabi_dcmpun>
10003028:	2800      	cmp	r0, #0
1000302a:	d131      	bne.n	10003090 <_ftoa+0x8c>
1000302c:	2201      	movs	r2, #1
1000302e:	4252      	negs	r2, r2
10003030:	4bbf      	ldr	r3, [pc, #764]	; (10003330 <_ftoa+0x32c>)
10003032:	981e      	ldr	r0, [sp, #120]	; 0x78
10003034:	991f      	ldr	r1, [sp, #124]	; 0x7c
10003036:	f000 ffab 	bl	10003f90 <__wrap___aeabi_dcmplt>
1000303a:	2800      	cmp	r0, #0
1000303c:	d137      	bne.n	100030ae <_ftoa+0xaa>
1000303e:	2201      	movs	r2, #1
10003040:	4252      	negs	r2, r2
10003042:	4bbc      	ldr	r3, [pc, #752]	; (10003334 <_ftoa+0x330>)
10003044:	981e      	ldr	r0, [sp, #120]	; 0x78
10003046:	991f      	ldr	r1, [sp, #124]	; 0x7c
10003048:	f000 ffb8 	bl	10003fbc <__wrap___aeabi_dcmpgt>
1000304c:	2800      	cmp	r0, #0
1000304e:	d13d      	bne.n	100030cc <_ftoa+0xc8>
10003050:	2200      	movs	r2, #0
10003052:	4bb9      	ldr	r3, [pc, #740]	; (10003338 <_ftoa+0x334>)
10003054:	981e      	ldr	r0, [sp, #120]	; 0x78
10003056:	991f      	ldr	r1, [sp, #124]	; 0x7c
10003058:	f000 ffb0 	bl	10003fbc <__wrap___aeabi_dcmpgt>
1000305c:	2800      	cmp	r0, #0
1000305e:	d150      	bne.n	10003102 <_ftoa+0xfe>
10003060:	2200      	movs	r2, #0
10003062:	4bb6      	ldr	r3, [pc, #728]	; (1000333c <_ftoa+0x338>)
10003064:	981e      	ldr	r0, [sp, #120]	; 0x78
10003066:	991f      	ldr	r1, [sp, #124]	; 0x7c
10003068:	f000 ff92 	bl	10003f90 <__wrap___aeabi_dcmplt>
1000306c:	2800      	cmp	r0, #0
1000306e:	d148      	bne.n	10003102 <_ftoa+0xfe>
10003070:	2200      	movs	r2, #0
10003072:	2300      	movs	r3, #0
10003074:	981e      	ldr	r0, [sp, #120]	; 0x78
10003076:	991f      	ldr	r1, [sp, #124]	; 0x7c
10003078:	f000 ff8a 	bl	10003f90 <__wrap___aeabi_dcmplt>
1000307c:	2800      	cmp	r0, #0
1000307e:	d150      	bne.n	10003122 <_ftoa+0x11e>
10003080:	2300      	movs	r3, #0
10003082:	4698      	mov	r8, r3
10003084:	9b22      	ldr	r3, [sp, #136]	; 0x88
10003086:	055b      	lsls	r3, r3, #21
10003088:	d400      	bmi.n	1000308c <_ftoa+0x88>
1000308a:	e0b6      	b.n	100031fa <_ftoa+0x1f6>
1000308c:	2400      	movs	r4, #0
1000308e:	e058      	b.n	10003142 <_ftoa+0x13e>
10003090:	9b22      	ldr	r3, [sp, #136]	; 0x88
10003092:	9303      	str	r3, [sp, #12]
10003094:	9b21      	ldr	r3, [sp, #132]	; 0x84
10003096:	9302      	str	r3, [sp, #8]
10003098:	2303      	movs	r3, #3
1000309a:	9301      	str	r3, [sp, #4]
1000309c:	4ba8      	ldr	r3, [pc, #672]	; (10003340 <_ftoa+0x33c>)
1000309e:	9300      	str	r3, [sp, #0]
100030a0:	464b      	mov	r3, r9
100030a2:	465a      	mov	r2, fp
100030a4:	9907      	ldr	r1, [sp, #28]
100030a6:	9806      	ldr	r0, [sp, #24]
100030a8:	f7ff fbf2 	bl	10002890 <_out_rev>
100030ac:	e10e      	b.n	100032cc <_ftoa+0x2c8>
100030ae:	9b22      	ldr	r3, [sp, #136]	; 0x88
100030b0:	9303      	str	r3, [sp, #12]
100030b2:	9b21      	ldr	r3, [sp, #132]	; 0x84
100030b4:	9302      	str	r3, [sp, #8]
100030b6:	2304      	movs	r3, #4
100030b8:	9301      	str	r3, [sp, #4]
100030ba:	4ba2      	ldr	r3, [pc, #648]	; (10003344 <_ftoa+0x340>)
100030bc:	9300      	str	r3, [sp, #0]
100030be:	464b      	mov	r3, r9
100030c0:	465a      	mov	r2, fp
100030c2:	9907      	ldr	r1, [sp, #28]
100030c4:	9806      	ldr	r0, [sp, #24]
100030c6:	f7ff fbe3 	bl	10002890 <_out_rev>
100030ca:	e0ff      	b.n	100032cc <_ftoa+0x2c8>
100030cc:	2304      	movs	r3, #4
100030ce:	9a22      	ldr	r2, [sp, #136]	; 0x88
100030d0:	401a      	ands	r2, r3
100030d2:	9922      	ldr	r1, [sp, #136]	; 0x88
100030d4:	420b      	tst	r3, r1
100030d6:	d010      	beq.n	100030fa <_ftoa+0xf6>
100030d8:	4b9b      	ldr	r3, [pc, #620]	; (10003348 <_ftoa+0x344>)
100030da:	2a00      	cmp	r2, #0
100030dc:	d00f      	beq.n	100030fe <_ftoa+0xfa>
100030de:	2204      	movs	r2, #4
100030e0:	9922      	ldr	r1, [sp, #136]	; 0x88
100030e2:	9103      	str	r1, [sp, #12]
100030e4:	9921      	ldr	r1, [sp, #132]	; 0x84
100030e6:	9102      	str	r1, [sp, #8]
100030e8:	9201      	str	r2, [sp, #4]
100030ea:	9300      	str	r3, [sp, #0]
100030ec:	464b      	mov	r3, r9
100030ee:	465a      	mov	r2, fp
100030f0:	9907      	ldr	r1, [sp, #28]
100030f2:	9806      	ldr	r0, [sp, #24]
100030f4:	f7ff fbcc 	bl	10002890 <_out_rev>
100030f8:	e0e8      	b.n	100032cc <_ftoa+0x2c8>
100030fa:	4b94      	ldr	r3, [pc, #592]	; (1000334c <_ftoa+0x348>)
100030fc:	e7ed      	b.n	100030da <_ftoa+0xd6>
100030fe:	2203      	movs	r2, #3
10003100:	e7ee      	b.n	100030e0 <_ftoa+0xdc>
10003102:	9b22      	ldr	r3, [sp, #136]	; 0x88
10003104:	9304      	str	r3, [sp, #16]
10003106:	9b21      	ldr	r3, [sp, #132]	; 0x84
10003108:	9303      	str	r3, [sp, #12]
1000310a:	9702      	str	r7, [sp, #8]
1000310c:	9b1e      	ldr	r3, [sp, #120]	; 0x78
1000310e:	9c1f      	ldr	r4, [sp, #124]	; 0x7c
10003110:	9300      	str	r3, [sp, #0]
10003112:	9401      	str	r4, [sp, #4]
10003114:	464b      	mov	r3, r9
10003116:	465a      	mov	r2, fp
10003118:	9907      	ldr	r1, [sp, #28]
1000311a:	9806      	ldr	r0, [sp, #24]
1000311c:	f7ff fd68 	bl	10002bf0 <_etoa>
10003120:	e0d4      	b.n	100032cc <_ftoa+0x2c8>
10003122:	9a1e      	ldr	r2, [sp, #120]	; 0x78
10003124:	9b1f      	ldr	r3, [sp, #124]	; 0x7c
10003126:	2000      	movs	r0, #0
10003128:	2100      	movs	r1, #0
1000312a:	f000 fece 	bl	10003eca <__wrap___aeabi_dsub>
1000312e:	901e      	str	r0, [sp, #120]	; 0x78
10003130:	911f      	str	r1, [sp, #124]	; 0x7c
10003132:	2301      	movs	r3, #1
10003134:	4698      	mov	r8, r3
10003136:	e7a5      	b.n	10003084 <_ftoa+0x80>
10003138:	ab0c      	add	r3, sp, #48	; 0x30
1000313a:	2230      	movs	r2, #48	; 0x30
1000313c:	551a      	strb	r2, [r3, r4]
1000313e:	3f01      	subs	r7, #1
10003140:	3401      	adds	r4, #1
10003142:	2c1f      	cmp	r4, #31
10003144:	d801      	bhi.n	1000314a <_ftoa+0x146>
10003146:	2f09      	cmp	r7, #9
10003148:	d8f6      	bhi.n	10003138 <_ftoa+0x134>
1000314a:	981e      	ldr	r0, [sp, #120]	; 0x78
1000314c:	991f      	ldr	r1, [sp, #124]	; 0x7c
1000314e:	f000 ff65 	bl	1000401c <__wrap___aeabi_d2iz>
10003152:	0005      	movs	r5, r0
10003154:	f000 ff4a 	bl	10003fec <__wrap___aeabi_i2d>
10003158:	0002      	movs	r2, r0
1000315a:	000b      	movs	r3, r1
1000315c:	981e      	ldr	r0, [sp, #120]	; 0x78
1000315e:	991f      	ldr	r1, [sp, #124]	; 0x7c
10003160:	f000 feb3 	bl	10003eca <__wrap___aeabi_dsub>
10003164:	00fa      	lsls	r2, r7, #3
10003166:	4b7a      	ldr	r3, [pc, #488]	; (10003350 <_ftoa+0x34c>)
10003168:	189b      	adds	r3, r3, r2
1000316a:	681a      	ldr	r2, [r3, #0]
1000316c:	685b      	ldr	r3, [r3, #4]
1000316e:	920a      	str	r2, [sp, #40]	; 0x28
10003170:	930b      	str	r3, [sp, #44]	; 0x2c
10003172:	f000 fece 	bl	10003f12 <__wrap___aeabi_dmul>
10003176:	9008      	str	r0, [sp, #32]
10003178:	9109      	str	r1, [sp, #36]	; 0x24
1000317a:	f000 ff73 	bl	10004064 <__wrap___aeabi_d2uiz>
1000317e:	0006      	movs	r6, r0
10003180:	f000 ff30 	bl	10003fe4 <__wrap___aeabi_ui2d>
10003184:	0002      	movs	r2, r0
10003186:	000b      	movs	r3, r1
10003188:	9808      	ldr	r0, [sp, #32]
1000318a:	9909      	ldr	r1, [sp, #36]	; 0x24
1000318c:	f000 fe9d 	bl	10003eca <__wrap___aeabi_dsub>
10003190:	9008      	str	r0, [sp, #32]
10003192:	9109      	str	r1, [sp, #36]	; 0x24
10003194:	2200      	movs	r2, #0
10003196:	4b6f      	ldr	r3, [pc, #444]	; (10003354 <_ftoa+0x350>)
10003198:	f000 ff10 	bl	10003fbc <__wrap___aeabi_dcmpgt>
1000319c:	2800      	cmp	r0, #0
1000319e:	d02e      	beq.n	100031fe <_ftoa+0x1fa>
100031a0:	3601      	adds	r6, #1
100031a2:	0030      	movs	r0, r6
100031a4:	f000 ff1e 	bl	10003fe4 <__wrap___aeabi_ui2d>
100031a8:	0002      	movs	r2, r0
100031aa:	000b      	movs	r3, r1
100031ac:	980a      	ldr	r0, [sp, #40]	; 0x28
100031ae:	990b      	ldr	r1, [sp, #44]	; 0x2c
100031b0:	f000 fef4 	bl	10003f9c <__wrap___aeabi_dcmple>
100031b4:	2800      	cmp	r0, #0
100031b6:	d001      	beq.n	100031bc <_ftoa+0x1b8>
100031b8:	3501      	adds	r5, #1
100031ba:	2600      	movs	r6, #0
100031bc:	2f00      	cmp	r7, #0
100031be:	d12c      	bne.n	1000321a <_ftoa+0x216>
100031c0:	0028      	movs	r0, r5
100031c2:	f000 ff13 	bl	10003fec <__wrap___aeabi_i2d>
100031c6:	0002      	movs	r2, r0
100031c8:	000b      	movs	r3, r1
100031ca:	981e      	ldr	r0, [sp, #120]	; 0x78
100031cc:	991f      	ldr	r1, [sp, #124]	; 0x7c
100031ce:	f000 fe7c 	bl	10003eca <__wrap___aeabi_dsub>
100031d2:	0006      	movs	r6, r0
100031d4:	000f      	movs	r7, r1
100031d6:	2200      	movs	r2, #0
100031d8:	4b5e      	ldr	r3, [pc, #376]	; (10003354 <_ftoa+0x350>)
100031da:	f000 fed9 	bl	10003f90 <__wrap___aeabi_dcmplt>
100031de:	2800      	cmp	r0, #0
100031e0:	d146      	bne.n	10003270 <_ftoa+0x26c>
100031e2:	2200      	movs	r2, #0
100031e4:	4b5b      	ldr	r3, [pc, #364]	; (10003354 <_ftoa+0x350>)
100031e6:	0030      	movs	r0, r6
100031e8:	0039      	movs	r1, r7
100031ea:	f000 fee7 	bl	10003fbc <__wrap___aeabi_dcmpgt>
100031ee:	2800      	cmp	r0, #0
100031f0:	d13e      	bne.n	10003270 <_ftoa+0x26c>
100031f2:	07eb      	lsls	r3, r5, #31
100031f4:	d53c      	bpl.n	10003270 <_ftoa+0x26c>
100031f6:	3501      	adds	r5, #1
100031f8:	e03a      	b.n	10003270 <_ftoa+0x26c>
100031fa:	2706      	movs	r7, #6
100031fc:	e746      	b.n	1000308c <_ftoa+0x88>
100031fe:	2200      	movs	r2, #0
10003200:	4b54      	ldr	r3, [pc, #336]	; (10003354 <_ftoa+0x350>)
10003202:	9808      	ldr	r0, [sp, #32]
10003204:	9909      	ldr	r1, [sp, #36]	; 0x24
10003206:	f000 fec3 	bl	10003f90 <__wrap___aeabi_dcmplt>
1000320a:	2800      	cmp	r0, #0
1000320c:	d1d6      	bne.n	100031bc <_ftoa+0x1b8>
1000320e:	2e00      	cmp	r6, #0
10003210:	d001      	beq.n	10003216 <_ftoa+0x212>
10003212:	07f3      	lsls	r3, r6, #31
10003214:	d5d2      	bpl.n	100031bc <_ftoa+0x1b8>
10003216:	3601      	adds	r6, #1
10003218:	e7d0      	b.n	100031bc <_ftoa+0x1b8>
1000321a:	46aa      	mov	sl, r5
1000321c:	2c1f      	cmp	r4, #31
1000321e:	d811      	bhi.n	10003244 <_ftoa+0x240>
10003220:	3f01      	subs	r7, #1
10003222:	210a      	movs	r1, #10
10003224:	0030      	movs	r0, r6
10003226:	f000 fc15 	bl	10003a54 <__wrap___aeabi_uidiv>
1000322a:	1c65      	adds	r5, r4, #1
1000322c:	3130      	adds	r1, #48	; 0x30
1000322e:	ab0c      	add	r3, sp, #48	; 0x30
10003230:	5519      	strb	r1, [r3, r4]
10003232:	210a      	movs	r1, #10
10003234:	0030      	movs	r0, r6
10003236:	f000 fc0d 	bl	10003a54 <__wrap___aeabi_uidiv>
1000323a:	2e09      	cmp	r6, #9
1000323c:	d90e      	bls.n	1000325c <_ftoa+0x258>
1000323e:	0006      	movs	r6, r0
10003240:	002c      	movs	r4, r5
10003242:	e7eb      	b.n	1000321c <_ftoa+0x218>
10003244:	4655      	mov	r5, sl
10003246:	2c1f      	cmp	r4, #31
10003248:	d80c      	bhi.n	10003264 <_ftoa+0x260>
1000324a:	1e7b      	subs	r3, r7, #1
1000324c:	2f00      	cmp	r7, #0
1000324e:	d009      	beq.n	10003264 <_ftoa+0x260>
10003250:	aa0c      	add	r2, sp, #48	; 0x30
10003252:	2130      	movs	r1, #48	; 0x30
10003254:	5511      	strb	r1, [r2, r4]
10003256:	001f      	movs	r7, r3
10003258:	3401      	adds	r4, #1
1000325a:	e7f4      	b.n	10003246 <_ftoa+0x242>
1000325c:	002b      	movs	r3, r5
1000325e:	4655      	mov	r5, sl
10003260:	001c      	movs	r4, r3
10003262:	e7f0      	b.n	10003246 <_ftoa+0x242>
10003264:	2c1f      	cmp	r4, #31
10003266:	d803      	bhi.n	10003270 <_ftoa+0x26c>
10003268:	ab0c      	add	r3, sp, #48	; 0x30
1000326a:	222e      	movs	r2, #46	; 0x2e
1000326c:	551a      	strb	r2, [r3, r4]
1000326e:	3401      	adds	r4, #1
10003270:	2c1f      	cmp	r4, #31
10003272:	d810      	bhi.n	10003296 <_ftoa+0x292>
10003274:	210a      	movs	r1, #10
10003276:	0028      	movs	r0, r5
10003278:	f000 fbc4 	bl	10003a04 <__wrap___aeabi_idiv>
1000327c:	1c66      	adds	r6, r4, #1
1000327e:	3130      	adds	r1, #48	; 0x30
10003280:	ab0c      	add	r3, sp, #48	; 0x30
10003282:	5519      	strb	r1, [r3, r4]
10003284:	210a      	movs	r1, #10
10003286:	0028      	movs	r0, r5
10003288:	f000 fbbc 	bl	10003a04 <__wrap___aeabi_idiv>
1000328c:	1e05      	subs	r5, r0, #0
1000328e:	d001      	beq.n	10003294 <_ftoa+0x290>
10003290:	0034      	movs	r4, r6
10003292:	e7ed      	b.n	10003270 <_ftoa+0x26c>
10003294:	0034      	movs	r4, r6
10003296:	2303      	movs	r3, #3
10003298:	9a22      	ldr	r2, [sp, #136]	; 0x88
1000329a:	4013      	ands	r3, r2
1000329c:	2b01      	cmp	r3, #1
1000329e:	d01c      	beq.n	100032da <_ftoa+0x2d6>
100032a0:	2c1f      	cmp	r4, #31
100032a2:	d806      	bhi.n	100032b2 <_ftoa+0x2ae>
100032a4:	4643      	mov	r3, r8
100032a6:	2b00      	cmp	r3, #0
100032a8:	d032      	beq.n	10003310 <_ftoa+0x30c>
100032aa:	ab0c      	add	r3, sp, #48	; 0x30
100032ac:	222d      	movs	r2, #45	; 0x2d
100032ae:	551a      	strb	r2, [r3, r4]
100032b0:	3401      	adds	r4, #1
100032b2:	9b22      	ldr	r3, [sp, #136]	; 0x88
100032b4:	9303      	str	r3, [sp, #12]
100032b6:	9b21      	ldr	r3, [sp, #132]	; 0x84
100032b8:	9302      	str	r3, [sp, #8]
100032ba:	9401      	str	r4, [sp, #4]
100032bc:	ab0c      	add	r3, sp, #48	; 0x30
100032be:	9300      	str	r3, [sp, #0]
100032c0:	464b      	mov	r3, r9
100032c2:	465a      	mov	r2, fp
100032c4:	9907      	ldr	r1, [sp, #28]
100032c6:	9806      	ldr	r0, [sp, #24]
100032c8:	f7ff fae2 	bl	10002890 <_out_rev>
100032cc:	b015      	add	sp, #84	; 0x54
100032ce:	bcf0      	pop	{r4, r5, r6, r7}
100032d0:	46bb      	mov	fp, r7
100032d2:	46b2      	mov	sl, r6
100032d4:	46a9      	mov	r9, r5
100032d6:	46a0      	mov	r8, r4
100032d8:	bdf0      	pop	{r4, r5, r6, r7, pc}
100032da:	9b21      	ldr	r3, [sp, #132]	; 0x84
100032dc:	2b00      	cmp	r3, #0
100032de:	d013      	beq.n	10003308 <_ftoa+0x304>
100032e0:	4643      	mov	r3, r8
100032e2:	2b00      	cmp	r3, #0
100032e4:	d102      	bne.n	100032ec <_ftoa+0x2e8>
100032e6:	330c      	adds	r3, #12
100032e8:	4213      	tst	r3, r2
100032ea:	d00f      	beq.n	1000330c <_ftoa+0x308>
100032ec:	9b21      	ldr	r3, [sp, #132]	; 0x84
100032ee:	3b01      	subs	r3, #1
100032f0:	9321      	str	r3, [sp, #132]	; 0x84
100032f2:	0019      	movs	r1, r3
100032f4:	e003      	b.n	100032fe <_ftoa+0x2fa>
100032f6:	ab0c      	add	r3, sp, #48	; 0x30
100032f8:	2230      	movs	r2, #48	; 0x30
100032fa:	551a      	strb	r2, [r3, r4]
100032fc:	3401      	adds	r4, #1
100032fe:	428c      	cmp	r4, r1
10003300:	d2ce      	bcs.n	100032a0 <_ftoa+0x29c>
10003302:	2c1f      	cmp	r4, #31
10003304:	d9f7      	bls.n	100032f6 <_ftoa+0x2f2>
10003306:	e7cb      	b.n	100032a0 <_ftoa+0x29c>
10003308:	9921      	ldr	r1, [sp, #132]	; 0x84
1000330a:	e7f8      	b.n	100032fe <_ftoa+0x2fa>
1000330c:	9921      	ldr	r1, [sp, #132]	; 0x84
1000330e:	e7f6      	b.n	100032fe <_ftoa+0x2fa>
10003310:	9b22      	ldr	r3, [sp, #136]	; 0x88
10003312:	075b      	lsls	r3, r3, #29
10003314:	d504      	bpl.n	10003320 <_ftoa+0x31c>
10003316:	ab0c      	add	r3, sp, #48	; 0x30
10003318:	222b      	movs	r2, #43	; 0x2b
1000331a:	551a      	strb	r2, [r3, r4]
1000331c:	3401      	adds	r4, #1
1000331e:	e7c8      	b.n	100032b2 <_ftoa+0x2ae>
10003320:	9b22      	ldr	r3, [sp, #136]	; 0x88
10003322:	071b      	lsls	r3, r3, #28
10003324:	d5c5      	bpl.n	100032b2 <_ftoa+0x2ae>
10003326:	ab0c      	add	r3, sp, #48	; 0x30
10003328:	2220      	movs	r2, #32
1000332a:	551a      	strb	r2, [r3, r4]
1000332c:	3401      	adds	r4, #1
1000332e:	e7c0      	b.n	100032b2 <_ftoa+0x2ae>
10003330:	ffefffff 	.word	0xffefffff
10003334:	7fefffff 	.word	0x7fefffff
10003338:	41cdcd65 	.word	0x41cdcd65
1000333c:	c1cdcd65 	.word	0xc1cdcd65
10003340:	10007b68 	.word	0x10007b68
10003344:	10007b6c 	.word	0x10007b6c
10003348:	10007b60 	.word	0x10007b60
1000334c:	10007b5c 	.word	0x10007b5c
10003350:	10007d58 	.word	0x10007d58
10003354:	3fe00000 	.word	0x3fe00000

10003358 <_vsnprintf>:
10003358:	b5f0      	push	{r4, r5, r6, r7, lr}
1000335a:	46de      	mov	lr, fp
1000335c:	4657      	mov	r7, sl
1000335e:	464e      	mov	r6, r9
10003360:	4645      	mov	r5, r8
10003362:	b5e0      	push	{r5, r6, r7, lr}
10003364:	b093      	sub	sp, #76	; 0x4c
10003366:	4682      	mov	sl, r0
10003368:	468b      	mov	fp, r1
1000336a:	4690      	mov	r8, r2
1000336c:	9311      	str	r3, [sp, #68]	; 0x44
1000336e:	2900      	cmp	r1, #0
10003370:	d100      	bne.n	10003374 <_vsnprintf+0x1c>
10003372:	e2eb      	b.n	1000394c <_vsnprintf+0x5f4>
10003374:	2700      	movs	r7, #0
10003376:	4655      	mov	r5, sl
10003378:	9b11      	ldr	r3, [sp, #68]	; 0x44
1000337a:	7818      	ldrb	r0, [r3, #0]
1000337c:	2800      	cmp	r0, #0
1000337e:	d100      	bne.n	10003382 <_vsnprintf+0x2a>
10003380:	e2e7      	b.n	10003952 <_vsnprintf+0x5fa>
10003382:	2825      	cmp	r0, #37	; 0x25
10003384:	d009      	beq.n	1000339a <_vsnprintf+0x42>
10003386:	1c7c      	adds	r4, r7, #1
10003388:	4643      	mov	r3, r8
1000338a:	003a      	movs	r2, r7
1000338c:	4659      	mov	r1, fp
1000338e:	47a8      	blx	r5
10003390:	9b11      	ldr	r3, [sp, #68]	; 0x44
10003392:	3301      	adds	r3, #1
10003394:	9311      	str	r3, [sp, #68]	; 0x44
10003396:	0027      	movs	r7, r4
10003398:	e7ee      	b.n	10003378 <_vsnprintf+0x20>
1000339a:	3301      	adds	r3, #1
1000339c:	9311      	str	r3, [sp, #68]	; 0x44
1000339e:	2400      	movs	r4, #0
100033a0:	9a11      	ldr	r2, [sp, #68]	; 0x44
100033a2:	7811      	ldrb	r1, [r2, #0]
100033a4:	000b      	movs	r3, r1
100033a6:	3b20      	subs	r3, #32
100033a8:	b2d8      	uxtb	r0, r3
100033aa:	2810      	cmp	r0, #16
100033ac:	d803      	bhi.n	100033b6 <_vsnprintf+0x5e>
100033ae:	0083      	lsls	r3, r0, #2
100033b0:	48d0      	ldr	r0, [pc, #832]	; (100036f4 <_vsnprintf+0x39c>)
100033b2:	58c3      	ldr	r3, [r0, r3]
100033b4:	469f      	mov	pc, r3
100033b6:	000b      	movs	r3, r1
100033b8:	3b30      	subs	r3, #48	; 0x30
100033ba:	b2db      	uxtb	r3, r3
100033bc:	2b09      	cmp	r3, #9
100033be:	d92c      	bls.n	1000341a <_vsnprintf+0xc2>
100033c0:	292a      	cmp	r1, #42	; 0x2a
100033c2:	d02f      	beq.n	10003424 <_vsnprintf+0xcc>
100033c4:	2300      	movs	r3, #0
100033c6:	930a      	str	r3, [sp, #40]	; 0x28
100033c8:	9b11      	ldr	r3, [sp, #68]	; 0x44
100033ca:	781a      	ldrb	r2, [r3, #0]
100033cc:	2a2e      	cmp	r2, #46	; 0x2e
100033ce:	d039      	beq.n	10003444 <_vsnprintf+0xec>
100033d0:	2300      	movs	r3, #0
100033d2:	469a      	mov	sl, r3
100033d4:	9a11      	ldr	r2, [sp, #68]	; 0x44
100033d6:	7813      	ldrb	r3, [r2, #0]
100033d8:	3b68      	subs	r3, #104	; 0x68
100033da:	b2d9      	uxtb	r1, r3
100033dc:	2912      	cmp	r1, #18
100033de:	d876      	bhi.n	100034ce <_vsnprintf+0x176>
100033e0:	008b      	lsls	r3, r1, #2
100033e2:	49c5      	ldr	r1, [pc, #788]	; (100036f8 <_vsnprintf+0x3a0>)
100033e4:	58cb      	ldr	r3, [r1, r3]
100033e6:	469f      	mov	pc, r3
100033e8:	2301      	movs	r3, #1
100033ea:	431c      	orrs	r4, r3
100033ec:	3201      	adds	r2, #1
100033ee:	9211      	str	r2, [sp, #68]	; 0x44
100033f0:	e7d6      	b.n	100033a0 <_vsnprintf+0x48>
100033f2:	2302      	movs	r3, #2
100033f4:	431c      	orrs	r4, r3
100033f6:	3201      	adds	r2, #1
100033f8:	9211      	str	r2, [sp, #68]	; 0x44
100033fa:	e7d1      	b.n	100033a0 <_vsnprintf+0x48>
100033fc:	2304      	movs	r3, #4
100033fe:	431c      	orrs	r4, r3
10003400:	3201      	adds	r2, #1
10003402:	9211      	str	r2, [sp, #68]	; 0x44
10003404:	e7cc      	b.n	100033a0 <_vsnprintf+0x48>
10003406:	2308      	movs	r3, #8
10003408:	431c      	orrs	r4, r3
1000340a:	3201      	adds	r2, #1
1000340c:	9211      	str	r2, [sp, #68]	; 0x44
1000340e:	e7c7      	b.n	100033a0 <_vsnprintf+0x48>
10003410:	2310      	movs	r3, #16
10003412:	431c      	orrs	r4, r3
10003414:	3201      	adds	r2, #1
10003416:	9211      	str	r2, [sp, #68]	; 0x44
10003418:	e7c2      	b.n	100033a0 <_vsnprintf+0x48>
1000341a:	a811      	add	r0, sp, #68	; 0x44
1000341c:	f7ff fa26 	bl	1000286c <_atoi>
10003420:	900a      	str	r0, [sp, #40]	; 0x28
10003422:	e7d1      	b.n	100033c8 <_vsnprintf+0x70>
10003424:	9b1c      	ldr	r3, [sp, #112]	; 0x70
10003426:	1d1a      	adds	r2, r3, #4
10003428:	921c      	str	r2, [sp, #112]	; 0x70
1000342a:	6818      	ldr	r0, [r3, #0]
1000342c:	2800      	cmp	r0, #0
1000342e:	db04      	blt.n	1000343a <_vsnprintf+0xe2>
10003430:	900a      	str	r0, [sp, #40]	; 0x28
10003432:	9b11      	ldr	r3, [sp, #68]	; 0x44
10003434:	3301      	adds	r3, #1
10003436:	9311      	str	r3, [sp, #68]	; 0x44
10003438:	e7c6      	b.n	100033c8 <_vsnprintf+0x70>
1000343a:	2302      	movs	r3, #2
1000343c:	431c      	orrs	r4, r3
1000343e:	4243      	negs	r3, r0
10003440:	930a      	str	r3, [sp, #40]	; 0x28
10003442:	e7f6      	b.n	10003432 <_vsnprintf+0xda>
10003444:	2280      	movs	r2, #128	; 0x80
10003446:	00d2      	lsls	r2, r2, #3
10003448:	4314      	orrs	r4, r2
1000344a:	1c5a      	adds	r2, r3, #1
1000344c:	9211      	str	r2, [sp, #68]	; 0x44
1000344e:	785a      	ldrb	r2, [r3, #1]
10003450:	0013      	movs	r3, r2
10003452:	3b30      	subs	r3, #48	; 0x30
10003454:	b2db      	uxtb	r3, r3
10003456:	2b09      	cmp	r3, #9
10003458:	d904      	bls.n	10003464 <_vsnprintf+0x10c>
1000345a:	2a2a      	cmp	r2, #42	; 0x2a
1000345c:	d007      	beq.n	1000346e <_vsnprintf+0x116>
1000345e:	2300      	movs	r3, #0
10003460:	469a      	mov	sl, r3
10003462:	e7b7      	b.n	100033d4 <_vsnprintf+0x7c>
10003464:	a811      	add	r0, sp, #68	; 0x44
10003466:	f7ff fa01 	bl	1000286c <_atoi>
1000346a:	4682      	mov	sl, r0
1000346c:	e7b2      	b.n	100033d4 <_vsnprintf+0x7c>
1000346e:	9b1c      	ldr	r3, [sp, #112]	; 0x70
10003470:	1d1a      	adds	r2, r3, #4
10003472:	921c      	str	r2, [sp, #112]	; 0x70
10003474:	6818      	ldr	r0, [r3, #0]
10003476:	2800      	cmp	r0, #0
10003478:	db04      	blt.n	10003484 <_vsnprintf+0x12c>
1000347a:	4682      	mov	sl, r0
1000347c:	9b11      	ldr	r3, [sp, #68]	; 0x44
1000347e:	3301      	adds	r3, #1
10003480:	9311      	str	r3, [sp, #68]	; 0x44
10003482:	e7a7      	b.n	100033d4 <_vsnprintf+0x7c>
10003484:	2000      	movs	r0, #0
10003486:	e7f8      	b.n	1000347a <_vsnprintf+0x122>
10003488:	2380      	movs	r3, #128	; 0x80
1000348a:	005b      	lsls	r3, r3, #1
1000348c:	4323      	orrs	r3, r4
1000348e:	1c51      	adds	r1, r2, #1
10003490:	9111      	str	r1, [sp, #68]	; 0x44
10003492:	7852      	ldrb	r2, [r2, #1]
10003494:	2a6c      	cmp	r2, #108	; 0x6c
10003496:	d001      	beq.n	1000349c <_vsnprintf+0x144>
10003498:	001c      	movs	r4, r3
1000349a:	e018      	b.n	100034ce <_vsnprintf+0x176>
1000349c:	23c0      	movs	r3, #192	; 0xc0
1000349e:	009b      	lsls	r3, r3, #2
100034a0:	431c      	orrs	r4, r3
100034a2:	3101      	adds	r1, #1
100034a4:	9111      	str	r1, [sp, #68]	; 0x44
100034a6:	e012      	b.n	100034ce <_vsnprintf+0x176>
100034a8:	2380      	movs	r3, #128	; 0x80
100034aa:	4323      	orrs	r3, r4
100034ac:	1c51      	adds	r1, r2, #1
100034ae:	9111      	str	r1, [sp, #68]	; 0x44
100034b0:	7852      	ldrb	r2, [r2, #1]
100034b2:	2a68      	cmp	r2, #104	; 0x68
100034b4:	d001      	beq.n	100034ba <_vsnprintf+0x162>
100034b6:	001c      	movs	r4, r3
100034b8:	e009      	b.n	100034ce <_vsnprintf+0x176>
100034ba:	23c0      	movs	r3, #192	; 0xc0
100034bc:	431c      	orrs	r4, r3
100034be:	3101      	adds	r1, #1
100034c0:	9111      	str	r1, [sp, #68]	; 0x44
100034c2:	e004      	b.n	100034ce <_vsnprintf+0x176>
100034c4:	2380      	movs	r3, #128	; 0x80
100034c6:	005b      	lsls	r3, r3, #1
100034c8:	431c      	orrs	r4, r3
100034ca:	3201      	adds	r2, #1
100034cc:	9211      	str	r2, [sp, #68]	; 0x44
100034ce:	9b11      	ldr	r3, [sp, #68]	; 0x44
100034d0:	7818      	ldrb	r0, [r3, #0]
100034d2:	0003      	movs	r3, r0
100034d4:	3b25      	subs	r3, #37	; 0x25
100034d6:	b2da      	uxtb	r2, r3
100034d8:	2a53      	cmp	r2, #83	; 0x53
100034da:	d900      	bls.n	100034de <_vsnprintf+0x186>
100034dc:	e22c      	b.n	10003938 <_vsnprintf+0x5e0>
100034de:	0093      	lsls	r3, r2, #2
100034e0:	4a86      	ldr	r2, [pc, #536]	; (100036fc <_vsnprintf+0x3a4>)
100034e2:	58d3      	ldr	r3, [r2, r3]
100034e4:	469f      	mov	pc, r3
100034e6:	2380      	movs	r3, #128	; 0x80
100034e8:	009b      	lsls	r3, r3, #2
100034ea:	431c      	orrs	r4, r3
100034ec:	3201      	adds	r2, #1
100034ee:	9211      	str	r2, [sp, #68]	; 0x44
100034f0:	e7ed      	b.n	100034ce <_vsnprintf+0x176>
100034f2:	2380      	movs	r3, #128	; 0x80
100034f4:	005b      	lsls	r3, r3, #1
100034f6:	431c      	orrs	r4, r3
100034f8:	3201      	adds	r2, #1
100034fa:	9211      	str	r2, [sp, #68]	; 0x44
100034fc:	e7e7      	b.n	100034ce <_vsnprintf+0x176>
100034fe:	2878      	cmp	r0, #120	; 0x78
10003500:	d009      	beq.n	10003516 <_vsnprintf+0x1be>
10003502:	2858      	cmp	r0, #88	; 0x58
10003504:	d038      	beq.n	10003578 <_vsnprintf+0x220>
10003506:	286f      	cmp	r0, #111	; 0x6f
10003508:	d038      	beq.n	1000357c <_vsnprintf+0x224>
1000350a:	2862      	cmp	r0, #98	; 0x62
1000350c:	d038      	beq.n	10003580 <_vsnprintf+0x228>
1000350e:	2310      	movs	r3, #16
10003510:	439c      	bics	r4, r3
10003512:	260a      	movs	r6, #10
10003514:	e000      	b.n	10003518 <_vsnprintf+0x1c0>
10003516:	2610      	movs	r6, #16
10003518:	2858      	cmp	r0, #88	; 0x58
1000351a:	d033      	beq.n	10003584 <_vsnprintf+0x22c>
1000351c:	2869      	cmp	r0, #105	; 0x69
1000351e:	d003      	beq.n	10003528 <_vsnprintf+0x1d0>
10003520:	2864      	cmp	r0, #100	; 0x64
10003522:	d001      	beq.n	10003528 <_vsnprintf+0x1d0>
10003524:	220c      	movs	r2, #12
10003526:	4394      	bics	r4, r2
10003528:	0563      	lsls	r3, r4, #21
1000352a:	d501      	bpl.n	10003530 <_vsnprintf+0x1d8>
1000352c:	2201      	movs	r2, #1
1000352e:	4394      	bics	r4, r2
10003530:	2869      	cmp	r0, #105	; 0x69
10003532:	d02a      	beq.n	1000358a <_vsnprintf+0x232>
10003534:	2864      	cmp	r0, #100	; 0x64
10003536:	d028      	beq.n	1000358a <_vsnprintf+0x232>
10003538:	05a3      	lsls	r3, r4, #22
1000353a:	d500      	bpl.n	1000353e <_vsnprintf+0x1e6>
1000353c:	e09f      	b.n	1000367e <_vsnprintf+0x326>
1000353e:	05e3      	lsls	r3, r4, #23
10003540:	d500      	bpl.n	10003544 <_vsnprintf+0x1ec>
10003542:	e0b8      	b.n	100036b6 <_vsnprintf+0x35e>
10003544:	0663      	lsls	r3, r4, #25
10003546:	d400      	bmi.n	1000354a <_vsnprintf+0x1f2>
10003548:	e0ca      	b.n	100036e0 <_vsnprintf+0x388>
1000354a:	9a1c      	ldr	r2, [sp, #112]	; 0x70
1000354c:	1d11      	adds	r1, r2, #4
1000354e:	911c      	str	r1, [sp, #112]	; 0x70
10003550:	6811      	ldr	r1, [r2, #0]
10003552:	22ff      	movs	r2, #255	; 0xff
10003554:	400a      	ands	r2, r1
10003556:	9405      	str	r4, [sp, #20]
10003558:	9b0a      	ldr	r3, [sp, #40]	; 0x28
1000355a:	9304      	str	r3, [sp, #16]
1000355c:	4653      	mov	r3, sl
1000355e:	9303      	str	r3, [sp, #12]
10003560:	9602      	str	r6, [sp, #8]
10003562:	2300      	movs	r3, #0
10003564:	9301      	str	r3, [sp, #4]
10003566:	9200      	str	r2, [sp, #0]
10003568:	4643      	mov	r3, r8
1000356a:	003a      	movs	r2, r7
1000356c:	4659      	mov	r1, fp
1000356e:	0028      	movs	r0, r5
10003570:	f7ff fa6e 	bl	10002a50 <_ntoa_long>
10003574:	0007      	movs	r7, r0
10003576:	e027      	b.n	100035c8 <_vsnprintf+0x270>
10003578:	2610      	movs	r6, #16
1000357a:	e7cd      	b.n	10003518 <_vsnprintf+0x1c0>
1000357c:	2608      	movs	r6, #8
1000357e:	e7cb      	b.n	10003518 <_vsnprintf+0x1c0>
10003580:	2602      	movs	r6, #2
10003582:	e7c9      	b.n	10003518 <_vsnprintf+0x1c0>
10003584:	2220      	movs	r2, #32
10003586:	4314      	orrs	r4, r2
10003588:	e7c8      	b.n	1000351c <_vsnprintf+0x1c4>
1000358a:	05a3      	lsls	r3, r4, #22
1000358c:	d420      	bmi.n	100035d0 <_vsnprintf+0x278>
1000358e:	05e3      	lsls	r3, r4, #23
10003590:	d450      	bmi.n	10003634 <_vsnprintf+0x2dc>
10003592:	0663      	lsls	r3, r4, #25
10003594:	d566      	bpl.n	10003664 <_vsnprintf+0x30c>
10003596:	9a1c      	ldr	r2, [sp, #112]	; 0x70
10003598:	1d11      	adds	r1, r2, #4
1000359a:	911c      	str	r1, [sp, #112]	; 0x70
1000359c:	6811      	ldr	r1, [r2, #0]
1000359e:	22ff      	movs	r2, #255	; 0xff
100035a0:	400a      	ands	r2, r1
100035a2:	17d3      	asrs	r3, r2, #31
100035a4:	18d1      	adds	r1, r2, r3
100035a6:	4059      	eors	r1, r3
100035a8:	9405      	str	r4, [sp, #20]
100035aa:	9b0a      	ldr	r3, [sp, #40]	; 0x28
100035ac:	9304      	str	r3, [sp, #16]
100035ae:	4653      	mov	r3, sl
100035b0:	9303      	str	r3, [sp, #12]
100035b2:	9602      	str	r6, [sp, #8]
100035b4:	0fd2      	lsrs	r2, r2, #31
100035b6:	9201      	str	r2, [sp, #4]
100035b8:	9100      	str	r1, [sp, #0]
100035ba:	4643      	mov	r3, r8
100035bc:	003a      	movs	r2, r7
100035be:	4659      	mov	r1, fp
100035c0:	0028      	movs	r0, r5
100035c2:	f7ff fa45 	bl	10002a50 <_ntoa_long>
100035c6:	0007      	movs	r7, r0
100035c8:	9b11      	ldr	r3, [sp, #68]	; 0x44
100035ca:	3301      	adds	r3, #1
100035cc:	9311      	str	r3, [sp, #68]	; 0x44
100035ce:	e6d3      	b.n	10003378 <_vsnprintf+0x20>
100035d0:	9b1c      	ldr	r3, [sp, #112]	; 0x70
100035d2:	1dda      	adds	r2, r3, #7
100035d4:	2107      	movs	r1, #7
100035d6:	438a      	bics	r2, r1
100035d8:	0011      	movs	r1, r2
100035da:	3108      	adds	r1, #8
100035dc:	911c      	str	r1, [sp, #112]	; 0x70
100035de:	6811      	ldr	r1, [r2, #0]
100035e0:	6853      	ldr	r3, [r2, #4]
100035e2:	469c      	mov	ip, r3
100035e4:	17db      	asrs	r3, r3, #31
100035e6:	930c      	str	r3, [sp, #48]	; 0x30
100035e8:	930d      	str	r3, [sp, #52]	; 0x34
100035ea:	9a0c      	ldr	r2, [sp, #48]	; 0x30
100035ec:	9b0d      	ldr	r3, [sp, #52]	; 0x34
100035ee:	0010      	movs	r0, r2
100035f0:	4048      	eors	r0, r1
100035f2:	900e      	str	r0, [sp, #56]	; 0x38
100035f4:	4662      	mov	r2, ip
100035f6:	4053      	eors	r3, r2
100035f8:	930f      	str	r3, [sp, #60]	; 0x3c
100035fa:	980e      	ldr	r0, [sp, #56]	; 0x38
100035fc:	990f      	ldr	r1, [sp, #60]	; 0x3c
100035fe:	9a0c      	ldr	r2, [sp, #48]	; 0x30
10003600:	9b0d      	ldr	r3, [sp, #52]	; 0x34
10003602:	1a80      	subs	r0, r0, r2
10003604:	4199      	sbcs	r1, r3
10003606:	900e      	str	r0, [sp, #56]	; 0x38
10003608:	910f      	str	r1, [sp, #60]	; 0x3c
1000360a:	9408      	str	r4, [sp, #32]
1000360c:	9b0a      	ldr	r3, [sp, #40]	; 0x28
1000360e:	9307      	str	r3, [sp, #28]
10003610:	4653      	mov	r3, sl
10003612:	9306      	str	r3, [sp, #24]
10003614:	9604      	str	r6, [sp, #16]
10003616:	2300      	movs	r3, #0
10003618:	9305      	str	r3, [sp, #20]
1000361a:	4663      	mov	r3, ip
1000361c:	0fda      	lsrs	r2, r3, #31
1000361e:	9202      	str	r2, [sp, #8]
10003620:	9000      	str	r0, [sp, #0]
10003622:	9101      	str	r1, [sp, #4]
10003624:	4643      	mov	r3, r8
10003626:	003a      	movs	r2, r7
10003628:	4659      	mov	r1, fp
1000362a:	0028      	movs	r0, r5
1000362c:	f7ff fa6e 	bl	10002b0c <_ntoa_long_long>
10003630:	0007      	movs	r7, r0
10003632:	e7c9      	b.n	100035c8 <_vsnprintf+0x270>
10003634:	9a1c      	ldr	r2, [sp, #112]	; 0x70
10003636:	1d11      	adds	r1, r2, #4
10003638:	911c      	str	r1, [sp, #112]	; 0x70
1000363a:	6812      	ldr	r2, [r2, #0]
1000363c:	17d3      	asrs	r3, r2, #31
1000363e:	18d1      	adds	r1, r2, r3
10003640:	4059      	eors	r1, r3
10003642:	9405      	str	r4, [sp, #20]
10003644:	9b0a      	ldr	r3, [sp, #40]	; 0x28
10003646:	9304      	str	r3, [sp, #16]
10003648:	4653      	mov	r3, sl
1000364a:	9303      	str	r3, [sp, #12]
1000364c:	9602      	str	r6, [sp, #8]
1000364e:	0fd2      	lsrs	r2, r2, #31
10003650:	9201      	str	r2, [sp, #4]
10003652:	9100      	str	r1, [sp, #0]
10003654:	4643      	mov	r3, r8
10003656:	003a      	movs	r2, r7
10003658:	4659      	mov	r1, fp
1000365a:	0028      	movs	r0, r5
1000365c:	f7ff f9f8 	bl	10002a50 <_ntoa_long>
10003660:	0007      	movs	r7, r0
10003662:	e7b1      	b.n	100035c8 <_vsnprintf+0x270>
10003664:	0623      	lsls	r3, r4, #24
10003666:	d505      	bpl.n	10003674 <_vsnprintf+0x31c>
10003668:	9a1c      	ldr	r2, [sp, #112]	; 0x70
1000366a:	1d11      	adds	r1, r2, #4
1000366c:	911c      	str	r1, [sp, #112]	; 0x70
1000366e:	2300      	movs	r3, #0
10003670:	5ed2      	ldrsh	r2, [r2, r3]
10003672:	e796      	b.n	100035a2 <_vsnprintf+0x24a>
10003674:	9a1c      	ldr	r2, [sp, #112]	; 0x70
10003676:	1d11      	adds	r1, r2, #4
10003678:	911c      	str	r1, [sp, #112]	; 0x70
1000367a:	6812      	ldr	r2, [r2, #0]
1000367c:	e791      	b.n	100035a2 <_vsnprintf+0x24a>
1000367e:	9b1c      	ldr	r3, [sp, #112]	; 0x70
10003680:	1dda      	adds	r2, r3, #7
10003682:	2107      	movs	r1, #7
10003684:	438a      	bics	r2, r1
10003686:	0011      	movs	r1, r2
10003688:	3108      	adds	r1, #8
1000368a:	911c      	str	r1, [sp, #112]	; 0x70
1000368c:	9408      	str	r4, [sp, #32]
1000368e:	9b0a      	ldr	r3, [sp, #40]	; 0x28
10003690:	9307      	str	r3, [sp, #28]
10003692:	4653      	mov	r3, sl
10003694:	9306      	str	r3, [sp, #24]
10003696:	9604      	str	r6, [sp, #16]
10003698:	2300      	movs	r3, #0
1000369a:	9305      	str	r3, [sp, #20]
1000369c:	9302      	str	r3, [sp, #8]
1000369e:	6813      	ldr	r3, [r2, #0]
100036a0:	6854      	ldr	r4, [r2, #4]
100036a2:	9300      	str	r3, [sp, #0]
100036a4:	9401      	str	r4, [sp, #4]
100036a6:	4643      	mov	r3, r8
100036a8:	003a      	movs	r2, r7
100036aa:	4659      	mov	r1, fp
100036ac:	0028      	movs	r0, r5
100036ae:	f7ff fa2d 	bl	10002b0c <_ntoa_long_long>
100036b2:	0007      	movs	r7, r0
100036b4:	e788      	b.n	100035c8 <_vsnprintf+0x270>
100036b6:	9a1c      	ldr	r2, [sp, #112]	; 0x70
100036b8:	1d11      	adds	r1, r2, #4
100036ba:	911c      	str	r1, [sp, #112]	; 0x70
100036bc:	9405      	str	r4, [sp, #20]
100036be:	9b0a      	ldr	r3, [sp, #40]	; 0x28
100036c0:	9304      	str	r3, [sp, #16]
100036c2:	4653      	mov	r3, sl
100036c4:	9303      	str	r3, [sp, #12]
100036c6:	9602      	str	r6, [sp, #8]
100036c8:	2300      	movs	r3, #0
100036ca:	9301      	str	r3, [sp, #4]
100036cc:	6813      	ldr	r3, [r2, #0]
100036ce:	9300      	str	r3, [sp, #0]
100036d0:	4643      	mov	r3, r8
100036d2:	003a      	movs	r2, r7
100036d4:	4659      	mov	r1, fp
100036d6:	0028      	movs	r0, r5
100036d8:	f7ff f9ba 	bl	10002a50 <_ntoa_long>
100036dc:	0007      	movs	r7, r0
100036de:	e773      	b.n	100035c8 <_vsnprintf+0x270>
100036e0:	0623      	lsls	r3, r4, #24
100036e2:	d50d      	bpl.n	10003700 <_vsnprintf+0x3a8>
100036e4:	9a1c      	ldr	r2, [sp, #112]	; 0x70
100036e6:	1d11      	adds	r1, r2, #4
100036e8:	911c      	str	r1, [sp, #112]	; 0x70
100036ea:	6812      	ldr	r2, [r2, #0]
100036ec:	0412      	lsls	r2, r2, #16
100036ee:	0c12      	lsrs	r2, r2, #16
100036f0:	e731      	b.n	10003556 <_vsnprintf+0x1fe>
100036f2:	46c0      	nop			; (mov r8, r8)
100036f4:	10007b74 	.word	0x10007b74
100036f8:	10007bb8 	.word	0x10007bb8
100036fc:	10007c04 	.word	0x10007c04
10003700:	9a1c      	ldr	r2, [sp, #112]	; 0x70
10003702:	1d11      	adds	r1, r2, #4
10003704:	911c      	str	r1, [sp, #112]	; 0x70
10003706:	6812      	ldr	r2, [r2, #0]
10003708:	e725      	b.n	10003556 <_vsnprintf+0x1fe>
1000370a:	2846      	cmp	r0, #70	; 0x46
1000370c:	d01a      	beq.n	10003744 <_vsnprintf+0x3ec>
1000370e:	9b1c      	ldr	r3, [sp, #112]	; 0x70
10003710:	3307      	adds	r3, #7
10003712:	2207      	movs	r2, #7
10003714:	4393      	bics	r3, r2
10003716:	001a      	movs	r2, r3
10003718:	3208      	adds	r2, #8
1000371a:	921c      	str	r2, [sp, #112]	; 0x70
1000371c:	9404      	str	r4, [sp, #16]
1000371e:	9a0a      	ldr	r2, [sp, #40]	; 0x28
10003720:	9203      	str	r2, [sp, #12]
10003722:	4652      	mov	r2, sl
10003724:	9202      	str	r2, [sp, #8]
10003726:	685c      	ldr	r4, [r3, #4]
10003728:	681b      	ldr	r3, [r3, #0]
1000372a:	9300      	str	r3, [sp, #0]
1000372c:	9401      	str	r4, [sp, #4]
1000372e:	4643      	mov	r3, r8
10003730:	003a      	movs	r2, r7
10003732:	4659      	mov	r1, fp
10003734:	0028      	movs	r0, r5
10003736:	f7ff fc65 	bl	10003004 <_ftoa>
1000373a:	0007      	movs	r7, r0
1000373c:	9b11      	ldr	r3, [sp, #68]	; 0x44
1000373e:	3301      	adds	r3, #1
10003740:	9311      	str	r3, [sp, #68]	; 0x44
10003742:	e619      	b.n	10003378 <_vsnprintf+0x20>
10003744:	2320      	movs	r3, #32
10003746:	431c      	orrs	r4, r3
10003748:	e7e1      	b.n	1000370e <_vsnprintf+0x3b6>
1000374a:	2867      	cmp	r0, #103	; 0x67
1000374c:	d001      	beq.n	10003752 <_vsnprintf+0x3fa>
1000374e:	2847      	cmp	r0, #71	; 0x47
10003750:	d102      	bne.n	10003758 <_vsnprintf+0x400>
10003752:	2380      	movs	r3, #128	; 0x80
10003754:	011b      	lsls	r3, r3, #4
10003756:	431c      	orrs	r4, r3
10003758:	2845      	cmp	r0, #69	; 0x45
1000375a:	d001      	beq.n	10003760 <_vsnprintf+0x408>
1000375c:	2847      	cmp	r0, #71	; 0x47
1000375e:	d101      	bne.n	10003764 <_vsnprintf+0x40c>
10003760:	2320      	movs	r3, #32
10003762:	431c      	orrs	r4, r3
10003764:	9b1c      	ldr	r3, [sp, #112]	; 0x70
10003766:	3307      	adds	r3, #7
10003768:	2207      	movs	r2, #7
1000376a:	4393      	bics	r3, r2
1000376c:	001a      	movs	r2, r3
1000376e:	3208      	adds	r2, #8
10003770:	921c      	str	r2, [sp, #112]	; 0x70
10003772:	9404      	str	r4, [sp, #16]
10003774:	9a0a      	ldr	r2, [sp, #40]	; 0x28
10003776:	9203      	str	r2, [sp, #12]
10003778:	4652      	mov	r2, sl
1000377a:	9202      	str	r2, [sp, #8]
1000377c:	685c      	ldr	r4, [r3, #4]
1000377e:	681b      	ldr	r3, [r3, #0]
10003780:	9300      	str	r3, [sp, #0]
10003782:	9401      	str	r4, [sp, #4]
10003784:	4643      	mov	r3, r8
10003786:	003a      	movs	r2, r7
10003788:	4659      	mov	r1, fp
1000378a:	0028      	movs	r0, r5
1000378c:	f7ff fa30 	bl	10002bf0 <_etoa>
10003790:	0007      	movs	r7, r0
10003792:	9b11      	ldr	r3, [sp, #68]	; 0x44
10003794:	3301      	adds	r3, #1
10003796:	9311      	str	r3, [sp, #68]	; 0x44
10003798:	e5ee      	b.n	10003378 <_vsnprintf+0x20>
1000379a:	2302      	movs	r3, #2
1000379c:	001a      	movs	r2, r3
1000379e:	4022      	ands	r2, r4
100037a0:	4692      	mov	sl, r2
100037a2:	4223      	tst	r3, r4
100037a4:	d01f      	beq.n	100037e6 <_vsnprintf+0x48e>
100037a6:	2401      	movs	r4, #1
100037a8:	9b1c      	ldr	r3, [sp, #112]	; 0x70
100037aa:	1d1a      	adds	r2, r3, #4
100037ac:	921c      	str	r2, [sp, #112]	; 0x70
100037ae:	1c7a      	adds	r2, r7, #1
100037b0:	4691      	mov	r9, r2
100037b2:	7818      	ldrb	r0, [r3, #0]
100037b4:	4643      	mov	r3, r8
100037b6:	003a      	movs	r2, r7
100037b8:	4659      	mov	r1, fp
100037ba:	47a8      	blx	r5
100037bc:	4653      	mov	r3, sl
100037be:	2b00      	cmp	r3, #0
100037c0:	d116      	bne.n	100037f0 <_vsnprintf+0x498>
100037c2:	9b11      	ldr	r3, [sp, #68]	; 0x44
100037c4:	3301      	adds	r3, #1
100037c6:	9311      	str	r3, [sp, #68]	; 0x44
100037c8:	464f      	mov	r7, r9
100037ca:	e5d5      	b.n	10003378 <_vsnprintf+0x20>
100037cc:	1c56      	adds	r6, r2, #1
100037ce:	4643      	mov	r3, r8
100037d0:	4659      	mov	r1, fp
100037d2:	2020      	movs	r0, #32
100037d4:	47b8      	blx	r7
100037d6:	0023      	movs	r3, r4
100037d8:	0032      	movs	r2, r6
100037da:	1c5c      	adds	r4, r3, #1
100037dc:	429d      	cmp	r5, r3
100037de:	d8f5      	bhi.n	100037cc <_vsnprintf+0x474>
100037e0:	003d      	movs	r5, r7
100037e2:	0017      	movs	r7, r2
100037e4:	e7e0      	b.n	100037a8 <_vsnprintf+0x450>
100037e6:	2301      	movs	r3, #1
100037e8:	003a      	movs	r2, r7
100037ea:	002f      	movs	r7, r5
100037ec:	9d0a      	ldr	r5, [sp, #40]	; 0x28
100037ee:	e7f4      	b.n	100037da <_vsnprintf+0x482>
100037f0:	464a      	mov	r2, r9
100037f2:	46a9      	mov	r9, r5
100037f4:	9d0a      	ldr	r5, [sp, #40]	; 0x28
100037f6:	e006      	b.n	10003806 <_vsnprintf+0x4ae>
100037f8:	1c57      	adds	r7, r2, #1
100037fa:	4643      	mov	r3, r8
100037fc:	4659      	mov	r1, fp
100037fe:	2020      	movs	r0, #32
10003800:	47c8      	blx	r9
10003802:	0034      	movs	r4, r6
10003804:	003a      	movs	r2, r7
10003806:	1c66      	adds	r6, r4, #1
10003808:	42a5      	cmp	r5, r4
1000380a:	d8f5      	bhi.n	100037f8 <_vsnprintf+0x4a0>
1000380c:	464d      	mov	r5, r9
1000380e:	4691      	mov	r9, r2
10003810:	e7d7      	b.n	100037c2 <_vsnprintf+0x46a>
10003812:	9b1c      	ldr	r3, [sp, #112]	; 0x70
10003814:	1d1a      	adds	r2, r3, #4
10003816:	921c      	str	r2, [sp, #112]	; 0x70
10003818:	681b      	ldr	r3, [r3, #0]
1000381a:	4699      	mov	r9, r3
1000381c:	4653      	mov	r3, sl
1000381e:	2b00      	cmp	r3, #0
10003820:	d100      	bne.n	10003824 <_vsnprintf+0x4cc>
10003822:	3b01      	subs	r3, #1
10003824:	464e      	mov	r6, r9
10003826:	e001      	b.n	1000382c <_vsnprintf+0x4d4>
10003828:	3601      	adds	r6, #1
1000382a:	0013      	movs	r3, r2
1000382c:	7832      	ldrb	r2, [r6, #0]
1000382e:	2a00      	cmp	r2, #0
10003830:	d002      	beq.n	10003838 <_vsnprintf+0x4e0>
10003832:	1e5a      	subs	r2, r3, #1
10003834:	2b00      	cmp	r3, #0
10003836:	d1f7      	bne.n	10003828 <_vsnprintf+0x4d0>
10003838:	464b      	mov	r3, r9
1000383a:	1af2      	subs	r2, r6, r3
1000383c:	9210      	str	r2, [sp, #64]	; 0x40
1000383e:	2380      	movs	r3, #128	; 0x80
10003840:	00db      	lsls	r3, r3, #3
10003842:	0026      	movs	r6, r4
10003844:	401e      	ands	r6, r3
10003846:	421c      	tst	r4, r3
10003848:	d003      	beq.n	10003852 <_vsnprintf+0x4fa>
1000384a:	4552      	cmp	r2, sl
1000384c:	d901      	bls.n	10003852 <_vsnprintf+0x4fa>
1000384e:	4653      	mov	r3, sl
10003850:	9310      	str	r3, [sp, #64]	; 0x40
10003852:	2302      	movs	r3, #2
10003854:	001a      	movs	r2, r3
10003856:	4022      	ands	r2, r4
10003858:	920b      	str	r2, [sp, #44]	; 0x2c
1000385a:	4223      	tst	r3, r4
1000385c:	d005      	beq.n	1000386a <_vsnprintf+0x512>
1000385e:	003a      	movs	r2, r7
10003860:	0037      	movs	r7, r6
10003862:	464c      	mov	r4, r9
10003864:	46a9      	mov	r9, r5
10003866:	4655      	mov	r5, sl
10003868:	e020      	b.n	100038ac <_vsnprintf+0x554>
1000386a:	003a      	movs	r2, r7
1000386c:	9b10      	ldr	r3, [sp, #64]	; 0x40
1000386e:	465f      	mov	r7, fp
10003870:	46b3      	mov	fp, r6
10003872:	002e      	movs	r6, r5
10003874:	e006      	b.n	10003884 <_vsnprintf+0x52c>
10003876:	1c55      	adds	r5, r2, #1
10003878:	4643      	mov	r3, r8
1000387a:	0039      	movs	r1, r7
1000387c:	2020      	movs	r0, #32
1000387e:	47b0      	blx	r6
10003880:	0023      	movs	r3, r4
10003882:	002a      	movs	r2, r5
10003884:	1c5c      	adds	r4, r3, #1
10003886:	990a      	ldr	r1, [sp, #40]	; 0x28
10003888:	4299      	cmp	r1, r3
1000388a:	d8f4      	bhi.n	10003876 <_vsnprintf+0x51e>
1000388c:	0035      	movs	r5, r6
1000388e:	465e      	mov	r6, fp
10003890:	46bb      	mov	fp, r7
10003892:	9410      	str	r4, [sp, #64]	; 0x40
10003894:	0037      	movs	r7, r6
10003896:	464c      	mov	r4, r9
10003898:	46a9      	mov	r9, r5
1000389a:	4655      	mov	r5, sl
1000389c:	e006      	b.n	100038ac <_vsnprintf+0x554>
1000389e:	001d      	movs	r5, r3
100038a0:	3401      	adds	r4, #1
100038a2:	1c56      	adds	r6, r2, #1
100038a4:	4643      	mov	r3, r8
100038a6:	4659      	mov	r1, fp
100038a8:	47c8      	blx	r9
100038aa:	0032      	movs	r2, r6
100038ac:	7820      	ldrb	r0, [r4, #0]
100038ae:	2800      	cmp	r0, #0
100038b0:	d004      	beq.n	100038bc <_vsnprintf+0x564>
100038b2:	2f00      	cmp	r7, #0
100038b4:	d0f4      	beq.n	100038a0 <_vsnprintf+0x548>
100038b6:	1e6b      	subs	r3, r5, #1
100038b8:	2d00      	cmp	r5, #0
100038ba:	d1f0      	bne.n	1000389e <_vsnprintf+0x546>
100038bc:	0017      	movs	r7, r2
100038be:	464d      	mov	r5, r9
100038c0:	9b0b      	ldr	r3, [sp, #44]	; 0x2c
100038c2:	2b00      	cmp	r3, #0
100038c4:	d103      	bne.n	100038ce <_vsnprintf+0x576>
100038c6:	9b11      	ldr	r3, [sp, #68]	; 0x44
100038c8:	3301      	adds	r3, #1
100038ca:	9311      	str	r3, [sp, #68]	; 0x44
100038cc:	e554      	b.n	10003378 <_vsnprintf+0x20>
100038ce:	9f0a      	ldr	r7, [sp, #40]	; 0x28
100038d0:	9b10      	ldr	r3, [sp, #64]	; 0x40
100038d2:	e006      	b.n	100038e2 <_vsnprintf+0x58a>
100038d4:	1c56      	adds	r6, r2, #1
100038d6:	4643      	mov	r3, r8
100038d8:	4659      	mov	r1, fp
100038da:	2020      	movs	r0, #32
100038dc:	47a8      	blx	r5
100038de:	0023      	movs	r3, r4
100038e0:	0032      	movs	r2, r6
100038e2:	1c5c      	adds	r4, r3, #1
100038e4:	429f      	cmp	r7, r3
100038e6:	d8f5      	bhi.n	100038d4 <_vsnprintf+0x57c>
100038e8:	0017      	movs	r7, r2
100038ea:	e7ec      	b.n	100038c6 <_vsnprintf+0x56e>
100038ec:	2321      	movs	r3, #33	; 0x21
100038ee:	431c      	orrs	r4, r3
100038f0:	9b1c      	ldr	r3, [sp, #112]	; 0x70
100038f2:	1d1a      	adds	r2, r3, #4
100038f4:	921c      	str	r2, [sp, #112]	; 0x70
100038f6:	681b      	ldr	r3, [r3, #0]
100038f8:	9300      	str	r3, [sp, #0]
100038fa:	9405      	str	r4, [sp, #20]
100038fc:	2308      	movs	r3, #8
100038fe:	9304      	str	r3, [sp, #16]
10003900:	4653      	mov	r3, sl
10003902:	9303      	str	r3, [sp, #12]
10003904:	2310      	movs	r3, #16
10003906:	9302      	str	r3, [sp, #8]
10003908:	2300      	movs	r3, #0
1000390a:	9301      	str	r3, [sp, #4]
1000390c:	4643      	mov	r3, r8
1000390e:	003a      	movs	r2, r7
10003910:	4659      	mov	r1, fp
10003912:	0028      	movs	r0, r5
10003914:	f7ff f89c 	bl	10002a50 <_ntoa_long>
10003918:	0007      	movs	r7, r0
1000391a:	9b11      	ldr	r3, [sp, #68]	; 0x44
1000391c:	3301      	adds	r3, #1
1000391e:	9311      	str	r3, [sp, #68]	; 0x44
10003920:	e52a      	b.n	10003378 <_vsnprintf+0x20>
10003922:	1c7c      	adds	r4, r7, #1
10003924:	4643      	mov	r3, r8
10003926:	003a      	movs	r2, r7
10003928:	4659      	mov	r1, fp
1000392a:	2025      	movs	r0, #37	; 0x25
1000392c:	47a8      	blx	r5
1000392e:	9b11      	ldr	r3, [sp, #68]	; 0x44
10003930:	3301      	adds	r3, #1
10003932:	9311      	str	r3, [sp, #68]	; 0x44
10003934:	0027      	movs	r7, r4
10003936:	e51f      	b.n	10003378 <_vsnprintf+0x20>
10003938:	1c7c      	adds	r4, r7, #1
1000393a:	4643      	mov	r3, r8
1000393c:	003a      	movs	r2, r7
1000393e:	4659      	mov	r1, fp
10003940:	47a8      	blx	r5
10003942:	9b11      	ldr	r3, [sp, #68]	; 0x44
10003944:	3301      	adds	r3, #1
10003946:	9311      	str	r3, [sp, #68]	; 0x44
10003948:	0027      	movs	r7, r4
1000394a:	e515      	b.n	10003378 <_vsnprintf+0x20>
1000394c:	4b0a      	ldr	r3, [pc, #40]	; (10003978 <_vsnprintf+0x620>)
1000394e:	469a      	mov	sl, r3
10003950:	e510      	b.n	10003374 <_vsnprintf+0x1c>
10003952:	46aa      	mov	sl, r5
10003954:	4547      	cmp	r7, r8
10003956:	d302      	bcc.n	1000395e <_vsnprintf+0x606>
10003958:	4643      	mov	r3, r8
1000395a:	1e5a      	subs	r2, r3, #1
1000395c:	e000      	b.n	10003960 <_vsnprintf+0x608>
1000395e:	003a      	movs	r2, r7
10003960:	4643      	mov	r3, r8
10003962:	4659      	mov	r1, fp
10003964:	2000      	movs	r0, #0
10003966:	47d0      	blx	sl
10003968:	0038      	movs	r0, r7
1000396a:	b013      	add	sp, #76	; 0x4c
1000396c:	bcf0      	pop	{r4, r5, r6, r7}
1000396e:	46bb      	mov	fp, r7
10003970:	46b2      	mov	sl, r6
10003972:	46a9      	mov	r9, r5
10003974:	46a0      	mov	r8, r4
10003976:	bdf0      	pop	{r4, r5, r6, r7, pc}
10003978:	1000285d 	.word	0x1000285d

1000397c <vfctprintf>:
1000397c:	b500      	push	{lr}
1000397e:	b085      	sub	sp, #20
10003980:	9002      	str	r0, [sp, #8]
10003982:	9103      	str	r1, [sp, #12]
10003984:	2101      	movs	r1, #1
10003986:	9300      	str	r3, [sp, #0]
10003988:	0013      	movs	r3, r2
1000398a:	424a      	negs	r2, r1
1000398c:	a902      	add	r1, sp, #8
1000398e:	4802      	ldr	r0, [pc, #8]	; (10003998 <vfctprintf+0x1c>)
10003990:	f7ff fce2 	bl	10003358 <_vsnprintf>
10003994:	b005      	add	sp, #20
10003996:	bd00      	pop	{pc}
10003998:	1000285f 	.word	0x1000285f

1000399c <__aeabi_bits_init>:
1000399c:	4801      	ldr	r0, [pc, #4]	; (100039a4 <__aeabi_bits_init+0x8>)
1000399e:	2104      	movs	r1, #4
100039a0:	4b01      	ldr	r3, [pc, #4]	; (100039a8 <__aeabi_bits_init+0xc>)
100039a2:	4718      	bx	r3
100039a4:	20000c30 	.word	0x20000c30
100039a8:	100039cd 	.word	0x100039cd

100039ac <rom_func_lookup>:
100039ac:	b510      	push	{r4, lr}
100039ae:	0001      	movs	r1, r0
100039b0:	2318      	movs	r3, #24
100039b2:	881b      	ldrh	r3, [r3, #0]
100039b4:	2214      	movs	r2, #20
100039b6:	8810      	ldrh	r0, [r2, #0]
100039b8:	4798      	blx	r3
100039ba:	bd10      	pop	{r4, pc}

100039bc <rom_data_lookup>:
100039bc:	b510      	push	{r4, lr}
100039be:	0001      	movs	r1, r0
100039c0:	2318      	movs	r3, #24
100039c2:	881b      	ldrh	r3, [r3, #0]
100039c4:	2216      	movs	r2, #22
100039c6:	8810      	ldrh	r0, [r2, #0]
100039c8:	4798      	blx	r3
100039ca:	bd10      	pop	{r4, pc}

100039cc <rom_funcs_lookup>:
100039cc:	b5f0      	push	{r4, r5, r6, r7, lr}
100039ce:	46c6      	mov	lr, r8
100039d0:	b500      	push	{lr}
100039d2:	0007      	movs	r7, r0
100039d4:	000e      	movs	r6, r1
100039d6:	2500      	movs	r5, #0
100039d8:	2301      	movs	r3, #1
100039da:	4698      	mov	r8, r3
100039dc:	e000      	b.n	100039e0 <rom_funcs_lookup+0x14>
100039de:	3501      	adds	r5, #1
100039e0:	42b5      	cmp	r5, r6
100039e2:	d20a      	bcs.n	100039fa <rom_funcs_lookup+0x2e>
100039e4:	00ac      	lsls	r4, r5, #2
100039e6:	193c      	adds	r4, r7, r4
100039e8:	6820      	ldr	r0, [r4, #0]
100039ea:	f7ff ffdf 	bl	100039ac <rom_func_lookup>
100039ee:	6020      	str	r0, [r4, #0]
100039f0:	2800      	cmp	r0, #0
100039f2:	d1f4      	bne.n	100039de <rom_funcs_lookup+0x12>
100039f4:	2300      	movs	r3, #0
100039f6:	4698      	mov	r8, r3
100039f8:	e7f1      	b.n	100039de <rom_funcs_lookup+0x12>
100039fa:	4640      	mov	r0, r8
100039fc:	bc80      	pop	{r7}
100039fe:	46b8      	mov	r8, r7
10003a00:	bdf0      	pop	{r4, r5, r6, r7, pc}
	...

10003a04 <__wrap___aeabi_idiv>:
10003a04:	4a12      	ldr	r2, [pc, #72]	; (10003a50 <divmod_s32s32_savestate+0x18>)
10003a06:	6f93      	ldr	r3, [r2, #120]	; 0x78
10003a08:	089b      	lsrs	r3, r3, #2
10003a0a:	d215      	bcs.n	10003a38 <divmod_s32s32_savestate>

10003a0c <divmod_s32s32_unsafe>:
10003a0c:	6690      	str	r0, [r2, #104]	; 0x68
10003a0e:	66d1      	str	r1, [r2, #108]	; 0x6c
10003a10:	2900      	cmp	r1, #0
10003a12:	d005      	beq.n	10003a20 <divmod_s32s32_unsafe+0x14>
10003a14:	e7ff      	b.n	10003a16 <divmod_s32s32_unsafe+0xa>
10003a16:	e7ff      	b.n	10003a18 <divmod_s32s32_unsafe+0xc>
10003a18:	e7ff      	b.n	10003a1a <divmod_s32s32_unsafe+0xe>
10003a1a:	6f51      	ldr	r1, [r2, #116]	; 0x74
10003a1c:	6f10      	ldr	r0, [r2, #112]	; 0x70
10003a1e:	4770      	bx	lr
10003a20:	b504      	push	{r2, lr}
10003a22:	2180      	movs	r1, #128	; 0x80
10003a24:	0609      	lsls	r1, r1, #24
10003a26:	17c2      	asrs	r2, r0, #31
10003a28:	4051      	eors	r1, r2
10003a2a:	2800      	cmp	r0, #0
10003a2c:	d000      	beq.n	10003a30 <divmod_s32s32_unsafe+0x24>
10003a2e:	43c8      	mvns	r0, r1
10003a30:	f003 f9e6 	bl	10006e00 <____aeabi_idiv0_veneer>
10003a34:	2100      	movs	r1, #0
10003a36:	bd04      	pop	{r2, pc}

10003a38 <divmod_s32s32_savestate>:
10003a38:	b5f0      	push	{r4, r5, r6, r7, lr}
10003a3a:	6e14      	ldr	r4, [r2, #96]	; 0x60
10003a3c:	6e55      	ldr	r5, [r2, #100]	; 0x64
10003a3e:	6f57      	ldr	r7, [r2, #116]	; 0x74
10003a40:	6f16      	ldr	r6, [r2, #112]	; 0x70
10003a42:	f7ff ffe3 	bl	10003a0c <divmod_s32s32_unsafe>
10003a46:	6614      	str	r4, [r2, #96]	; 0x60
10003a48:	6655      	str	r5, [r2, #100]	; 0x64
10003a4a:	6757      	str	r7, [r2, #116]	; 0x74
10003a4c:	6716      	str	r6, [r2, #112]	; 0x70
10003a4e:	bdf0      	pop	{r4, r5, r6, r7, pc}
10003a50:	d0000000 	.word	0xd0000000

10003a54 <__wrap___aeabi_uidiv>:
10003a54:	4a11      	ldr	r2, [pc, #68]	; (10003a9c <divmod_u32u32_savestate+0x18>)
10003a56:	6f93      	ldr	r3, [r2, #120]	; 0x78
10003a58:	089b      	lsrs	r3, r3, #2
10003a5a:	d213      	bcs.n	10003a84 <divmod_u32u32_savestate>

10003a5c <divmod_u32u32_unsafe>:
10003a5c:	6610      	str	r0, [r2, #96]	; 0x60
10003a5e:	6651      	str	r1, [r2, #100]	; 0x64
10003a60:	2900      	cmp	r1, #0
10003a62:	d005      	beq.n	10003a70 <divmod_u32u32_unsafe+0x14>
10003a64:	e7ff      	b.n	10003a66 <divmod_u32u32_unsafe+0xa>
10003a66:	e7ff      	b.n	10003a68 <divmod_u32u32_unsafe+0xc>
10003a68:	e7ff      	b.n	10003a6a <divmod_u32u32_unsafe+0xe>
10003a6a:	6f51      	ldr	r1, [r2, #116]	; 0x74
10003a6c:	6f10      	ldr	r0, [r2, #112]	; 0x70
10003a6e:	4770      	bx	lr
10003a70:	b504      	push	{r2, lr}
10003a72:	2800      	cmp	r0, #0
10003a74:	d001      	beq.n	10003a7a <divmod_u32u32_unsafe+0x1e>
10003a76:	2000      	movs	r0, #0
10003a78:	43c0      	mvns	r0, r0
10003a7a:	f003 f9c1 	bl	10006e00 <____aeabi_idiv0_veneer>
10003a7e:	2100      	movs	r1, #0
10003a80:	bd04      	pop	{r2, pc}
10003a82:	46c0      	nop			; (mov r8, r8)

10003a84 <divmod_u32u32_savestate>:
10003a84:	b5f0      	push	{r4, r5, r6, r7, lr}
10003a86:	6e14      	ldr	r4, [r2, #96]	; 0x60
10003a88:	6e55      	ldr	r5, [r2, #100]	; 0x64
10003a8a:	6f57      	ldr	r7, [r2, #116]	; 0x74
10003a8c:	6f16      	ldr	r6, [r2, #112]	; 0x70
10003a8e:	f7ff ffe5 	bl	10003a5c <divmod_u32u32_unsafe>
10003a92:	6614      	str	r4, [r2, #96]	; 0x60
10003a94:	6655      	str	r5, [r2, #100]	; 0x64
10003a96:	6757      	str	r7, [r2, #116]	; 0x74
10003a98:	6716      	str	r6, [r2, #112]	; 0x70
10003a9a:	bdf0      	pop	{r4, r5, r6, r7, pc}
10003a9c:	d0000000 	.word	0xd0000000

10003aa0 <__wrap___aeabi_ldivmod>:
10003aa0:	4694      	mov	ip, r2
10003aa2:	4a4a      	ldr	r2, [pc, #296]	; (10003bcc <udiv0+0x1a>)
10003aa4:	6f92      	ldr	r2, [r2, #120]	; 0x78
10003aa6:	0892      	lsrs	r2, r2, #2
10003aa8:	4662      	mov	r2, ip
10003aaa:	d201      	bcs.n	10003ab0 <divmod_s64s64_savestate>
10003aac:	e028      	b.n	10003b00 <divmod_s64s64_unsafe>
10003aae:	46c0      	nop			; (mov r8, r8)

10003ab0 <divmod_s64s64_savestate>:
10003ab0:	b5f0      	push	{r4, r5, r6, r7, lr}
10003ab2:	4e46      	ldr	r6, [pc, #280]	; (10003bcc <udiv0+0x1a>)
10003ab4:	6e34      	ldr	r4, [r6, #96]	; 0x60
10003ab6:	6e75      	ldr	r5, [r6, #100]	; 0x64
10003ab8:	6f77      	ldr	r7, [r6, #116]	; 0x74
10003aba:	6f36      	ldr	r6, [r6, #112]	; 0x70
10003abc:	f000 f820 	bl	10003b00 <divmod_s64s64_unsafe>
10003ac0:	4694      	mov	ip, r2
10003ac2:	4a42      	ldr	r2, [pc, #264]	; (10003bcc <udiv0+0x1a>)
10003ac4:	6614      	str	r4, [r2, #96]	; 0x60
10003ac6:	6655      	str	r5, [r2, #100]	; 0x64
10003ac8:	6757      	str	r7, [r2, #116]	; 0x74
10003aca:	6716      	str	r6, [r2, #112]	; 0x70
10003acc:	4662      	mov	r2, ip
10003ace:	bdf0      	pop	{r4, r5, r6, r7, pc}

10003ad0 <__wrap___aeabi_uldivmod>:
10003ad0:	4694      	mov	ip, r2
10003ad2:	4a3e      	ldr	r2, [pc, #248]	; (10003bcc <udiv0+0x1a>)
10003ad4:	6f92      	ldr	r2, [r2, #120]	; 0x78
10003ad6:	0892      	lsrs	r2, r2, #2
10003ad8:	4662      	mov	r2, ip
10003ada:	d201      	bcs.n	10003ae0 <divmod_u64u64_savestate>
10003adc:	e054      	b.n	10003b88 <divmod_u64u64_unsafe>
10003ade:	46c0      	nop			; (mov r8, r8)

10003ae0 <divmod_u64u64_savestate>:
10003ae0:	b5f0      	push	{r4, r5, r6, r7, lr}
10003ae2:	4e3a      	ldr	r6, [pc, #232]	; (10003bcc <udiv0+0x1a>)
10003ae4:	6e34      	ldr	r4, [r6, #96]	; 0x60
10003ae6:	6e75      	ldr	r5, [r6, #100]	; 0x64
10003ae8:	6f77      	ldr	r7, [r6, #116]	; 0x74
10003aea:	6f36      	ldr	r6, [r6, #112]	; 0x70
10003aec:	f000 f84c 	bl	10003b88 <divmod_u64u64_unsafe>
10003af0:	4694      	mov	ip, r2
10003af2:	4a36      	ldr	r2, [pc, #216]	; (10003bcc <udiv0+0x1a>)
10003af4:	6614      	str	r4, [r2, #96]	; 0x60
10003af6:	6655      	str	r5, [r2, #100]	; 0x64
10003af8:	6757      	str	r7, [r2, #116]	; 0x74
10003afa:	6716      	str	r6, [r2, #112]	; 0x70
10003afc:	4662      	mov	r2, ip
10003afe:	bdf0      	pop	{r4, r5, r6, r7, pc}

10003b00 <divmod_s64s64_unsafe>:
10003b00:	2b00      	cmp	r3, #0
10003b02:	db24      	blt.n	10003b4e <l42_1+0x26>
10003b04:	d011      	beq.n	10003b2a <l42_1+0x2>
10003b06:	2900      	cmp	r1, #0
10003b08:	da3e      	bge.n	10003b88 <divmod_u64u64_unsafe>
10003b0a:	b500      	push	{lr}
10003b0c:	43c9      	mvns	r1, r1
10003b0e:	4240      	negs	r0, r0
10003b10:	d100      	bne.n	10003b14 <l40_1>
10003b12:	3101      	adds	r1, #1

10003b14 <l40_1>:
10003b14:	f000 f838 	bl	10003b88 <divmod_u64u64_unsafe>
10003b18:	43c9      	mvns	r1, r1
10003b1a:	4240      	negs	r0, r0
10003b1c:	d100      	bne.n	10003b20 <l41_1>
10003b1e:	3101      	adds	r1, #1

10003b20 <l41_1>:
10003b20:	43db      	mvns	r3, r3
10003b22:	4252      	negs	r2, r2
10003b24:	d100      	bne.n	10003b28 <l42_1>
10003b26:	3301      	adds	r3, #1

10003b28 <l42_1>:
10003b28:	bd00      	pop	{pc}
10003b2a:	2a00      	cmp	r2, #0
10003b2c:	d1eb      	bne.n	10003b06 <divmod_s64s64_unsafe+0x6>
10003b2e:	2800      	cmp	r0, #0
10003b30:	d101      	bne.n	10003b36 <l42_1+0xe>
10003b32:	2900      	cmp	r1, #0
10003b34:	d005      	beq.n	10003b42 <l42_1+0x1a>
10003b36:	2000      	movs	r0, #0
10003b38:	0fc9      	lsrs	r1, r1, #31
10003b3a:	07c9      	lsls	r1, r1, #31
10003b3c:	d101      	bne.n	10003b42 <l42_1+0x1a>
10003b3e:	43c0      	mvns	r0, r0
10003b40:	0841      	lsrs	r1, r0, #1
10003b42:	b500      	push	{lr}
10003b44:	f003 f944 	bl	10006dd0 <____aeabi_ldiv0_veneer>
10003b48:	2200      	movs	r2, #0
10003b4a:	2300      	movs	r3, #0
10003b4c:	bd00      	pop	{pc}
10003b4e:	b500      	push	{lr}
10003b50:	2900      	cmp	r1, #0
10003b52:	db0a      	blt.n	10003b6a <l44_1+0x2>
10003b54:	43db      	mvns	r3, r3
10003b56:	4252      	negs	r2, r2
10003b58:	d100      	bne.n	10003b5c <l43_1>
10003b5a:	3301      	adds	r3, #1

10003b5c <l43_1>:
10003b5c:	f000 f814 	bl	10003b88 <divmod_u64u64_unsafe>
10003b60:	43c9      	mvns	r1, r1
10003b62:	4240      	negs	r0, r0
10003b64:	d100      	bne.n	10003b68 <l44_1>
10003b66:	3101      	adds	r1, #1

10003b68 <l44_1>:
10003b68:	bd00      	pop	{pc}
10003b6a:	43c9      	mvns	r1, r1
10003b6c:	4240      	negs	r0, r0
10003b6e:	d100      	bne.n	10003b72 <l45_1>
10003b70:	3101      	adds	r1, #1

10003b72 <l45_1>:
10003b72:	43db      	mvns	r3, r3
10003b74:	4252      	negs	r2, r2
10003b76:	d100      	bne.n	10003b7a <l46_1>
10003b78:	3301      	adds	r3, #1

10003b7a <l46_1>:
10003b7a:	f000 f805 	bl	10003b88 <divmod_u64u64_unsafe>
10003b7e:	43db      	mvns	r3, r3
10003b80:	4252      	negs	r2, r2
10003b82:	d100      	bne.n	10003b86 <l47_1>
10003b84:	3301      	adds	r3, #1

10003b86 <l47_1>:
10003b86:	bd00      	pop	{pc}

10003b88 <divmod_u64u64_unsafe>:
10003b88:	2900      	cmp	r1, #0
10003b8a:	d123      	bne.n	10003bd4 <y64>
10003b8c:	2b00      	cmp	r3, #0
10003b8e:	d118      	bne.n	10003bc2 <udiv0+0x10>
10003b90:	2a00      	cmp	r2, #0
10003b92:	d00c      	beq.n	10003bae <divmod_u64u64_unsafe+0x26>
10003b94:	46bc      	mov	ip, r7
10003b96:	4f0d      	ldr	r7, [pc, #52]	; (10003bcc <udiv0+0x1a>)
10003b98:	6638      	str	r0, [r7, #96]	; 0x60
10003b9a:	667a      	str	r2, [r7, #100]	; 0x64
10003b9c:	2100      	movs	r1, #0
10003b9e:	2300      	movs	r3, #0
10003ba0:	e7ff      	b.n	10003ba2 <divmod_u64u64_unsafe+0x1a>
10003ba2:	e7ff      	b.n	10003ba4 <divmod_u64u64_unsafe+0x1c>
10003ba4:	e7ff      	b.n	10003ba6 <divmod_u64u64_unsafe+0x1e>
10003ba6:	6f7a      	ldr	r2, [r7, #116]	; 0x74
10003ba8:	6f38      	ldr	r0, [r7, #112]	; 0x70
10003baa:	4667      	mov	r7, ip
10003bac:	4770      	bx	lr
10003bae:	2800      	cmp	r0, #0
10003bb0:	d001      	beq.n	10003bb6 <udiv0+0x4>

10003bb2 <udiv0>:
10003bb2:	4807      	ldr	r0, [pc, #28]	; (10003bd0 <udiv0+0x1e>)
10003bb4:	0001      	movs	r1, r0
10003bb6:	b500      	push	{lr}
10003bb8:	f003 f90a 	bl	10006dd0 <____aeabi_ldiv0_veneer>
10003bbc:	2200      	movs	r2, #0
10003bbe:	2300      	movs	r3, #0
10003bc0:	bd00      	pop	{pc}
10003bc2:	0002      	movs	r2, r0
10003bc4:	000b      	movs	r3, r1
10003bc6:	2000      	movs	r0, #0
10003bc8:	2100      	movs	r1, #0
10003bca:	4770      	bx	lr
10003bcc:	d0000000 	.word	0xd0000000
10003bd0:	ffffffff 	.word	0xffffffff

10003bd4 <y64>:
10003bd4:	2b00      	cmp	r3, #0
10003bd6:	d000      	beq.n	10003bda <y64+0x6>
10003bd8:	e0bf      	b.n	10003d5a <y64_x48>
10003bda:	0c13      	lsrs	r3, r2, #16
10003bdc:	d128      	bne.n	10003c30 <y64_x32>
10003bde:	2a00      	cmp	r2, #0
10003be0:	d0e7      	beq.n	10003bb2 <udiv0>
10003be2:	b480      	push	{r7}
10003be4:	4f11      	ldr	r7, [pc, #68]	; (10003c2c <y64+0x58>)
10003be6:	6639      	str	r1, [r7, #96]	; 0x60
10003be8:	667a      	str	r2, [r7, #100]	; 0x64
10003bea:	e7ff      	b.n	10003bec <y64+0x18>
10003bec:	e7ff      	b.n	10003bee <y64+0x1a>
10003bee:	b430      	push	{r4, r5}
10003bf0:	0c04      	lsrs	r4, r0, #16
10003bf2:	6f7b      	ldr	r3, [r7, #116]	; 0x74
10003bf4:	6f39      	ldr	r1, [r7, #112]	; 0x70
10003bf6:	041b      	lsls	r3, r3, #16
10003bf8:	4323      	orrs	r3, r4
10003bfa:	663b      	str	r3, [r7, #96]	; 0x60
10003bfc:	667a      	str	r2, [r7, #100]	; 0x64
10003bfe:	e7ff      	b.n	10003c00 <y64+0x2c>
10003c00:	e7ff      	b.n	10003c02 <y64+0x2e>
10003c02:	e7ff      	b.n	10003c04 <y64+0x30>
10003c04:	46c0      	nop			; (mov r8, r8)
10003c06:	b284      	uxth	r4, r0
10003c08:	6f7b      	ldr	r3, [r7, #116]	; 0x74
10003c0a:	6f3d      	ldr	r5, [r7, #112]	; 0x70
10003c0c:	041b      	lsls	r3, r3, #16
10003c0e:	4323      	orrs	r3, r4
10003c10:	663b      	str	r3, [r7, #96]	; 0x60
10003c12:	667a      	str	r2, [r7, #100]	; 0x64
10003c14:	e7ff      	b.n	10003c16 <y64+0x42>
10003c16:	e7ff      	b.n	10003c18 <y64+0x44>
10003c18:	46c0      	nop			; (mov r8, r8)
10003c1a:	2300      	movs	r3, #0
10003c1c:	042c      	lsls	r4, r5, #16
10003c1e:	0c2d      	lsrs	r5, r5, #16
10003c20:	6f7a      	ldr	r2, [r7, #116]	; 0x74
10003c22:	6f38      	ldr	r0, [r7, #112]	; 0x70
10003c24:	1900      	adds	r0, r0, r4
10003c26:	4169      	adcs	r1, r5
10003c28:	bcb0      	pop	{r4, r5, r7}
10003c2a:	4770      	bx	lr
10003c2c:	d0000000 	.word	0xd0000000

10003c30 <y64_x32>:
10003c30:	b5f0      	push	{r4, r5, r6, r7, lr}
10003c32:	4694      	mov	ip, r2
10003c34:	2500      	movs	r5, #0
10003c36:	0e14      	lsrs	r4, r2, #24
10003c38:	d101      	bne.n	10003c3e <y64_x32+0xe>
10003c3a:	0212      	lsls	r2, r2, #8
10003c3c:	3508      	adds	r5, #8
10003c3e:	0f14      	lsrs	r4, r2, #28
10003c40:	d101      	bne.n	10003c46 <y64_x32+0x16>
10003c42:	0112      	lsls	r2, r2, #4
10003c44:	3504      	adds	r5, #4
10003c46:	0f94      	lsrs	r4, r2, #30
10003c48:	d101      	bne.n	10003c4e <y64_x32+0x1e>
10003c4a:	0092      	lsls	r2, r2, #2
10003c4c:	3502      	adds	r5, #2
10003c4e:	0fd4      	lsrs	r4, r2, #31
10003c50:	d101      	bne.n	10003c56 <y64_x32+0x26>
10003c52:	0052      	lsls	r2, r2, #1
10003c54:	3501      	adds	r5, #1
10003c56:	0bd4      	lsrs	r4, r2, #15
10003c58:	3401      	adds	r4, #1
10003c5a:	4f25      	ldr	r7, [pc, #148]	; (10003cf0 <y64_x32+0xc0>)
10003c5c:	667c      	str	r4, [r7, #100]	; 0x64
10003c5e:	4c25      	ldr	r4, [pc, #148]	; (10003cf4 <y64_x32+0xc4>)
10003c60:	663c      	str	r4, [r7, #96]	; 0x60
10003c62:	0c0e      	lsrs	r6, r1, #16
10003c64:	b293      	uxth	r3, r2
10003c66:	e7ff      	b.n	10003c68 <y64_x32+0x38>
10003c68:	e7ff      	b.n	10003c6a <y64_x32+0x3a>
10003c6a:	e7ff      	b.n	10003c6c <y64_x32+0x3c>
10003c6c:	6f3c      	ldr	r4, [r7, #112]	; 0x70
10003c6e:	4366      	muls	r6, r4
10003c70:	0c36      	lsrs	r6, r6, #16
10003c72:	0377      	lsls	r7, r6, #13
10003c74:	46be      	mov	lr, r7
10003c76:	4373      	muls	r3, r6
10003c78:	0bdf      	lsrs	r7, r3, #15
10003c7a:	045b      	lsls	r3, r3, #17
10003c7c:	1ac0      	subs	r0, r0, r3
10003c7e:	41b9      	sbcs	r1, r7
10003c80:	0c13      	lsrs	r3, r2, #16
10003c82:	4373      	muls	r3, r6
10003c84:	18db      	adds	r3, r3, r3
10003c86:	1ac9      	subs	r1, r1, r3
10003c88:	08ce      	lsrs	r6, r1, #3
10003c8a:	4366      	muls	r6, r4
10003c8c:	0c36      	lsrs	r6, r6, #16
10003c8e:	44b6      	add	lr, r6
10003c90:	b293      	uxth	r3, r2
10003c92:	4373      	muls	r3, r6
10003c94:	0f1f      	lsrs	r7, r3, #28
10003c96:	011b      	lsls	r3, r3, #4
10003c98:	1ac0      	subs	r0, r0, r3
10003c9a:	41b9      	sbcs	r1, r7
10003c9c:	0c13      	lsrs	r3, r2, #16
10003c9e:	4373      	muls	r3, r6
10003ca0:	0b1f      	lsrs	r7, r3, #12
10003ca2:	051b      	lsls	r3, r3, #20
10003ca4:	1ac0      	subs	r0, r0, r3
10003ca6:	41b9      	sbcs	r1, r7
10003ca8:	0d86      	lsrs	r6, r0, #22
10003caa:	028f      	lsls	r7, r1, #10
10003cac:	433e      	orrs	r6, r7
10003cae:	4366      	muls	r6, r4
10003cb0:	0c36      	lsrs	r6, r6, #16
10003cb2:	2d09      	cmp	r5, #9
10003cb4:	db24      	blt.n	10003d00 <last0>
10003cb6:	0a52      	lsrs	r2, r2, #9
10003cb8:	4372      	muls	r2, r6
10003cba:	1a80      	subs	r0, r0, r2
10003cbc:	0377      	lsls	r7, r6, #13
10003cbe:	0a46      	lsrs	r6, r0, #9
10003cc0:	4366      	muls	r6, r4
10003cc2:	0c36      	lsrs	r6, r6, #16
10003cc4:	2316      	movs	r3, #22
10003cc6:	1b5b      	subs	r3, r3, r5
10003cc8:	40de      	lsrs	r6, r3
10003cca:	40df      	lsrs	r7, r3
10003ccc:	19bf      	adds	r7, r7, r6
10003cce:	4664      	mov	r4, ip
10003cd0:	4366      	muls	r6, r4
10003cd2:	1b82      	subs	r2, r0, r6
10003cd4:	4670      	mov	r0, lr
10003cd6:	3504      	adds	r5, #4
10003cd8:	3306      	adds	r3, #6
10003cda:	0001      	movs	r1, r0
10003cdc:	40d9      	lsrs	r1, r3
10003cde:	40a8      	lsls	r0, r5
10003ce0:	19c0      	adds	r0, r0, r7
10003ce2:	d300      	bcc.n	10003ce6 <y64_x32+0xb6>
10003ce4:	3101      	adds	r1, #1
10003ce6:	42a2      	cmp	r2, r4
10003ce8:	d206      	bcs.n	10003cf8 <y64_x32+0xc8>
10003cea:	2300      	movs	r3, #0
10003cec:	bdf0      	pop	{r4, r5, r6, r7, pc}
10003cee:	0000      	.short	0x0000
10003cf0:	d0000000 	.word	0xd0000000
10003cf4:	ffffffff 	.word	0xffffffff
10003cf8:	1b12      	subs	r2, r2, r4
10003cfa:	3001      	adds	r0, #1
10003cfc:	d3f3      	bcc.n	10003ce6 <y64_x32+0xb6>
10003cfe:	e7f1      	b.n	10003ce4 <y64_x32+0xb4>

10003d00 <last0>:
10003d00:	2709      	movs	r7, #9
10003d02:	1b7f      	subs	r7, r7, r5
10003d04:	40fe      	lsrs	r6, r7
10003d06:	4664      	mov	r4, ip
10003d08:	b2a2      	uxth	r2, r4
10003d0a:	4372      	muls	r2, r6
10003d0c:	1a80      	subs	r0, r0, r2
10003d0e:	d200      	bcs.n	10003d12 <last0+0x12>
10003d10:	3901      	subs	r1, #1
10003d12:	0c22      	lsrs	r2, r4, #16
10003d14:	4372      	muls	r2, r6
10003d16:	0c13      	lsrs	r3, r2, #16
10003d18:	0412      	lsls	r2, r2, #16
10003d1a:	1a82      	subs	r2, r0, r2
10003d1c:	4199      	sbcs	r1, r3
10003d1e:	000b      	movs	r3, r1
10003d20:	4670      	mov	r0, lr
10003d22:	3504      	adds	r5, #4
10003d24:	3713      	adds	r7, #19
10003d26:	0001      	movs	r1, r0
10003d28:	40f9      	lsrs	r1, r7
10003d2a:	40a8      	lsls	r0, r5
10003d2c:	1980      	adds	r0, r0, r6
10003d2e:	d300      	bcc.n	10003d32 <last0+0x32>
10003d30:	3101      	adds	r1, #1
10003d32:	2b00      	cmp	r3, #0
10003d34:	d102      	bne.n	10003d3c <last0+0x3c>
10003d36:	42a2      	cmp	r2, r4
10003d38:	d20a      	bcs.n	10003d50 <last0+0x50>
10003d3a:	bdf0      	pop	{r4, r5, r6, r7, pc}
10003d3c:	3001      	adds	r0, #1
10003d3e:	d300      	bcc.n	10003d42 <last0+0x42>
10003d40:	3101      	adds	r1, #1
10003d42:	1b12      	subs	r2, r2, r4
10003d44:	d2fa      	bcs.n	10003d3c <last0+0x3c>
10003d46:	3b01      	subs	r3, #1
10003d48:	d1f8      	bne.n	10003d3c <last0+0x3c>
10003d4a:	42a2      	cmp	r2, r4
10003d4c:	d200      	bcs.n	10003d50 <last0+0x50>
10003d4e:	bdf0      	pop	{r4, r5, r6, r7, pc}
10003d50:	3001      	adds	r0, #1
10003d52:	d300      	bcc.n	10003d56 <last0+0x56>
10003d54:	3101      	adds	r1, #1
10003d56:	1b12      	subs	r2, r2, r4
10003d58:	e7f7      	b.n	10003d4a <last0+0x4a>

10003d5a <y64_x48>:
10003d5a:	b5f0      	push	{r4, r5, r6, r7, lr}
10003d5c:	0c1c      	lsrs	r4, r3, #16
10003d5e:	d000      	beq.n	10003d62 <y64_x48+0x8>
10003d60:	e080      	b.n	10003e64 <y64_x64>
10003d62:	b40c      	push	{r2, r3}
10003d64:	2500      	movs	r5, #0
10003d66:	0a1c      	lsrs	r4, r3, #8
10003d68:	d104      	bne.n	10003d74 <y64_x48+0x1a>
10003d6a:	021b      	lsls	r3, r3, #8
10003d6c:	0e16      	lsrs	r6, r2, #24
10003d6e:	4333      	orrs	r3, r6
10003d70:	0212      	lsls	r2, r2, #8
10003d72:	3508      	adds	r5, #8
10003d74:	0b1c      	lsrs	r4, r3, #12
10003d76:	d104      	bne.n	10003d82 <y64_x48+0x28>
10003d78:	011b      	lsls	r3, r3, #4
10003d7a:	0f16      	lsrs	r6, r2, #28
10003d7c:	4333      	orrs	r3, r6
10003d7e:	0112      	lsls	r2, r2, #4
10003d80:	3504      	adds	r5, #4
10003d82:	0b9c      	lsrs	r4, r3, #14
10003d84:	d104      	bne.n	10003d90 <y64_x48+0x36>
10003d86:	009b      	lsls	r3, r3, #2
10003d88:	0f96      	lsrs	r6, r2, #30
10003d8a:	4333      	orrs	r3, r6
10003d8c:	0092      	lsls	r2, r2, #2
10003d8e:	3502      	adds	r5, #2
10003d90:	0bdc      	lsrs	r4, r3, #15
10003d92:	d102      	bne.n	10003d9a <y64_x48+0x40>
10003d94:	1892      	adds	r2, r2, r2
10003d96:	415b      	adcs	r3, r3
10003d98:	3501      	adds	r5, #1
10003d9a:	001c      	movs	r4, r3
10003d9c:	1897      	adds	r7, r2, r2
10003d9e:	4164      	adcs	r4, r4
10003da0:	3401      	adds	r4, #1
10003da2:	4f46      	ldr	r7, [pc, #280]	; (10003ebc <y64_x64+0x58>)
10003da4:	667c      	str	r4, [r7, #100]	; 0x64
10003da6:	4c46      	ldr	r4, [pc, #280]	; (10003ec0 <y64_x64+0x5c>)
10003da8:	663c      	str	r4, [r7, #96]	; 0x60
10003daa:	0c0e      	lsrs	r6, r1, #16
10003dac:	e7ff      	b.n	10003dae <y64_x48+0x54>
10003dae:	e7ff      	b.n	10003db0 <y64_x48+0x56>
10003db0:	e7ff      	b.n	10003db2 <y64_x48+0x58>
10003db2:	46c0      	nop			; (mov r8, r8)
10003db4:	6f3c      	ldr	r4, [r7, #112]	; 0x70
10003db6:	4366      	muls	r6, r4
10003db8:	0c36      	lsrs	r6, r6, #16
10003dba:	0377      	lsls	r7, r6, #13
10003dbc:	46be      	mov	lr, r7
10003dbe:	b297      	uxth	r7, r2
10003dc0:	4377      	muls	r7, r6
10003dc2:	1bc0      	subs	r0, r0, r7
10003dc4:	d200      	bcs.n	10003dc8 <y64_x48+0x6e>
10003dc6:	3901      	subs	r1, #1
10003dc8:	1bc0      	subs	r0, r0, r7
10003dca:	d200      	bcs.n	10003dce <y64_x48+0x74>
10003dcc:	3901      	subs	r1, #1
10003dce:	b29f      	uxth	r7, r3
10003dd0:	4377      	muls	r7, r6
10003dd2:	1bc9      	subs	r1, r1, r7
10003dd4:	1bc9      	subs	r1, r1, r7
10003dd6:	0c17      	lsrs	r7, r2, #16
10003dd8:	4377      	muls	r7, r6
10003dda:	047e      	lsls	r6, r7, #17
10003ddc:	0bff      	lsrs	r7, r7, #15
10003dde:	1b80      	subs	r0, r0, r6
10003de0:	41b9      	sbcs	r1, r7
10003de2:	08ce      	lsrs	r6, r1, #3
10003de4:	4366      	muls	r6, r4
10003de6:	0c36      	lsrs	r6, r6, #16
10003de8:	2d0c      	cmp	r5, #12
10003dea:	db33      	blt.n	10003e54 <last1>
10003dec:	44b6      	add	lr, r6
10003dee:	0b12      	lsrs	r2, r2, #12
10003df0:	051f      	lsls	r7, r3, #20
10003df2:	433a      	orrs	r2, r7
10003df4:	0b1b      	lsrs	r3, r3, #12
10003df6:	b297      	uxth	r7, r2
10003df8:	4377      	muls	r7, r6
10003dfa:	1bc0      	subs	r0, r0, r7
10003dfc:	d200      	bcs.n	10003e00 <y64_x48+0xa6>
10003dfe:	3901      	subs	r1, #1
10003e00:	b29f      	uxth	r7, r3
10003e02:	4377      	muls	r7, r6
10003e04:	1bc9      	subs	r1, r1, r7
10003e06:	0c17      	lsrs	r7, r2, #16
10003e08:	4377      	muls	r7, r6
10003e0a:	043e      	lsls	r6, r7, #16
10003e0c:	0c3f      	lsrs	r7, r7, #16
10003e0e:	1b80      	subs	r0, r0, r6
10003e10:	41b9      	sbcs	r1, r7
10003e12:	0d86      	lsrs	r6, r0, #22
10003e14:	028f      	lsls	r7, r1, #10
10003e16:	433e      	orrs	r6, r7
10003e18:	4366      	muls	r6, r4
10003e1a:	2729      	movs	r7, #41	; 0x29
10003e1c:	1b7f      	subs	r7, r7, r5
10003e1e:	40fe      	lsrs	r6, r7
10003e20:	3d0c      	subs	r5, #12
10003e22:	4677      	mov	r7, lr
10003e24:	40af      	lsls	r7, r5
10003e26:	19bf      	adds	r7, r7, r6
10003e28:	bc30      	pop	{r4, r5}
10003e2a:	b2a2      	uxth	r2, r4
10003e2c:	b2ab      	uxth	r3, r5
10003e2e:	4372      	muls	r2, r6
10003e30:	4373      	muls	r3, r6
10003e32:	1a80      	subs	r0, r0, r2
10003e34:	4199      	sbcs	r1, r3
10003e36:	0c22      	lsrs	r2, r4, #16
10003e38:	4372      	muls	r2, r6
10003e3a:	0c13      	lsrs	r3, r2, #16
10003e3c:	0412      	lsls	r2, r2, #16
10003e3e:	1a80      	subs	r0, r0, r2
10003e40:	4199      	sbcs	r1, r3
10003e42:	0002      	movs	r2, r0
10003e44:	000b      	movs	r3, r1
10003e46:	3701      	adds	r7, #1
10003e48:	1b00      	subs	r0, r0, r4
10003e4a:	41a9      	sbcs	r1, r5
10003e4c:	d2f9      	bcs.n	10003e42 <y64_x48+0xe8>
10003e4e:	1e78      	subs	r0, r7, #1
10003e50:	2100      	movs	r1, #0
10003e52:	bdf0      	pop	{r4, r5, r6, r7, pc}

10003e54 <last1>:
10003e54:	270c      	movs	r7, #12
10003e56:	1b7f      	subs	r7, r7, r5
10003e58:	40fe      	lsrs	r6, r7
10003e5a:	4677      	mov	r7, lr
10003e5c:	0b7f      	lsrs	r7, r7, #13
10003e5e:	40af      	lsls	r7, r5
10003e60:	19ff      	adds	r7, r7, r7
10003e62:	e7e0      	b.n	10003e26 <y64_x48+0xcc>

10003e64 <y64_x64>:
10003e64:	2400      	movs	r4, #0
10003e66:	1c5d      	adds	r5, r3, #1
10003e68:	d007      	beq.n	10003e7a <y64_x64+0x16>
10003e6a:	4f14      	ldr	r7, [pc, #80]	; (10003ebc <y64_x64+0x58>)
10003e6c:	667d      	str	r5, [r7, #100]	; 0x64
10003e6e:	6639      	str	r1, [r7, #96]	; 0x60
10003e70:	e7ff      	b.n	10003e72 <y64_x64+0xe>
10003e72:	e7ff      	b.n	10003e74 <y64_x64+0x10>
10003e74:	e7ff      	b.n	10003e76 <y64_x64+0x12>
10003e76:	e7ff      	b.n	10003e78 <y64_x64+0x14>
10003e78:	6f3c      	ldr	r4, [r7, #112]	; 0x70
10003e7a:	b295      	uxth	r5, r2
10003e7c:	b29e      	uxth	r6, r3
10003e7e:	4365      	muls	r5, r4
10003e80:	4366      	muls	r6, r4
10003e82:	1b40      	subs	r0, r0, r5
10003e84:	41b1      	sbcs	r1, r6
10003e86:	0c15      	lsrs	r5, r2, #16
10003e88:	0c1e      	lsrs	r6, r3, #16
10003e8a:	4365      	muls	r5, r4
10003e8c:	4366      	muls	r6, r4
10003e8e:	0436      	lsls	r6, r6, #16
10003e90:	0c2f      	lsrs	r7, r5, #16
10003e92:	433e      	orrs	r6, r7
10003e94:	042d      	lsls	r5, r5, #16
10003e96:	1b40      	subs	r0, r0, r5
10003e98:	41b1      	sbcs	r1, r6
10003e9a:	4299      	cmp	r1, r3
10003e9c:	d204      	bcs.n	10003ea8 <y64_x64+0x44>
10003e9e:	0002      	movs	r2, r0
10003ea0:	000b      	movs	r3, r1
10003ea2:	0020      	movs	r0, r4
10003ea4:	2100      	movs	r1, #0
10003ea6:	bdf0      	pop	{r4, r5, r6, r7, pc}
10003ea8:	d101      	bne.n	10003eae <y64_x64+0x4a>
10003eaa:	4290      	cmp	r0, r2
10003eac:	d3f7      	bcc.n	10003e9e <y64_x64+0x3a>
10003eae:	1a80      	subs	r0, r0, r2
10003eb0:	4199      	sbcs	r1, r3
10003eb2:	3401      	adds	r4, #1
10003eb4:	4299      	cmp	r1, r3
10003eb6:	d3f2      	bcc.n	10003e9e <y64_x64+0x3a>
10003eb8:	e7f6      	b.n	10003ea8 <y64_x64+0x44>
10003eba:	0000      	.short	0x0000
10003ebc:	d0000000 	.word	0xd0000000
10003ec0:	ffffffff 	.word	0xffffffff

10003ec4 <__wrap___aeabi_drsub>:
10003ec4:	4048      	eors	r0, r1
10003ec6:	4041      	eors	r1, r0
10003ec8:	4048      	eors	r0, r1

10003eca <__wrap___aeabi_dsub>:
10003eca:	b418      	push	{r3, r4}
10003ecc:	4b13      	ldr	r3, [pc, #76]	; (10003f1c <__wrap___aeabi_dmul+0xa>)
10003ece:	685b      	ldr	r3, [r3, #4]
10003ed0:	9301      	str	r3, [sp, #4]
10003ed2:	bd08      	pop	{r3, pc}

10003ed4 <__wrap___aeabi_dadd>:
10003ed4:	b418      	push	{r3, r4}
10003ed6:	4b11      	ldr	r3, [pc, #68]	; (10003f1c <__wrap___aeabi_dmul+0xa>)
10003ed8:	681b      	ldr	r3, [r3, #0]
10003eda:	9301      	str	r3, [sp, #4]
10003edc:	bd08      	pop	{r3, pc}

10003ede <__wrap___aeabi_ddiv>:
10003ede:	4694      	mov	ip, r2
10003ee0:	4a0f      	ldr	r2, [pc, #60]	; (10003f20 <__wrap___aeabi_dmul+0xe>)
10003ee2:	6f92      	ldr	r2, [r2, #120]	; 0x78
10003ee4:	0892      	lsrs	r2, r2, #2
10003ee6:	d205      	bcs.n	10003ef4 <ddiv_save_state>
10003ee8:	4662      	mov	r2, ip

10003eea <ddiv_shim_call>:
10003eea:	b418      	push	{r3, r4}
10003eec:	4b0b      	ldr	r3, [pc, #44]	; (10003f1c <__wrap___aeabi_dmul+0xa>)
10003eee:	68db      	ldr	r3, [r3, #12]
10003ef0:	9301      	str	r3, [sp, #4]
10003ef2:	bd08      	pop	{r3, pc}

10003ef4 <ddiv_save_state>:
10003ef4:	4a0a      	ldr	r2, [pc, #40]	; (10003f20 <__wrap___aeabi_dmul+0xe>)
10003ef6:	b5f0      	push	{r4, r5, r6, r7, lr}
10003ef8:	6e14      	ldr	r4, [r2, #96]	; 0x60
10003efa:	6e55      	ldr	r5, [r2, #100]	; 0x64
10003efc:	6f57      	ldr	r7, [r2, #116]	; 0x74
10003efe:	6f16      	ldr	r6, [r2, #112]	; 0x70
10003f00:	4662      	mov	r2, ip
10003f02:	f7ff fff2 	bl	10003eea <ddiv_shim_call>
10003f06:	4a06      	ldr	r2, [pc, #24]	; (10003f20 <__wrap___aeabi_dmul+0xe>)
10003f08:	6614      	str	r4, [r2, #96]	; 0x60
10003f0a:	6655      	str	r5, [r2, #100]	; 0x64
10003f0c:	6757      	str	r7, [r2, #116]	; 0x74
10003f0e:	6716      	str	r6, [r2, #112]	; 0x70
10003f10:	bdf0      	pop	{r4, r5, r6, r7, pc}

10003f12 <__wrap___aeabi_dmul>:
10003f12:	b418      	push	{r3, r4}
10003f14:	4b01      	ldr	r3, [pc, #4]	; (10003f1c <__wrap___aeabi_dmul+0xa>)
10003f16:	689b      	ldr	r3, [r3, #8]
10003f18:	9301      	str	r3, [sp, #4]
10003f1a:	bd08      	pop	{r3, pc}
10003f1c:	20001818 	.word	0x20001818
10003f20:	d0000000 	.word	0xd0000000

10003f24 <__wrap___aeabi_cdrcmple>:
10003f24:	b5ff      	push	{r0, r1, r2, r3, r4, r5, r6, r7, lr}
10003f26:	4050      	eors	r0, r2
10003f28:	4042      	eors	r2, r0
10003f2a:	4050      	eors	r0, r2
10003f2c:	4059      	eors	r1, r3
10003f2e:	404b      	eors	r3, r1
10003f30:	4059      	eors	r1, r3
10003f32:	e000      	b.n	10003f36 <__aeabi_dfcmple_guts>

10003f34 <__wrap___aeabi_cdcmpeq>:
10003f34:	b5ff      	push	{r0, r1, r2, r3, r4, r5, r6, r7, lr}

10003f36 <__aeabi_dfcmple_guts>:
10003f36:	4f15      	ldr	r7, [pc, #84]	; (10003f8c <__aeabi_dfcmple_guts+0x56>)
10003f38:	004c      	lsls	r4, r1, #1
10003f3a:	0d64      	lsrs	r4, r4, #21
10003f3c:	d003      	beq.n	10003f46 <__aeabi_dfcmple_guts+0x10>
10003f3e:	42bc      	cmp	r4, r7
10003f40:	d104      	bne.n	10003f4c <__aeabi_dfcmple_guts+0x16>
10003f42:	030c      	lsls	r4, r1, #12
10003f44:	d814      	bhi.n	10003f70 <__aeabi_dfcmple_guts+0x3a>
10003f46:	2000      	movs	r0, #0
10003f48:	0d09      	lsrs	r1, r1, #20
10003f4a:	0509      	lsls	r1, r1, #20
10003f4c:	005c      	lsls	r4, r3, #1
10003f4e:	0d64      	lsrs	r4, r4, #21
10003f50:	d003      	beq.n	10003f5a <__aeabi_dfcmple_guts+0x24>
10003f52:	42bc      	cmp	r4, r7
10003f54:	d104      	bne.n	10003f60 <__aeabi_dfcmple_guts+0x2a>
10003f56:	031c      	lsls	r4, r3, #12
10003f58:	d80a      	bhi.n	10003f70 <__aeabi_dfcmple_guts+0x3a>
10003f5a:	2200      	movs	r2, #0
10003f5c:	0d1b      	lsrs	r3, r3, #20
10003f5e:	051b      	lsls	r3, r3, #20
10003f60:	2601      	movs	r6, #1
10003f62:	404b      	eors	r3, r1
10003f64:	d409      	bmi.n	10003f7a <__aeabi_dfcmple_guts+0x44>
10003f66:	404b      	eors	r3, r1
10003f68:	d503      	bpl.n	10003f72 <__aeabi_dfcmple_guts+0x3c>
10003f6a:	428b      	cmp	r3, r1
10003f6c:	d100      	bne.n	10003f70 <__aeabi_dfcmple_guts+0x3a>
10003f6e:	4282      	cmp	r2, r0
10003f70:	bdff      	pop	{r0, r1, r2, r3, r4, r5, r6, r7, pc}
10003f72:	4299      	cmp	r1, r3
10003f74:	d1fc      	bne.n	10003f70 <__aeabi_dfcmple_guts+0x3a>
10003f76:	4290      	cmp	r0, r2
10003f78:	bdff      	pop	{r0, r1, r2, r3, r4, r5, r6, r7, pc}
10003f7a:	430b      	orrs	r3, r1
10003f7c:	18db      	adds	r3, r3, r3
10003f7e:	4303      	orrs	r3, r0
10003f80:	4313      	orrs	r3, r2
10003f82:	d0f5      	beq.n	10003f70 <__aeabi_dfcmple_guts+0x3a>
10003f84:	43c9      	mvns	r1, r1
10003f86:	1849      	adds	r1, r1, r1
10003f88:	bdff      	pop	{r0, r1, r2, r3, r4, r5, r6, r7, pc}
10003f8a:	0000      	.short	0x0000
10003f8c:	000007ff 	.word	0x000007ff

10003f90 <__wrap___aeabi_dcmplt>:
10003f90:	b500      	push	{lr}
10003f92:	f7ff ffcf 	bl	10003f34 <__wrap___aeabi_cdcmpeq>
10003f96:	4180      	sbcs	r0, r0
10003f98:	bd00      	pop	{pc}
10003f9a:	46c0      	nop			; (mov r8, r8)

10003f9c <__wrap___aeabi_dcmple>:
10003f9c:	b500      	push	{lr}
10003f9e:	f7ff ffc9 	bl	10003f34 <__wrap___aeabi_cdcmpeq>
10003fa2:	d901      	bls.n	10003fa8 <__wrap___aeabi_dcmple+0xc>
10003fa4:	2000      	movs	r0, #0
10003fa6:	bd00      	pop	{pc}
10003fa8:	2001      	movs	r0, #1
10003faa:	bd00      	pop	{pc}

10003fac <__wrap___aeabi_dcmpge>:
10003fac:	b500      	push	{lr}
10003fae:	f7ff ffb9 	bl	10003f24 <__wrap___aeabi_cdrcmple>
10003fb2:	d901      	bls.n	10003fb8 <__wrap___aeabi_dcmpge+0xc>
10003fb4:	2000      	movs	r0, #0
10003fb6:	bd00      	pop	{pc}
10003fb8:	2001      	movs	r0, #1
10003fba:	bd00      	pop	{pc}

10003fbc <__wrap___aeabi_dcmpgt>:
10003fbc:	b500      	push	{lr}
10003fbe:	f7ff ffb1 	bl	10003f24 <__wrap___aeabi_cdrcmple>
10003fc2:	4180      	sbcs	r0, r0
10003fc4:	bd00      	pop	{pc}

10003fc6 <__wrap___aeabi_dcmpun>:
10003fc6:	2001      	movs	r0, #1
10003fc8:	0540      	lsls	r0, r0, #21
10003fca:	004a      	lsls	r2, r1, #1
10003fcc:	1812      	adds	r2, r2, r0
10003fce:	d804      	bhi.n	10003fda <__wrap___aeabi_dcmpun+0x14>
10003fd0:	005a      	lsls	r2, r3, #1
10003fd2:	1812      	adds	r2, r2, r0
10003fd4:	d801      	bhi.n	10003fda <__wrap___aeabi_dcmpun+0x14>
10003fd6:	2000      	movs	r0, #0
10003fd8:	4770      	bx	lr
10003fda:	2001      	movs	r0, #1
10003fdc:	4770      	bx	lr
10003fde:	2000      	movs	r0, #0
10003fe0:	4770      	bx	lr
	...

10003fe4 <__wrap___aeabi_ui2d>:
10003fe4:	2100      	movs	r1, #0
10003fe6:	2800      	cmp	r0, #0
10003fe8:	d105      	bne.n	10003ff6 <__wrap___aeabi_i2d+0xa>
10003fea:	4770      	bx	lr

10003fec <__wrap___aeabi_i2d>:
10003fec:	17c1      	asrs	r1, r0, #31
10003fee:	4048      	eors	r0, r1
10003ff0:	1a40      	subs	r0, r0, r1
10003ff2:	d0fa      	beq.n	10003fea <__wrap___aeabi_ui2d+0x6>
10003ff4:	07c9      	lsls	r1, r1, #31
10003ff6:	b513      	push	{r0, r1, r4, lr}
10003ff8:	4b06      	ldr	r3, [pc, #24]	; (10004014 <__wrap___aeabi_i2d+0x28>)
10003ffa:	681b      	ldr	r3, [r3, #0]
10003ffc:	4798      	blx	r3
10003ffe:	bc0c      	pop	{r2, r3}
10004000:	1c44      	adds	r4, r0, #1
10004002:	40a2      	lsls	r2, r4
10004004:	0510      	lsls	r0, r2, #20
10004006:	0b12      	lsrs	r2, r2, #12
10004008:	4903      	ldr	r1, [pc, #12]	; (10004018 <__wrap___aeabi_i2d+0x2c>)
1000400a:	1b09      	subs	r1, r1, r4
1000400c:	0509      	lsls	r1, r1, #20
1000400e:	4319      	orrs	r1, r3
10004010:	4311      	orrs	r1, r2
10004012:	bd10      	pop	{r4, pc}
10004014:	20001918 	.word	0x20001918
10004018:	0000041f 	.word	0x0000041f

1000401c <__wrap___aeabi_d2iz>:
1000401c:	b510      	push	{r4, lr}
1000401e:	004c      	lsls	r4, r1, #1
10004020:	0d62      	lsrs	r2, r4, #21
10004022:	2380      	movs	r3, #128	; 0x80
10004024:	18d2      	adds	r2, r2, r3
10004026:	00db      	lsls	r3, r3, #3
10004028:	1ad2      	subs	r2, r2, r3
1000402a:	055b      	lsls	r3, r3, #21
1000402c:	2a7e      	cmp	r2, #126	; 0x7e
1000402e:	dd10      	ble.n	10004052 <__wrap___aeabi_d2iz+0x36>
10004030:	3a9e      	subs	r2, #158	; 0x9e
10004032:	da13      	bge.n	1000405c <__wrap___aeabi_d2iz+0x40>
10004034:	17cc      	asrs	r4, r1, #31
10004036:	0309      	lsls	r1, r1, #12
10004038:	0849      	lsrs	r1, r1, #1
1000403a:	4319      	orrs	r1, r3
1000403c:	4252      	negs	r2, r2
1000403e:	40d1      	lsrs	r1, r2
10004040:	0064      	lsls	r4, r4, #1
10004042:	3401      	adds	r4, #1
10004044:	3215      	adds	r2, #21
10004046:	2a20      	cmp	r2, #32
10004048:	da05      	bge.n	10004056 <__wrap___aeabi_d2iz+0x3a>
1000404a:	40d0      	lsrs	r0, r2
1000404c:	4308      	orrs	r0, r1
1000404e:	4360      	muls	r0, r4
10004050:	bd10      	pop	{r4, pc}
10004052:	2000      	movs	r0, #0
10004054:	bd10      	pop	{r4, pc}
10004056:	4608      	mov	r0, r1
10004058:	4360      	muls	r0, r4
1000405a:	bd10      	pop	{r4, pc}
1000405c:	0fc8      	lsrs	r0, r1, #31
1000405e:	18c0      	adds	r0, r0, r3
10004060:	3801      	subs	r0, #1
10004062:	bd10      	pop	{r4, pc}

10004064 <__wrap___aeabi_d2uiz>:
10004064:	b418      	push	{r3, r4}
10004066:	4b02      	ldr	r3, [pc, #8]	; (10004070 <__wrap___aeabi_d2uiz+0xc>)
10004068:	6a5b      	ldr	r3, [r3, #36]	; 0x24
1000406a:	9301      	str	r3, [sp, #4]
1000406c:	bd08      	pop	{r3, pc}
1000406e:	0000      	.short	0x0000
10004070:	20001818 	.word	0x20001818

10004074 <missing_double_func_shim>:
10004074:	b510      	push	{r4, lr}
10004076:	4801      	ldr	r0, [pc, #4]	; (1000407c <missing_double_func_shim+0x8>)
10004078:	f7fe fbd8 	bl	1000282c <panic>
1000407c:	10007da8 	.word	0x10007da8

10004080 <__aeabi_double_init>:
10004080:	b570      	push	{r4, r5, r6, lr}
10004082:	2313      	movs	r3, #19
10004084:	781c      	ldrb	r4, [r3, #0]
10004086:	2c01      	cmp	r4, #1
10004088:	d014      	beq.n	100040b4 <__aeabi_double_init+0x34>
1000408a:	2c01      	cmp	r4, #1
1000408c:	dc14      	bgt.n	100040b8 <__aeabi_double_init+0x38>
1000408e:	2c02      	cmp	r4, #2
10004090:	dc02      	bgt.n	10004098 <__aeabi_double_init+0x18>
10004092:	4a1f      	ldr	r2, [pc, #124]	; (10004110 <__aeabi_double_init+0x90>)
10004094:	4b1f      	ldr	r3, [pc, #124]	; (10004114 <__aeabi_double_init+0x94>)
10004096:	649a      	str	r2, [r3, #72]	; 0x48
10004098:	481f      	ldr	r0, [pc, #124]	; (10004118 <__aeabi_double_init+0x98>)
1000409a:	f7ff fc87 	bl	100039ac <rom_func_lookup>
1000409e:	4b1f      	ldr	r3, [pc, #124]	; (1000411c <__aeabi_double_init+0x9c>)
100040a0:	6018      	str	r0, [r3, #0]
100040a2:	bd70      	pop	{r4, r5, r6, pc}
100040a4:	0099      	lsls	r1, r3, #2
100040a6:	481e      	ldr	r0, [pc, #120]	; (10004120 <__aeabi_double_init+0xa0>)
100040a8:	4a1a      	ldr	r2, [pc, #104]	; (10004114 <__aeabi_double_init+0x94>)
100040aa:	5088      	str	r0, [r1, r2]
100040ac:	3301      	adds	r3, #1
100040ae:	2b1f      	cmp	r3, #31
100040b0:	d9f8      	bls.n	100040a4 <__aeabi_double_init+0x24>
100040b2:	e7ea      	b.n	1000408a <__aeabi_double_init+0xa>
100040b4:	2300      	movs	r3, #0
100040b6:	e7fa      	b.n	100040ae <__aeabi_double_init+0x2e>
100040b8:	481a      	ldr	r0, [pc, #104]	; (10004124 <__aeabi_double_init+0xa4>)
100040ba:	f7ff fc7f 	bl	100039bc <rom_data_lookup>
100040be:	0005      	movs	r5, r0
100040c0:	4819      	ldr	r0, [pc, #100]	; (10004128 <__aeabi_double_init+0xa8>)
100040c2:	f7ff fc7b 	bl	100039bc <rom_data_lookup>
100040c6:	3802      	subs	r0, #2
100040c8:	7803      	ldrb	r3, [r0, #0]
100040ca:	009b      	lsls	r3, r3, #2
100040cc:	2b7f      	cmp	r3, #127	; 0x7f
100040ce:	dd19      	ble.n	10004104 <__aeabi_double_init+0x84>
100040d0:	2280      	movs	r2, #128	; 0x80
100040d2:	0029      	movs	r1, r5
100040d4:	480f      	ldr	r0, [pc, #60]	; (10004114 <__aeabi_double_init+0x94>)
100040d6:	f000 f8c5 	bl	10004264 <__wrap___aeabi_memcpy>
100040da:	2c02      	cmp	r4, #2
100040dc:	d1d7      	bne.n	1000408e <__aeabi_double_init+0xe>
100040de:	4b13      	ldr	r3, [pc, #76]	; (1000412c <__aeabi_double_init+0xac>)
100040e0:	881a      	ldrh	r2, [r3, #0]
100040e2:	23b5      	movs	r3, #181	; 0xb5
100040e4:	021b      	lsls	r3, r3, #8
100040e6:	429a      	cmp	r2, r3
100040e8:	d109      	bne.n	100040fe <__aeabi_double_init+0x7e>
100040ea:	4b11      	ldr	r3, [pc, #68]	; (10004130 <__aeabi_double_init+0xb0>)
100040ec:	881a      	ldrh	r2, [r3, #0]
100040ee:	4b11      	ldr	r3, [pc, #68]	; (10004134 <__aeabi_double_init+0xb4>)
100040f0:	429a      	cmp	r2, r3
100040f2:	d104      	bne.n	100040fe <__aeabi_double_init+0x7e>
100040f4:	4b10      	ldr	r3, [pc, #64]	; (10004138 <__aeabi_double_init+0xb8>)
100040f6:	881a      	ldrh	r2, [r3, #0]
100040f8:	4b10      	ldr	r3, [pc, #64]	; (1000413c <__aeabi_double_init+0xbc>)
100040fa:	429a      	cmp	r2, r3
100040fc:	d0c7      	beq.n	1000408e <__aeabi_double_init+0xe>
100040fe:	2000      	movs	r0, #0
10004100:	f7fe fb94 	bl	1000282c <panic>
10004104:	4b0e      	ldr	r3, [pc, #56]	; (10004140 <__aeabi_double_init+0xc0>)
10004106:	4a0f      	ldr	r2, [pc, #60]	; (10004144 <__aeabi_double_init+0xc4>)
10004108:	2132      	movs	r1, #50	; 0x32
1000410a:	480f      	ldr	r0, [pc, #60]	; (10004148 <__aeabi_double_init+0xc8>)
1000410c:	f7fe faf4 	bl	100026f8 <__assert_func>
10004110:	1000414d 	.word	0x1000414d
10004114:	20001818 	.word	0x20001818
10004118:	0000334c 	.word	0x0000334c
1000411c:	20001918 	.word	0x20001918
10004120:	10004075 	.word	0x10004075
10004124:	00004453 	.word	0x00004453
10004128:	00004653 	.word	0x00004653
1000412c:	00003854 	.word	0x00003854
10004130:	000038d8 	.word	0x000038d8
10004134:	00004649 	.word	0x00004649
10004138:	0000389c 	.word	0x0000389c
1000413c:	00004659 	.word	0x00004659
10004140:	10007dc0 	.word	0x10007dc0
10004144:	10007e78 	.word	0x10007e78
10004148:	10007e14 	.word	0x10007e14

1000414c <double_table_shim_on_use_helper>:
1000414c:	b507      	push	{r0, r1, r2, lr}
1000414e:	4660      	mov	r0, ip
10004150:	2800      	cmp	r0, #0
10004152:	d100      	bne.n	10004156 <double_table_shim_on_use_helper+0xa>
10004154:	be00      	bkpt	0x0000
10004156:	8801      	ldrh	r1, [r0, #0]
10004158:	0a0a      	lsrs	r2, r1, #8
1000415a:	3002      	adds	r0, #2
1000415c:	2adf      	cmp	r2, #223	; 0xdf
1000415e:	d1fa      	bne.n	10004156 <double_table_shim_on_use_helper+0xa>
10004160:	b2c9      	uxtb	r1, r1
10004162:	0882      	lsrs	r2, r0, #2
10004164:	d304      	bcc.n	10004170 <double_table_shim_on_use_helper+0x24>
10004166:	8802      	ldrh	r2, [r0, #0]
10004168:	8840      	ldrh	r0, [r0, #2]
1000416a:	0400      	lsls	r0, r0, #16
1000416c:	4310      	orrs	r0, r2
1000416e:	e000      	b.n	10004172 <double_table_shim_on_use_helper+0x26>
10004170:	6800      	ldr	r0, [r0, #0]
10004172:	4a02      	ldr	r2, [pc, #8]	; (1000417c <double_table_shim_on_use_helper+0x30>)
10004174:	5050      	str	r0, [r2, r1]
10004176:	9003      	str	r0, [sp, #12]
10004178:	bd07      	pop	{r0, r1, r2, pc}
1000417a:	0000      	.short	0x0000
1000417c:	20001818 	.word	0x20001818

10004180 <__wrap___aeabi_lmul>:
10004180:	4351      	muls	r1, r2
10004182:	4343      	muls	r3, r0
10004184:	18c9      	adds	r1, r1, r3
10004186:	468c      	mov	ip, r1
10004188:	0c11      	lsrs	r1, r2, #16
1000418a:	b283      	uxth	r3, r0
1000418c:	434b      	muls	r3, r1
1000418e:	b410      	push	{r4}
10004190:	0c04      	lsrs	r4, r0, #16
10004192:	4361      	muls	r1, r4
10004194:	b292      	uxth	r2, r2
10004196:	b280      	uxth	r0, r0
10004198:	4350      	muls	r0, r2
1000419a:	4362      	muls	r2, r4
1000419c:	041c      	lsls	r4, r3, #16
1000419e:	0c1b      	lsrs	r3, r3, #16
100041a0:	1900      	adds	r0, r0, r4
100041a2:	bc10      	pop	{r4}
100041a4:	4159      	adcs	r1, r3
100041a6:	0413      	lsls	r3, r2, #16
100041a8:	0c12      	lsrs	r2, r2, #16
100041aa:	18c0      	adds	r0, r0, r3
100041ac:	4151      	adcs	r1, r2
100041ae:	4461      	add	r1, ip
100041b0:	4770      	bx	lr
	...

100041b4 <missing_float_func_shim>:
100041b4:	b510      	push	{r4, lr}
100041b6:	4801      	ldr	r0, [pc, #4]	; (100041bc <missing_float_func_shim+0x8>)
100041b8:	f7fe fb38 	bl	1000282c <panic>
100041bc:	10006ea4 	.word	0x10006ea4

100041c0 <__aeabi_float_init>:
100041c0:	b570      	push	{r4, r5, r6, lr}
100041c2:	2313      	movs	r3, #19
100041c4:	781e      	ldrb	r6, [r3, #0]
100041c6:	4818      	ldr	r0, [pc, #96]	; (10004228 <__aeabi_float_init+0x68>)
100041c8:	f7ff fbf8 	bl	100039bc <rom_data_lookup>
100041cc:	0005      	movs	r5, r0
100041ce:	2e01      	cmp	r6, #1
100041d0:	d011      	beq.n	100041f6 <__aeabi_float_init+0x36>
100041d2:	2e01      	cmp	r6, #1
100041d4:	dd09      	ble.n	100041ea <__aeabi_float_init+0x2a>
100041d6:	1eab      	subs	r3, r5, #2
100041d8:	781b      	ldrb	r3, [r3, #0]
100041da:	009b      	lsls	r3, r3, #2
100041dc:	2b7f      	cmp	r3, #127	; 0x7f
100041de:	dd1d      	ble.n	1000421c <__aeabi_float_init+0x5c>
100041e0:	2280      	movs	r2, #128	; 0x80
100041e2:	0029      	movs	r1, r5
100041e4:	4811      	ldr	r0, [pc, #68]	; (1000422c <__aeabi_float_init+0x6c>)
100041e6:	f000 f83d 	bl	10004264 <__wrap___aeabi_memcpy>
100041ea:	4811      	ldr	r0, [pc, #68]	; (10004230 <__aeabi_float_init+0x70>)
100041ec:	f7ff fbde 	bl	100039ac <rom_func_lookup>
100041f0:	4b10      	ldr	r3, [pc, #64]	; (10004234 <__aeabi_float_init+0x74>)
100041f2:	6018      	str	r0, [r3, #0]
100041f4:	bd70      	pop	{r4, r5, r6, pc}
100041f6:	2254      	movs	r2, #84	; 0x54
100041f8:	0001      	movs	r1, r0
100041fa:	480c      	ldr	r0, [pc, #48]	; (1000422c <__aeabi_float_init+0x6c>)
100041fc:	f000 f832 	bl	10004264 <__wrap___aeabi_memcpy>
10004200:	2300      	movs	r3, #0
10004202:	e000      	b.n	10004206 <__aeabi_float_init+0x46>
10004204:	3301      	adds	r3, #1
10004206:	2b1f      	cmp	r3, #31
10004208:	d8e3      	bhi.n	100041d2 <__aeabi_float_init+0x12>
1000420a:	009a      	lsls	r2, r3, #2
1000420c:	4c07      	ldr	r4, [pc, #28]	; (1000422c <__aeabi_float_init+0x6c>)
1000420e:	5912      	ldr	r2, [r2, r4]
10004210:	2a00      	cmp	r2, #0
10004212:	d1f7      	bne.n	10004204 <__aeabi_float_init+0x44>
10004214:	009a      	lsls	r2, r3, #2
10004216:	4808      	ldr	r0, [pc, #32]	; (10004238 <__aeabi_float_init+0x78>)
10004218:	5110      	str	r0, [r2, r4]
1000421a:	e7f3      	b.n	10004204 <__aeabi_float_init+0x44>
1000421c:	4b07      	ldr	r3, [pc, #28]	; (1000423c <__aeabi_float_init+0x7c>)
1000421e:	4a08      	ldr	r2, [pc, #32]	; (10004240 <__aeabi_float_init+0x80>)
10004220:	2142      	movs	r1, #66	; 0x42
10004222:	4808      	ldr	r0, [pc, #32]	; (10004244 <__aeabi_float_init+0x84>)
10004224:	f7fe fa68 	bl	100026f8 <__assert_func>
10004228:	00004653 	.word	0x00004653
1000422c:	2000191c 	.word	0x2000191c
10004230:	0000334c 	.word	0x0000334c
10004234:	20001918 	.word	0x20001918
10004238:	100041b5 	.word	0x100041b5
1000423c:	10007e8c 	.word	0x10007e8c
10004240:	10007f24 	.word	0x10007f24
10004244:	10007ec0 	.word	0x10007ec0

10004248 <__aeabi_mem_init>:
10004248:	4801      	ldr	r0, [pc, #4]	; (10004250 <__aeabi_mem_init+0x8>)
1000424a:	2104      	movs	r1, #4
1000424c:	4b01      	ldr	r3, [pc, #4]	; (10004254 <__aeabi_mem_init+0xc>)
1000424e:	4718      	bx	r3
10004250:	20000c40 	.word	0x20000c40
10004254:	100039cd 	.word	0x100039cd

10004258 <__wrap_memset>:
10004258:	4b01      	ldr	r3, [pc, #4]	; (10004260 <__wrap_memset+0x8>)
1000425a:	681b      	ldr	r3, [r3, #0]
1000425c:	4718      	bx	r3
1000425e:	0000      	.short	0x0000
10004260:	20000c40 	.word	0x20000c40

10004264 <__wrap___aeabi_memcpy>:
10004264:	4b01      	ldr	r3, [pc, #4]	; (1000426c <__wrap___aeabi_memcpy+0x8>)
10004266:	685b      	ldr	r3, [r3, #4]
10004268:	4718      	bx	r3
1000426a:	0000      	.short	0x0000
1000426c:	20000c40 	.word	0x20000c40

10004270 <stdio_out_chars_no_crlf>:
10004270:	b510      	push	{r4, lr}
10004272:	0003      	movs	r3, r0
10004274:	0008      	movs	r0, r1
10004276:	0011      	movs	r1, r2
10004278:	681b      	ldr	r3, [r3, #0]
1000427a:	4798      	blx	r3
1000427c:	bd10      	pop	{r4, pc}
	...

10004280 <stdio_out_chars_crlf>:
10004280:	b5f8      	push	{r3, r4, r5, r6, r7, lr}
10004282:	0007      	movs	r7, r0
10004284:	000d      	movs	r5, r1
10004286:	0016      	movs	r6, r2
10004288:	7d43      	ldrb	r3, [r0, #21]
1000428a:	2b00      	cmp	r3, #0
1000428c:	d002      	beq.n	10004294 <stdio_out_chars_crlf+0x14>
1000428e:	2400      	movs	r4, #0
10004290:	2000      	movs	r0, #0
10004292:	e00c      	b.n	100042ae <stdio_out_chars_crlf+0x2e>
10004294:	6803      	ldr	r3, [r0, #0]
10004296:	0011      	movs	r1, r2
10004298:	0028      	movs	r0, r5
1000429a:	4798      	blx	r3
1000429c:	e02d      	b.n	100042fa <stdio_out_chars_crlf+0x7a>
1000429e:	7d3b      	ldrb	r3, [r7, #20]
100042a0:	e010      	b.n	100042c4 <stdio_out_chars_crlf+0x44>
100042a2:	2102      	movs	r1, #2
100042a4:	4815      	ldr	r0, [pc, #84]	; (100042fc <stdio_out_chars_crlf+0x7c>)
100042a6:	683b      	ldr	r3, [r7, #0]
100042a8:	4798      	blx	r3
100042aa:	1c60      	adds	r0, r4, #1
100042ac:	3401      	adds	r4, #1
100042ae:	42b4      	cmp	r4, r6
100042b0:	da14      	bge.n	100042dc <stdio_out_chars_crlf+0x5c>
100042b2:	2c00      	cmp	r4, #0
100042b4:	ddf3      	ble.n	1000429e <stdio_out_chars_crlf+0x1e>
100042b6:	192b      	adds	r3, r5, r4
100042b8:	3b01      	subs	r3, #1
100042ba:	781b      	ldrb	r3, [r3, #0]
100042bc:	3b0d      	subs	r3, #13
100042be:	425a      	negs	r2, r3
100042c0:	4153      	adcs	r3, r2
100042c2:	b2db      	uxtb	r3, r3
100042c4:	5d2a      	ldrb	r2, [r5, r4]
100042c6:	2a0a      	cmp	r2, #10
100042c8:	d1f0      	bne.n	100042ac <stdio_out_chars_crlf+0x2c>
100042ca:	2b00      	cmp	r3, #0
100042cc:	d1ee      	bne.n	100042ac <stdio_out_chars_crlf+0x2c>
100042ce:	42a0      	cmp	r0, r4
100042d0:	dae7      	bge.n	100042a2 <stdio_out_chars_crlf+0x22>
100042d2:	1a21      	subs	r1, r4, r0
100042d4:	1828      	adds	r0, r5, r0
100042d6:	683b      	ldr	r3, [r7, #0]
100042d8:	4798      	blx	r3
100042da:	e7e2      	b.n	100042a2 <stdio_out_chars_crlf+0x22>
100042dc:	42b0      	cmp	r0, r6
100042de:	da03      	bge.n	100042e8 <stdio_out_chars_crlf+0x68>
100042e0:	1a31      	subs	r1, r6, r0
100042e2:	1828      	adds	r0, r5, r0
100042e4:	683b      	ldr	r3, [r7, #0]
100042e6:	4798      	blx	r3
100042e8:	2e00      	cmp	r6, #0
100042ea:	dd06      	ble.n	100042fa <stdio_out_chars_crlf+0x7a>
100042ec:	19ad      	adds	r5, r5, r6
100042ee:	3d01      	subs	r5, #1
100042f0:	782b      	ldrb	r3, [r5, #0]
100042f2:	3b0d      	subs	r3, #13
100042f4:	425a      	negs	r2, r3
100042f6:	4153      	adcs	r3, r2
100042f8:	753b      	strb	r3, [r7, #20]
100042fa:	bdf8      	pop	{r3, r4, r5, r6, r7, pc}
100042fc:	10007ff8 	.word	0x10007ff8

10004300 <stdio_stack_buffer_flush>:
10004300:	b570      	push	{r4, r5, r6, lr}
10004302:	0005      	movs	r5, r0
10004304:	6803      	ldr	r3, [r0, #0]
10004306:	2b00      	cmp	r3, #0
10004308:	d016      	beq.n	10004338 <stdio_stack_buffer_flush+0x38>
1000430a:	4b0c      	ldr	r3, [pc, #48]	; (1000433c <stdio_stack_buffer_flush+0x3c>)
1000430c:	681c      	ldr	r4, [r3, #0]
1000430e:	e005      	b.n	1000431c <stdio_stack_buffer_flush+0x1c>
10004310:	0029      	movs	r1, r5
10004312:	c904      	ldmia	r1!, {r2}
10004314:	0020      	movs	r0, r4
10004316:	f7ff ffb3 	bl	10004280 <stdio_out_chars_crlf>
1000431a:	6924      	ldr	r4, [r4, #16]
1000431c:	2c00      	cmp	r4, #0
1000431e:	d009      	beq.n	10004334 <stdio_stack_buffer_flush+0x34>
10004320:	6823      	ldr	r3, [r4, #0]
10004322:	2b00      	cmp	r3, #0
10004324:	d0f9      	beq.n	1000431a <stdio_stack_buffer_flush+0x1a>
10004326:	4b06      	ldr	r3, [pc, #24]	; (10004340 <stdio_stack_buffer_flush+0x40>)
10004328:	681b      	ldr	r3, [r3, #0]
1000432a:	2b00      	cmp	r3, #0
1000432c:	d0f0      	beq.n	10004310 <stdio_stack_buffer_flush+0x10>
1000432e:	42a3      	cmp	r3, r4
10004330:	d1f3      	bne.n	1000431a <stdio_stack_buffer_flush+0x1a>
10004332:	e7ed      	b.n	10004310 <stdio_stack_buffer_flush+0x10>
10004334:	2300      	movs	r3, #0
10004336:	602b      	str	r3, [r5, #0]
10004338:	bd70      	pop	{r4, r5, r6, pc}
1000433a:	46c0      	nop			; (mov r8, r8)
1000433c:	200013e4 	.word	0x200013e4
10004340:	200013ec 	.word	0x200013ec

10004344 <stdio_buffered_printer>:
10004344:	b570      	push	{r4, r5, r6, lr}
10004346:	0005      	movs	r5, r0
10004348:	000c      	movs	r4, r1
1000434a:	680b      	ldr	r3, [r1, #0]
1000434c:	2b80      	cmp	r3, #128	; 0x80
1000434e:	d005      	beq.n	1000435c <stdio_buffered_printer+0x18>
10004350:	6821      	ldr	r1, [r4, #0]
10004352:	1c4b      	adds	r3, r1, #1
10004354:	6023      	str	r3, [r4, #0]
10004356:	1864      	adds	r4, r4, r1
10004358:	7125      	strb	r5, [r4, #4]
1000435a:	bd70      	pop	{r4, r5, r6, pc}
1000435c:	0008      	movs	r0, r1
1000435e:	f7ff ffcf 	bl	10004300 <stdio_stack_buffer_flush>
10004362:	e7f5      	b.n	10004350 <stdio_buffered_printer+0xc>

10004364 <stdout_serialize_begin>:
10004364:	b510      	push	{r4, lr}
10004366:	f7fd fb93 	bl	10001a90 <time_us_64>
1000436a:	0002      	movs	r2, r0
1000436c:	1e0b      	subs	r3, r1, #0
1000436e:	db0b      	blt.n	10004388 <stdout_serialize_begin+0x24>
10004370:	480d      	ldr	r0, [pc, #52]	; (100043a8 <stdout_serialize_begin+0x44>)
10004372:	2100      	movs	r1, #0
10004374:	1812      	adds	r2, r2, r0
10004376:	414b      	adcs	r3, r1
10004378:	2b00      	cmp	r3, #0
1000437a:	db0b      	blt.n	10004394 <stdout_serialize_begin+0x30>
1000437c:	2b00      	cmp	r3, #0
1000437e:	db0d      	blt.n	1000439c <stdout_serialize_begin+0x38>
10004380:	480a      	ldr	r0, [pc, #40]	; (100043ac <stdout_serialize_begin+0x48>)
10004382:	f002 fd5d 	bl	10006e40 <__mutex_try_enter_block_until_veneer>
10004386:	bd10      	pop	{r4, pc}
10004388:	4b09      	ldr	r3, [pc, #36]	; (100043b0 <stdout_serialize_begin+0x4c>)
1000438a:	4a0a      	ldr	r2, [pc, #40]	; (100043b4 <stdout_serialize_begin+0x50>)
1000438c:	213f      	movs	r1, #63	; 0x3f
1000438e:	480a      	ldr	r0, [pc, #40]	; (100043b8 <stdout_serialize_begin+0x54>)
10004390:	f7fe f9b2 	bl	100026f8 <__assert_func>
10004394:	2201      	movs	r2, #1
10004396:	4252      	negs	r2, r2
10004398:	4b08      	ldr	r3, [pc, #32]	; (100043bc <stdout_serialize_begin+0x58>)
1000439a:	e7ef      	b.n	1000437c <stdout_serialize_begin+0x18>
1000439c:	4b04      	ldr	r3, [pc, #16]	; (100043b0 <stdout_serialize_begin+0x4c>)
1000439e:	4a05      	ldr	r2, [pc, #20]	; (100043b4 <stdout_serialize_begin+0x50>)
100043a0:	213f      	movs	r1, #63	; 0x3f
100043a2:	4805      	ldr	r0, [pc, #20]	; (100043b8 <stdout_serialize_begin+0x54>)
100043a4:	f7fe f9a8 	bl	100026f8 <__assert_func>
100043a8:	000f4240 	.word	0x000f4240
100043ac:	20000ca8 	.word	0x20000ca8
100043b0:	10007250 	.word	0x10007250
100043b4:	10007fe0 	.word	0x10007fe0
100043b8:	1000726c 	.word	0x1000726c
100043bc:	7fffffff 	.word	0x7fffffff

100043c0 <stdout_serialize_end>:
100043c0:	b510      	push	{r4, lr}
100043c2:	4802      	ldr	r0, [pc, #8]	; (100043cc <stdout_serialize_end+0xc>)
100043c4:	f002 fcfc 	bl	10006dc0 <__mutex_exit_veneer>
100043c8:	bd10      	pop	{r4, pc}
100043ca:	46c0      	nop			; (mov r8, r8)
100043cc:	20000ca8 	.word	0x20000ca8

100043d0 <stdio_put_string>:
100043d0:	b5f0      	push	{r4, r5, r6, r7, lr}
100043d2:	46ce      	mov	lr, r9
100043d4:	4647      	mov	r7, r8
100043d6:	b580      	push	{r7, lr}
100043d8:	b083      	sub	sp, #12
100043da:	0006      	movs	r6, r0
100043dc:	000d      	movs	r5, r1
100043de:	4690      	mov	r8, r2
100043e0:	001c      	movs	r4, r3
100043e2:	f7ff ffbf 	bl	10004364 <stdout_serialize_begin>
100043e6:	4681      	mov	r9, r0
100043e8:	1c6b      	adds	r3, r5, #1
100043ea:	d005      	beq.n	100043f8 <stdio_put_string+0x28>
100043ec:	2c00      	cmp	r4, #0
100043ee:	d008      	beq.n	10004402 <stdio_put_string+0x32>
100043f0:	4f19      	ldr	r7, [pc, #100]	; (10004458 <stdio_put_string+0x88>)
100043f2:	4b1a      	ldr	r3, [pc, #104]	; (1000445c <stdio_put_string+0x8c>)
100043f4:	681c      	ldr	r4, [r3, #0]
100043f6:	e007      	b.n	10004408 <stdio_put_string+0x38>
100043f8:	0030      	movs	r0, r6
100043fa:	f002 fca7 	bl	10006d4c <strlen>
100043fe:	0005      	movs	r5, r0
10004400:	e7f4      	b.n	100043ec <stdio_put_string+0x1c>
10004402:	4f17      	ldr	r7, [pc, #92]	; (10004460 <stdio_put_string+0x90>)
10004404:	e7f5      	b.n	100043f2 <stdio_put_string+0x22>
10004406:	6924      	ldr	r4, [r4, #16]
10004408:	2c00      	cmp	r4, #0
1000440a:	d017      	beq.n	1000443c <stdio_put_string+0x6c>
1000440c:	6823      	ldr	r3, [r4, #0]
1000440e:	2b00      	cmp	r3, #0
10004410:	d0f9      	beq.n	10004406 <stdio_put_string+0x36>
10004412:	4b14      	ldr	r3, [pc, #80]	; (10004464 <stdio_put_string+0x94>)
10004414:	681b      	ldr	r3, [r3, #0]
10004416:	2b00      	cmp	r3, #0
10004418:	d001      	beq.n	1000441e <stdio_put_string+0x4e>
1000441a:	42a3      	cmp	r3, r4
1000441c:	d1f3      	bne.n	10004406 <stdio_put_string+0x36>
1000441e:	002a      	movs	r2, r5
10004420:	0031      	movs	r1, r6
10004422:	0020      	movs	r0, r4
10004424:	47b8      	blx	r7
10004426:	4643      	mov	r3, r8
10004428:	2b00      	cmp	r3, #0
1000442a:	d0ec      	beq.n	10004406 <stdio_put_string+0x36>
1000442c:	466b      	mov	r3, sp
1000442e:	1dd9      	adds	r1, r3, #7
10004430:	230a      	movs	r3, #10
10004432:	700b      	strb	r3, [r1, #0]
10004434:	2201      	movs	r2, #1
10004436:	0020      	movs	r0, r4
10004438:	47b8      	blx	r7
1000443a:	e7e4      	b.n	10004406 <stdio_put_string+0x36>
1000443c:	464b      	mov	r3, r9
1000443e:	2b00      	cmp	r3, #0
10004440:	d107      	bne.n	10004452 <stdio_put_string+0x82>
10004442:	1e6b      	subs	r3, r5, #1
10004444:	419d      	sbcs	r5, r3
10004446:	b2e8      	uxtb	r0, r5
10004448:	b003      	add	sp, #12
1000444a:	bcc0      	pop	{r6, r7}
1000444c:	46b9      	mov	r9, r7
1000444e:	46b0      	mov	r8, r6
10004450:	bdf0      	pop	{r4, r5, r6, r7, pc}
10004452:	f7ff ffb5 	bl	100043c0 <stdout_serialize_end>
10004456:	e7f4      	b.n	10004442 <stdio_put_string+0x72>
10004458:	10004271 	.word	0x10004271
1000445c:	200013e4 	.word	0x200013e4
10004460:	10004281 	.word	0x10004281
10004464:	200013ec 	.word	0x200013ec

10004468 <stdio_set_driver_enabled>:
10004468:	4a09      	ldr	r2, [pc, #36]	; (10004490 <stdio_set_driver_enabled+0x28>)
1000446a:	e001      	b.n	10004470 <stdio_set_driver_enabled+0x8>
1000446c:	3310      	adds	r3, #16
1000446e:	001a      	movs	r2, r3
10004470:	6813      	ldr	r3, [r2, #0]
10004472:	2b00      	cmp	r3, #0
10004474:	d008      	beq.n	10004488 <stdio_set_driver_enabled+0x20>
10004476:	4283      	cmp	r3, r0
10004478:	d1f8      	bne.n	1000446c <stdio_set_driver_enabled+0x4>
1000447a:	2900      	cmp	r1, #0
1000447c:	d107      	bne.n	1000448e <stdio_set_driver_enabled+0x26>
1000447e:	6903      	ldr	r3, [r0, #16]
10004480:	6013      	str	r3, [r2, #0]
10004482:	2300      	movs	r3, #0
10004484:	6103      	str	r3, [r0, #16]
10004486:	e002      	b.n	1000448e <stdio_set_driver_enabled+0x26>
10004488:	2900      	cmp	r1, #0
1000448a:	d000      	beq.n	1000448e <stdio_set_driver_enabled+0x26>
1000448c:	6010      	str	r0, [r2, #0]
1000448e:	4770      	bx	lr
10004490:	200013e4 	.word	0x200013e4

10004494 <stdio_flush>:
10004494:	b510      	push	{r4, lr}
10004496:	4b06      	ldr	r3, [pc, #24]	; (100044b0 <stdio_flush+0x1c>)
10004498:	681c      	ldr	r4, [r3, #0]
1000449a:	e001      	b.n	100044a0 <stdio_flush+0xc>
1000449c:	4798      	blx	r3
1000449e:	6924      	ldr	r4, [r4, #16]
100044a0:	2c00      	cmp	r4, #0
100044a2:	d003      	beq.n	100044ac <stdio_flush+0x18>
100044a4:	6863      	ldr	r3, [r4, #4]
100044a6:	2b00      	cmp	r3, #0
100044a8:	d1f8      	bne.n	1000449c <stdio_flush+0x8>
100044aa:	e7f8      	b.n	1000449e <stdio_flush+0xa>
100044ac:	bd10      	pop	{r4, pc}
100044ae:	46c0      	nop			; (mov r8, r8)
100044b0:	200013e4 	.word	0x200013e4

100044b4 <__wrap_puts>:
100044b4:	b570      	push	{r4, r5, r6, lr}
100044b6:	0005      	movs	r5, r0
100044b8:	f002 fc48 	bl	10006d4c <strlen>
100044bc:	0004      	movs	r4, r0
100044be:	2300      	movs	r3, #0
100044c0:	2201      	movs	r2, #1
100044c2:	0001      	movs	r1, r0
100044c4:	0028      	movs	r0, r5
100044c6:	f7ff ff83 	bl	100043d0 <stdio_put_string>
100044ca:	f7ff ffe3 	bl	10004494 <stdio_flush>
100044ce:	0020      	movs	r0, r4
100044d0:	bd70      	pop	{r4, r5, r6, pc}
	...

100044d4 <__wrap_vprintf>:
100044d4:	b570      	push	{r4, r5, r6, lr}
100044d6:	b0a2      	sub	sp, #136	; 0x88
100044d8:	0004      	movs	r4, r0
100044da:	000e      	movs	r6, r1
100044dc:	f7ff ff42 	bl	10004364 <stdout_serialize_begin>
100044e0:	0005      	movs	r5, r0
100044e2:	2300      	movs	r3, #0
100044e4:	9301      	str	r3, [sp, #4]
100044e6:	0033      	movs	r3, r6
100044e8:	0022      	movs	r2, r4
100044ea:	a901      	add	r1, sp, #4
100044ec:	4808      	ldr	r0, [pc, #32]	; (10004510 <__wrap_vprintf+0x3c>)
100044ee:	f7ff fa45 	bl	1000397c <vfctprintf>
100044f2:	0004      	movs	r4, r0
100044f4:	a801      	add	r0, sp, #4
100044f6:	f7ff ff03 	bl	10004300 <stdio_stack_buffer_flush>
100044fa:	f7ff ffcb 	bl	10004494 <stdio_flush>
100044fe:	2d00      	cmp	r5, #0
10004500:	d102      	bne.n	10004508 <__wrap_vprintf+0x34>
10004502:	0020      	movs	r0, r4
10004504:	b022      	add	sp, #136	; 0x88
10004506:	bd70      	pop	{r4, r5, r6, pc}
10004508:	f7ff ff5a 	bl	100043c0 <stdout_serialize_end>
1000450c:	e7f9      	b.n	10004502 <__wrap_vprintf+0x2e>
1000450e:	46c0      	nop			; (mov r8, r8)
10004510:	10004345 	.word	0x10004345

10004514 <__wrap_printf>:
10004514:	b40f      	push	{r0, r1, r2, r3}
10004516:	b500      	push	{lr}
10004518:	b083      	sub	sp, #12
1000451a:	a904      	add	r1, sp, #16
1000451c:	c901      	ldmia	r1!, {r0}
1000451e:	9101      	str	r1, [sp, #4]
10004520:	f7ff ffd8 	bl	100044d4 <__wrap_vprintf>
10004524:	b003      	add	sp, #12
10004526:	bc08      	pop	{r3}
10004528:	b004      	add	sp, #16
1000452a:	4718      	bx	r3

1000452c <stdio_init_all>:
1000452c:	b510      	push	{r4, lr}
1000452e:	f000 f8fb 	bl	10004728 <stdio_uart_init>
10004532:	f000 fa43 	bl	100049bc <stdio_usb_init>
10004536:	2001      	movs	r0, #1
10004538:	bd10      	pop	{r4, pc}
	...

1000453c <stdio_uart_out_chars>:
1000453c:	b5f0      	push	{r4, r5, r6, r7, lr}
1000453e:	b083      	sub	sp, #12
10004540:	0005      	movs	r5, r0
10004542:	000e      	movs	r6, r1
10004544:	2400      	movs	r4, #0
10004546:	e00f      	b.n	10004568 <stdio_uart_out_chars+0x2c>
10004548:	466b      	mov	r3, sp
1000454a:	1dd9      	adds	r1, r3, #7
1000454c:	230d      	movs	r3, #13
1000454e:	700b      	strb	r3, [r1, #0]
10004550:	2000      	movs	r0, #0
10004552:	2800      	cmp	r0, #0
10004554:	d116      	bne.n	10004584 <stdio_uart_out_chars+0x48>
10004556:	6993      	ldr	r3, [r2, #24]
10004558:	069b      	lsls	r3, r3, #26
1000455a:	d4fc      	bmi.n	10004556 <stdio_uart_out_chars+0x1a>
1000455c:	780b      	ldrb	r3, [r1, #0]
1000455e:	6013      	str	r3, [r2, #0]
10004560:	3001      	adds	r0, #1
10004562:	3101      	adds	r1, #1
10004564:	e7f5      	b.n	10004552 <stdio_uart_out_chars+0x16>
10004566:	3401      	adds	r4, #1
10004568:	42b4      	cmp	r4, r6
1000456a:	da19      	bge.n	100045a0 <stdio_uart_out_chars+0x64>
1000456c:	4b0d      	ldr	r3, [pc, #52]	; (100045a4 <stdio_uart_out_chars+0x68>)
1000456e:	681a      	ldr	r2, [r3, #0]
10004570:	5d2f      	ldrb	r7, [r5, r4]
10004572:	4b0d      	ldr	r3, [pc, #52]	; (100045a8 <stdio_uart_out_chars+0x6c>)
10004574:	18d3      	adds	r3, r2, r3
10004576:	4259      	negs	r1, r3
10004578:	414b      	adcs	r3, r1
1000457a:	005b      	lsls	r3, r3, #1
1000457c:	490b      	ldr	r1, [pc, #44]	; (100045ac <stdio_uart_out_chars+0x70>)
1000457e:	5e5b      	ldrsh	r3, [r3, r1]
10004580:	42bb      	cmp	r3, r7
10004582:	d0e1      	beq.n	10004548 <stdio_uart_out_chars+0xc>
10004584:	466b      	mov	r3, sp
10004586:	1dd9      	adds	r1, r3, #7
10004588:	700f      	strb	r7, [r1, #0]
1000458a:	2000      	movs	r0, #0
1000458c:	2800      	cmp	r0, #0
1000458e:	d1ea      	bne.n	10004566 <stdio_uart_out_chars+0x2a>
10004590:	6993      	ldr	r3, [r2, #24]
10004592:	069b      	lsls	r3, r3, #26
10004594:	d4fc      	bmi.n	10004590 <stdio_uart_out_chars+0x54>
10004596:	780b      	ldrb	r3, [r1, #0]
10004598:	6013      	str	r3, [r2, #0]
1000459a:	3001      	adds	r0, #1
1000459c:	3101      	adds	r1, #1
1000459e:	e7f5      	b.n	1000458c <stdio_uart_out_chars+0x50>
100045a0:	b003      	add	sp, #12
100045a2:	bdf0      	pop	{r4, r5, r6, r7, pc}
100045a4:	20001a3c 	.word	0x20001a3c
100045a8:	bffc8000 	.word	0xbffc8000
100045ac:	20001a38 	.word	0x20001a38

100045b0 <stdio_uart_in_chars>:
100045b0:	b5f0      	push	{r4, r5, r6, r7, lr}
100045b2:	b083      	sub	sp, #12
100045b4:	0006      	movs	r6, r0
100045b6:	000f      	movs	r7, r1
100045b8:	2500      	movs	r5, #0
100045ba:	e004      	b.n	100045c6 <stdio_uart_in_chars+0x16>
100045bc:	466b      	mov	r3, sp
100045be:	3307      	adds	r3, #7
100045c0:	781b      	ldrb	r3, [r3, #0]
100045c2:	702b      	strb	r3, [r5, #0]
100045c4:	0025      	movs	r5, r4
100045c6:	42bd      	cmp	r5, r7
100045c8:	da15      	bge.n	100045f6 <stdio_uart_in_chars+0x46>
100045ca:	4b17      	ldr	r3, [pc, #92]	; (10004628 <stdio_uart_in_chars+0x78>)
100045cc:	681a      	ldr	r2, [r3, #0]
100045ce:	6993      	ldr	r3, [r2, #24]
100045d0:	2410      	movs	r4, #16
100045d2:	0021      	movs	r1, r4
100045d4:	4019      	ands	r1, r3
100045d6:	421c      	tst	r4, r3
100045d8:	d10d      	bne.n	100045f6 <stdio_uart_in_chars+0x46>
100045da:	1c6c      	adds	r4, r5, #1
100045dc:	1975      	adds	r5, r6, r5
100045de:	466b      	mov	r3, sp
100045e0:	1dd8      	adds	r0, r3, #7
100045e2:	2900      	cmp	r1, #0
100045e4:	d1ea      	bne.n	100045bc <stdio_uart_in_chars+0xc>
100045e6:	6993      	ldr	r3, [r2, #24]
100045e8:	06db      	lsls	r3, r3, #27
100045ea:	d4fc      	bmi.n	100045e6 <stdio_uart_in_chars+0x36>
100045ec:	6813      	ldr	r3, [r2, #0]
100045ee:	7003      	strb	r3, [r0, #0]
100045f0:	3101      	adds	r1, #1
100045f2:	3001      	adds	r0, #1
100045f4:	e7f5      	b.n	100045e2 <stdio_uart_in_chars+0x32>
100045f6:	4b0d      	ldr	r3, [pc, #52]	; (1000462c <stdio_uart_in_chars+0x7c>)
100045f8:	681b      	ldr	r3, [r3, #0]
100045fa:	2b00      	cmp	r3, #0
100045fc:	d00c      	beq.n	10004618 <stdio_uart_in_chars+0x68>
100045fe:	4b0a      	ldr	r3, [pc, #40]	; (10004628 <stdio_uart_in_chars+0x78>)
10004600:	681a      	ldr	r2, [r3, #0]
10004602:	2350      	movs	r3, #80	; 0x50
10004604:	6393      	str	r3, [r2, #56]	; 0x38
10004606:	0011      	movs	r1, r2
10004608:	3134      	adds	r1, #52	; 0x34
1000460a:	6b53      	ldr	r3, [r2, #52]	; 0x34
1000460c:	2238      	movs	r2, #56	; 0x38
1000460e:	401a      	ands	r2, r3
10004610:	2380      	movs	r3, #128	; 0x80
10004612:	015b      	lsls	r3, r3, #5
10004614:	430b      	orrs	r3, r1
10004616:	601a      	str	r2, [r3, #0]
10004618:	2d00      	cmp	r5, #0
1000461a:	d002      	beq.n	10004622 <stdio_uart_in_chars+0x72>
1000461c:	0028      	movs	r0, r5
1000461e:	b003      	add	sp, #12
10004620:	bdf0      	pop	{r4, r5, r6, r7, pc}
10004622:	3d03      	subs	r5, #3
10004624:	e7fa      	b.n	1000461c <stdio_uart_in_chars+0x6c>
10004626:	46c0      	nop			; (mov r8, r8)
10004628:	20001a3c 	.word	0x20001a3c
1000462c:	20001340 	.word	0x20001340

10004630 <on_uart_rx>:
10004630:	b510      	push	{r4, lr}
10004632:	4b06      	ldr	r3, [pc, #24]	; (1000464c <on_uart_rx+0x1c>)
10004634:	681b      	ldr	r3, [r3, #0]
10004636:	2b00      	cmp	r3, #0
10004638:	d006      	beq.n	10004648 <on_uart_rx+0x18>
1000463a:	4a05      	ldr	r2, [pc, #20]	; (10004650 <on_uart_rx+0x20>)
1000463c:	6812      	ldr	r2, [r2, #0]
1000463e:	2100      	movs	r1, #0
10004640:	6391      	str	r1, [r2, #56]	; 0x38
10004642:	4a04      	ldr	r2, [pc, #16]	; (10004654 <on_uart_rx+0x24>)
10004644:	6810      	ldr	r0, [r2, #0]
10004646:	4798      	blx	r3
10004648:	bd10      	pop	{r4, pc}
1000464a:	46c0      	nop			; (mov r8, r8)
1000464c:	20001340 	.word	0x20001340
10004650:	20001a3c 	.word	0x20001a3c
10004654:	20001348 	.word	0x20001348

10004658 <stdio_uart_set_chars_available_callback>:
10004658:	b570      	push	{r4, r5, r6, lr}
1000465a:	0004      	movs	r4, r0
1000465c:	000e      	movs	r6, r1
1000465e:	4b1c      	ldr	r3, [pc, #112]	; (100046d0 <stdio_uart_set_chars_available_callback+0x78>)
10004660:	681b      	ldr	r3, [r3, #0]
10004662:	4a1c      	ldr	r2, [pc, #112]	; (100046d4 <stdio_uart_set_chars_available_callback+0x7c>)
10004664:	1898      	adds	r0, r3, r2
10004666:	4242      	negs	r2, r0
10004668:	4150      	adcs	r0, r2
1000466a:	3014      	adds	r0, #20
1000466c:	0005      	movs	r5, r0
1000466e:	2c00      	cmp	r4, #0
10004670:	d003      	beq.n	1000467a <stdio_uart_set_chars_available_callback+0x22>
10004672:	4a19      	ldr	r2, [pc, #100]	; (100046d8 <stdio_uart_set_chars_available_callback+0x80>)
10004674:	6812      	ldr	r2, [r2, #0]
10004676:	2a00      	cmp	r2, #0
10004678:	d006      	beq.n	10004688 <stdio_uart_set_chars_available_callback+0x30>
1000467a:	2c00      	cmp	r4, #0
1000467c:	d019      	beq.n	100046b2 <stdio_uart_set_chars_available_callback+0x5a>
1000467e:	4b16      	ldr	r3, [pc, #88]	; (100046d8 <stdio_uart_set_chars_available_callback+0x80>)
10004680:	601c      	str	r4, [r3, #0]
10004682:	4b16      	ldr	r3, [pc, #88]	; (100046dc <stdio_uart_set_chars_available_callback+0x84>)
10004684:	601e      	str	r6, [r3, #0]
10004686:	bd70      	pop	{r4, r5, r6, pc}
10004688:	4915      	ldr	r1, [pc, #84]	; (100046e0 <stdio_uart_set_chars_available_callback+0x88>)
1000468a:	f7fc f90f 	bl	100008ac <irq_set_exclusive_handler>
1000468e:	2101      	movs	r1, #1
10004690:	0028      	movs	r0, r5
10004692:	f7fc f8e1 	bl	10000858 <irq_set_enabled>
10004696:	4b0e      	ldr	r3, [pc, #56]	; (100046d0 <stdio_uart_set_chars_available_callback+0x78>)
10004698:	681a      	ldr	r2, [r3, #0]
1000469a:	2350      	movs	r3, #80	; 0x50
1000469c:	6393      	str	r3, [r2, #56]	; 0x38
1000469e:	0011      	movs	r1, r2
100046a0:	3134      	adds	r1, #52	; 0x34
100046a2:	6b53      	ldr	r3, [r2, #52]	; 0x34
100046a4:	2238      	movs	r2, #56	; 0x38
100046a6:	401a      	ands	r2, r3
100046a8:	2380      	movs	r3, #128	; 0x80
100046aa:	015b      	lsls	r3, r3, #5
100046ac:	430b      	orrs	r3, r1
100046ae:	601a      	str	r2, [r3, #0]
100046b0:	e7e5      	b.n	1000467e <stdio_uart_set_chars_available_callback+0x26>
100046b2:	4a09      	ldr	r2, [pc, #36]	; (100046d8 <stdio_uart_set_chars_available_callback+0x80>)
100046b4:	6812      	ldr	r2, [r2, #0]
100046b6:	2a00      	cmp	r2, #0
100046b8:	d0e1      	beq.n	1000467e <stdio_uart_set_chars_available_callback+0x26>
100046ba:	2200      	movs	r2, #0
100046bc:	639a      	str	r2, [r3, #56]	; 0x38
100046be:	2100      	movs	r1, #0
100046c0:	0028      	movs	r0, r5
100046c2:	f7fc f8c9 	bl	10000858 <irq_set_enabled>
100046c6:	4906      	ldr	r1, [pc, #24]	; (100046e0 <stdio_uart_set_chars_available_callback+0x88>)
100046c8:	0028      	movs	r0, r5
100046ca:	f7fc fa33 	bl	10000b34 <irq_remove_handler>
100046ce:	e7d6      	b.n	1000467e <stdio_uart_set_chars_available_callback+0x26>
100046d0:	20001a3c 	.word	0x20001a3c
100046d4:	bffc8000 	.word	0xbffc8000
100046d8:	20001340 	.word	0x20001340
100046dc:	20001348 	.word	0x20001348
100046e0:	10004631 	.word	0x10004631

100046e4 <stdio_uart_init_full>:
100046e4:	b570      	push	{r4, r5, r6, lr}
100046e6:	000d      	movs	r5, r1
100046e8:	001c      	movs	r4, r3
100046ea:	4b0d      	ldr	r3, [pc, #52]	; (10004720 <stdio_uart_init_full+0x3c>)
100046ec:	6018      	str	r0, [r3, #0]
100046ee:	2a00      	cmp	r2, #0
100046f0:	da0b      	bge.n	1000470a <stdio_uart_init_full+0x26>
100046f2:	2c00      	cmp	r4, #0
100046f4:	da0e      	bge.n	10004714 <stdio_uart_init_full+0x30>
100046f6:	4b0a      	ldr	r3, [pc, #40]	; (10004720 <stdio_uart_init_full+0x3c>)
100046f8:	6818      	ldr	r0, [r3, #0]
100046fa:	0029      	movs	r1, r5
100046fc:	f7fd fd96 	bl	1000222c <uart_init>
10004700:	2101      	movs	r1, #1
10004702:	4808      	ldr	r0, [pc, #32]	; (10004724 <stdio_uart_init_full+0x40>)
10004704:	f7ff feb0 	bl	10004468 <stdio_set_driver_enabled>
10004708:	bd70      	pop	{r4, r5, r6, pc}
1000470a:	2102      	movs	r1, #2
1000470c:	0010      	movs	r0, r2
1000470e:	f7fb ff61 	bl	100005d4 <gpio_set_function>
10004712:	e7ee      	b.n	100046f2 <stdio_uart_init_full+0xe>
10004714:	2102      	movs	r1, #2
10004716:	0020      	movs	r0, r4
10004718:	f7fb ff5c 	bl	100005d4 <gpio_set_function>
1000471c:	e7eb      	b.n	100046f6 <stdio_uart_init_full+0x12>
1000471e:	46c0      	nop			; (mov r8, r8)
10004720:	20001a3c 	.word	0x20001a3c
10004724:	20000c50 	.word	0x20000c50

10004728 <stdio_uart_init>:
10004728:	b510      	push	{r4, lr}
1000472a:	4b06      	ldr	r3, [pc, #24]	; (10004744 <stdio_uart_init+0x1c>)
1000472c:	781b      	ldrb	r3, [r3, #0]
1000472e:	4b06      	ldr	r3, [pc, #24]	; (10004748 <stdio_uart_init+0x20>)
10004730:	781b      	ldrb	r3, [r3, #0]
10004732:	21e1      	movs	r1, #225	; 0xe1
10004734:	2301      	movs	r3, #1
10004736:	2200      	movs	r2, #0
10004738:	0249      	lsls	r1, r1, #9
1000473a:	4804      	ldr	r0, [pc, #16]	; (1000474c <stdio_uart_init+0x24>)
1000473c:	f7ff ffd2 	bl	100046e4 <stdio_uart_init_full>
10004740:	bd10      	pop	{r4, pc}
10004742:	46c0      	nop			; (mov r8, r8)
10004744:	100086e4 	.word	0x100086e4
10004748:	100086e8 	.word	0x100086e8
1000474c:	40034000 	.word	0x40034000

10004750 <resetd_init>:
10004750:	4770      	bx	lr
	...

10004754 <resetd_reset>:
10004754:	4b01      	ldr	r3, [pc, #4]	; (1000475c <resetd_reset+0x8>)
10004756:	2200      	movs	r2, #0
10004758:	701a      	strb	r2, [r3, #0]
1000475a:	4770      	bx	lr
1000475c:	20001a56 	.word	0x20001a56

10004760 <resetd_open>:
10004760:	794b      	ldrb	r3, [r1, #5]
10004762:	2bff      	cmp	r3, #255	; 0xff
10004764:	d10c      	bne.n	10004780 <resetd_open+0x20>
10004766:	798b      	ldrb	r3, [r1, #6]
10004768:	2b00      	cmp	r3, #0
1000476a:	d10b      	bne.n	10004784 <resetd_open+0x24>
1000476c:	79cb      	ldrb	r3, [r1, #7]
1000476e:	2b01      	cmp	r3, #1
10004770:	d10a      	bne.n	10004788 <resetd_open+0x28>
10004772:	2a08      	cmp	r2, #8
10004774:	d90a      	bls.n	1000478c <resetd_open+0x2c>
10004776:	788a      	ldrb	r2, [r1, #2]
10004778:	4b05      	ldr	r3, [pc, #20]	; (10004790 <resetd_open+0x30>)
1000477a:	701a      	strb	r2, [r3, #0]
1000477c:	2009      	movs	r0, #9
1000477e:	e000      	b.n	10004782 <resetd_open+0x22>
10004780:	2000      	movs	r0, #0
10004782:	4770      	bx	lr
10004784:	2000      	movs	r0, #0
10004786:	e7fc      	b.n	10004782 <resetd_open+0x22>
10004788:	2000      	movs	r0, #0
1000478a:	e7fa      	b.n	10004782 <resetd_open+0x22>
1000478c:	2000      	movs	r0, #0
1000478e:	e7f8      	b.n	10004782 <resetd_open+0x22>
10004790:	20001a56 	.word	0x20001a56

10004794 <resetd_xfer_cb>:
10004794:	2001      	movs	r0, #1
10004796:	4770      	bx	lr

10004798 <reset_usb_boot>:
10004798:	b570      	push	{r4, r5, r6, lr}
1000479a:	0004      	movs	r4, r0
1000479c:	000d      	movs	r5, r1
1000479e:	4803      	ldr	r0, [pc, #12]	; (100047ac <reset_usb_boot+0x14>)
100047a0:	f7ff f904 	bl	100039ac <rom_func_lookup>
100047a4:	0003      	movs	r3, r0
100047a6:	0029      	movs	r1, r5
100047a8:	0020      	movs	r0, r4
100047aa:	4798      	blx	r3
100047ac:	00004255 	.word	0x00004255

100047b0 <resetd_control_xfer_cb>:
100047b0:	b510      	push	{r4, lr}
100047b2:	2901      	cmp	r1, #1
100047b4:	d126      	bne.n	10004804 <resetd_control_xfer_cb+0x54>
100047b6:	7911      	ldrb	r1, [r2, #4]
100047b8:	7953      	ldrb	r3, [r2, #5]
100047ba:	021b      	lsls	r3, r3, #8
100047bc:	430b      	orrs	r3, r1
100047be:	4912      	ldr	r1, [pc, #72]	; (10004808 <resetd_control_xfer_cb+0x58>)
100047c0:	7809      	ldrb	r1, [r1, #0]
100047c2:	428b      	cmp	r3, r1
100047c4:	d001      	beq.n	100047ca <resetd_control_xfer_cb+0x1a>
100047c6:	2000      	movs	r0, #0
100047c8:	e01d      	b.n	10004806 <resetd_control_xfer_cb+0x56>
100047ca:	7853      	ldrb	r3, [r2, #1]
100047cc:	2b01      	cmp	r3, #1
100047ce:	d003      	beq.n	100047d8 <resetd_control_xfer_cb+0x28>
100047d0:	2b02      	cmp	r3, #2
100047d2:	d010      	beq.n	100047f6 <resetd_control_xfer_cb+0x46>
100047d4:	2000      	movs	r0, #0
100047d6:	e016      	b.n	10004806 <resetd_control_xfer_cb+0x56>
100047d8:	7891      	ldrb	r1, [r2, #2]
100047da:	78d3      	ldrb	r3, [r2, #3]
100047dc:	021b      	lsls	r3, r3, #8
100047de:	4319      	orrs	r1, r3
100047e0:	05db      	lsls	r3, r3, #23
100047e2:	d506      	bpl.n	100047f2 <resetd_control_xfer_cb+0x42>
100047e4:	0a4b      	lsrs	r3, r1, #9
100047e6:	2001      	movs	r0, #1
100047e8:	4098      	lsls	r0, r3
100047ea:	237f      	movs	r3, #127	; 0x7f
100047ec:	4019      	ands	r1, r3
100047ee:	f7ff ffd3 	bl	10004798 <reset_usb_boot>
100047f2:	2000      	movs	r0, #0
100047f4:	e7f9      	b.n	100047ea <resetd_control_xfer_cb+0x3a>
100047f6:	2264      	movs	r2, #100	; 0x64
100047f8:	2100      	movs	r1, #0
100047fa:	2000      	movs	r0, #0
100047fc:	f7fd ff3e 	bl	1000267c <watchdog_reboot>
10004800:	2001      	movs	r0, #1
10004802:	e000      	b.n	10004806 <resetd_control_xfer_cb+0x56>
10004804:	2001      	movs	r0, #1
10004806:	bd10      	pop	{r4, pc}
10004808:	20001a56 	.word	0x20001a56

1000480c <usbd_app_driver_get_cb>:
1000480c:	2301      	movs	r3, #1
1000480e:	7003      	strb	r3, [r0, #0]
10004810:	4800      	ldr	r0, [pc, #0]	; (10004814 <usbd_app_driver_get_cb+0x8>)
10004812:	4770      	bx	lr
10004814:	1000803c 	.word	0x1000803c

10004818 <tud_cdc_line_coding_cb>:
10004818:	b510      	push	{r4, lr}
1000481a:	780b      	ldrb	r3, [r1, #0]
1000481c:	7848      	ldrb	r0, [r1, #1]
1000481e:	0200      	lsls	r0, r0, #8
10004820:	4318      	orrs	r0, r3
10004822:	788a      	ldrb	r2, [r1, #2]
10004824:	0412      	lsls	r2, r2, #16
10004826:	4310      	orrs	r0, r2
10004828:	78cb      	ldrb	r3, [r1, #3]
1000482a:	061b      	lsls	r3, r3, #24
1000482c:	4303      	orrs	r3, r0
1000482e:	2296      	movs	r2, #150	; 0x96
10004830:	00d2      	lsls	r2, r2, #3
10004832:	4293      	cmp	r3, r2
10004834:	d000      	beq.n	10004838 <tud_cdc_line_coding_cb+0x20>
10004836:	bd10      	pop	{r4, pc}
10004838:	2100      	movs	r1, #0
1000483a:	0008      	movs	r0, r1
1000483c:	f7ff ffac 	bl	10004798 <reset_usb_boot>

10004840 <stdio_usb_set_chars_available_callback>:
10004840:	4b02      	ldr	r3, [pc, #8]	; (1000484c <stdio_usb_set_chars_available_callback+0xc>)
10004842:	6018      	str	r0, [r3, #0]
10004844:	4b02      	ldr	r3, [pc, #8]	; (10004850 <stdio_usb_set_chars_available_callback+0x10>)
10004846:	6019      	str	r1, [r3, #0]
10004848:	4770      	bx	lr
1000484a:	46c0      	nop			; (mov r8, r8)
1000484c:	20001344 	.word	0x20001344
10004850:	2000134c 	.word	0x2000134c

10004854 <usb_irq>:
10004854:	b510      	push	{r4, lr}
10004856:	4b02      	ldr	r3, [pc, #8]	; (10004860 <usb_irq+0xc>)
10004858:	7818      	ldrb	r0, [r3, #0]
1000485a:	f7fc f805 	bl	10000868 <irq_set_pending>
1000485e:	bd10      	pop	{r4, pc}
10004860:	20001a57 	.word	0x20001a57

10004864 <timer_task>:
10004864:	b570      	push	{r4, r5, r6, lr}
10004866:	4b13      	ldr	r3, [pc, #76]	; (100048b4 <timer_task+0x50>)
10004868:	681b      	ldr	r3, [r3, #0]
1000486a:	2b00      	cmp	r3, #0
1000486c:	d01d      	beq.n	100048aa <timer_task+0x46>
1000486e:	4b11      	ldr	r3, [pc, #68]	; (100048b4 <timer_task+0x50>)
10004870:	6819      	ldr	r1, [r3, #0]
10004872:	f3ef 8310 	mrs	r3, PRIMASK
10004876:	b672      	cpsid	i
10004878:	680a      	ldr	r2, [r1, #0]
1000487a:	2a00      	cmp	r2, #0
1000487c:	d0fc      	beq.n	10004878 <timer_task+0x14>
1000487e:	f3bf 8f5f 	dmb	sy
10004882:	490c      	ldr	r1, [pc, #48]	; (100048b4 <timer_task+0x50>)
10004884:	604b      	str	r3, [r1, #4]
10004886:	2200      	movs	r2, #0
10004888:	480b      	ldr	r0, [pc, #44]	; (100048b8 <timer_task+0x54>)
1000488a:	7002      	strb	r2, [r0, #0]
1000488c:	6809      	ldr	r1, [r1, #0]
1000488e:	f3bf 8f5f 	dmb	sy
10004892:	600a      	str	r2, [r1, #0]
10004894:	f383 8810 	msr	PRIMASK, r3
10004898:	2400      	movs	r4, #0
1000489a:	2500      	movs	r5, #0
1000489c:	4b07      	ldr	r3, [pc, #28]	; (100048bc <timer_task+0x58>)
1000489e:	7818      	ldrb	r0, [r3, #0]
100048a0:	f7fb ffe2 	bl	10000868 <irq_set_pending>
100048a4:	0020      	movs	r0, r4
100048a6:	0029      	movs	r1, r5
100048a8:	bd70      	pop	{r4, r5, r6, pc}
100048aa:	24fa      	movs	r4, #250	; 0xfa
100048ac:	00a4      	lsls	r4, r4, #2
100048ae:	2500      	movs	r5, #0
100048b0:	e7f4      	b.n	1000489c <timer_task+0x38>
100048b2:	46c0      	nop			; (mov r8, r8)
100048b4:	200017f8 	.word	0x200017f8
100048b8:	20001a58 	.word	0x20001a58
100048bc:	20001a57 	.word	0x20001a57

100048c0 <low_priority_worker_irq>:
100048c0:	b510      	push	{r4, lr}
100048c2:	b084      	sub	sp, #16
100048c4:	2100      	movs	r1, #0
100048c6:	482d      	ldr	r0, [pc, #180]	; (1000497c <low_priority_worker_irq+0xbc>)
100048c8:	f002 faa2 	bl	10006e10 <__mutex_try_enter_veneer>
100048cc:	2800      	cmp	r0, #0
100048ce:	d13a      	bne.n	10004946 <low_priority_worker_irq+0x86>
100048d0:	4b2b      	ldr	r3, [pc, #172]	; (10004980 <low_priority_worker_irq+0xc0>)
100048d2:	681b      	ldr	r3, [r3, #0]
100048d4:	2b00      	cmp	r3, #0
100048d6:	d03e      	beq.n	10004956 <low_priority_worker_irq+0x96>
100048d8:	4b29      	ldr	r3, [pc, #164]	; (10004980 <low_priority_worker_irq+0xc0>)
100048da:	6819      	ldr	r1, [r3, #0]
100048dc:	f3ef 8210 	mrs	r2, PRIMASK
100048e0:	b672      	cpsid	i
100048e2:	680b      	ldr	r3, [r1, #0]
100048e4:	2b00      	cmp	r3, #0
100048e6:	d0fc      	beq.n	100048e2 <low_priority_worker_irq+0x22>
100048e8:	f3bf 8f5f 	dmb	sy
100048ec:	4924      	ldr	r1, [pc, #144]	; (10004980 <low_priority_worker_irq+0xc0>)
100048ee:	604a      	str	r2, [r1, #4]
100048f0:	4824      	ldr	r0, [pc, #144]	; (10004984 <low_priority_worker_irq+0xc4>)
100048f2:	7803      	ldrb	r3, [r0, #0]
100048f4:	2401      	movs	r4, #1
100048f6:	4063      	eors	r3, r4
100048f8:	b2db      	uxtb	r3, r3
100048fa:	2401      	movs	r4, #1
100048fc:	7004      	strb	r4, [r0, #0]
100048fe:	6809      	ldr	r1, [r1, #0]
10004900:	f3bf 8f5f 	dmb	sy
10004904:	2000      	movs	r0, #0
10004906:	6008      	str	r0, [r1, #0]
10004908:	f382 8810 	msr	PRIMASK, r2
1000490c:	2b00      	cmp	r3, #0
1000490e:	d022      	beq.n	10004956 <low_priority_worker_irq+0x96>
10004910:	f7fc fe18 	bl	10001544 <alarm_pool_get_default>
10004914:	0004      	movs	r4, r0
10004916:	f7fd f8bb 	bl	10001a90 <time_us_64>
1000491a:	0002      	movs	r2, r0
1000491c:	1e0b      	subs	r3, r1, #0
1000491e:	db1c      	blt.n	1000495a <low_priority_worker_irq+0x9a>
10004920:	20fa      	movs	r0, #250	; 0xfa
10004922:	0080      	lsls	r0, r0, #2
10004924:	2100      	movs	r1, #0
10004926:	1812      	adds	r2, r2, r0
10004928:	414b      	adcs	r3, r1
1000492a:	2b00      	cmp	r3, #0
1000492c:	db1b      	blt.n	10004966 <low_priority_worker_irq+0xa6>
1000492e:	2b00      	cmp	r3, #0
10004930:	db1d      	blt.n	1000496e <low_priority_worker_irq+0xae>
10004932:	2101      	movs	r1, #1
10004934:	9102      	str	r1, [sp, #8]
10004936:	2100      	movs	r1, #0
10004938:	9101      	str	r1, [sp, #4]
1000493a:	4913      	ldr	r1, [pc, #76]	; (10004988 <low_priority_worker_irq+0xc8>)
1000493c:	9100      	str	r1, [sp, #0]
1000493e:	0020      	movs	r0, r4
10004940:	f7fc fe16 	bl	10001570 <alarm_pool_add_alarm_at>
10004944:	e007      	b.n	10004956 <low_priority_worker_irq+0x96>
10004946:	2001      	movs	r0, #1
10004948:	2100      	movs	r1, #0
1000494a:	4240      	negs	r0, r0
1000494c:	f001 f8f0 	bl	10005b30 <tud_task_ext>
10004950:	480a      	ldr	r0, [pc, #40]	; (1000497c <low_priority_worker_irq+0xbc>)
10004952:	f002 fa35 	bl	10006dc0 <__mutex_exit_veneer>
10004956:	b004      	add	sp, #16
10004958:	bd10      	pop	{r4, pc}
1000495a:	4b0c      	ldr	r3, [pc, #48]	; (1000498c <low_priority_worker_irq+0xcc>)
1000495c:	4a0c      	ldr	r2, [pc, #48]	; (10004990 <low_priority_worker_irq+0xd0>)
1000495e:	213f      	movs	r1, #63	; 0x3f
10004960:	480c      	ldr	r0, [pc, #48]	; (10004994 <low_priority_worker_irq+0xd4>)
10004962:	f7fd fec9 	bl	100026f8 <__assert_func>
10004966:	2201      	movs	r2, #1
10004968:	4252      	negs	r2, r2
1000496a:	4b0b      	ldr	r3, [pc, #44]	; (10004998 <low_priority_worker_irq+0xd8>)
1000496c:	e7df      	b.n	1000492e <low_priority_worker_irq+0x6e>
1000496e:	4b07      	ldr	r3, [pc, #28]	; (1000498c <low_priority_worker_irq+0xcc>)
10004970:	4a07      	ldr	r2, [pc, #28]	; (10004990 <low_priority_worker_irq+0xd0>)
10004972:	213f      	movs	r1, #63	; 0x3f
10004974:	4807      	ldr	r0, [pc, #28]	; (10004994 <low_priority_worker_irq+0xd4>)
10004976:	f7fd febf 	bl	100026f8 <__assert_func>
1000497a:	46c0      	nop			; (mov r8, r8)
1000497c:	20001a20 	.word	0x20001a20
10004980:	200017f8 	.word	0x200017f8
10004984:	20001a58 	.word	0x20001a58
10004988:	10004865 	.word	0x10004865
1000498c:	10007250 	.word	0x10007250
10004990:	100080e8 	.word	0x100080e8
10004994:	1000726c 	.word	0x1000726c
10004998:	7fffffff 	.word	0x7fffffff

1000499c <tud_cdc_rx_cb>:
1000499c:	b510      	push	{r4, lr}
1000499e:	4b05      	ldr	r3, [pc, #20]	; (100049b4 <tud_cdc_rx_cb+0x18>)
100049a0:	6818      	ldr	r0, [r3, #0]
100049a2:	2800      	cmp	r0, #0
100049a4:	d004      	beq.n	100049b0 <tud_cdc_rx_cb+0x14>
100049a6:	4b04      	ldr	r3, [pc, #16]	; (100049b8 <tud_cdc_rx_cb+0x1c>)
100049a8:	6819      	ldr	r1, [r3, #0]
100049aa:	2200      	movs	r2, #0
100049ac:	f000 fde6 	bl	1000557c <usbd_defer_func>
100049b0:	bd10      	pop	{r4, pc}
100049b2:	46c0      	nop			; (mov r8, r8)
100049b4:	20001344 	.word	0x20001344
100049b8:	2000134c 	.word	0x2000134c

100049bc <stdio_usb_init>:
100049bc:	b510      	push	{r4, lr}
100049be:	b084      	sub	sp, #16
100049c0:	23d0      	movs	r3, #208	; 0xd0
100049c2:	061b      	lsls	r3, r3, #24
100049c4:	681c      	ldr	r4, [r3, #0]
100049c6:	f7fc fdbd 	bl	10001544 <alarm_pool_get_default>
100049ca:	f7fc ff01 	bl	100017d0 <alarm_pool_core_num>
100049ce:	42a0      	cmp	r0, r4
100049d0:	d12a      	bne.n	10004a28 <stdio_usb_init+0x6c>
100049d2:	4b32      	ldr	r3, [pc, #200]	; (10004a9c <stdio_usb_init+0xe0>)
100049d4:	781b      	ldrb	r3, [r3, #0]
100049d6:	f001 fd93 	bl	10006500 <tusb_init>
100049da:	4831      	ldr	r0, [pc, #196]	; (10004aa0 <stdio_usb_init+0xe4>)
100049dc:	f7fc fa22 	bl	10000e24 <mutex_init>
100049e0:	2001      	movs	r0, #1
100049e2:	f7fc fa03 	bl	10000dec <user_irq_claim_unused>
100049e6:	b2c0      	uxtb	r0, r0
100049e8:	4c2e      	ldr	r4, [pc, #184]	; (10004aa4 <stdio_usb_init+0xe8>)
100049ea:	7020      	strb	r0, [r4, #0]
100049ec:	492e      	ldr	r1, [pc, #184]	; (10004aa8 <stdio_usb_init+0xec>)
100049ee:	f7fb ff5d 	bl	100008ac <irq_set_exclusive_handler>
100049f2:	7820      	ldrb	r0, [r4, #0]
100049f4:	2101      	movs	r1, #1
100049f6:	f7fb ff2f 	bl	10000858 <irq_set_enabled>
100049fa:	2005      	movs	r0, #5
100049fc:	f7fb ff44 	bl	10000888 <irq_has_shared_handler>
10004a00:	1e04      	subs	r4, r0, #0
10004a02:	d017      	beq.n	10004a34 <stdio_usb_init+0x78>
10004a04:	2200      	movs	r2, #0
10004a06:	4929      	ldr	r1, [pc, #164]	; (10004aac <stdio_usb_init+0xf0>)
10004a08:	2005      	movs	r0, #5
10004a0a:	f7fb ff79 	bl	10000900 <irq_add_shared_handler>
10004a0e:	f7fb fe91 	bl	10000734 <next_striped_spin_lock_num>
10004a12:	0001      	movs	r1, r0
10004a14:	4826      	ldr	r0, [pc, #152]	; (10004ab0 <stdio_usb_init+0xf4>)
10004a16:	f7fc fa21 	bl	10000e5c <critical_section_init_with_lock_num>
10004a1a:	2101      	movs	r1, #1
10004a1c:	4825      	ldr	r0, [pc, #148]	; (10004ab4 <stdio_usb_init+0xf8>)
10004a1e:	f7ff fd23 	bl	10004468 <stdio_set_driver_enabled>
10004a22:	0020      	movs	r0, r4
10004a24:	b004      	add	sp, #16
10004a26:	bd10      	pop	{r4, pc}
10004a28:	4b23      	ldr	r3, [pc, #140]	; (10004ab8 <stdio_usb_init+0xfc>)
10004a2a:	4a24      	ldr	r2, [pc, #144]	; (10004abc <stdio_usb_init+0x100>)
10004a2c:	21b2      	movs	r1, #178	; 0xb2
10004a2e:	4824      	ldr	r0, [pc, #144]	; (10004ac0 <stdio_usb_init+0x104>)
10004a30:	f7fd fe62 	bl	100026f8 <__assert_func>
10004a34:	f7fc fd86 	bl	10001544 <alarm_pool_get_default>
10004a38:	0004      	movs	r4, r0
10004a3a:	f7fd f829 	bl	10001a90 <time_us_64>
10004a3e:	0002      	movs	r2, r0
10004a40:	1e0b      	subs	r3, r1, #0
10004a42:	db1b      	blt.n	10004a7c <stdio_usb_init+0xc0>
10004a44:	20fa      	movs	r0, #250	; 0xfa
10004a46:	0080      	lsls	r0, r0, #2
10004a48:	2100      	movs	r1, #0
10004a4a:	1812      	adds	r2, r2, r0
10004a4c:	414b      	adcs	r3, r1
10004a4e:	2b00      	cmp	r3, #0
10004a50:	db1a      	blt.n	10004a88 <stdio_usb_init+0xcc>
10004a52:	2b00      	cmp	r3, #0
10004a54:	db1c      	blt.n	10004a90 <stdio_usb_init+0xd4>
10004a56:	2101      	movs	r1, #1
10004a58:	9102      	str	r1, [sp, #8]
10004a5a:	2100      	movs	r1, #0
10004a5c:	9101      	str	r1, [sp, #4]
10004a5e:	4919      	ldr	r1, [pc, #100]	; (10004ac4 <stdio_usb_init+0x108>)
10004a60:	9100      	str	r1, [sp, #0]
10004a62:	0020      	movs	r0, r4
10004a64:	f7fc fd84 	bl	10001570 <alarm_pool_add_alarm_at>
10004a68:	43c4      	mvns	r4, r0
10004a6a:	0fe4      	lsrs	r4, r4, #31
10004a6c:	2208      	movs	r2, #8
10004a6e:	2100      	movs	r1, #0
10004a70:	480f      	ldr	r0, [pc, #60]	; (10004ab0 <stdio_usb_init+0xf4>)
10004a72:	f7ff fbf1 	bl	10004258 <__wrap_memset>
10004a76:	2c00      	cmp	r4, #0
10004a78:	d0d3      	beq.n	10004a22 <stdio_usb_init+0x66>
10004a7a:	e7ce      	b.n	10004a1a <stdio_usb_init+0x5e>
10004a7c:	4b12      	ldr	r3, [pc, #72]	; (10004ac8 <stdio_usb_init+0x10c>)
10004a7e:	4a13      	ldr	r2, [pc, #76]	; (10004acc <stdio_usb_init+0x110>)
10004a80:	213f      	movs	r1, #63	; 0x3f
10004a82:	4813      	ldr	r0, [pc, #76]	; (10004ad0 <stdio_usb_init+0x114>)
10004a84:	f7fd fe38 	bl	100026f8 <__assert_func>
10004a88:	2201      	movs	r2, #1
10004a8a:	4252      	negs	r2, r2
10004a8c:	4b11      	ldr	r3, [pc, #68]	; (10004ad4 <stdio_usb_init+0x118>)
10004a8e:	e7e0      	b.n	10004a52 <stdio_usb_init+0x96>
10004a90:	4b0d      	ldr	r3, [pc, #52]	; (10004ac8 <stdio_usb_init+0x10c>)
10004a92:	4a0e      	ldr	r2, [pc, #56]	; (10004acc <stdio_usb_init+0x110>)
10004a94:	213f      	movs	r1, #63	; 0x3f
10004a96:	480e      	ldr	r0, [pc, #56]	; (10004ad0 <stdio_usb_init+0x114>)
10004a98:	f7fd fe2e 	bl	100026f8 <__assert_func>
10004a9c:	100086ec 	.word	0x100086ec
10004aa0:	20001a20 	.word	0x20001a20
10004aa4:	20001a57 	.word	0x20001a57
10004aa8:	100048c1 	.word	0x100048c1
10004aac:	10004855 	.word	0x10004855
10004ab0:	200017f8 	.word	0x200017f8
10004ab4:	20000c68 	.word	0x20000c68
10004ab8:	100070e8 	.word	0x100070e8
10004abc:	100080d8 	.word	0x100080d8
10004ac0:	10008054 	.word	0x10008054
10004ac4:	10004865 	.word	0x10004865
10004ac8:	10007250 	.word	0x10007250
10004acc:	100080e8 	.word	0x100080e8
10004ad0:	1000726c 	.word	0x1000726c
10004ad4:	7fffffff 	.word	0x7fffffff

10004ad8 <stdio_usb_connected>:
10004ad8:	b510      	push	{r4, lr}
10004ada:	2000      	movs	r0, #0
10004adc:	f001 fa30 	bl	10005f40 <tud_cdc_n_connected>
10004ae0:	bd10      	pop	{r4, pc}
	...

10004ae4 <stdio_usb_in_chars>:
10004ae4:	b570      	push	{r4, r5, r6, lr}
10004ae6:	0005      	movs	r5, r0
10004ae8:	000c      	movs	r4, r1
10004aea:	f7ff fff5 	bl	10004ad8 <stdio_usb_connected>
10004aee:	2800      	cmp	r0, #0
10004af0:	d045      	beq.n	10004b7e <stdio_usb_in_chars+0x9a>
10004af2:	2000      	movs	r0, #0
10004af4:	f001 fa46 	bl	10005f84 <tud_cdc_n_available>
10004af8:	2800      	cmp	r0, #0
10004afa:	d043      	beq.n	10004b84 <stdio_usb_in_chars+0xa0>
10004afc:	f7fc ffc8 	bl	10001a90 <time_us_64>
10004b00:	0002      	movs	r2, r0
10004b02:	1e0b      	subs	r3, r1, #0
10004b04:	db21      	blt.n	10004b4a <stdio_usb_in_chars+0x66>
10004b06:	4822      	ldr	r0, [pc, #136]	; (10004b90 <stdio_usb_in_chars+0xac>)
10004b08:	2100      	movs	r1, #0
10004b0a:	1812      	adds	r2, r2, r0
10004b0c:	414b      	adcs	r3, r1
10004b0e:	2b00      	cmp	r3, #0
10004b10:	db21      	blt.n	10004b56 <stdio_usb_in_chars+0x72>
10004b12:	2b00      	cmp	r3, #0
10004b14:	db23      	blt.n	10004b5e <stdio_usb_in_chars+0x7a>
10004b16:	481f      	ldr	r0, [pc, #124]	; (10004b94 <stdio_usb_in_chars+0xb0>)
10004b18:	f002 f992 	bl	10006e40 <__mutex_try_enter_block_until_veneer>
10004b1c:	2800      	cmp	r0, #0
10004b1e:	d034      	beq.n	10004b8a <stdio_usb_in_chars+0xa6>
10004b20:	f7ff ffda 	bl	10004ad8 <stdio_usb_connected>
10004b24:	2800      	cmp	r0, #0
10004b26:	d004      	beq.n	10004b32 <stdio_usb_in_chars+0x4e>
10004b28:	2000      	movs	r0, #0
10004b2a:	f001 fa2b 	bl	10005f84 <tud_cdc_n_available>
10004b2e:	2800      	cmp	r0, #0
10004b30:	d11b      	bne.n	10004b6a <stdio_usb_in_chars+0x86>
10004b32:	2001      	movs	r0, #1
10004b34:	2100      	movs	r1, #0
10004b36:	4240      	negs	r0, r0
10004b38:	f000 fffa 	bl	10005b30 <tud_task_ext>
10004b3c:	2403      	movs	r4, #3
10004b3e:	4264      	negs	r4, r4
10004b40:	4814      	ldr	r0, [pc, #80]	; (10004b94 <stdio_usb_in_chars+0xb0>)
10004b42:	f002 f93d 	bl	10006dc0 <__mutex_exit_veneer>
10004b46:	0020      	movs	r0, r4
10004b48:	bd70      	pop	{r4, r5, r6, pc}
10004b4a:	4b13      	ldr	r3, [pc, #76]	; (10004b98 <stdio_usb_in_chars+0xb4>)
10004b4c:	4a13      	ldr	r2, [pc, #76]	; (10004b9c <stdio_usb_in_chars+0xb8>)
10004b4e:	213f      	movs	r1, #63	; 0x3f
10004b50:	4813      	ldr	r0, [pc, #76]	; (10004ba0 <stdio_usb_in_chars+0xbc>)
10004b52:	f7fd fdd1 	bl	100026f8 <__assert_func>
10004b56:	2201      	movs	r2, #1
10004b58:	4252      	negs	r2, r2
10004b5a:	4b12      	ldr	r3, [pc, #72]	; (10004ba4 <stdio_usb_in_chars+0xc0>)
10004b5c:	e7d9      	b.n	10004b12 <stdio_usb_in_chars+0x2e>
10004b5e:	4b0e      	ldr	r3, [pc, #56]	; (10004b98 <stdio_usb_in_chars+0xb4>)
10004b60:	4a0e      	ldr	r2, [pc, #56]	; (10004b9c <stdio_usb_in_chars+0xb8>)
10004b62:	213f      	movs	r1, #63	; 0x3f
10004b64:	480e      	ldr	r0, [pc, #56]	; (10004ba0 <stdio_usb_in_chars+0xbc>)
10004b66:	f7fd fdc7 	bl	100026f8 <__assert_func>
10004b6a:	0022      	movs	r2, r4
10004b6c:	0029      	movs	r1, r5
10004b6e:	2000      	movs	r0, #0
10004b70:	f001 fa14 	bl	10005f9c <tud_cdc_n_read>
10004b74:	1e04      	subs	r4, r0, #0
10004b76:	d1e3      	bne.n	10004b40 <stdio_usb_in_chars+0x5c>
10004b78:	2403      	movs	r4, #3
10004b7a:	4264      	negs	r4, r4
10004b7c:	e7e0      	b.n	10004b40 <stdio_usb_in_chars+0x5c>
10004b7e:	2403      	movs	r4, #3
10004b80:	4264      	negs	r4, r4
10004b82:	e7e0      	b.n	10004b46 <stdio_usb_in_chars+0x62>
10004b84:	2403      	movs	r4, #3
10004b86:	4264      	negs	r4, r4
10004b88:	e7dd      	b.n	10004b46 <stdio_usb_in_chars+0x62>
10004b8a:	2403      	movs	r4, #3
10004b8c:	4264      	negs	r4, r4
10004b8e:	e7da      	b.n	10004b46 <stdio_usb_in_chars+0x62>
10004b90:	000f4240 	.word	0x000f4240
10004b94:	20001a20 	.word	0x20001a20
10004b98:	10007250 	.word	0x10007250
10004b9c:	100080e8 	.word	0x100080e8
10004ba0:	1000726c 	.word	0x1000726c
10004ba4:	7fffffff 	.word	0x7fffffff

10004ba8 <stdio_usb_out_chars>:
10004ba8:	b5f0      	push	{r4, r5, r6, r7, lr}
10004baa:	46c6      	mov	lr, r8
10004bac:	b500      	push	{lr}
10004bae:	4680      	mov	r8, r0
10004bb0:	000c      	movs	r4, r1
10004bb2:	f7fc ff6d 	bl	10001a90 <time_us_64>
10004bb6:	0002      	movs	r2, r0
10004bb8:	1e0b      	subs	r3, r1, #0
10004bba:	db0f      	blt.n	10004bdc <stdio_usb_out_chars+0x34>
10004bbc:	4837      	ldr	r0, [pc, #220]	; (10004c9c <stdio_usb_out_chars+0xf4>)
10004bbe:	2100      	movs	r1, #0
10004bc0:	1812      	adds	r2, r2, r0
10004bc2:	414b      	adcs	r3, r1
10004bc4:	2b00      	cmp	r3, #0
10004bc6:	db0f      	blt.n	10004be8 <stdio_usb_out_chars+0x40>
10004bc8:	2b00      	cmp	r3, #0
10004bca:	db11      	blt.n	10004bf0 <stdio_usb_out_chars+0x48>
10004bcc:	4834      	ldr	r0, [pc, #208]	; (10004ca0 <stdio_usb_out_chars+0xf8>)
10004bce:	f002 f937 	bl	10006e40 <__mutex_try_enter_block_until_veneer>
10004bd2:	2800      	cmp	r0, #0
10004bd4:	d112      	bne.n	10004bfc <stdio_usb_out_chars+0x54>
10004bd6:	bc80      	pop	{r7}
10004bd8:	46b8      	mov	r8, r7
10004bda:	bdf0      	pop	{r4, r5, r6, r7, pc}
10004bdc:	4b31      	ldr	r3, [pc, #196]	; (10004ca4 <stdio_usb_out_chars+0xfc>)
10004bde:	4a32      	ldr	r2, [pc, #200]	; (10004ca8 <stdio_usb_out_chars+0x100>)
10004be0:	213f      	movs	r1, #63	; 0x3f
10004be2:	4832      	ldr	r0, [pc, #200]	; (10004cac <stdio_usb_out_chars+0x104>)
10004be4:	f7fd fd88 	bl	100026f8 <__assert_func>
10004be8:	2201      	movs	r2, #1
10004bea:	4252      	negs	r2, r2
10004bec:	4b30      	ldr	r3, [pc, #192]	; (10004cb0 <stdio_usb_out_chars+0x108>)
10004bee:	e7eb      	b.n	10004bc8 <stdio_usb_out_chars+0x20>
10004bf0:	4b2c      	ldr	r3, [pc, #176]	; (10004ca4 <stdio_usb_out_chars+0xfc>)
10004bf2:	4a2d      	ldr	r2, [pc, #180]	; (10004ca8 <stdio_usb_out_chars+0x100>)
10004bf4:	213f      	movs	r1, #63	; 0x3f
10004bf6:	482d      	ldr	r0, [pc, #180]	; (10004cac <stdio_usb_out_chars+0x104>)
10004bf8:	f7fd fd7e 	bl	100026f8 <__assert_func>
10004bfc:	f7ff ff6c 	bl	10004ad8 <stdio_usb_connected>
10004c00:	2800      	cmp	r0, #0
10004c02:	d149      	bne.n	10004c98 <stdio_usb_out_chars+0xf0>
10004c04:	4b2b      	ldr	r3, [pc, #172]	; (10004cb4 <stdio_usb_out_chars+0x10c>)
10004c06:	2000      	movs	r0, #0
10004c08:	2100      	movs	r1, #0
10004c0a:	6018      	str	r0, [r3, #0]
10004c0c:	6059      	str	r1, [r3, #4]
10004c0e:	4824      	ldr	r0, [pc, #144]	; (10004ca0 <stdio_usb_out_chars+0xf8>)
10004c10:	f002 f8d6 	bl	10006dc0 <__mutex_exit_veneer>
10004c14:	e7df      	b.n	10004bd6 <stdio_usb_out_chars+0x2e>
10004c16:	2001      	movs	r0, #1
10004c18:	2100      	movs	r1, #0
10004c1a:	4240      	negs	r0, r0
10004c1c:	f000 ff88 	bl	10005b30 <tud_task_ext>
10004c20:	2000      	movs	r0, #0
10004c22:	f001 f9cf 	bl	10005fc4 <tud_cdc_n_write_flush>
10004c26:	f7ff ff57 	bl	10004ad8 <stdio_usb_connected>
10004c2a:	2800      	cmp	r0, #0
10004c2c:	d0ef      	beq.n	10004c0e <stdio_usb_out_chars+0x66>
10004c2e:	2000      	movs	r0, #0
10004c30:	f001 fa40 	bl	100060b4 <tud_cdc_n_write_available>
10004c34:	2800      	cmp	r0, #0
10004c36:	d020      	beq.n	10004c7a <stdio_usb_out_chars+0xd2>
10004c38:	42a5      	cmp	r5, r4
10004c3a:	dae8      	bge.n	10004c0e <stdio_usb_out_chars+0x66>
10004c3c:	1b66      	subs	r6, r4, r5
10004c3e:	2000      	movs	r0, #0
10004c40:	f001 fa38 	bl	100060b4 <tud_cdc_n_write_available>
10004c44:	0002      	movs	r2, r0
10004c46:	4286      	cmp	r6, r0
10004c48:	dc00      	bgt.n	10004c4c <stdio_usb_out_chars+0xa4>
10004c4a:	0032      	movs	r2, r6
10004c4c:	2a00      	cmp	r2, #0
10004c4e:	d0e2      	beq.n	10004c16 <stdio_usb_out_chars+0x6e>
10004c50:	4643      	mov	r3, r8
10004c52:	1959      	adds	r1, r3, r5
10004c54:	2000      	movs	r0, #0
10004c56:	f001 fa11 	bl	1000607c <tud_cdc_n_write>
10004c5a:	0006      	movs	r6, r0
10004c5c:	2001      	movs	r0, #1
10004c5e:	2100      	movs	r1, #0
10004c60:	4240      	negs	r0, r0
10004c62:	f000 ff65 	bl	10005b30 <tud_task_ext>
10004c66:	2000      	movs	r0, #0
10004c68:	f001 f9ac 	bl	10005fc4 <tud_cdc_n_write_flush>
10004c6c:	19ad      	adds	r5, r5, r6
10004c6e:	f7fc ff0f 	bl	10001a90 <time_us_64>
10004c72:	4b10      	ldr	r3, [pc, #64]	; (10004cb4 <stdio_usb_out_chars+0x10c>)
10004c74:	6018      	str	r0, [r3, #0]
10004c76:	6059      	str	r1, [r3, #4]
10004c78:	e7de      	b.n	10004c38 <stdio_usb_out_chars+0x90>
10004c7a:	f7fc ff09 	bl	10001a90 <time_us_64>
10004c7e:	4b0d      	ldr	r3, [pc, #52]	; (10004cb4 <stdio_usb_out_chars+0x10c>)
10004c80:	681e      	ldr	r6, [r3, #0]
10004c82:	685f      	ldr	r7, [r3, #4]
10004c84:	4a0c      	ldr	r2, [pc, #48]	; (10004cb8 <stdio_usb_out_chars+0x110>)
10004c86:	2300      	movs	r3, #0
10004c88:	1992      	adds	r2, r2, r6
10004c8a:	417b      	adcs	r3, r7
10004c8c:	4299      	cmp	r1, r3
10004c8e:	d8be      	bhi.n	10004c0e <stdio_usb_out_chars+0x66>
10004c90:	d1d2      	bne.n	10004c38 <stdio_usb_out_chars+0x90>
10004c92:	4290      	cmp	r0, r2
10004c94:	d9d0      	bls.n	10004c38 <stdio_usb_out_chars+0x90>
10004c96:	e7ba      	b.n	10004c0e <stdio_usb_out_chars+0x66>
10004c98:	2500      	movs	r5, #0
10004c9a:	e7cd      	b.n	10004c38 <stdio_usb_out_chars+0x90>
10004c9c:	000f4240 	.word	0x000f4240
10004ca0:	20001a20 	.word	0x20001a20
10004ca4:	10007250 	.word	0x10007250
10004ca8:	100080e8 	.word	0x100080e8
10004cac:	1000726c 	.word	0x1000726c
10004cb0:	7fffffff 	.word	0x7fffffff
10004cb4:	20000dc8 	.word	0x20000dc8
10004cb8:	0007a120 	.word	0x0007a120

10004cbc <tud_descriptor_device_cb>:
10004cbc:	4800      	ldr	r0, [pc, #0]	; (10004cc0 <tud_descriptor_device_cb+0x4>)
10004cbe:	4770      	bx	lr
10004cc0:	10008180 	.word	0x10008180

10004cc4 <tud_descriptor_configuration_cb>:
10004cc4:	4800      	ldr	r0, [pc, #0]	; (10004cc8 <tud_descriptor_configuration_cb+0x4>)
10004cc6:	4770      	bx	lr
10004cc8:	1000812c 	.word	0x1000812c

10004ccc <tud_descriptor_string_cb>:
10004ccc:	b510      	push	{r4, lr}
10004cce:	0004      	movs	r4, r0
10004cd0:	4b15      	ldr	r3, [pc, #84]	; (10004d28 <tud_descriptor_string_cb+0x5c>)
10004cd2:	781b      	ldrb	r3, [r3, #0]
10004cd4:	2b00      	cmp	r3, #0
10004cd6:	d00e      	beq.n	10004cf6 <tud_descriptor_string_cb+0x2a>
10004cd8:	2c00      	cmp	r4, #0
10004cda:	d111      	bne.n	10004d00 <tud_descriptor_string_cb+0x34>
10004cdc:	4b13      	ldr	r3, [pc, #76]	; (10004d2c <tud_descriptor_string_cb+0x60>)
10004cde:	4a14      	ldr	r2, [pc, #80]	; (10004d30 <tud_descriptor_string_cb+0x64>)
10004ce0:	805a      	strh	r2, [r3, #2]
10004ce2:	2301      	movs	r3, #1
10004ce4:	3301      	adds	r3, #1
10004ce6:	005b      	lsls	r3, r3, #1
10004ce8:	b21b      	sxth	r3, r3
10004cea:	22c0      	movs	r2, #192	; 0xc0
10004cec:	0092      	lsls	r2, r2, #2
10004cee:	4313      	orrs	r3, r2
10004cf0:	480e      	ldr	r0, [pc, #56]	; (10004d2c <tud_descriptor_string_cb+0x60>)
10004cf2:	8003      	strh	r3, [r0, #0]
10004cf4:	bd10      	pop	{r4, pc}
10004cf6:	2111      	movs	r1, #17
10004cf8:	480b      	ldr	r0, [pc, #44]	; (10004d28 <tud_descriptor_string_cb+0x5c>)
10004cfa:	f000 f825 	bl	10004d48 <pico_get_unique_board_id_string>
10004cfe:	e7eb      	b.n	10004cd8 <tud_descriptor_string_cb+0xc>
10004d00:	2c05      	cmp	r4, #5
10004d02:	d80e      	bhi.n	10004d22 <tud_descriptor_string_cb+0x56>
10004d04:	00a4      	lsls	r4, r4, #2
10004d06:	4b0b      	ldr	r3, [pc, #44]	; (10004d34 <tud_descriptor_string_cb+0x68>)
10004d08:	58e4      	ldr	r4, [r4, r3]
10004d0a:	2300      	movs	r3, #0
10004d0c:	2b12      	cmp	r3, #18
10004d0e:	d8e9      	bhi.n	10004ce4 <tud_descriptor_string_cb+0x18>
10004d10:	5ce2      	ldrb	r2, [r4, r3]
10004d12:	2a00      	cmp	r2, #0
10004d14:	d0e6      	beq.n	10004ce4 <tud_descriptor_string_cb+0x18>
10004d16:	3301      	adds	r3, #1
10004d18:	0059      	lsls	r1, r3, #1
10004d1a:	4804      	ldr	r0, [pc, #16]	; (10004d2c <tud_descriptor_string_cb+0x60>)
10004d1c:	5242      	strh	r2, [r0, r1]
10004d1e:	b2db      	uxtb	r3, r3
10004d20:	e7f4      	b.n	10004d0c <tud_descriptor_string_cb+0x40>
10004d22:	2000      	movs	r0, #0
10004d24:	e7e6      	b.n	10004cf4 <tud_descriptor_string_cb+0x28>
10004d26:	46c0      	nop			; (mov r8, r8)
10004d28:	20001a40 	.word	0x20001a40
10004d2c:	200013bc 	.word	0x200013bc
10004d30:	00000409 	.word	0x00000409
10004d34:	10008194 	.word	0x10008194

10004d38 <_retrieve_unique_id_on_boot>:
10004d38:	b510      	push	{r4, lr}
10004d3a:	4802      	ldr	r0, [pc, #8]	; (10004d44 <_retrieve_unique_id_on_boot+0xc>)
10004d3c:	f000 f834 	bl	10004da8 <flash_get_unique_id>
10004d40:	bd10      	pop	{r4, pc}
10004d42:	46c0      	nop			; (mov r8, r8)
10004d44:	20001810 	.word	0x20001810

10004d48 <pico_get_unique_board_id_string>:
10004d48:	b510      	push	{r4, lr}
10004d4a:	2900      	cmp	r1, #0
10004d4c:	d001      	beq.n	10004d52 <pico_get_unique_board_id_string+0xa>
10004d4e:	2300      	movs	r3, #0
10004d50:	e00a      	b.n	10004d68 <pico_get_unique_board_id_string+0x20>
10004d52:	4b11      	ldr	r3, [pc, #68]	; (10004d98 <pico_get_unique_board_id_string+0x50>)
10004d54:	4a11      	ldr	r2, [pc, #68]	; (10004d9c <pico_get_unique_board_id_string+0x54>)
10004d56:	311f      	adds	r1, #31
10004d58:	4811      	ldr	r0, [pc, #68]	; (10004da0 <pico_get_unique_board_id_string+0x58>)
10004d5a:	f7fd fccd 	bl	100026f8 <__assert_func>
10004d5e:	2400      	movs	r4, #0
10004d60:	e00d      	b.n	10004d7e <pico_get_unique_board_id_string+0x36>
10004d62:	3237      	adds	r2, #55	; 0x37
10004d64:	54c2      	strb	r2, [r0, r3]
10004d66:	3301      	adds	r3, #1
10004d68:	1e4a      	subs	r2, r1, #1
10004d6a:	429a      	cmp	r2, r3
10004d6c:	d90f      	bls.n	10004d8e <pico_get_unique_board_id_string+0x46>
10004d6e:	2b0f      	cmp	r3, #15
10004d70:	d80d      	bhi.n	10004d8e <pico_get_unique_board_id_string+0x46>
10004d72:	085a      	lsrs	r2, r3, #1
10004d74:	4c0b      	ldr	r4, [pc, #44]	; (10004da4 <pico_get_unique_board_id_string+0x5c>)
10004d76:	5ca2      	ldrb	r2, [r4, r2]
10004d78:	07dc      	lsls	r4, r3, #31
10004d7a:	d4f0      	bmi.n	10004d5e <pico_get_unique_board_id_string+0x16>
10004d7c:	2404      	movs	r4, #4
10004d7e:	4122      	asrs	r2, r4
10004d80:	0014      	movs	r4, r2
10004d82:	220f      	movs	r2, #15
10004d84:	4022      	ands	r2, r4
10004d86:	2a09      	cmp	r2, #9
10004d88:	dceb      	bgt.n	10004d62 <pico_get_unique_board_id_string+0x1a>
10004d8a:	3230      	adds	r2, #48	; 0x30
10004d8c:	e7ea      	b.n	10004d64 <pico_get_unique_board_id_string+0x1c>
10004d8e:	18c0      	adds	r0, r0, r3
10004d90:	2300      	movs	r3, #0
10004d92:	7003      	strb	r3, [r0, #0]
10004d94:	bd10      	pop	{r4, pc}
10004d96:	46c0      	nop			; (mov r8, r8)
10004d98:	100081ac 	.word	0x100081ac
10004d9c:	10008218 	.word	0x10008218
10004da0:	100081b4 	.word	0x100081b4
10004da4:	20001810 	.word	0x20001810

10004da8 <flash_get_unique_id>:
10004da8:	b570      	push	{r4, r5, r6, lr}
10004daa:	b088      	sub	sp, #32
10004dac:	0004      	movs	r4, r0
10004dae:	ad04      	add	r5, sp, #16
10004db0:	2600      	movs	r6, #0
10004db2:	9604      	str	r6, [sp, #16]
10004db4:	2209      	movs	r2, #9
10004db6:	2100      	movs	r1, #0
10004db8:	a805      	add	r0, sp, #20
10004dba:	f7ff fa4d 	bl	10004258 <__wrap_memset>
10004dbe:	9600      	str	r6, [sp, #0]
10004dc0:	2209      	movs	r2, #9
10004dc2:	2100      	movs	r1, #0
10004dc4:	a801      	add	r0, sp, #4
10004dc6:	f7ff fa47 	bl	10004258 <__wrap_memset>
10004dca:	234b      	movs	r3, #75	; 0x4b
10004dcc:	702b      	strb	r3, [r5, #0]
10004dce:	220d      	movs	r2, #13
10004dd0:	4669      	mov	r1, sp
10004dd2:	0028      	movs	r0, r5
10004dd4:	f001 ffec 	bl	10006db0 <__flash_do_cmd_veneer>
10004dd8:	2300      	movs	r3, #0
10004dda:	e004      	b.n	10004de6 <flash_get_unique_id+0x3e>
10004ddc:	1d5a      	adds	r2, r3, #5
10004dde:	4669      	mov	r1, sp
10004de0:	5c8a      	ldrb	r2, [r1, r2]
10004de2:	54e2      	strb	r2, [r4, r3]
10004de4:	3301      	adds	r3, #1
10004de6:	2b07      	cmp	r3, #7
10004de8:	ddf8      	ble.n	10004ddc <flash_get_unique_id+0x34>
10004dea:	b008      	add	sp, #32
10004dec:	bd70      	pop	{r4, r5, r6, pc}
	...

10004df0 <hw_endpoint_get_by_addr>:
10004df0:	0002      	movs	r2, r0
10004df2:	207f      	movs	r0, #127	; 0x7f
10004df4:	4010      	ands	r0, r2
10004df6:	09d2      	lsrs	r2, r2, #7
10004df8:	0040      	lsls	r0, r0, #1
10004dfa:	1880      	adds	r0, r0, r2
10004dfc:	0140      	lsls	r0, r0, #5
10004dfe:	4b01      	ldr	r3, [pc, #4]	; (10004e04 <hw_endpoint_get_by_addr+0x14>)
10004e00:	18c0      	adds	r0, r0, r3
10004e02:	4770      	bx	lr
10004e04:	200013f0 	.word	0x200013f0

10004e08 <_hw_endpoint_alloc>:
10004e08:	b510      	push	{r4, lr}
10004e0a:	8b03      	ldrh	r3, [r0, #24]
10004e0c:	333f      	adds	r3, #63	; 0x3f
10004e0e:	223f      	movs	r2, #63	; 0x3f
10004e10:	4393      	bics	r3, r2
10004e12:	2902      	cmp	r1, #2
10004e14:	d015      	beq.n	10004e42 <_hw_endpoint_alloc+0x3a>
10004e16:	4c12      	ldr	r4, [pc, #72]	; (10004e60 <_hw_endpoint_alloc+0x58>)
10004e18:	6822      	ldr	r2, [r4, #0]
10004e1a:	60c2      	str	r2, [r0, #12]
10004e1c:	18d3      	adds	r3, r2, r3
10004e1e:	6023      	str	r3, [r4, #0]
10004e20:	069c      	lsls	r4, r3, #26
10004e22:	d110      	bne.n	10004e46 <_hw_endpoint_alloc+0x3e>
10004e24:	4c0f      	ldr	r4, [pc, #60]	; (10004e64 <_hw_endpoint_alloc+0x5c>)
10004e26:	4062      	eors	r2, r4
10004e28:	4063      	eors	r3, r4
10004e2a:	2480      	movs	r4, #128	; 0x80
10004e2c:	0164      	lsls	r4, r4, #5
10004e2e:	42a3      	cmp	r3, r4
10004e30:	d80f      	bhi.n	10004e52 <_hw_endpoint_alloc+0x4a>
10004e32:	0689      	lsls	r1, r1, #26
10004e34:	4311      	orrs	r1, r2
10004e36:	2380      	movs	r3, #128	; 0x80
10004e38:	061b      	lsls	r3, r3, #24
10004e3a:	4319      	orrs	r1, r3
10004e3c:	6843      	ldr	r3, [r0, #4]
10004e3e:	6019      	str	r1, [r3, #0]
10004e40:	bd10      	pop	{r4, pc}
10004e42:	005b      	lsls	r3, r3, #1
10004e44:	e7e7      	b.n	10004e16 <_hw_endpoint_alloc+0xe>
10004e46:	4b08      	ldr	r3, [pc, #32]	; (10004e68 <_hw_endpoint_alloc+0x60>)
10004e48:	4a08      	ldr	r2, [pc, #32]	; (10004e6c <_hw_endpoint_alloc+0x64>)
10004e4a:	2154      	movs	r1, #84	; 0x54
10004e4c:	4808      	ldr	r0, [pc, #32]	; (10004e70 <_hw_endpoint_alloc+0x68>)
10004e4e:	f7fd fc53 	bl	100026f8 <__assert_func>
10004e52:	4b08      	ldr	r3, [pc, #32]	; (10004e74 <_hw_endpoint_alloc+0x6c>)
10004e54:	4a05      	ldr	r2, [pc, #20]	; (10004e6c <_hw_endpoint_alloc+0x64>)
10004e56:	2156      	movs	r1, #86	; 0x56
10004e58:	4805      	ldr	r0, [pc, #20]	; (10004e70 <_hw_endpoint_alloc+0x68>)
10004e5a:	f7fd fc4d 	bl	100026f8 <__assert_func>
10004e5e:	46c0      	nop			; (mov r8, r8)
10004e60:	200017f4 	.word	0x200017f4
10004e64:	50100000 	.word	0x50100000
10004e68:	100083c0 	.word	0x100083c0
10004e6c:	100084f4 	.word	0x100084f4
10004e70:	100083f0 	.word	0x100083f0
10004e74:	10008460 	.word	0x10008460

10004e78 <hw_endpoint_init>:
10004e78:	b5f8      	push	{r3, r4, r5, r6, r7, lr}
10004e7a:	0005      	movs	r5, r0
10004e7c:	000e      	movs	r6, r1
10004e7e:	0014      	movs	r4, r2
10004e80:	f7ff ffb6 	bl	10004df0 <hw_endpoint_get_by_addr>
10004e84:	237f      	movs	r3, #127	; 0x7f
10004e86:	402b      	ands	r3, r5
10004e88:	09ef      	lsrs	r7, r5, #7
10004e8a:	7085      	strb	r5, [r0, #2]
10004e8c:	427a      	negs	r2, r7
10004e8e:	417a      	adcs	r2, r7
10004e90:	7042      	strb	r2, [r0, #1]
10004e92:	2200      	movs	r2, #0
10004e94:	70c2      	strb	r2, [r0, #3]
10004e96:	8306      	strh	r6, [r0, #24]
10004e98:	76c4      	strb	r4, [r0, #27]
10004e9a:	2f01      	cmp	r7, #1
10004e9c:	d00d      	beq.n	10004eba <hw_endpoint_init+0x42>
10004e9e:	00da      	lsls	r2, r3, #3
10004ea0:	4912      	ldr	r1, [pc, #72]	; (10004eec <hw_endpoint_init+0x74>)
10004ea2:	468c      	mov	ip, r1
10004ea4:	4462      	add	r2, ip
10004ea6:	6082      	str	r2, [r0, #8]
10004ea8:	6882      	ldr	r2, [r0, #8]
10004eaa:	2100      	movs	r1, #0
10004eac:	6011      	str	r1, [r2, #0]
10004eae:	2b00      	cmp	r3, #0
10004eb0:	d109      	bne.n	10004ec6 <hw_endpoint_init+0x4e>
10004eb2:	6043      	str	r3, [r0, #4]
10004eb4:	4b0e      	ldr	r3, [pc, #56]	; (10004ef0 <hw_endpoint_init+0x78>)
10004eb6:	60c3      	str	r3, [r0, #12]
10004eb8:	bdf8      	pop	{r3, r4, r5, r6, r7, pc}
10004eba:	00da      	lsls	r2, r3, #3
10004ebc:	490d      	ldr	r1, [pc, #52]	; (10004ef4 <hw_endpoint_init+0x7c>)
10004ebe:	468c      	mov	ip, r1
10004ec0:	4462      	add	r2, ip
10004ec2:	6082      	str	r2, [r0, #8]
10004ec4:	e7f0      	b.n	10004ea8 <hw_endpoint_init+0x30>
10004ec6:	2f01      	cmp	r7, #1
10004ec8:	d009      	beq.n	10004ede <hw_endpoint_init+0x66>
10004eca:	3b01      	subs	r3, #1
10004ecc:	00db      	lsls	r3, r3, #3
10004ece:	4a0a      	ldr	r2, [pc, #40]	; (10004ef8 <hw_endpoint_init+0x80>)
10004ed0:	4694      	mov	ip, r2
10004ed2:	4463      	add	r3, ip
10004ed4:	6043      	str	r3, [r0, #4]
10004ed6:	0021      	movs	r1, r4
10004ed8:	f7ff ff96 	bl	10004e08 <_hw_endpoint_alloc>
10004edc:	e7ec      	b.n	10004eb8 <hw_endpoint_init+0x40>
10004ede:	3b01      	subs	r3, #1
10004ee0:	00db      	lsls	r3, r3, #3
10004ee2:	4a06      	ldr	r2, [pc, #24]	; (10004efc <hw_endpoint_init+0x84>)
10004ee4:	4694      	mov	ip, r2
10004ee6:	4463      	add	r3, ip
10004ee8:	6043      	str	r3, [r0, #4]
10004eea:	e7f4      	b.n	10004ed6 <hw_endpoint_init+0x5e>
10004eec:	50100084 	.word	0x50100084
10004ef0:	50100100 	.word	0x50100100
10004ef4:	50100080 	.word	0x50100080
10004ef8:	5010000c 	.word	0x5010000c
10004efc:	50100008 	.word	0x50100008

10004f00 <hw_endpoint_xfer>:
10004f00:	b570      	push	{r4, r5, r6, lr}
10004f02:	000c      	movs	r4, r1
10004f04:	0015      	movs	r5, r2
10004f06:	f7ff ff73 	bl	10004df0 <hw_endpoint_get_by_addr>
10004f0a:	002a      	movs	r2, r5
10004f0c:	0021      	movs	r1, r4
10004f0e:	f000 f90d 	bl	1000512c <hw_endpoint_xfer_start>
10004f12:	bd70      	pop	{r4, r5, r6, pc}

10004f14 <dcd_int_enable>:
10004f14:	b510      	push	{r4, lr}
10004f16:	2800      	cmp	r0, #0
10004f18:	d104      	bne.n	10004f24 <dcd_int_enable+0x10>
10004f1a:	2101      	movs	r1, #1
10004f1c:	2005      	movs	r0, #5
10004f1e:	f7fb fc9b 	bl	10000858 <irq_set_enabled>
10004f22:	bd10      	pop	{r4, pc}
10004f24:	21d5      	movs	r1, #213	; 0xd5
10004f26:	4b03      	ldr	r3, [pc, #12]	; (10004f34 <dcd_int_enable+0x20>)
10004f28:	4a03      	ldr	r2, [pc, #12]	; (10004f38 <dcd_int_enable+0x24>)
10004f2a:	0049      	lsls	r1, r1, #1
10004f2c:	4803      	ldr	r0, [pc, #12]	; (10004f3c <dcd_int_enable+0x28>)
10004f2e:	f7fd fbe3 	bl	100026f8 <__assert_func>
10004f32:	46c0      	nop			; (mov r8, r8)
10004f34:	100084a8 	.word	0x100084a8
10004f38:	100084e4 	.word	0x100084e4
10004f3c:	100083f0 	.word	0x100083f0

10004f40 <dcd_set_address>:
10004f40:	b510      	push	{r4, lr}
10004f42:	2800      	cmp	r0, #0
10004f44:	d105      	bne.n	10004f52 <dcd_set_address+0x12>
10004f46:	2200      	movs	r2, #0
10004f48:	2100      	movs	r1, #0
10004f4a:	2080      	movs	r0, #128	; 0x80
10004f4c:	f7ff ffd8 	bl	10004f00 <hw_endpoint_xfer>
10004f50:	bd10      	pop	{r4, pc}
10004f52:	21db      	movs	r1, #219	; 0xdb
10004f54:	4b02      	ldr	r3, [pc, #8]	; (10004f60 <dcd_set_address+0x20>)
10004f56:	4a03      	ldr	r2, [pc, #12]	; (10004f64 <dcd_set_address+0x24>)
10004f58:	0049      	lsls	r1, r1, #1
10004f5a:	4803      	ldr	r0, [pc, #12]	; (10004f68 <dcd_set_address+0x28>)
10004f5c:	f7fd fbcc 	bl	100026f8 <__assert_func>
10004f60:	100084a8 	.word	0x100084a8
10004f64:	100084d4 	.word	0x100084d4
10004f68:	100083f0 	.word	0x100083f0

10004f6c <dcd_connect>:
10004f6c:	4b02      	ldr	r3, [pc, #8]	; (10004f78 <dcd_connect+0xc>)
10004f6e:	2280      	movs	r2, #128	; 0x80
10004f70:	0252      	lsls	r2, r2, #9
10004f72:	64da      	str	r2, [r3, #76]	; 0x4c
10004f74:	4770      	bx	lr
10004f76:	46c0      	nop			; (mov r8, r8)
10004f78:	50112000 	.word	0x50112000

10004f7c <dcd_init>:
10004f7c:	b570      	push	{r4, r5, r6, lr}
10004f7e:	1e04      	subs	r4, r0, #0
10004f80:	d126      	bne.n	10004fd0 <dcd_init+0x54>
10004f82:	f000 f8ad 	bl	100050e0 <rp2040_usb_init>
10004f86:	4d16      	ldr	r5, [pc, #88]	; (10004fe0 <dcd_init+0x64>)
10004f88:	230c      	movs	r3, #12
10004f8a:	67ab      	str	r3, [r5, #120]	; 0x78
10004f8c:	22ff      	movs	r2, #255	; 0xff
10004f8e:	4915      	ldr	r1, [pc, #84]	; (10004fe4 <dcd_init+0x68>)
10004f90:	2005      	movs	r0, #5
10004f92:	f7fb fcb5 	bl	10000900 <irq_add_shared_handler>
10004f96:	2240      	movs	r2, #64	; 0x40
10004f98:	2100      	movs	r1, #0
10004f9a:	4813      	ldr	r0, [pc, #76]	; (10004fe8 <dcd_init+0x6c>)
10004f9c:	f7ff f95c 	bl	10004258 <__wrap_memset>
10004fa0:	2200      	movs	r2, #0
10004fa2:	2140      	movs	r1, #64	; 0x40
10004fa4:	2000      	movs	r0, #0
10004fa6:	f7ff ff67 	bl	10004e78 <hw_endpoint_init>
10004faa:	2200      	movs	r2, #0
10004fac:	2140      	movs	r1, #64	; 0x40
10004fae:	2080      	movs	r0, #128	; 0x80
10004fb0:	f7ff ff62 	bl	10004e78 <hw_endpoint_init>
10004fb4:	f001 ff5c 	bl	10006e70 <__reset_non_control_endpoints_veneer>
10004fb8:	2301      	movs	r3, #1
10004fba:	642b      	str	r3, [r5, #64]	; 0x40
10004fbc:	2380      	movs	r3, #128	; 0x80
10004fbe:	059b      	lsls	r3, r3, #22
10004fc0:	64eb      	str	r3, [r5, #76]	; 0x4c
10004fc2:	2390      	movs	r3, #144	; 0x90
10004fc4:	4a09      	ldr	r2, [pc, #36]	; (10004fec <dcd_init+0x70>)
10004fc6:	50ea      	str	r2, [r5, r3]
10004fc8:	0020      	movs	r0, r4
10004fca:	f7ff ffcf 	bl	10004f6c <dcd_connect>
10004fce:	bd70      	pop	{r4, r5, r6, pc}
10004fd0:	2186      	movs	r1, #134	; 0x86
10004fd2:	4b07      	ldr	r3, [pc, #28]	; (10004ff0 <dcd_init+0x74>)
10004fd4:	4a07      	ldr	r2, [pc, #28]	; (10004ff4 <dcd_init+0x78>)
10004fd6:	31ff      	adds	r1, #255	; 0xff
10004fd8:	4807      	ldr	r0, [pc, #28]	; (10004ff8 <dcd_init+0x7c>)
10004fda:	f7fd fb8d 	bl	100026f8 <__assert_func>
10004fde:	46c0      	nop			; (mov r8, r8)
10004fe0:	50110000 	.word	0x50110000
10004fe4:	200004a1 	.word	0x200004a1
10004fe8:	200013f0 	.word	0x200013f0
10004fec:	0001d010 	.word	0x0001d010
10004ff0:	100084a8 	.word	0x100084a8
10004ff4:	10008508 	.word	0x10008508
10004ff8:	100083f0 	.word	0x100083f0

10004ffc <dcd_edpt0_status_complete>:
10004ffc:	780b      	ldrb	r3, [r1, #0]
10004ffe:	065b      	lsls	r3, r3, #25
10005000:	d102      	bne.n	10005008 <dcd_edpt0_status_complete+0xc>
10005002:	784b      	ldrb	r3, [r1, #1]
10005004:	2b05      	cmp	r3, #5
10005006:	d000      	beq.n	1000500a <dcd_edpt0_status_complete+0xe>
10005008:	4770      	bx	lr
1000500a:	788a      	ldrb	r2, [r1, #2]
1000500c:	4b01      	ldr	r3, [pc, #4]	; (10005014 <dcd_edpt0_status_complete+0x18>)
1000500e:	601a      	str	r2, [r3, #0]
10005010:	e7fa      	b.n	10005008 <dcd_edpt0_status_complete+0xc>
10005012:	46c0      	nop			; (mov r8, r8)
10005014:	50110000 	.word	0x50110000

10005018 <dcd_edpt_open>:
10005018:	b510      	push	{r4, lr}
1000501a:	000c      	movs	r4, r1
1000501c:	2800      	cmp	r0, #0
1000501e:	d10d      	bne.n	1000503c <dcd_edpt_open+0x24>
10005020:	7909      	ldrb	r1, [r1, #4]
10005022:	7963      	ldrb	r3, [r4, #5]
10005024:	021b      	lsls	r3, r3, #8
10005026:	430b      	orrs	r3, r1
10005028:	055b      	lsls	r3, r3, #21
1000502a:	0d59      	lsrs	r1, r3, #21
1000502c:	78e2      	ldrb	r2, [r4, #3]
1000502e:	0792      	lsls	r2, r2, #30
10005030:	0f92      	lsrs	r2, r2, #30
10005032:	78a0      	ldrb	r0, [r4, #2]
10005034:	f7ff ff20 	bl	10004e78 <hw_endpoint_init>
10005038:	2001      	movs	r0, #1
1000503a:	bd10      	pop	{r4, pc}
1000503c:	21fc      	movs	r1, #252	; 0xfc
1000503e:	4b03      	ldr	r3, [pc, #12]	; (1000504c <dcd_edpt_open+0x34>)
10005040:	4a03      	ldr	r2, [pc, #12]	; (10005050 <dcd_edpt_open+0x38>)
10005042:	31ff      	adds	r1, #255	; 0xff
10005044:	4803      	ldr	r0, [pc, #12]	; (10005054 <dcd_edpt_open+0x3c>)
10005046:	f7fd fb57 	bl	100026f8 <__assert_func>
1000504a:	46c0      	nop			; (mov r8, r8)
1000504c:	100084a8 	.word	0x100084a8
10005050:	100084c4 	.word	0x100084c4
10005054:	100083f0 	.word	0x100083f0

10005058 <dcd_edpt_close_all>:
10005058:	b510      	push	{r4, lr}
1000505a:	f001 ff09 	bl	10006e70 <__reset_non_control_endpoints_veneer>
1000505e:	bd10      	pop	{r4, pc}

10005060 <dcd_edpt_xfer>:
10005060:	b510      	push	{r4, lr}
10005062:	0004      	movs	r4, r0
10005064:	0008      	movs	r0, r1
10005066:	0011      	movs	r1, r2
10005068:	001a      	movs	r2, r3
1000506a:	2c00      	cmp	r4, #0
1000506c:	d103      	bne.n	10005076 <dcd_edpt_xfer+0x16>
1000506e:	f7ff ff47 	bl	10004f00 <hw_endpoint_xfer>
10005072:	2001      	movs	r0, #1
10005074:	bd10      	pop	{r4, pc}
10005076:	4b03      	ldr	r3, [pc, #12]	; (10005084 <dcd_edpt_xfer+0x24>)
10005078:	4a03      	ldr	r2, [pc, #12]	; (10005088 <dcd_edpt_xfer+0x28>)
1000507a:	4904      	ldr	r1, [pc, #16]	; (1000508c <dcd_edpt_xfer+0x2c>)
1000507c:	4804      	ldr	r0, [pc, #16]	; (10005090 <dcd_edpt_xfer+0x30>)
1000507e:	f7fd fb3b 	bl	100026f8 <__assert_func>
10005082:	46c0      	nop			; (mov r8, r8)
10005084:	100084a8 	.word	0x100084a8
10005088:	100084b4 	.word	0x100084b4
1000508c:	0000020a 	.word	0x0000020a
10005090:	100083f0 	.word	0x100083f0

10005094 <dcd_edpt_stall>:
10005094:	b510      	push	{r4, lr}
10005096:	0008      	movs	r0, r1
10005098:	064b      	lsls	r3, r1, #25
1000509a:	d105      	bne.n	100050a8 <dcd_edpt_stall+0x14>
1000509c:	09cb      	lsrs	r3, r1, #7
1000509e:	2b01      	cmp	r3, #1
100050a0:	d00a      	beq.n	100050b8 <dcd_edpt_stall+0x24>
100050a2:	2202      	movs	r2, #2
100050a4:	4b05      	ldr	r3, [pc, #20]	; (100050bc <dcd_edpt_stall+0x28>)
100050a6:	669a      	str	r2, [r3, #104]	; 0x68
100050a8:	f7ff fea2 	bl	10004df0 <hw_endpoint_get_by_addr>
100050ac:	2280      	movs	r2, #128	; 0x80
100050ae:	0112      	lsls	r2, r2, #4
100050b0:	2100      	movs	r1, #0
100050b2:	f001 fee5 	bl	10006e80 <___hw_endpoint_buffer_control_update32_veneer>
100050b6:	bd10      	pop	{r4, pc}
100050b8:	2201      	movs	r2, #1
100050ba:	e7f3      	b.n	100050a4 <dcd_edpt_stall+0x10>
100050bc:	50112000 	.word	0x50112000

100050c0 <dcd_edpt_clear_stall>:
100050c0:	b510      	push	{r4, lr}
100050c2:	0008      	movs	r0, r1
100050c4:	064b      	lsls	r3, r1, #25
100050c6:	d100      	bne.n	100050ca <dcd_edpt_clear_stall+0xa>
100050c8:	bd10      	pop	{r4, pc}
100050ca:	f7ff fe91 	bl	10004df0 <hw_endpoint_get_by_addr>
100050ce:	2300      	movs	r3, #0
100050d0:	70c3      	strb	r3, [r0, #3]
100050d2:	2200      	movs	r2, #0
100050d4:	4901      	ldr	r1, [pc, #4]	; (100050dc <dcd_edpt_clear_stall+0x1c>)
100050d6:	f001 fed3 	bl	10006e80 <___hw_endpoint_buffer_control_update32_veneer>
100050da:	e7f5      	b.n	100050c8 <dcd_edpt_clear_stall+0x8>
100050dc:	fffff7ff 	.word	0xfffff7ff

100050e0 <rp2040_usb_init>:
100050e0:	b510      	push	{r4, lr}
100050e2:	2380      	movs	r3, #128	; 0x80
100050e4:	045b      	lsls	r3, r3, #17
100050e6:	4a0c      	ldr	r2, [pc, #48]	; (10005118 <rp2040_usb_init+0x38>)
100050e8:	6013      	str	r3, [r2, #0]
100050ea:	4a0c      	ldr	r2, [pc, #48]	; (1000511c <rp2040_usb_init+0x3c>)
100050ec:	6013      	str	r3, [r2, #0]
100050ee:	4b0c      	ldr	r3, [pc, #48]	; (10005120 <rp2040_usb_init+0x40>)
100050f0:	689a      	ldr	r2, [r3, #8]
100050f2:	2380      	movs	r3, #128	; 0x80
100050f4:	045b      	lsls	r3, r3, #17
100050f6:	4393      	bics	r3, r2
100050f8:	d1f9      	bne.n	100050ee <rp2040_usb_init+0xe>
100050fa:	4c0a      	ldr	r4, [pc, #40]	; (10005124 <rp2040_usb_init+0x44>)
100050fc:	229c      	movs	r2, #156	; 0x9c
100050fe:	2100      	movs	r1, #0
10005100:	0020      	movs	r0, r4
10005102:	f7ff f8a9 	bl	10004258 <__wrap_memset>
10005106:	2280      	movs	r2, #128	; 0x80
10005108:	0152      	lsls	r2, r2, #5
1000510a:	2100      	movs	r1, #0
1000510c:	4806      	ldr	r0, [pc, #24]	; (10005128 <rp2040_usb_init+0x48>)
1000510e:	f7ff f8a3 	bl	10004258 <__wrap_memset>
10005112:	2309      	movs	r3, #9
10005114:	6763      	str	r3, [r4, #116]	; 0x74
10005116:	bd10      	pop	{r4, pc}
10005118:	4000e000 	.word	0x4000e000
1000511c:	4000f000 	.word	0x4000f000
10005120:	4000c000 	.word	0x4000c000
10005124:	50110000 	.word	0x50110000
10005128:	50100000 	.word	0x50100000

1000512c <hw_endpoint_xfer_start>:
1000512c:	b570      	push	{r4, r5, r6, lr}
1000512e:	0004      	movs	r4, r0
10005130:	000d      	movs	r5, r1
10005132:	0016      	movs	r6, r2
10005134:	7e83      	ldrb	r3, [r0, #26]
10005136:	2b00      	cmp	r3, #0
10005138:	d117      	bne.n	1000516a <hw_endpoint_xfer_start+0x3e>
1000513a:	82a6      	strh	r6, [r4, #20]
1000513c:	2300      	movs	r3, #0
1000513e:	82e3      	strh	r3, [r4, #22]
10005140:	3301      	adds	r3, #1
10005142:	76a3      	strb	r3, [r4, #26]
10005144:	6125      	str	r5, [r4, #16]
10005146:	0020      	movs	r0, r4
10005148:	f001 fe52 	bl	10006df0 <__e15_is_bulkin_ep_veneer>
1000514c:	2800      	cmp	r0, #0
1000514e:	d004      	beq.n	1000515a <hw_endpoint_xfer_start+0x2e>
10005150:	4a09      	ldr	r2, [pc, #36]	; (10005178 <hw_endpoint_xfer_start+0x4c>)
10005152:	2390      	movs	r3, #144	; 0x90
10005154:	2180      	movs	r1, #128	; 0x80
10005156:	0289      	lsls	r1, r1, #10
10005158:	50d1      	str	r1, [r2, r3]
1000515a:	0020      	movs	r0, r4
1000515c:	f001 fe40 	bl	10006de0 <__e15_is_critical_frame_period_veneer>
10005160:	2800      	cmp	r0, #0
10005162:	d005      	beq.n	10005170 <hw_endpoint_xfer_start+0x44>
10005164:	2301      	movs	r3, #1
10005166:	7723      	strb	r3, [r4, #28]
10005168:	bd70      	pop	{r4, r5, r6, pc}
1000516a:	f001 fe79 	bl	10006e60 <__hw_endpoint_reset_transfer_veneer>
1000516e:	e7e4      	b.n	1000513a <hw_endpoint_xfer_start+0xe>
10005170:	0020      	movs	r0, r4
10005172:	f001 fe6d 	bl	10006e50 <__hw_endpoint_start_next_buffer_veneer>
10005176:	e7f7      	b.n	10005168 <hw_endpoint_xfer_start+0x3c>
10005178:	50112000 	.word	0x50112000

1000517c <configuration_reset>:
1000517c:	b570      	push	{r4, r5, r6, lr}
1000517e:	0005      	movs	r5, r0
10005180:	2400      	movs	r4, #0
10005182:	e00c      	b.n	1000519e <configuration_reset+0x22>
10005184:	0063      	lsls	r3, r4, #1
10005186:	191b      	adds	r3, r3, r4
10005188:	00da      	lsls	r2, r3, #3
1000518a:	4b18      	ldr	r3, [pc, #96]	; (100051ec <configuration_reset+0x70>)
1000518c:	681b      	ldr	r3, [r3, #0]
1000518e:	189b      	adds	r3, r3, r2
10005190:	2b00      	cmp	r3, #0
10005192:	d02a      	beq.n	100051ea <configuration_reset+0x6e>
10005194:	685b      	ldr	r3, [r3, #4]
10005196:	0028      	movs	r0, r5
10005198:	4798      	blx	r3
1000519a:	3401      	adds	r4, #1
1000519c:	b2e4      	uxtb	r4, r4
1000519e:	4b14      	ldr	r3, [pc, #80]	; (100051f0 <configuration_reset+0x74>)
100051a0:	781b      	ldrb	r3, [r3, #0]
100051a2:	42a3      	cmp	r3, r4
100051a4:	d310      	bcc.n	100051c8 <configuration_reset+0x4c>
100051a6:	4a13      	ldr	r2, [pc, #76]	; (100051f4 <configuration_reset+0x78>)
100051a8:	2a00      	cmp	r2, #0
100051aa:	d00b      	beq.n	100051c4 <configuration_reset+0x48>
100051ac:	42a3      	cmp	r3, r4
100051ae:	d8e9      	bhi.n	10005184 <configuration_reset+0x8>
100051b0:	1ae3      	subs	r3, r4, r3
100051b2:	b2db      	uxtb	r3, r3
100051b4:	2b00      	cmp	r3, #0
100051b6:	d118      	bne.n	100051ea <configuration_reset+0x6e>
100051b8:	005a      	lsls	r2, r3, #1
100051ba:	18d2      	adds	r2, r2, r3
100051bc:	00d2      	lsls	r2, r2, #3
100051be:	4b0e      	ldr	r3, [pc, #56]	; (100051f8 <configuration_reset+0x7c>)
100051c0:	189b      	adds	r3, r3, r2
100051c2:	e7e5      	b.n	10005190 <configuration_reset+0x14>
100051c4:	0023      	movs	r3, r4
100051c6:	e7f5      	b.n	100051b4 <configuration_reset+0x38>
100051c8:	4c0c      	ldr	r4, [pc, #48]	; (100051fc <configuration_reset+0x80>)
100051ca:	2253      	movs	r2, #83	; 0x53
100051cc:	2100      	movs	r1, #0
100051ce:	0020      	movs	r0, r4
100051d0:	f7ff f842 	bl	10004258 <__wrap_memset>
100051d4:	1ce0      	adds	r0, r4, #3
100051d6:	2210      	movs	r2, #16
100051d8:	21ff      	movs	r1, #255	; 0xff
100051da:	f7ff f83d 	bl	10004258 <__wrap_memset>
100051de:	0020      	movs	r0, r4
100051e0:	3013      	adds	r0, #19
100051e2:	2220      	movs	r2, #32
100051e4:	21ff      	movs	r1, #255	; 0xff
100051e6:	f7ff f837 	bl	10004258 <__wrap_memset>
100051ea:	bd70      	pop	{r4, r5, r6, pc}
100051ec:	20000dec 	.word	0x20000dec
100051f0:	20001a51 	.word	0x20001a51
100051f4:	1000480d 	.word	0x1000480d
100051f8:	100086ac 	.word	0x100086ac
100051fc:	20001114 	.word	0x20001114

10005200 <usbd_reset>:
10005200:	b510      	push	{r4, lr}
10005202:	f7ff ffbb 	bl	1000517c <configuration_reset>
10005206:	f000 fdf1 	bl	10005dec <usbd_control_reset>
1000520a:	bd10      	pop	{r4, pc}

1000520c <invoke_class_control>:
1000520c:	b570      	push	{r4, r5, r6, lr}
1000520e:	0005      	movs	r5, r0
10005210:	000c      	movs	r4, r1
10005212:	0016      	movs	r6, r2
10005214:	68c8      	ldr	r0, [r1, #12]
10005216:	f000 fdf3 	bl	10005e00 <usbd_control_set_complete_callback>
1000521a:	68e3      	ldr	r3, [r4, #12]
1000521c:	0032      	movs	r2, r6
1000521e:	2101      	movs	r1, #1
10005220:	0028      	movs	r0, r5
10005222:	4798      	blx	r3
10005224:	bd70      	pop	{r4, r5, r6, pc}
	...

10005228 <process_set_config>:
10005228:	b5f0      	push	{r4, r5, r6, r7, lr}
1000522a:	46de      	mov	lr, fp
1000522c:	4657      	mov	r7, sl
1000522e:	464e      	mov	r6, r9
10005230:	b5c0      	push	{r6, r7, lr}
10005232:	b082      	sub	sp, #8
10005234:	9000      	str	r0, [sp, #0]
10005236:	3901      	subs	r1, #1
10005238:	b2c8      	uxtb	r0, r1
1000523a:	f7ff fd43 	bl	10004cc4 <tud_descriptor_configuration_cb>
1000523e:	2800      	cmp	r0, #0
10005240:	d100      	bne.n	10005244 <process_set_config+0x1c>
10005242:	e08c      	b.n	1000535e <process_set_config+0x136>
10005244:	7843      	ldrb	r3, [r0, #1]
10005246:	469a      	mov	sl, r3
10005248:	2b02      	cmp	r3, #2
1000524a:	d000      	beq.n	1000524e <process_set_config+0x26>
1000524c:	e089      	b.n	10005362 <process_set_config+0x13a>
1000524e:	79c5      	ldrb	r5, [r0, #7]
10005250:	116a      	asrs	r2, r5, #5
10005252:	3b01      	subs	r3, #1
10005254:	494b      	ldr	r1, [pc, #300]	; (10005384 <process_set_config+0x15c>)
10005256:	401a      	ands	r2, r3
10005258:	0114      	lsls	r4, r2, #4
1000525a:	780a      	ldrb	r2, [r1, #0]
1000525c:	2710      	movs	r7, #16
1000525e:	43ba      	bics	r2, r7
10005260:	4322      	orrs	r2, r4
10005262:	700a      	strb	r2, [r1, #0]
10005264:	11ad      	asrs	r5, r5, #6
10005266:	402b      	ands	r3, r5
10005268:	015b      	lsls	r3, r3, #5
1000526a:	b2d2      	uxtb	r2, r2
1000526c:	2420      	movs	r4, #32
1000526e:	43a2      	bics	r2, r4
10005270:	4313      	orrs	r3, r2
10005272:	700b      	strb	r3, [r1, #0]
10005274:	0006      	movs	r6, r0
10005276:	3609      	adds	r6, #9
10005278:	7882      	ldrb	r2, [r0, #2]
1000527a:	78c4      	ldrb	r4, [r0, #3]
1000527c:	0224      	lsls	r4, r4, #8
1000527e:	4314      	orrs	r4, r2
10005280:	1904      	adds	r4, r0, r4
10005282:	42a6      	cmp	r6, r4
10005284:	d264      	bcs.n	10005350 <process_set_config+0x128>
10005286:	7873      	ldrb	r3, [r6, #1]
10005288:	2b0b      	cmp	r3, #11
1000528a:	d009      	beq.n	100052a0 <process_set_config+0x78>
1000528c:	2301      	movs	r3, #1
1000528e:	469b      	mov	fp, r3
10005290:	7873      	ldrb	r3, [r6, #1]
10005292:	2b04      	cmp	r3, #4
10005294:	d16c      	bne.n	10005370 <process_set_config+0x148>
10005296:	1ba3      	subs	r3, r4, r6
10005298:	b29b      	uxth	r3, r3
1000529a:	4699      	mov	r9, r3
1000529c:	2500      	movs	r5, #0
1000529e:	e025      	b.n	100052ec <process_set_config+0xc4>
100052a0:	78f3      	ldrb	r3, [r6, #3]
100052a2:	469b      	mov	fp, r3
100052a4:	7833      	ldrb	r3, [r6, #0]
100052a6:	18f6      	adds	r6, r6, r3
100052a8:	e7f2      	b.n	10005290 <process_set_config+0x68>
100052aa:	006f      	lsls	r7, r5, #1
100052ac:	197f      	adds	r7, r7, r5
100052ae:	00fb      	lsls	r3, r7, #3
100052b0:	4a35      	ldr	r2, [pc, #212]	; (10005388 <process_set_config+0x160>)
100052b2:	6817      	ldr	r7, [r2, #0]
100052b4:	18ff      	adds	r7, r7, r3
100052b6:	e02b      	b.n	10005310 <process_set_config+0xe8>
100052b8:	002b      	movs	r3, r5
100052ba:	e022      	b.n	10005302 <process_set_config+0xda>
100052bc:	68ba      	ldr	r2, [r7, #8]
100052be:	4b33      	ldr	r3, [pc, #204]	; (1000538c <process_set_config+0x164>)
100052c0:	429a      	cmp	r2, r3
100052c2:	d134      	bne.n	1000532e <process_set_config+0x106>
100052c4:	46d3      	mov	fp, sl
100052c6:	e032      	b.n	1000532e <process_set_config+0x106>
100052c8:	482e      	ldr	r0, [pc, #184]	; (10005384 <process_set_config+0x15c>)
100052ca:	002b      	movs	r3, r5
100052cc:	9f01      	ldr	r7, [sp, #4]
100052ce:	003a      	movs	r2, r7
100052d0:	0031      	movs	r1, r6
100052d2:	3013      	adds	r0, #19
100052d4:	f001 f9a2 	bl	1000661c <tu_edpt_bind_driver>
100052d8:	46bc      	mov	ip, r7
100052da:	4466      	add	r6, ip
100052dc:	4b2c      	ldr	r3, [pc, #176]	; (10005390 <process_set_config+0x168>)
100052de:	781b      	ldrb	r3, [r3, #0]
100052e0:	42ab      	cmp	r3, r5
100052e2:	d2ce      	bcs.n	10005282 <process_set_config+0x5a>
100052e4:	2000      	movs	r0, #0
100052e6:	e03d      	b.n	10005364 <process_set_config+0x13c>
100052e8:	3501      	adds	r5, #1
100052ea:	b2ed      	uxtb	r5, r5
100052ec:	4b28      	ldr	r3, [pc, #160]	; (10005390 <process_set_config+0x168>)
100052ee:	781b      	ldrb	r3, [r3, #0]
100052f0:	42ab      	cmp	r3, r5
100052f2:	d3f3      	bcc.n	100052dc <process_set_config+0xb4>
100052f4:	4a27      	ldr	r2, [pc, #156]	; (10005394 <process_set_config+0x16c>)
100052f6:	2a00      	cmp	r2, #0
100052f8:	d0de      	beq.n	100052b8 <process_set_config+0x90>
100052fa:	42ab      	cmp	r3, r5
100052fc:	d8d5      	bhi.n	100052aa <process_set_config+0x82>
100052fe:	1aeb      	subs	r3, r5, r3
10005300:	b2db      	uxtb	r3, r3
10005302:	2b00      	cmp	r3, #0
10005304:	d136      	bne.n	10005374 <process_set_config+0x14c>
10005306:	005f      	lsls	r7, r3, #1
10005308:	18fb      	adds	r3, r7, r3
1000530a:	00db      	lsls	r3, r3, #3
1000530c:	4f22      	ldr	r7, [pc, #136]	; (10005398 <process_set_config+0x170>)
1000530e:	18ff      	adds	r7, r7, r3
10005310:	2f00      	cmp	r7, #0
10005312:	d031      	beq.n	10005378 <process_set_config+0x150>
10005314:	464a      	mov	r2, r9
10005316:	0031      	movs	r1, r6
10005318:	9800      	ldr	r0, [sp, #0]
1000531a:	68bb      	ldr	r3, [r7, #8]
1000531c:	4798      	blx	r3
1000531e:	9001      	str	r0, [sp, #4]
10005320:	2808      	cmp	r0, #8
10005322:	d9e1      	bls.n	100052e8 <process_set_config+0xc0>
10005324:	4581      	cmp	r9, r0
10005326:	d3df      	bcc.n	100052e8 <process_set_config+0xc0>
10005328:	465b      	mov	r3, fp
1000532a:	2b01      	cmp	r3, #1
1000532c:	d0c6      	beq.n	100052bc <process_set_config+0x94>
1000532e:	2200      	movs	r2, #0
10005330:	4593      	cmp	fp, r2
10005332:	d9c9      	bls.n	100052c8 <process_set_config+0xa0>
10005334:	78b3      	ldrb	r3, [r6, #2]
10005336:	189b      	adds	r3, r3, r2
10005338:	b2db      	uxtb	r3, r3
1000533a:	4912      	ldr	r1, [pc, #72]	; (10005384 <process_set_config+0x15c>)
1000533c:	18c9      	adds	r1, r1, r3
1000533e:	78c9      	ldrb	r1, [r1, #3]
10005340:	29ff      	cmp	r1, #255	; 0xff
10005342:	d11b      	bne.n	1000537c <process_set_config+0x154>
10005344:	490f      	ldr	r1, [pc, #60]	; (10005384 <process_set_config+0x15c>)
10005346:	18cb      	adds	r3, r1, r3
10005348:	70dd      	strb	r5, [r3, #3]
1000534a:	3201      	adds	r2, #1
1000534c:	b2d2      	uxtb	r2, r2
1000534e:	e7ef      	b.n	10005330 <process_set_config+0x108>
10005350:	4b12      	ldr	r3, [pc, #72]	; (1000539c <process_set_config+0x174>)
10005352:	2b00      	cmp	r3, #0
10005354:	d014      	beq.n	10005380 <process_set_config+0x158>
10005356:	e000      	b.n	1000535a <process_set_config+0x132>
10005358:	bf00      	nop
1000535a:	2001      	movs	r0, #1
1000535c:	e002      	b.n	10005364 <process_set_config+0x13c>
1000535e:	2000      	movs	r0, #0
10005360:	e000      	b.n	10005364 <process_set_config+0x13c>
10005362:	2000      	movs	r0, #0
10005364:	b002      	add	sp, #8
10005366:	bce0      	pop	{r5, r6, r7}
10005368:	46bb      	mov	fp, r7
1000536a:	46b2      	mov	sl, r6
1000536c:	46a9      	mov	r9, r5
1000536e:	bdf0      	pop	{r4, r5, r6, r7, pc}
10005370:	2000      	movs	r0, #0
10005372:	e7f7      	b.n	10005364 <process_set_config+0x13c>
10005374:	2000      	movs	r0, #0
10005376:	e7f5      	b.n	10005364 <process_set_config+0x13c>
10005378:	2000      	movs	r0, #0
1000537a:	e7f3      	b.n	10005364 <process_set_config+0x13c>
1000537c:	2000      	movs	r0, #0
1000537e:	e7f1      	b.n	10005364 <process_set_config+0x13c>
10005380:	2001      	movs	r0, #1
10005382:	e7ef      	b.n	10005364 <process_set_config+0x13c>
10005384:	20001114 	.word	0x20001114
10005388:	20000dec 	.word	0x20000dec
1000538c:	100061d1 	.word	0x100061d1
10005390:	20001a51 	.word	0x20001a51
10005394:	1000480d 	.word	0x1000480d
10005398:	100086ac 	.word	0x100086ac
1000539c:	00000000 	.word	0x00000000

100053a0 <process_get_descriptor>:
100053a0:	b570      	push	{r4, r5, r6, lr}
100053a2:	0005      	movs	r5, r0
100053a4:	000c      	movs	r4, r1
100053a6:	78cb      	ldrb	r3, [r1, #3]
100053a8:	7888      	ldrb	r0, [r1, #2]
100053aa:	2b0f      	cmp	r3, #15
100053ac:	d850      	bhi.n	10005450 <process_get_descriptor+0xb0>
100053ae:	009a      	lsls	r2, r3, #2
100053b0:	492e      	ldr	r1, [pc, #184]	; (1000546c <process_get_descriptor+0xcc>)
100053b2:	588a      	ldr	r2, [r1, r2]
100053b4:	4697      	mov	pc, r2
100053b6:	f7ff fc81 	bl	10004cbc <tud_descriptor_device_cb>
100053ba:	0002      	movs	r2, r0
100053bc:	2312      	movs	r3, #18
100053be:	0021      	movs	r1, r4
100053c0:	0028      	movs	r0, r5
100053c2:	f000 fcd9 	bl	10005d78 <tud_control_xfer>
100053c6:	e044      	b.n	10005452 <process_get_descriptor+0xb2>
100053c8:	4b29      	ldr	r3, [pc, #164]	; (10005470 <process_get_descriptor+0xd0>)
100053ca:	2b00      	cmp	r3, #0
100053cc:	d042      	beq.n	10005454 <process_get_descriptor+0xb4>
100053ce:	e000      	b.n	100053d2 <process_get_descriptor+0x32>
100053d0:	bf00      	nop
100053d2:	1e02      	subs	r2, r0, #0
100053d4:	d040      	beq.n	10005458 <process_get_descriptor+0xb8>
100053d6:	7881      	ldrb	r1, [r0, #2]
100053d8:	78c3      	ldrb	r3, [r0, #3]
100053da:	021b      	lsls	r3, r3, #8
100053dc:	430b      	orrs	r3, r1
100053de:	0021      	movs	r1, r4
100053e0:	0028      	movs	r0, r5
100053e2:	f000 fcc9 	bl	10005d78 <tud_control_xfer>
100053e6:	e034      	b.n	10005452 <process_get_descriptor+0xb2>
100053e8:	2b02      	cmp	r3, #2
100053ea:	d009      	beq.n	10005400 <process_get_descriptor+0x60>
100053ec:	4b21      	ldr	r3, [pc, #132]	; (10005474 <process_get_descriptor+0xd4>)
100053ee:	2b00      	cmp	r3, #0
100053f0:	d034      	beq.n	1000545c <process_get_descriptor+0xbc>
100053f2:	e000      	b.n	100053f6 <process_get_descriptor+0x56>
100053f4:	bf00      	nop
100053f6:	0002      	movs	r2, r0
100053f8:	2a00      	cmp	r2, #0
100053fa:	d105      	bne.n	10005408 <process_get_descriptor+0x68>
100053fc:	2000      	movs	r0, #0
100053fe:	e028      	b.n	10005452 <process_get_descriptor+0xb2>
10005400:	f7ff fc60 	bl	10004cc4 <tud_descriptor_configuration_cb>
10005404:	0002      	movs	r2, r0
10005406:	e7f7      	b.n	100053f8 <process_get_descriptor+0x58>
10005408:	7891      	ldrb	r1, [r2, #2]
1000540a:	78d3      	ldrb	r3, [r2, #3]
1000540c:	021b      	lsls	r3, r3, #8
1000540e:	430b      	orrs	r3, r1
10005410:	0021      	movs	r1, r4
10005412:	0028      	movs	r0, r5
10005414:	f000 fcb0 	bl	10005d78 <tud_control_xfer>
10005418:	e01b      	b.n	10005452 <process_get_descriptor+0xb2>
1000541a:	7923      	ldrb	r3, [r4, #4]
1000541c:	7961      	ldrb	r1, [r4, #5]
1000541e:	0209      	lsls	r1, r1, #8
10005420:	4319      	orrs	r1, r3
10005422:	f7ff fc53 	bl	10004ccc <tud_descriptor_string_cb>
10005426:	1e02      	subs	r2, r0, #0
10005428:	d01a      	beq.n	10005460 <process_get_descriptor+0xc0>
1000542a:	7803      	ldrb	r3, [r0, #0]
1000542c:	0021      	movs	r1, r4
1000542e:	0028      	movs	r0, r5
10005430:	f000 fca2 	bl	10005d78 <tud_control_xfer>
10005434:	e00d      	b.n	10005452 <process_get_descriptor+0xb2>
10005436:	4b10      	ldr	r3, [pc, #64]	; (10005478 <process_get_descriptor+0xd8>)
10005438:	2b00      	cmp	r3, #0
1000543a:	d013      	beq.n	10005464 <process_get_descriptor+0xc4>
1000543c:	e000      	b.n	10005440 <process_get_descriptor+0xa0>
1000543e:	bf00      	nop
10005440:	1e02      	subs	r2, r0, #0
10005442:	d011      	beq.n	10005468 <process_get_descriptor+0xc8>
10005444:	7803      	ldrb	r3, [r0, #0]
10005446:	0021      	movs	r1, r4
10005448:	0028      	movs	r0, r5
1000544a:	f000 fc95 	bl	10005d78 <tud_control_xfer>
1000544e:	e000      	b.n	10005452 <process_get_descriptor+0xb2>
10005450:	2000      	movs	r0, #0
10005452:	bd70      	pop	{r4, r5, r6, pc}
10005454:	2000      	movs	r0, #0
10005456:	e7fc      	b.n	10005452 <process_get_descriptor+0xb2>
10005458:	2000      	movs	r0, #0
1000545a:	e7fa      	b.n	10005452 <process_get_descriptor+0xb2>
1000545c:	2000      	movs	r0, #0
1000545e:	e7f8      	b.n	10005452 <process_get_descriptor+0xb2>
10005460:	2000      	movs	r0, #0
10005462:	e7f6      	b.n	10005452 <process_get_descriptor+0xb2>
10005464:	2000      	movs	r0, #0
10005466:	e7f4      	b.n	10005452 <process_get_descriptor+0xb2>
10005468:	2000      	movs	r0, #0
1000546a:	e7f2      	b.n	10005452 <process_get_descriptor+0xb2>
1000546c:	10008620 	.word	0x10008620
	...

1000547c <tud_mounted>:
1000547c:	4b02      	ldr	r3, [pc, #8]	; (10005488 <tud_mounted+0xc>)
1000547e:	7858      	ldrb	r0, [r3, #1]
10005480:	1e43      	subs	r3, r0, #1
10005482:	4198      	sbcs	r0, r3
10005484:	b2c0      	uxtb	r0, r0
10005486:	4770      	bx	lr
10005488:	20001114 	.word	0x20001114

1000548c <tud_suspended>:
1000548c:	4b02      	ldr	r3, [pc, #8]	; (10005498 <tud_suspended+0xc>)
1000548e:	7818      	ldrb	r0, [r3, #0]
10005490:	0740      	lsls	r0, r0, #29
10005492:	0fc0      	lsrs	r0, r0, #31
10005494:	4770      	bx	lr
10005496:	46c0      	nop			; (mov r8, r8)
10005498:	20001114 	.word	0x20001114

1000549c <tud_inited>:
1000549c:	4b03      	ldr	r3, [pc, #12]	; (100054ac <tud_inited+0x10>)
1000549e:	7818      	ldrb	r0, [r3, #0]
100054a0:	38ff      	subs	r0, #255	; 0xff
100054a2:	1e43      	subs	r3, r0, #1
100054a4:	4198      	sbcs	r0, r3
100054a6:	b2c0      	uxtb	r0, r0
100054a8:	4770      	bx	lr
100054aa:	46c0      	nop			; (mov r8, r8)
100054ac:	20000ca4 	.word	0x20000ca4

100054b0 <tud_init>:
100054b0:	b570      	push	{r4, r5, r6, lr}
100054b2:	0004      	movs	r4, r0
100054b4:	f7ff fff2 	bl	1000549c <tud_inited>
100054b8:	1e06      	subs	r6, r0, #0
100054ba:	d001      	beq.n	100054c0 <tud_init+0x10>
100054bc:	0030      	movs	r0, r6
100054be:	bd70      	pop	{r4, r5, r6, pc}
100054c0:	2253      	movs	r2, #83	; 0x53
100054c2:	2100      	movs	r1, #0
100054c4:	4823      	ldr	r0, [pc, #140]	; (10005554 <tud_init+0xa4>)
100054c6:	f7fe fec7 	bl	10004258 <__wrap_memset>
100054ca:	4d23      	ldr	r5, [pc, #140]	; (10005558 <tud_init+0xa8>)
100054cc:	0028      	movs	r0, r5
100054ce:	f7fb fca9 	bl	10000e24 <mutex_init>
100054d2:	4b22      	ldr	r3, [pc, #136]	; (1000555c <tud_init+0xac>)
100054d4:	601d      	str	r5, [r3, #0]
100054d6:	4d22      	ldr	r5, [pc, #136]	; (10005560 <tud_init+0xb0>)
100054d8:	0028      	movs	r0, r5
100054da:	3014      	adds	r0, #20
100054dc:	f7fb fcc8 	bl	10000e70 <critical_section_init>
100054e0:	0028      	movs	r0, r5
100054e2:	f001 fbf0 	bl	10006cc6 <tu_fifo_clear>
100054e6:	4b1f      	ldr	r3, [pc, #124]	; (10005564 <tud_init+0xb4>)
100054e8:	601d      	str	r5, [r3, #0]
100054ea:	4b1f      	ldr	r3, [pc, #124]	; (10005568 <tud_init+0xb8>)
100054ec:	2b00      	cmp	r3, #0
100054ee:	d004      	beq.n	100054fa <tud_init+0x4a>
100054f0:	481e      	ldr	r0, [pc, #120]	; (1000556c <tud_init+0xbc>)
100054f2:	f7ff f98b 	bl	1000480c <usbd_app_driver_get_cb>
100054f6:	4b1e      	ldr	r3, [pc, #120]	; (10005570 <tud_init+0xc0>)
100054f8:	6018      	str	r0, [r3, #0]
100054fa:	2500      	movs	r5, #0
100054fc:	e00b      	b.n	10005516 <tud_init+0x66>
100054fe:	006b      	lsls	r3, r5, #1
10005500:	195b      	adds	r3, r3, r5
10005502:	00da      	lsls	r2, r3, #3
10005504:	4b1a      	ldr	r3, [pc, #104]	; (10005570 <tud_init+0xc0>)
10005506:	681b      	ldr	r3, [r3, #0]
10005508:	189b      	adds	r3, r3, r2
1000550a:	2b00      	cmp	r3, #0
1000550c:	d0d6      	beq.n	100054bc <tud_init+0xc>
1000550e:	681b      	ldr	r3, [r3, #0]
10005510:	4798      	blx	r3
10005512:	3501      	adds	r5, #1
10005514:	b2ed      	uxtb	r5, r5
10005516:	4b15      	ldr	r3, [pc, #84]	; (1000556c <tud_init+0xbc>)
10005518:	781b      	ldrb	r3, [r3, #0]
1000551a:	42ab      	cmp	r3, r5
1000551c:	d310      	bcc.n	10005540 <tud_init+0x90>
1000551e:	4a12      	ldr	r2, [pc, #72]	; (10005568 <tud_init+0xb8>)
10005520:	2a00      	cmp	r2, #0
10005522:	d00b      	beq.n	1000553c <tud_init+0x8c>
10005524:	42ab      	cmp	r3, r5
10005526:	d8ea      	bhi.n	100054fe <tud_init+0x4e>
10005528:	1aeb      	subs	r3, r5, r3
1000552a:	b2db      	uxtb	r3, r3
1000552c:	2b00      	cmp	r3, #0
1000552e:	d1c5      	bne.n	100054bc <tud_init+0xc>
10005530:	005a      	lsls	r2, r3, #1
10005532:	18d2      	adds	r2, r2, r3
10005534:	00d2      	lsls	r2, r2, #3
10005536:	4b0f      	ldr	r3, [pc, #60]	; (10005574 <tud_init+0xc4>)
10005538:	189b      	adds	r3, r3, r2
1000553a:	e7e6      	b.n	1000550a <tud_init+0x5a>
1000553c:	002b      	movs	r3, r5
1000553e:	e7f5      	b.n	1000552c <tud_init+0x7c>
10005540:	4b0d      	ldr	r3, [pc, #52]	; (10005578 <tud_init+0xc8>)
10005542:	701c      	strb	r4, [r3, #0]
10005544:	0020      	movs	r0, r4
10005546:	f7ff fd19 	bl	10004f7c <dcd_init>
1000554a:	0020      	movs	r0, r4
1000554c:	f7ff fce2 	bl	10004f14 <dcd_int_enable>
10005550:	2601      	movs	r6, #1
10005552:	e7b3      	b.n	100054bc <tud_init+0xc>
10005554:	20001114 	.word	0x20001114
10005558:	200010cc 	.word	0x200010cc
1000555c:	20001168 	.word	0x20001168
10005560:	20000c88 	.word	0x20000c88
10005564:	2000116c 	.word	0x2000116c
10005568:	1000480d 	.word	0x1000480d
1000556c:	20001a51 	.word	0x20001a51
10005570:	20000dec 	.word	0x20000dec
10005574:	100086ac 	.word	0x100086ac
10005578:	20000ca4 	.word	0x20000ca4

1000557c <usbd_defer_func>:
1000557c:	b5f0      	push	{r4, r5, r6, r7, lr}
1000557e:	b085      	sub	sp, #20
10005580:	0007      	movs	r7, r0
10005582:	000e      	movs	r6, r1
10005584:	0015      	movs	r5, r2
10005586:	ac01      	add	r4, sp, #4
10005588:	220c      	movs	r2, #12
1000558a:	2100      	movs	r1, #0
1000558c:	0020      	movs	r0, r4
1000558e:	f7fe fe63 	bl	10004258 <__wrap_memset>
10005592:	2308      	movs	r3, #8
10005594:	7063      	strb	r3, [r4, #1]
10005596:	9702      	str	r7, [sp, #8]
10005598:	9603      	str	r6, [sp, #12]
1000559a:	0029      	movs	r1, r5
1000559c:	0020      	movs	r0, r4
1000559e:	f001 fc47 	bl	10006e30 <__dcd_event_handler_veneer>
100055a2:	b005      	add	sp, #20
100055a4:	bdf0      	pop	{r4, r5, r6, r7, pc}
	...

100055a8 <usbd_edpt_open>:
100055a8:	b570      	push	{r4, r5, r6, lr}
100055aa:	000c      	movs	r4, r1
100055ac:	4b09      	ldr	r3, [pc, #36]	; (100055d4 <usbd_edpt_open+0x2c>)
100055ae:	781d      	ldrb	r5, [r3, #0]
100055b0:	788b      	ldrb	r3, [r1, #2]
100055b2:	2270      	movs	r2, #112	; 0x70
100055b4:	421a      	tst	r2, r3
100055b6:	d001      	beq.n	100055bc <usbd_edpt_open+0x14>
100055b8:	2000      	movs	r0, #0
100055ba:	bd70      	pop	{r4, r5, r6, pc}
100055bc:	4b06      	ldr	r3, [pc, #24]	; (100055d8 <usbd_edpt_open+0x30>)
100055be:	7899      	ldrb	r1, [r3, #2]
100055c0:	0020      	movs	r0, r4
100055c2:	f000 ffef 	bl	100065a4 <tu_edpt_validate>
100055c6:	2800      	cmp	r0, #0
100055c8:	d0f7      	beq.n	100055ba <usbd_edpt_open+0x12>
100055ca:	0021      	movs	r1, r4
100055cc:	0028      	movs	r0, r5
100055ce:	f7ff fd23 	bl	10005018 <dcd_edpt_open>
100055d2:	e7f2      	b.n	100055ba <usbd_edpt_open+0x12>
100055d4:	20000ca4 	.word	0x20000ca4
100055d8:	20001114 	.word	0x20001114

100055dc <usbd_open_edpt_pair>:
100055dc:	b5f8      	push	{r3, r4, r5, r6, r7, lr}
100055de:	46ce      	mov	lr, r9
100055e0:	4647      	mov	r7, r8
100055e2:	b580      	push	{r7, lr}
100055e4:	4681      	mov	r9, r0
100055e6:	000c      	movs	r4, r1
100055e8:	0017      	movs	r7, r2
100055ea:	001e      	movs	r6, r3
100055ec:	9b08      	ldr	r3, [sp, #32]
100055ee:	4698      	mov	r8, r3
100055f0:	2500      	movs	r5, #0
100055f2:	e004      	b.n	100055fe <usbd_open_edpt_pair+0x22>
100055f4:	9a09      	ldr	r2, [sp, #36]	; 0x24
100055f6:	7013      	strb	r3, [r2, #0]
100055f8:	7823      	ldrb	r3, [r4, #0]
100055fa:	18e4      	adds	r4, r4, r3
100055fc:	3501      	adds	r5, #1
100055fe:	42af      	cmp	r7, r5
10005600:	dd14      	ble.n	1000562c <usbd_open_edpt_pair+0x50>
10005602:	7863      	ldrb	r3, [r4, #1]
10005604:	2b05      	cmp	r3, #5
10005606:	d116      	bne.n	10005636 <usbd_open_edpt_pair+0x5a>
10005608:	78e1      	ldrb	r1, [r4, #3]
1000560a:	0789      	lsls	r1, r1, #30
1000560c:	0f89      	lsrs	r1, r1, #30
1000560e:	42b1      	cmp	r1, r6
10005610:	d113      	bne.n	1000563a <usbd_open_edpt_pair+0x5e>
10005612:	0021      	movs	r1, r4
10005614:	4648      	mov	r0, r9
10005616:	f7ff ffc7 	bl	100055a8 <usbd_edpt_open>
1000561a:	2800      	cmp	r0, #0
1000561c:	d007      	beq.n	1000562e <usbd_open_edpt_pair+0x52>
1000561e:	78a3      	ldrb	r3, [r4, #2]
10005620:	09da      	lsrs	r2, r3, #7
10005622:	2a01      	cmp	r2, #1
10005624:	d0e6      	beq.n	100055f4 <usbd_open_edpt_pair+0x18>
10005626:	4642      	mov	r2, r8
10005628:	7013      	strb	r3, [r2, #0]
1000562a:	e7e5      	b.n	100055f8 <usbd_open_edpt_pair+0x1c>
1000562c:	2001      	movs	r0, #1
1000562e:	bcc0      	pop	{r6, r7}
10005630:	46b9      	mov	r9, r7
10005632:	46b0      	mov	r8, r6
10005634:	bdf8      	pop	{r3, r4, r5, r6, r7, pc}
10005636:	2000      	movs	r0, #0
10005638:	e7f9      	b.n	1000562e <usbd_open_edpt_pair+0x52>
1000563a:	2000      	movs	r0, #0
1000563c:	e7f7      	b.n	1000562e <usbd_open_edpt_pair+0x52>
	...

10005640 <usbd_edpt_claim>:
10005640:	b510      	push	{r4, lr}
10005642:	207f      	movs	r0, #127	; 0x7f
10005644:	4008      	ands	r0, r1
10005646:	09c9      	lsrs	r1, r1, #7
10005648:	0040      	lsls	r0, r0, #1
1000564a:	1840      	adds	r0, r0, r1
1000564c:	3030      	adds	r0, #48	; 0x30
1000564e:	4904      	ldr	r1, [pc, #16]	; (10005660 <usbd_edpt_claim+0x20>)
10005650:	1808      	adds	r0, r1, r0
10005652:	3003      	adds	r0, #3
10005654:	4b03      	ldr	r3, [pc, #12]	; (10005664 <usbd_edpt_claim+0x24>)
10005656:	6819      	ldr	r1, [r3, #0]
10005658:	f000 ff5e 	bl	10006518 <tu_edpt_claim>
1000565c:	bd10      	pop	{r4, pc}
1000565e:	46c0      	nop			; (mov r8, r8)
10005660:	20001114 	.word	0x20001114
10005664:	20001168 	.word	0x20001168

10005668 <usbd_edpt_release>:
10005668:	b510      	push	{r4, lr}
1000566a:	207f      	movs	r0, #127	; 0x7f
1000566c:	4008      	ands	r0, r1
1000566e:	09c9      	lsrs	r1, r1, #7
10005670:	0040      	lsls	r0, r0, #1
10005672:	1840      	adds	r0, r0, r1
10005674:	3030      	adds	r0, #48	; 0x30
10005676:	4904      	ldr	r1, [pc, #16]	; (10005688 <usbd_edpt_release+0x20>)
10005678:	1808      	adds	r0, r1, r0
1000567a:	3003      	adds	r0, #3
1000567c:	4b03      	ldr	r3, [pc, #12]	; (1000568c <usbd_edpt_release+0x24>)
1000567e:	6819      	ldr	r1, [r3, #0]
10005680:	f000 ff72 	bl	10006568 <tu_edpt_release>
10005684:	bd10      	pop	{r4, pc}
10005686:	46c0      	nop			; (mov r8, r8)
10005688:	20001114 	.word	0x20001114
1000568c:	20001168 	.word	0x20001168

10005690 <usbd_edpt_xfer>:
10005690:	b5f8      	push	{r3, r4, r5, r6, r7, lr}
10005692:	46ce      	mov	lr, r9
10005694:	4647      	mov	r7, r8
10005696:	b580      	push	{r7, lr}
10005698:	4819      	ldr	r0, [pc, #100]	; (10005700 <usbd_edpt_xfer+0x70>)
1000569a:	7800      	ldrb	r0, [r0, #0]
1000569c:	257f      	movs	r5, #127	; 0x7f
1000569e:	400d      	ands	r5, r1
100056a0:	09ce      	lsrs	r6, r1, #7
100056a2:	006f      	lsls	r7, r5, #1
100056a4:	4c17      	ldr	r4, [pc, #92]	; (10005704 <usbd_edpt_xfer+0x74>)
100056a6:	19e4      	adds	r4, r4, r7
100056a8:	19a4      	adds	r4, r4, r6
100056aa:	3430      	adds	r4, #48	; 0x30
100056ac:	78e4      	ldrb	r4, [r4, #3]
100056ae:	07e4      	lsls	r4, r4, #31
100056b0:	d504      	bpl.n	100056bc <usbd_edpt_xfer+0x2c>
100056b2:	2000      	movs	r0, #0
100056b4:	bcc0      	pop	{r6, r7}
100056b6:	46b9      	mov	r9, r7
100056b8:	46b0      	mov	r8, r6
100056ba:	bdf8      	pop	{r3, r4, r5, r6, r7, pc}
100056bc:	4c11      	ldr	r4, [pc, #68]	; (10005704 <usbd_edpt_xfer+0x74>)
100056be:	19e4      	adds	r4, r4, r7
100056c0:	19a4      	adds	r4, r4, r6
100056c2:	2730      	movs	r7, #48	; 0x30
100056c4:	46b9      	mov	r9, r7
100056c6:	44a1      	add	r9, r4
100056c8:	464c      	mov	r4, r9
100056ca:	78e4      	ldrb	r4, [r4, #3]
100056cc:	2701      	movs	r7, #1
100056ce:	46bc      	mov	ip, r7
100056d0:	4667      	mov	r7, ip
100056d2:	433c      	orrs	r4, r7
100056d4:	0027      	movs	r7, r4
100056d6:	464c      	mov	r4, r9
100056d8:	70e7      	strb	r7, [r4, #3]
100056da:	f7ff fcc1 	bl	10005060 <dcd_edpt_xfer>
100056de:	2800      	cmp	r0, #0
100056e0:	d1e8      	bne.n	100056b4 <usbd_edpt_xfer+0x24>
100056e2:	006d      	lsls	r5, r5, #1
100056e4:	4b07      	ldr	r3, [pc, #28]	; (10005704 <usbd_edpt_xfer+0x74>)
100056e6:	195d      	adds	r5, r3, r5
100056e8:	19ae      	adds	r6, r5, r6
100056ea:	3630      	adds	r6, #48	; 0x30
100056ec:	78f3      	ldrb	r3, [r6, #3]
100056ee:	2201      	movs	r2, #1
100056f0:	4393      	bics	r3, r2
100056f2:	70f3      	strb	r3, [r6, #3]
100056f4:	78f3      	ldrb	r3, [r6, #3]
100056f6:	3203      	adds	r2, #3
100056f8:	4393      	bics	r3, r2
100056fa:	70f3      	strb	r3, [r6, #3]
100056fc:	e7da      	b.n	100056b4 <usbd_edpt_xfer+0x24>
100056fe:	46c0      	nop			; (mov r8, r8)
10005700:	20000ca4 	.word	0x20000ca4
10005704:	20001114 	.word	0x20001114

10005708 <usbd_edpt_stall>:
10005708:	b570      	push	{r4, r5, r6, lr}
1000570a:	4b0f      	ldr	r3, [pc, #60]	; (10005748 <usbd_edpt_stall+0x40>)
1000570c:	7818      	ldrb	r0, [r3, #0]
1000570e:	247f      	movs	r4, #127	; 0x7f
10005710:	400c      	ands	r4, r1
10005712:	09cd      	lsrs	r5, r1, #7
10005714:	0062      	lsls	r2, r4, #1
10005716:	4b0d      	ldr	r3, [pc, #52]	; (1000574c <usbd_edpt_stall+0x44>)
10005718:	189b      	adds	r3, r3, r2
1000571a:	195b      	adds	r3, r3, r5
1000571c:	3330      	adds	r3, #48	; 0x30
1000571e:	78db      	ldrb	r3, [r3, #3]
10005720:	079b      	lsls	r3, r3, #30
10005722:	d500      	bpl.n	10005726 <usbd_edpt_stall+0x1e>
10005724:	bd70      	pop	{r4, r5, r6, pc}
10005726:	f7ff fcb5 	bl	10005094 <dcd_edpt_stall>
1000572a:	0063      	lsls	r3, r4, #1
1000572c:	4c07      	ldr	r4, [pc, #28]	; (1000574c <usbd_edpt_stall+0x44>)
1000572e:	18e4      	adds	r4, r4, r3
10005730:	1964      	adds	r4, r4, r5
10005732:	3430      	adds	r4, #48	; 0x30
10005734:	78e3      	ldrb	r3, [r4, #3]
10005736:	2202      	movs	r2, #2
10005738:	4313      	orrs	r3, r2
1000573a:	70e3      	strb	r3, [r4, #3]
1000573c:	78e3      	ldrb	r3, [r4, #3]
1000573e:	2201      	movs	r2, #1
10005740:	4313      	orrs	r3, r2
10005742:	70e3      	strb	r3, [r4, #3]
10005744:	e7ee      	b.n	10005724 <usbd_edpt_stall+0x1c>
10005746:	46c0      	nop			; (mov r8, r8)
10005748:	20000ca4 	.word	0x20000ca4
1000574c:	20001114 	.word	0x20001114

10005750 <usbd_edpt_clear_stall>:
10005750:	b570      	push	{r4, r5, r6, lr}
10005752:	4b0f      	ldr	r3, [pc, #60]	; (10005790 <usbd_edpt_clear_stall+0x40>)
10005754:	7818      	ldrb	r0, [r3, #0]
10005756:	247f      	movs	r4, #127	; 0x7f
10005758:	400c      	ands	r4, r1
1000575a:	09cd      	lsrs	r5, r1, #7
1000575c:	0062      	lsls	r2, r4, #1
1000575e:	4b0d      	ldr	r3, [pc, #52]	; (10005794 <usbd_edpt_clear_stall+0x44>)
10005760:	189b      	adds	r3, r3, r2
10005762:	195b      	adds	r3, r3, r5
10005764:	3330      	adds	r3, #48	; 0x30
10005766:	78db      	ldrb	r3, [r3, #3]
10005768:	079b      	lsls	r3, r3, #30
1000576a:	d400      	bmi.n	1000576e <usbd_edpt_clear_stall+0x1e>
1000576c:	bd70      	pop	{r4, r5, r6, pc}
1000576e:	f7ff fca7 	bl	100050c0 <dcd_edpt_clear_stall>
10005772:	0063      	lsls	r3, r4, #1
10005774:	4c07      	ldr	r4, [pc, #28]	; (10005794 <usbd_edpt_clear_stall+0x44>)
10005776:	18e4      	adds	r4, r4, r3
10005778:	1964      	adds	r4, r4, r5
1000577a:	3430      	adds	r4, #48	; 0x30
1000577c:	78e3      	ldrb	r3, [r4, #3]
1000577e:	2202      	movs	r2, #2
10005780:	4393      	bics	r3, r2
10005782:	70e3      	strb	r3, [r4, #3]
10005784:	78e3      	ldrb	r3, [r4, #3]
10005786:	3a01      	subs	r2, #1
10005788:	4393      	bics	r3, r2
1000578a:	70e3      	strb	r3, [r4, #3]
1000578c:	e7ee      	b.n	1000576c <usbd_edpt_clear_stall+0x1c>
1000578e:	46c0      	nop			; (mov r8, r8)
10005790:	20000ca4 	.word	0x20000ca4
10005794:	20001114 	.word	0x20001114

10005798 <usbd_edpt_stalled>:
10005798:	227f      	movs	r2, #127	; 0x7f
1000579a:	400a      	ands	r2, r1
1000579c:	09cb      	lsrs	r3, r1, #7
1000579e:	0052      	lsls	r2, r2, #1
100057a0:	4903      	ldr	r1, [pc, #12]	; (100057b0 <usbd_edpt_stalled+0x18>)
100057a2:	1889      	adds	r1, r1, r2
100057a4:	18c9      	adds	r1, r1, r3
100057a6:	3130      	adds	r1, #48	; 0x30
100057a8:	78c8      	ldrb	r0, [r1, #3]
100057aa:	0780      	lsls	r0, r0, #30
100057ac:	0fc0      	lsrs	r0, r0, #31
100057ae:	4770      	bx	lr
100057b0:	20001114 	.word	0x20001114

100057b4 <process_control_request>:
100057b4:	b5f0      	push	{r4, r5, r6, r7, lr}
100057b6:	46c6      	mov	lr, r8
100057b8:	b500      	push	{lr}
100057ba:	b082      	sub	sp, #8
100057bc:	0005      	movs	r5, r0
100057be:	000c      	movs	r4, r1
100057c0:	2000      	movs	r0, #0
100057c2:	f000 fb1d 	bl	10005e00 <usbd_control_set_complete_callback>
100057c6:	7823      	ldrb	r3, [r4, #0]
100057c8:	2260      	movs	r2, #96	; 0x60
100057ca:	4013      	ands	r3, r2
100057cc:	2b60      	cmp	r3, #96	; 0x60
100057ce:	d100      	bne.n	100057d2 <process_control_request+0x1e>
100057d0:	e185      	b.n	10005ade <process_control_request+0x32a>
100057d2:	2b40      	cmp	r3, #64	; 0x40
100057d4:	d00f      	beq.n	100057f6 <process_control_request+0x42>
100057d6:	7822      	ldrb	r2, [r4, #0]
100057d8:	06d2      	lsls	r2, r2, #27
100057da:	0ed2      	lsrs	r2, r2, #27
100057dc:	2a01      	cmp	r2, #1
100057de:	d100      	bne.n	100057e2 <process_control_request+0x2e>
100057e0:	e0c9      	b.n	10005976 <process_control_request+0x1c2>
100057e2:	2a02      	cmp	r2, #2
100057e4:	d100      	bne.n	100057e8 <process_control_request+0x34>
100057e6:	e10f      	b.n	10005a08 <process_control_request+0x254>
100057e8:	2a00      	cmp	r2, #0
100057ea:	d011      	beq.n	10005810 <process_control_request+0x5c>
100057ec:	2000      	movs	r0, #0
100057ee:	b002      	add	sp, #8
100057f0:	bc80      	pop	{r7}
100057f2:	46b8      	mov	r8, r7
100057f4:	bdf0      	pop	{r4, r5, r6, r7, pc}
100057f6:	4bc7      	ldr	r3, [pc, #796]	; (10005b14 <process_control_request+0x360>)
100057f8:	2b00      	cmp	r3, #0
100057fa:	d100      	bne.n	100057fe <process_control_request+0x4a>
100057fc:	e171      	b.n	10005ae2 <process_control_request+0x32e>
100057fe:	0018      	movs	r0, r3
10005800:	f000 fafe 	bl	10005e00 <usbd_control_set_complete_callback>
10005804:	0022      	movs	r2, r4
10005806:	2101      	movs	r1, #1
10005808:	0028      	movs	r0, r5
1000580a:	e000      	b.n	1000580e <process_control_request+0x5a>
1000580c:	bf00      	nop
1000580e:	e7ee      	b.n	100057ee <process_control_request+0x3a>
10005810:	2b20      	cmp	r3, #32
10005812:	d00a      	beq.n	1000582a <process_control_request+0x76>
10005814:	2b00      	cmp	r3, #0
10005816:	d000      	beq.n	1000581a <process_control_request+0x66>
10005818:	e16b      	b.n	10005af2 <process_control_request+0x33e>
1000581a:	7863      	ldrb	r3, [r4, #1]
1000581c:	2b09      	cmp	r3, #9
1000581e:	d900      	bls.n	10005822 <process_control_request+0x6e>
10005820:	e169      	b.n	10005af6 <process_control_request+0x342>
10005822:	009b      	lsls	r3, r3, #2
10005824:	4abc      	ldr	r2, [pc, #752]	; (10005b18 <process_control_request+0x364>)
10005826:	58d3      	ldr	r3, [r2, r3]
10005828:	469f      	mov	pc, r3
1000582a:	7923      	ldrb	r3, [r4, #4]
1000582c:	2b0f      	cmp	r3, #15
1000582e:	d900      	bls.n	10005832 <process_control_request+0x7e>
10005830:	e159      	b.n	10005ae6 <process_control_request+0x332>
10005832:	4aba      	ldr	r2, [pc, #744]	; (10005b1c <process_control_request+0x368>)
10005834:	18d3      	adds	r3, r2, r3
10005836:	78db      	ldrb	r3, [r3, #3]
10005838:	4ab9      	ldr	r2, [pc, #740]	; (10005b20 <process_control_request+0x36c>)
1000583a:	2a00      	cmp	r2, #0
1000583c:	d005      	beq.n	1000584a <process_control_request+0x96>
1000583e:	4ab9      	ldr	r2, [pc, #740]	; (10005b24 <process_control_request+0x370>)
10005840:	7812      	ldrb	r2, [r2, #0]
10005842:	4293      	cmp	r3, r2
10005844:	d311      	bcc.n	1000586a <process_control_request+0xb6>
10005846:	1a9b      	subs	r3, r3, r2
10005848:	b2db      	uxtb	r3, r3
1000584a:	2b00      	cmp	r3, #0
1000584c:	d000      	beq.n	10005850 <process_control_request+0x9c>
1000584e:	e14c      	b.n	10005aea <process_control_request+0x336>
10005850:	0059      	lsls	r1, r3, #1
10005852:	18cb      	adds	r3, r1, r3
10005854:	00db      	lsls	r3, r3, #3
10005856:	49b4      	ldr	r1, [pc, #720]	; (10005b28 <process_control_request+0x374>)
10005858:	18c9      	adds	r1, r1, r3
1000585a:	2900      	cmp	r1, #0
1000585c:	d100      	bne.n	10005860 <process_control_request+0xac>
1000585e:	e146      	b.n	10005aee <process_control_request+0x33a>
10005860:	0022      	movs	r2, r4
10005862:	0028      	movs	r0, r5
10005864:	f7ff fcd2 	bl	1000520c <invoke_class_control>
10005868:	e7c1      	b.n	100057ee <process_control_request+0x3a>
1000586a:	0059      	lsls	r1, r3, #1
1000586c:	18cb      	adds	r3, r1, r3
1000586e:	00db      	lsls	r3, r3, #3
10005870:	4aae      	ldr	r2, [pc, #696]	; (10005b2c <process_control_request+0x378>)
10005872:	6811      	ldr	r1, [r2, #0]
10005874:	18c9      	adds	r1, r1, r3
10005876:	e7f0      	b.n	1000585a <process_control_request+0xa6>
10005878:	0020      	movs	r0, r4
1000587a:	f000 fac7 	bl	10005e0c <usbd_control_set_request>
1000587e:	78a1      	ldrb	r1, [r4, #2]
10005880:	0028      	movs	r0, r5
10005882:	f7ff fb5d 	bl	10004f40 <dcd_set_address>
10005886:	4aa5      	ldr	r2, [pc, #660]	; (10005b1c <process_control_request+0x368>)
10005888:	7813      	ldrb	r3, [r2, #0]
1000588a:	2102      	movs	r1, #2
1000588c:	430b      	orrs	r3, r1
1000588e:	7013      	strb	r3, [r2, #0]
10005890:	2001      	movs	r0, #1
10005892:	e7ac      	b.n	100057ee <process_control_request+0x3a>
10005894:	4ba1      	ldr	r3, [pc, #644]	; (10005b1c <process_control_request+0x368>)
10005896:	785b      	ldrb	r3, [r3, #1]
10005898:	466a      	mov	r2, sp
1000589a:	3206      	adds	r2, #6
1000589c:	7013      	strb	r3, [r2, #0]
1000589e:	2301      	movs	r3, #1
100058a0:	0021      	movs	r1, r4
100058a2:	0028      	movs	r0, r5
100058a4:	f000 fa68 	bl	10005d78 <tud_control_xfer>
100058a8:	2001      	movs	r0, #1
100058aa:	e7a0      	b.n	100057ee <process_control_request+0x3a>
100058ac:	78a6      	ldrb	r6, [r4, #2]
100058ae:	4b9b      	ldr	r3, [pc, #620]	; (10005b1c <process_control_request+0x368>)
100058b0:	785b      	ldrb	r3, [r3, #1]
100058b2:	b2db      	uxtb	r3, r3
100058b4:	42b3      	cmp	r3, r6
100058b6:	d005      	beq.n	100058c4 <process_control_request+0x110>
100058b8:	4b98      	ldr	r3, [pc, #608]	; (10005b1c <process_control_request+0x368>)
100058ba:	785b      	ldrb	r3, [r3, #1]
100058bc:	2b00      	cmp	r3, #0
100058be:	d109      	bne.n	100058d4 <process_control_request+0x120>
100058c0:	2e00      	cmp	r6, #0
100058c2:	d113      	bne.n	100058ec <process_control_request+0x138>
100058c4:	4b95      	ldr	r3, [pc, #596]	; (10005b1c <process_control_request+0x368>)
100058c6:	705e      	strb	r6, [r3, #1]
100058c8:	0021      	movs	r1, r4
100058ca:	0028      	movs	r0, r5
100058cc:	f000 fa38 	bl	10005d40 <tud_control_status>
100058d0:	2001      	movs	r0, #1
100058d2:	e78c      	b.n	100057ee <process_control_request+0x3a>
100058d4:	0028      	movs	r0, r5
100058d6:	f7ff fbbf 	bl	10005058 <dcd_edpt_close_all>
100058da:	4f90      	ldr	r7, [pc, #576]	; (10005b1c <process_control_request+0x368>)
100058dc:	78bb      	ldrb	r3, [r7, #2]
100058de:	4698      	mov	r8, r3
100058e0:	0028      	movs	r0, r5
100058e2:	f7ff fc4b 	bl	1000517c <configuration_reset>
100058e6:	4643      	mov	r3, r8
100058e8:	70bb      	strb	r3, [r7, #2]
100058ea:	e7e9      	b.n	100058c0 <process_control_request+0x10c>
100058ec:	0031      	movs	r1, r6
100058ee:	0028      	movs	r0, r5
100058f0:	f7ff fc9a 	bl	10005228 <process_set_config>
100058f4:	2800      	cmp	r0, #0
100058f6:	d1e5      	bne.n	100058c4 <process_control_request+0x110>
100058f8:	e779      	b.n	100057ee <process_control_request+0x3a>
100058fa:	0021      	movs	r1, r4
100058fc:	0028      	movs	r0, r5
100058fe:	f7ff fd4f 	bl	100053a0 <process_get_descriptor>
10005902:	e774      	b.n	100057ee <process_control_request+0x3a>
10005904:	78a2      	ldrb	r2, [r4, #2]
10005906:	78e3      	ldrb	r3, [r4, #3]
10005908:	021b      	lsls	r3, r3, #8
1000590a:	4313      	orrs	r3, r2
1000590c:	2b01      	cmp	r3, #1
1000590e:	d001      	beq.n	10005914 <process_control_request+0x160>
10005910:	2000      	movs	r0, #0
10005912:	e76c      	b.n	100057ee <process_control_request+0x3a>
10005914:	4a81      	ldr	r2, [pc, #516]	; (10005b1c <process_control_request+0x368>)
10005916:	7813      	ldrb	r3, [r2, #0]
10005918:	2108      	movs	r1, #8
1000591a:	430b      	orrs	r3, r1
1000591c:	7013      	strb	r3, [r2, #0]
1000591e:	0021      	movs	r1, r4
10005920:	0028      	movs	r0, r5
10005922:	f000 fa0d 	bl	10005d40 <tud_control_status>
10005926:	2001      	movs	r0, #1
10005928:	e761      	b.n	100057ee <process_control_request+0x3a>
1000592a:	78a2      	ldrb	r2, [r4, #2]
1000592c:	78e3      	ldrb	r3, [r4, #3]
1000592e:	021b      	lsls	r3, r3, #8
10005930:	4313      	orrs	r3, r2
10005932:	2b01      	cmp	r3, #1
10005934:	d001      	beq.n	1000593a <process_control_request+0x186>
10005936:	2000      	movs	r0, #0
10005938:	e759      	b.n	100057ee <process_control_request+0x3a>
1000593a:	4a78      	ldr	r2, [pc, #480]	; (10005b1c <process_control_request+0x368>)
1000593c:	7813      	ldrb	r3, [r2, #0]
1000593e:	2108      	movs	r1, #8
10005940:	438b      	bics	r3, r1
10005942:	7013      	strb	r3, [r2, #0]
10005944:	0021      	movs	r1, r4
10005946:	0028      	movs	r0, r5
10005948:	f000 f9fa 	bl	10005d40 <tud_control_status>
1000594c:	2001      	movs	r0, #1
1000594e:	e74e      	b.n	100057ee <process_control_request+0x3a>
10005950:	4b72      	ldr	r3, [pc, #456]	; (10005b1c <process_control_request+0x368>)
10005952:	781a      	ldrb	r2, [r3, #0]
10005954:	0951      	lsrs	r1, r2, #5
10005956:	0892      	lsrs	r2, r2, #2
10005958:	2301      	movs	r3, #1
1000595a:	400b      	ands	r3, r1
1000595c:	2102      	movs	r1, #2
1000595e:	400a      	ands	r2, r1
10005960:	4313      	orrs	r3, r2
10005962:	466a      	mov	r2, sp
10005964:	3206      	adds	r2, #6
10005966:	8013      	strh	r3, [r2, #0]
10005968:	2302      	movs	r3, #2
1000596a:	0021      	movs	r1, r4
1000596c:	0028      	movs	r0, r5
1000596e:	f000 fa03 	bl	10005d78 <tud_control_xfer>
10005972:	2001      	movs	r0, #1
10005974:	e73b      	b.n	100057ee <process_control_request+0x3a>
10005976:	7923      	ldrb	r3, [r4, #4]
10005978:	2b0f      	cmp	r3, #15
1000597a:	d900      	bls.n	1000597e <process_control_request+0x1ca>
1000597c:	e0bd      	b.n	10005afa <process_control_request+0x346>
1000597e:	4a67      	ldr	r2, [pc, #412]	; (10005b1c <process_control_request+0x368>)
10005980:	18d3      	adds	r3, r2, r3
10005982:	78d9      	ldrb	r1, [r3, #3]
10005984:	4b66      	ldr	r3, [pc, #408]	; (10005b20 <process_control_request+0x36c>)
10005986:	2b00      	cmp	r3, #0
10005988:	d005      	beq.n	10005996 <process_control_request+0x1e2>
1000598a:	4b66      	ldr	r3, [pc, #408]	; (10005b24 <process_control_request+0x370>)
1000598c:	781b      	ldrb	r3, [r3, #0]
1000598e:	4299      	cmp	r1, r3
10005990:	d328      	bcc.n	100059e4 <process_control_request+0x230>
10005992:	1ac9      	subs	r1, r1, r3
10005994:	b2c9      	uxtb	r1, r1
10005996:	2900      	cmp	r1, #0
10005998:	d000      	beq.n	1000599c <process_control_request+0x1e8>
1000599a:	e0b0      	b.n	10005afe <process_control_request+0x34a>
1000599c:	004b      	lsls	r3, r1, #1
1000599e:	185b      	adds	r3, r3, r1
100059a0:	00db      	lsls	r3, r3, #3
100059a2:	4961      	ldr	r1, [pc, #388]	; (10005b28 <process_control_request+0x374>)
100059a4:	18c9      	adds	r1, r1, r3
100059a6:	2900      	cmp	r1, #0
100059a8:	d100      	bne.n	100059ac <process_control_request+0x1f8>
100059aa:	e0aa      	b.n	10005b02 <process_control_request+0x34e>
100059ac:	0022      	movs	r2, r4
100059ae:	0028      	movs	r0, r5
100059b0:	f7ff fc2c 	bl	1000520c <invoke_class_control>
100059b4:	2800      	cmp	r0, #0
100059b6:	d000      	beq.n	100059ba <process_control_request+0x206>
100059b8:	e719      	b.n	100057ee <process_control_request+0x3a>
100059ba:	7823      	ldrb	r3, [r4, #0]
100059bc:	2260      	movs	r2, #96	; 0x60
100059be:	421a      	tst	r2, r3
100059c0:	d000      	beq.n	100059c4 <process_control_request+0x210>
100059c2:	e714      	b.n	100057ee <process_control_request+0x3a>
100059c4:	7863      	ldrb	r3, [r4, #1]
100059c6:	3b0a      	subs	r3, #10
100059c8:	2b01      	cmp	r3, #1
100059ca:	d900      	bls.n	100059ce <process_control_request+0x21a>
100059cc:	e70f      	b.n	100057ee <process_control_request+0x3a>
100059ce:	f000 fa17 	bl	10005e00 <usbd_control_set_complete_callback>
100059d2:	7863      	ldrb	r3, [r4, #1]
100059d4:	2b0a      	cmp	r3, #10
100059d6:	d00c      	beq.n	100059f2 <process_control_request+0x23e>
100059d8:	0021      	movs	r1, r4
100059da:	0028      	movs	r0, r5
100059dc:	f000 f9b0 	bl	10005d40 <tud_control_status>
100059e0:	2001      	movs	r0, #1
100059e2:	e704      	b.n	100057ee <process_control_request+0x3a>
100059e4:	004b      	lsls	r3, r1, #1
100059e6:	185b      	adds	r3, r3, r1
100059e8:	00db      	lsls	r3, r3, #3
100059ea:	4a50      	ldr	r2, [pc, #320]	; (10005b2c <process_control_request+0x378>)
100059ec:	6811      	ldr	r1, [r2, #0]
100059ee:	18c9      	adds	r1, r1, r3
100059f0:	e7d9      	b.n	100059a6 <process_control_request+0x1f2>
100059f2:	466b      	mov	r3, sp
100059f4:	1d9a      	adds	r2, r3, #6
100059f6:	2300      	movs	r3, #0
100059f8:	7013      	strb	r3, [r2, #0]
100059fa:	3301      	adds	r3, #1
100059fc:	0021      	movs	r1, r4
100059fe:	0028      	movs	r0, r5
10005a00:	f000 f9ba 	bl	10005d78 <tud_control_xfer>
10005a04:	2001      	movs	r0, #1
10005a06:	e6f2      	b.n	100057ee <process_control_request+0x3a>
10005a08:	7921      	ldrb	r1, [r4, #4]
10005a0a:	227f      	movs	r2, #127	; 0x7f
10005a0c:	400a      	ands	r2, r1
10005a0e:	09ce      	lsrs	r6, r1, #7
10005a10:	2070      	movs	r0, #112	; 0x70
10005a12:	4208      	tst	r0, r1
10005a14:	d177      	bne.n	10005b06 <process_control_request+0x352>
10005a16:	0052      	lsls	r2, r2, #1
10005a18:	4840      	ldr	r0, [pc, #256]	; (10005b1c <process_control_request+0x368>)
10005a1a:	1882      	adds	r2, r0, r2
10005a1c:	1992      	adds	r2, r2, r6
10005a1e:	7cd2      	ldrb	r2, [r2, #19]
10005a20:	483f      	ldr	r0, [pc, #252]	; (10005b20 <process_control_request+0x36c>)
10005a22:	2800      	cmp	r0, #0
10005a24:	d005      	beq.n	10005a32 <process_control_request+0x27e>
10005a26:	483f      	ldr	r0, [pc, #252]	; (10005b24 <process_control_request+0x370>)
10005a28:	7800      	ldrb	r0, [r0, #0]
10005a2a:	4282      	cmp	r2, r0
10005a2c:	d312      	bcc.n	10005a54 <process_control_request+0x2a0>
10005a2e:	1a12      	subs	r2, r2, r0
10005a30:	b2d2      	uxtb	r2, r2
10005a32:	2a00      	cmp	r2, #0
10005a34:	d115      	bne.n	10005a62 <process_control_request+0x2ae>
10005a36:	0056      	lsls	r6, r2, #1
10005a38:	18b2      	adds	r2, r6, r2
10005a3a:	00d2      	lsls	r2, r2, #3
10005a3c:	4e3a      	ldr	r6, [pc, #232]	; (10005b28 <process_control_request+0x374>)
10005a3e:	18b6      	adds	r6, r6, r2
10005a40:	2b00      	cmp	r3, #0
10005a42:	d010      	beq.n	10005a66 <process_control_request+0x2b2>
10005a44:	2e00      	cmp	r6, #0
10005a46:	d060      	beq.n	10005b0a <process_control_request+0x356>
10005a48:	0022      	movs	r2, r4
10005a4a:	0031      	movs	r1, r6
10005a4c:	0028      	movs	r0, r5
10005a4e:	f7ff fbdd 	bl	1000520c <invoke_class_control>
10005a52:	e6cc      	b.n	100057ee <process_control_request+0x3a>
10005a54:	0056      	lsls	r6, r2, #1
10005a56:	18b2      	adds	r2, r6, r2
10005a58:	00d2      	lsls	r2, r2, #3
10005a5a:	4834      	ldr	r0, [pc, #208]	; (10005b2c <process_control_request+0x378>)
10005a5c:	6806      	ldr	r6, [r0, #0]
10005a5e:	18b6      	adds	r6, r6, r2
10005a60:	e7ee      	b.n	10005a40 <process_control_request+0x28c>
10005a62:	2600      	movs	r6, #0
10005a64:	e7ec      	b.n	10005a40 <process_control_request+0x28c>
10005a66:	7863      	ldrb	r3, [r4, #1]
10005a68:	2b01      	cmp	r3, #1
10005a6a:	d012      	beq.n	10005a92 <process_control_request+0x2de>
10005a6c:	2b03      	cmp	r3, #3
10005a6e:	d010      	beq.n	10005a92 <process_control_request+0x2de>
10005a70:	2b00      	cmp	r3, #0
10005a72:	d001      	beq.n	10005a78 <process_control_request+0x2c4>
10005a74:	2000      	movs	r0, #0
10005a76:	e6ba      	b.n	100057ee <process_control_request+0x3a>
10005a78:	0028      	movs	r0, r5
10005a7a:	f7ff fe8d 	bl	10005798 <usbd_edpt_stalled>
10005a7e:	466b      	mov	r3, sp
10005a80:	1d9a      	adds	r2, r3, #6
10005a82:	8010      	strh	r0, [r2, #0]
10005a84:	2302      	movs	r3, #2
10005a86:	0021      	movs	r1, r4
10005a88:	0028      	movs	r0, r5
10005a8a:	f000 f975 	bl	10005d78 <tud_control_xfer>
10005a8e:	2001      	movs	r0, #1
10005a90:	e6ad      	b.n	100057ee <process_control_request+0x3a>
10005a92:	78a7      	ldrb	r7, [r4, #2]
10005a94:	78e2      	ldrb	r2, [r4, #3]
10005a96:	0212      	lsls	r2, r2, #8
10005a98:	433a      	orrs	r2, r7
10005a9a:	d104      	bne.n	10005aa6 <process_control_request+0x2f2>
10005a9c:	2b01      	cmp	r3, #1
10005a9e:	d01a      	beq.n	10005ad6 <process_control_request+0x322>
10005aa0:	0028      	movs	r0, r5
10005aa2:	f7ff fe31 	bl	10005708 <usbd_edpt_stall>
10005aa6:	2e00      	cmp	r6, #0
10005aa8:	d031      	beq.n	10005b0e <process_control_request+0x35a>
10005aaa:	0022      	movs	r2, r4
10005aac:	0031      	movs	r1, r6
10005aae:	0028      	movs	r0, r5
10005ab0:	f7ff fbac 	bl	1000520c <invoke_class_control>
10005ab4:	2000      	movs	r0, #0
10005ab6:	f000 f9a3 	bl	10005e00 <usbd_control_set_complete_callback>
10005aba:	4a18      	ldr	r2, [pc, #96]	; (10005b1c <process_control_request+0x368>)
10005abc:	2334      	movs	r3, #52	; 0x34
10005abe:	5cd3      	ldrb	r3, [r2, r3]
10005ac0:	07db      	lsls	r3, r3, #31
10005ac2:	0fd8      	lsrs	r0, r3, #31
10005ac4:	2b00      	cmp	r3, #0
10005ac6:	d000      	beq.n	10005aca <process_control_request+0x316>
10005ac8:	e691      	b.n	100057ee <process_control_request+0x3a>
10005aca:	0021      	movs	r1, r4
10005acc:	0028      	movs	r0, r5
10005ace:	f000 f937 	bl	10005d40 <tud_control_status>
10005ad2:	2001      	movs	r0, #1
10005ad4:	e68b      	b.n	100057ee <process_control_request+0x3a>
10005ad6:	0028      	movs	r0, r5
10005ad8:	f7ff fe3a 	bl	10005750 <usbd_edpt_clear_stall>
10005adc:	e7e3      	b.n	10005aa6 <process_control_request+0x2f2>
10005ade:	2000      	movs	r0, #0
10005ae0:	e685      	b.n	100057ee <process_control_request+0x3a>
10005ae2:	2000      	movs	r0, #0
10005ae4:	e683      	b.n	100057ee <process_control_request+0x3a>
10005ae6:	2000      	movs	r0, #0
10005ae8:	e681      	b.n	100057ee <process_control_request+0x3a>
10005aea:	2000      	movs	r0, #0
10005aec:	e67f      	b.n	100057ee <process_control_request+0x3a>
10005aee:	2000      	movs	r0, #0
10005af0:	e67d      	b.n	100057ee <process_control_request+0x3a>
10005af2:	2000      	movs	r0, #0
10005af4:	e67b      	b.n	100057ee <process_control_request+0x3a>
10005af6:	2000      	movs	r0, #0
10005af8:	e679      	b.n	100057ee <process_control_request+0x3a>
10005afa:	2000      	movs	r0, #0
10005afc:	e677      	b.n	100057ee <process_control_request+0x3a>
10005afe:	2000      	movs	r0, #0
10005b00:	e675      	b.n	100057ee <process_control_request+0x3a>
10005b02:	2000      	movs	r0, #0
10005b04:	e673      	b.n	100057ee <process_control_request+0x3a>
10005b06:	2000      	movs	r0, #0
10005b08:	e671      	b.n	100057ee <process_control_request+0x3a>
10005b0a:	2000      	movs	r0, #0
10005b0c:	e66f      	b.n	100057ee <process_control_request+0x3a>
10005b0e:	2001      	movs	r0, #1
10005b10:	e66d      	b.n	100057ee <process_control_request+0x3a>
10005b12:	46c0      	nop			; (mov r8, r8)
10005b14:	00000000 	.word	0x00000000
10005b18:	10008660 	.word	0x10008660
10005b1c:	20001114 	.word	0x20001114
10005b20:	1000480d 	.word	0x1000480d
10005b24:	20001a51 	.word	0x20001a51
10005b28:	100086ac 	.word	0x100086ac
10005b2c:	20000dec 	.word	0x20000dec

10005b30 <tud_task_ext>:
10005b30:	b530      	push	{r4, r5, lr}
10005b32:	b085      	sub	sp, #20
10005b34:	f000 fce9 	bl	1000650a <tusb_inited>
10005b38:	2800      	cmp	r0, #0
10005b3a:	d108      	bne.n	10005b4e <tud_task_ext+0x1e>
10005b3c:	b005      	add	sp, #20
10005b3e:	bd30      	pop	{r4, r5, pc}
10005b40:	ac01      	add	r4, sp, #4
10005b42:	7820      	ldrb	r0, [r4, #0]
10005b44:	f7ff fb5c 	bl	10005200 <usbd_reset>
10005b48:	7922      	ldrb	r2, [r4, #4]
10005b4a:	4b5d      	ldr	r3, [pc, #372]	; (10005cc0 <tud_task_ext+0x190>)
10005b4c:	709a      	strb	r2, [r3, #2]
10005b4e:	4b5d      	ldr	r3, [pc, #372]	; (10005cc4 <tud_task_ext+0x194>)
10005b50:	681c      	ldr	r4, [r3, #0]
10005b52:	0021      	movs	r1, r4
10005b54:	3114      	adds	r1, #20
10005b56:	6962      	ldr	r2, [r4, #20]
10005b58:	f3ef 8010 	mrs	r0, PRIMASK
10005b5c:	b672      	cpsid	i
10005b5e:	6813      	ldr	r3, [r2, #0]
10005b60:	2b00      	cmp	r3, #0
10005b62:	d0fc      	beq.n	10005b5e <tud_task_ext+0x2e>
10005b64:	f3bf 8f5f 	dmb	sy
10005b68:	6048      	str	r0, [r1, #4]
10005b6a:	a901      	add	r1, sp, #4
10005b6c:	0020      	movs	r0, r4
10005b6e:	f001 f84d 	bl	10006c0c <tu_fifo_read>
10005b72:	6962      	ldr	r2, [r4, #20]
10005b74:	69a3      	ldr	r3, [r4, #24]
10005b76:	f3bf 8f5f 	dmb	sy
10005b7a:	2100      	movs	r1, #0
10005b7c:	6011      	str	r1, [r2, #0]
10005b7e:	f383 8810 	msr	PRIMASK, r3
10005b82:	2800      	cmp	r0, #0
10005b84:	d0da      	beq.n	10005b3c <tud_task_ext+0xc>
10005b86:	ab01      	add	r3, sp, #4
10005b88:	785b      	ldrb	r3, [r3, #1]
10005b8a:	2b08      	cmp	r3, #8
10005b8c:	d8df      	bhi.n	10005b4e <tud_task_ext+0x1e>
10005b8e:	009b      	lsls	r3, r3, #2
10005b90:	4a4d      	ldr	r2, [pc, #308]	; (10005cc8 <tud_task_ext+0x198>)
10005b92:	58d3      	ldr	r3, [r2, r3]
10005b94:	469f      	mov	pc, r3
10005b96:	ab01      	add	r3, sp, #4
10005b98:	7818      	ldrb	r0, [r3, #0]
10005b9a:	f7ff fb31 	bl	10005200 <usbd_reset>
10005b9e:	4b4b      	ldr	r3, [pc, #300]	; (10005ccc <tud_task_ext+0x19c>)
10005ba0:	2b00      	cmp	r3, #0
10005ba2:	d0d4      	beq.n	10005b4e <tud_task_ext+0x1e>
10005ba4:	e000      	b.n	10005ba8 <tud_task_ext+0x78>
10005ba6:	bf00      	nop
10005ba8:	e7d1      	b.n	10005b4e <tud_task_ext+0x1e>
10005baa:	4b45      	ldr	r3, [pc, #276]	; (10005cc0 <tud_task_ext+0x190>)
10005bac:	781a      	ldrb	r2, [r3, #0]
10005bae:	2401      	movs	r4, #1
10005bb0:	2101      	movs	r1, #1
10005bb2:	430a      	orrs	r2, r1
10005bb4:	701a      	strb	r2, [r3, #0]
10005bb6:	2233      	movs	r2, #51	; 0x33
10005bb8:	5c99      	ldrb	r1, [r3, r2]
10005bba:	43a1      	bics	r1, r4
10005bbc:	5499      	strb	r1, [r3, r2]
10005bbe:	5c99      	ldrb	r1, [r3, r2]
10005bc0:	2004      	movs	r0, #4
10005bc2:	4381      	bics	r1, r0
10005bc4:	5499      	strb	r1, [r3, r2]
10005bc6:	3201      	adds	r2, #1
10005bc8:	5c99      	ldrb	r1, [r3, r2]
10005bca:	43a1      	bics	r1, r4
10005bcc:	5499      	strb	r1, [r3, r2]
10005bce:	5c99      	ldrb	r1, [r3, r2]
10005bd0:	4381      	bics	r1, r0
10005bd2:	5499      	strb	r1, [r3, r2]
10005bd4:	ab01      	add	r3, sp, #4
10005bd6:	7818      	ldrb	r0, [r3, #0]
10005bd8:	a902      	add	r1, sp, #8
10005bda:	f7ff fdeb 	bl	100057b4 <process_control_request>
10005bde:	2800      	cmp	r0, #0
10005be0:	d1b5      	bne.n	10005b4e <tud_task_ext+0x1e>
10005be2:	ac01      	add	r4, sp, #4
10005be4:	7820      	ldrb	r0, [r4, #0]
10005be6:	2100      	movs	r1, #0
10005be8:	f7ff fa54 	bl	10005094 <dcd_edpt_stall>
10005bec:	7820      	ldrb	r0, [r4, #0]
10005bee:	2180      	movs	r1, #128	; 0x80
10005bf0:	f7ff fa50 	bl	10005094 <dcd_edpt_stall>
10005bf4:	e7ab      	b.n	10005b4e <tud_task_ext+0x1e>
10005bf6:	ab01      	add	r3, sp, #4
10005bf8:	7919      	ldrb	r1, [r3, #4]
10005bfa:	227f      	movs	r2, #127	; 0x7f
10005bfc:	400a      	ands	r2, r1
10005bfe:	09cc      	lsrs	r4, r1, #7
10005c00:	0050      	lsls	r0, r2, #1
10005c02:	4b2f      	ldr	r3, [pc, #188]	; (10005cc0 <tud_task_ext+0x190>)
10005c04:	181b      	adds	r3, r3, r0
10005c06:	191b      	adds	r3, r3, r4
10005c08:	3330      	adds	r3, #48	; 0x30
10005c0a:	78d8      	ldrb	r0, [r3, #3]
10005c0c:	2501      	movs	r5, #1
10005c0e:	43a8      	bics	r0, r5
10005c10:	70d8      	strb	r0, [r3, #3]
10005c12:	78d8      	ldrb	r0, [r3, #3]
10005c14:	3503      	adds	r5, #3
10005c16:	43a8      	bics	r0, r5
10005c18:	70d8      	strb	r0, [r3, #3]
10005c1a:	2a00      	cmp	r2, #0
10005c1c:	d01f      	beq.n	10005c5e <tud_task_ext+0x12e>
10005c1e:	0052      	lsls	r2, r2, #1
10005c20:	4b27      	ldr	r3, [pc, #156]	; (10005cc0 <tud_task_ext+0x190>)
10005c22:	189a      	adds	r2, r3, r2
10005c24:	1912      	adds	r2, r2, r4
10005c26:	7cd3      	ldrb	r3, [r2, #19]
10005c28:	4a29      	ldr	r2, [pc, #164]	; (10005cd0 <tud_task_ext+0x1a0>)
10005c2a:	2a00      	cmp	r2, #0
10005c2c:	d005      	beq.n	10005c3a <tud_task_ext+0x10a>
10005c2e:	4a29      	ldr	r2, [pc, #164]	; (10005cd4 <tud_task_ext+0x1a4>)
10005c30:	7812      	ldrb	r2, [r2, #0]
10005c32:	4293      	cmp	r3, r2
10005c34:	d31a      	bcc.n	10005c6c <tud_task_ext+0x13c>
10005c36:	1a9b      	subs	r3, r3, r2
10005c38:	b2db      	uxtb	r3, r3
10005c3a:	2b00      	cmp	r3, #0
10005c3c:	d000      	beq.n	10005c40 <tud_task_ext+0x110>
10005c3e:	e77d      	b.n	10005b3c <tud_task_ext+0xc>
10005c40:	005a      	lsls	r2, r3, #1
10005c42:	18d2      	adds	r2, r2, r3
10005c44:	00d2      	lsls	r2, r2, #3
10005c46:	4b24      	ldr	r3, [pc, #144]	; (10005cd8 <tud_task_ext+0x1a8>)
10005c48:	189b      	adds	r3, r3, r2
10005c4a:	2b00      	cmp	r3, #0
10005c4c:	d100      	bne.n	10005c50 <tud_task_ext+0x120>
10005c4e:	e775      	b.n	10005b3c <tud_task_ext+0xc>
10005c50:	691c      	ldr	r4, [r3, #16]
10005c52:	a801      	add	r0, sp, #4
10005c54:	7942      	ldrb	r2, [r0, #5]
10005c56:	9b03      	ldr	r3, [sp, #12]
10005c58:	7800      	ldrb	r0, [r0, #0]
10005c5a:	47a0      	blx	r4
10005c5c:	e777      	b.n	10005b4e <tud_task_ext+0x1e>
10005c5e:	a801      	add	r0, sp, #4
10005c60:	7942      	ldrb	r2, [r0, #5]
10005c62:	9b03      	ldr	r3, [sp, #12]
10005c64:	7800      	ldrb	r0, [r0, #0]
10005c66:	f000 f8df 	bl	10005e28 <usbd_control_xfer_cb>
10005c6a:	e770      	b.n	10005b4e <tud_task_ext+0x1e>
10005c6c:	005a      	lsls	r2, r3, #1
10005c6e:	18d2      	adds	r2, r2, r3
10005c70:	00d2      	lsls	r2, r2, #3
10005c72:	4b1a      	ldr	r3, [pc, #104]	; (10005cdc <tud_task_ext+0x1ac>)
10005c74:	681b      	ldr	r3, [r3, #0]
10005c76:	189b      	adds	r3, r3, r2
10005c78:	e7e7      	b.n	10005c4a <tud_task_ext+0x11a>
10005c7a:	4b11      	ldr	r3, [pc, #68]	; (10005cc0 <tud_task_ext+0x190>)
10005c7c:	781b      	ldrb	r3, [r3, #0]
10005c7e:	07db      	lsls	r3, r3, #31
10005c80:	d400      	bmi.n	10005c84 <tud_task_ext+0x154>
10005c82:	e764      	b.n	10005b4e <tud_task_ext+0x1e>
10005c84:	4b16      	ldr	r3, [pc, #88]	; (10005ce0 <tud_task_ext+0x1b0>)
10005c86:	2b00      	cmp	r3, #0
10005c88:	d100      	bne.n	10005c8c <tud_task_ext+0x15c>
10005c8a:	e760      	b.n	10005b4e <tud_task_ext+0x1e>
10005c8c:	4b0c      	ldr	r3, [pc, #48]	; (10005cc0 <tud_task_ext+0x190>)
10005c8e:	7818      	ldrb	r0, [r3, #0]
10005c90:	0700      	lsls	r0, r0, #28
10005c92:	0fc0      	lsrs	r0, r0, #31
10005c94:	e000      	b.n	10005c98 <tud_task_ext+0x168>
10005c96:	bf00      	nop
10005c98:	e759      	b.n	10005b4e <tud_task_ext+0x1e>
10005c9a:	4b09      	ldr	r3, [pc, #36]	; (10005cc0 <tud_task_ext+0x190>)
10005c9c:	781b      	ldrb	r3, [r3, #0]
10005c9e:	07db      	lsls	r3, r3, #31
10005ca0:	d400      	bmi.n	10005ca4 <tud_task_ext+0x174>
10005ca2:	e754      	b.n	10005b4e <tud_task_ext+0x1e>
10005ca4:	4b0f      	ldr	r3, [pc, #60]	; (10005ce4 <tud_task_ext+0x1b4>)
10005ca6:	2b00      	cmp	r3, #0
10005ca8:	d100      	bne.n	10005cac <tud_task_ext+0x17c>
10005caa:	e750      	b.n	10005b4e <tud_task_ext+0x1e>
10005cac:	e000      	b.n	10005cb0 <tud_task_ext+0x180>
10005cae:	bf00      	nop
10005cb0:	e74d      	b.n	10005b4e <tud_task_ext+0x1e>
10005cb2:	9b02      	ldr	r3, [sp, #8]
10005cb4:	2b00      	cmp	r3, #0
10005cb6:	d100      	bne.n	10005cba <tud_task_ext+0x18a>
10005cb8:	e749      	b.n	10005b4e <tud_task_ext+0x1e>
10005cba:	9803      	ldr	r0, [sp, #12]
10005cbc:	4798      	blx	r3
10005cbe:	e746      	b.n	10005b4e <tud_task_ext+0x1e>
10005cc0:	20001114 	.word	0x20001114
10005cc4:	2000116c 	.word	0x2000116c
10005cc8:	10008688 	.word	0x10008688
10005ccc:	00000000 	.word	0x00000000
10005cd0:	1000480d 	.word	0x1000480d
10005cd4:	20001a51 	.word	0x20001a51
10005cd8:	100086ac 	.word	0x100086ac
10005cdc:	20000dec 	.word	0x20000dec
	...

10005ce8 <_data_stage_xact>:
10005ce8:	b5f8      	push	{r3, r4, r5, r6, r7, lr}
10005cea:	0005      	movs	r5, r0
10005cec:	4b12      	ldr	r3, [pc, #72]	; (10005d38 <_data_stage_xact+0x50>)
10005cee:	899f      	ldrh	r7, [r3, #12]
10005cf0:	89de      	ldrh	r6, [r3, #14]
10005cf2:	1bb9      	subs	r1, r7, r6
10005cf4:	b289      	uxth	r1, r1
10005cf6:	1c0b      	adds	r3, r1, #0
10005cf8:	2940      	cmp	r1, #64	; 0x40
10005cfa:	d900      	bls.n	10005cfe <_data_stage_xact+0x16>
10005cfc:	2340      	movs	r3, #64	; 0x40
10005cfe:	b29c      	uxth	r4, r3
10005d00:	4b0d      	ldr	r3, [pc, #52]	; (10005d38 <_data_stage_xact+0x50>)
10005d02:	781b      	ldrb	r3, [r3, #0]
10005d04:	b25b      	sxtb	r3, r3
10005d06:	2b00      	cmp	r3, #0
10005d08:	db08      	blt.n	10005d1c <_data_stage_xact+0x34>
10005d0a:	2100      	movs	r1, #0
10005d0c:	42b7      	cmp	r7, r6
10005d0e:	d011      	beq.n	10005d34 <_data_stage_xact+0x4c>
10005d10:	4a0a      	ldr	r2, [pc, #40]	; (10005d3c <_data_stage_xact+0x54>)
10005d12:	0023      	movs	r3, r4
10005d14:	0028      	movs	r0, r5
10005d16:	f7ff fcbb 	bl	10005690 <usbd_edpt_xfer>
10005d1a:	bdf8      	pop	{r3, r4, r5, r6, r7, pc}
10005d1c:	42b7      	cmp	r7, r6
10005d1e:	d101      	bne.n	10005d24 <_data_stage_xact+0x3c>
10005d20:	2180      	movs	r1, #128	; 0x80
10005d22:	e7f3      	b.n	10005d0c <_data_stage_xact+0x24>
10005d24:	4b04      	ldr	r3, [pc, #16]	; (10005d38 <_data_stage_xact+0x50>)
10005d26:	6899      	ldr	r1, [r3, #8]
10005d28:	0022      	movs	r2, r4
10005d2a:	4804      	ldr	r0, [pc, #16]	; (10005d3c <_data_stage_xact+0x54>)
10005d2c:	f7fe fa9a 	bl	10004264 <__wrap___aeabi_memcpy>
10005d30:	2180      	movs	r1, #128	; 0x80
10005d32:	e7eb      	b.n	10005d0c <_data_stage_xact+0x24>
10005d34:	2200      	movs	r2, #0
10005d36:	e7ec      	b.n	10005d12 <_data_stage_xact+0x2a>
10005d38:	200010b8 	.word	0x200010b8
10005d3c:	200010d4 	.word	0x200010d4

10005d40 <tud_control_status>:
10005d40:	b570      	push	{r4, r5, r6, lr}
10005d42:	0006      	movs	r6, r0
10005d44:	000c      	movs	r4, r1
10005d46:	4d0b      	ldr	r5, [pc, #44]	; (10005d74 <tud_control_status+0x34>)
10005d48:	2208      	movs	r2, #8
10005d4a:	0028      	movs	r0, r5
10005d4c:	f7fe fa8a 	bl	10004264 <__wrap___aeabi_memcpy>
10005d50:	2300      	movs	r3, #0
10005d52:	60ab      	str	r3, [r5, #8]
10005d54:	81eb      	strh	r3, [r5, #14]
10005d56:	81ab      	strh	r3, [r5, #12]
10005d58:	2300      	movs	r3, #0
10005d5a:	56e3      	ldrsb	r3, [r4, r3]
10005d5c:	2b00      	cmp	r3, #0
10005d5e:	db06      	blt.n	10005d6e <tud_control_status+0x2e>
10005d60:	2180      	movs	r1, #128	; 0x80
10005d62:	2300      	movs	r3, #0
10005d64:	2200      	movs	r2, #0
10005d66:	0030      	movs	r0, r6
10005d68:	f7ff fc92 	bl	10005690 <usbd_edpt_xfer>
10005d6c:	bd70      	pop	{r4, r5, r6, pc}
10005d6e:	2100      	movs	r1, #0
10005d70:	e7f7      	b.n	10005d62 <tud_control_status+0x22>
10005d72:	46c0      	nop			; (mov r8, r8)
10005d74:	200010b8 	.word	0x200010b8

10005d78 <tud_control_xfer>:
10005d78:	b5f0      	push	{r4, r5, r6, r7, lr}
10005d7a:	46c6      	mov	lr, r8
10005d7c:	b500      	push	{lr}
10005d7e:	4680      	mov	r8, r0
10005d80:	000c      	movs	r4, r1
10005d82:	0016      	movs	r6, r2
10005d84:	001d      	movs	r5, r3
10005d86:	4f18      	ldr	r7, [pc, #96]	; (10005de8 <tud_control_xfer+0x70>)
10005d88:	2208      	movs	r2, #8
10005d8a:	0038      	movs	r0, r7
10005d8c:	f7fe fa6a 	bl	10004264 <__wrap___aeabi_memcpy>
10005d90:	60be      	str	r6, [r7, #8]
10005d92:	2300      	movs	r3, #0
10005d94:	81fb      	strh	r3, [r7, #14]
10005d96:	79a3      	ldrb	r3, [r4, #6]
10005d98:	79e1      	ldrb	r1, [r4, #7]
10005d9a:	0209      	lsls	r1, r1, #8
10005d9c:	4319      	orrs	r1, r3
10005d9e:	1c0b      	adds	r3, r1, #0
10005da0:	42a9      	cmp	r1, r5
10005da2:	d900      	bls.n	10005da6 <tud_control_xfer+0x2e>
10005da4:	1c2b      	adds	r3, r5, #0
10005da6:	b299      	uxth	r1, r3
10005da8:	4a0f      	ldr	r2, [pc, #60]	; (10005de8 <tud_control_xfer+0x70>)
10005daa:	8193      	strh	r3, [r2, #12]
10005dac:	79a2      	ldrb	r2, [r4, #6]
10005dae:	79e3      	ldrb	r3, [r4, #7]
10005db0:	021b      	lsls	r3, r3, #8
10005db2:	4313      	orrs	r3, r2
10005db4:	d009      	beq.n	10005dca <tud_control_xfer+0x52>
10005db6:	2900      	cmp	r1, #0
10005db8:	d001      	beq.n	10005dbe <tud_control_xfer+0x46>
10005dba:	2e00      	cmp	r6, #0
10005dbc:	d012      	beq.n	10005de4 <tud_control_xfer+0x6c>
10005dbe:	4640      	mov	r0, r8
10005dc0:	f7ff ff92 	bl	10005ce8 <_data_stage_xact>
10005dc4:	bc80      	pop	{r7}
10005dc6:	46b8      	mov	r8, r7
10005dc8:	bdf0      	pop	{r4, r5, r6, r7, pc}
10005dca:	2300      	movs	r3, #0
10005dcc:	56e3      	ldrsb	r3, [r4, r3]
10005dce:	2b00      	cmp	r3, #0
10005dd0:	db06      	blt.n	10005de0 <tud_control_xfer+0x68>
10005dd2:	2180      	movs	r1, #128	; 0x80
10005dd4:	2300      	movs	r3, #0
10005dd6:	2200      	movs	r2, #0
10005dd8:	4640      	mov	r0, r8
10005dda:	f7ff fc59 	bl	10005690 <usbd_edpt_xfer>
10005dde:	e7f1      	b.n	10005dc4 <tud_control_xfer+0x4c>
10005de0:	2100      	movs	r1, #0
10005de2:	e7f7      	b.n	10005dd4 <tud_control_xfer+0x5c>
10005de4:	2000      	movs	r0, #0
10005de6:	e7ed      	b.n	10005dc4 <tud_control_xfer+0x4c>
10005de8:	200010b8 	.word	0x200010b8

10005dec <usbd_control_reset>:
10005dec:	b510      	push	{r4, lr}
10005dee:	2214      	movs	r2, #20
10005df0:	2100      	movs	r1, #0
10005df2:	4802      	ldr	r0, [pc, #8]	; (10005dfc <usbd_control_reset+0x10>)
10005df4:	f7fe fa30 	bl	10004258 <__wrap_memset>
10005df8:	bd10      	pop	{r4, pc}
10005dfa:	46c0      	nop			; (mov r8, r8)
10005dfc:	200010b8 	.word	0x200010b8

10005e00 <usbd_control_set_complete_callback>:
10005e00:	4b01      	ldr	r3, [pc, #4]	; (10005e08 <usbd_control_set_complete_callback+0x8>)
10005e02:	6118      	str	r0, [r3, #16]
10005e04:	4770      	bx	lr
10005e06:	46c0      	nop			; (mov r8, r8)
10005e08:	200010b8 	.word	0x200010b8

10005e0c <usbd_control_set_request>:
10005e0c:	b510      	push	{r4, lr}
10005e0e:	0001      	movs	r1, r0
10005e10:	4c04      	ldr	r4, [pc, #16]	; (10005e24 <usbd_control_set_request+0x18>)
10005e12:	2208      	movs	r2, #8
10005e14:	0020      	movs	r0, r4
10005e16:	f7fe fa25 	bl	10004264 <__wrap___aeabi_memcpy>
10005e1a:	2300      	movs	r3, #0
10005e1c:	60a3      	str	r3, [r4, #8]
10005e1e:	81e3      	strh	r3, [r4, #14]
10005e20:	81a3      	strh	r3, [r4, #12]
10005e22:	bd10      	pop	{r4, pc}
10005e24:	200010b8 	.word	0x200010b8

10005e28 <usbd_control_xfer_cb>:
10005e28:	b570      	push	{r4, r5, r6, lr}
10005e2a:	0005      	movs	r5, r0
10005e2c:	001c      	movs	r4, r3
10005e2e:	09c9      	lsrs	r1, r1, #7
10005e30:	4b2d      	ldr	r3, [pc, #180]	; (10005ee8 <usbd_control_xfer_cb+0xc0>)
10005e32:	781b      	ldrb	r3, [r3, #0]
10005e34:	09db      	lsrs	r3, r3, #7
10005e36:	428b      	cmp	r3, r1
10005e38:	d011      	beq.n	10005e5e <usbd_control_xfer_cb+0x36>
10005e3a:	2c00      	cmp	r4, #0
10005e3c:	d150      	bne.n	10005ee0 <usbd_control_xfer_cb+0xb8>
10005e3e:	4b2b      	ldr	r3, [pc, #172]	; (10005eec <usbd_control_xfer_cb+0xc4>)
10005e40:	2b00      	cmp	r3, #0
10005e42:	d002      	beq.n	10005e4a <usbd_control_xfer_cb+0x22>
10005e44:	4928      	ldr	r1, [pc, #160]	; (10005ee8 <usbd_control_xfer_cb+0xc0>)
10005e46:	f7ff f8d9 	bl	10004ffc <dcd_edpt0_status_complete>
10005e4a:	4b27      	ldr	r3, [pc, #156]	; (10005ee8 <usbd_control_xfer_cb+0xc0>)
10005e4c:	691b      	ldr	r3, [r3, #16]
10005e4e:	2b00      	cmp	r3, #0
10005e50:	d003      	beq.n	10005e5a <usbd_control_xfer_cb+0x32>
10005e52:	4a25      	ldr	r2, [pc, #148]	; (10005ee8 <usbd_control_xfer_cb+0xc0>)
10005e54:	2103      	movs	r1, #3
10005e56:	0028      	movs	r0, r5
10005e58:	4798      	blx	r3
10005e5a:	2001      	movs	r0, #1
10005e5c:	bd70      	pop	{r4, r5, r6, pc}
10005e5e:	4b22      	ldr	r3, [pc, #136]	; (10005ee8 <usbd_control_xfer_cb+0xc0>)
10005e60:	781b      	ldrb	r3, [r3, #0]
10005e62:	b25b      	sxtb	r3, r3
10005e64:	2b00      	cmp	r3, #0
10005e66:	db07      	blt.n	10005e78 <usbd_control_xfer_cb+0x50>
10005e68:	4b1f      	ldr	r3, [pc, #124]	; (10005ee8 <usbd_control_xfer_cb+0xc0>)
10005e6a:	6898      	ldr	r0, [r3, #8]
10005e6c:	2800      	cmp	r0, #0
10005e6e:	d039      	beq.n	10005ee4 <usbd_control_xfer_cb+0xbc>
10005e70:	0022      	movs	r2, r4
10005e72:	491f      	ldr	r1, [pc, #124]	; (10005ef0 <usbd_control_xfer_cb+0xc8>)
10005e74:	f7fe f9f6 	bl	10004264 <__wrap___aeabi_memcpy>
10005e78:	b2a2      	uxth	r2, r4
10005e7a:	491b      	ldr	r1, [pc, #108]	; (10005ee8 <usbd_control_xfer_cb+0xc0>)
10005e7c:	89cb      	ldrh	r3, [r1, #14]
10005e7e:	18d3      	adds	r3, r2, r3
10005e80:	b29b      	uxth	r3, r3
10005e82:	81cb      	strh	r3, [r1, #14]
10005e84:	688a      	ldr	r2, [r1, #8]
10005e86:	1912      	adds	r2, r2, r4
10005e88:	608a      	str	r2, [r1, #8]
10005e8a:	88ca      	ldrh	r2, [r1, #6]
10005e8c:	4293      	cmp	r3, r2
10005e8e:	d001      	beq.n	10005e94 <usbd_control_xfer_cb+0x6c>
10005e90:	2c3f      	cmp	r4, #63	; 0x3f
10005e92:	d821      	bhi.n	10005ed8 <usbd_control_xfer_cb+0xb0>
10005e94:	4b14      	ldr	r3, [pc, #80]	; (10005ee8 <usbd_control_xfer_cb+0xc0>)
10005e96:	691b      	ldr	r3, [r3, #16]
10005e98:	2b00      	cmp	r3, #0
10005e9a:	d005      	beq.n	10005ea8 <usbd_control_xfer_cb+0x80>
10005e9c:	4a12      	ldr	r2, [pc, #72]	; (10005ee8 <usbd_control_xfer_cb+0xc0>)
10005e9e:	2102      	movs	r1, #2
10005ea0:	0028      	movs	r0, r5
10005ea2:	4798      	blx	r3
10005ea4:	2800      	cmp	r0, #0
10005ea6:	d00d      	beq.n	10005ec4 <usbd_control_xfer_cb+0x9c>
10005ea8:	4b0f      	ldr	r3, [pc, #60]	; (10005ee8 <usbd_control_xfer_cb+0xc0>)
10005eaa:	781b      	ldrb	r3, [r3, #0]
10005eac:	b25b      	sxtb	r3, r3
10005eae:	2b00      	cmp	r3, #0
10005eb0:	db06      	blt.n	10005ec0 <usbd_control_xfer_cb+0x98>
10005eb2:	2180      	movs	r1, #128	; 0x80
10005eb4:	2300      	movs	r3, #0
10005eb6:	2200      	movs	r2, #0
10005eb8:	0028      	movs	r0, r5
10005eba:	f7ff fbe9 	bl	10005690 <usbd_edpt_xfer>
10005ebe:	e7cd      	b.n	10005e5c <usbd_control_xfer_cb+0x34>
10005ec0:	2100      	movs	r1, #0
10005ec2:	e7f7      	b.n	10005eb4 <usbd_control_xfer_cb+0x8c>
10005ec4:	2100      	movs	r1, #0
10005ec6:	0028      	movs	r0, r5
10005ec8:	f7ff f8e4 	bl	10005094 <dcd_edpt_stall>
10005ecc:	2180      	movs	r1, #128	; 0x80
10005ece:	0028      	movs	r0, r5
10005ed0:	f7ff f8e0 	bl	10005094 <dcd_edpt_stall>
10005ed4:	2001      	movs	r0, #1
10005ed6:	e7c1      	b.n	10005e5c <usbd_control_xfer_cb+0x34>
10005ed8:	0028      	movs	r0, r5
10005eda:	f7ff ff05 	bl	10005ce8 <_data_stage_xact>
10005ede:	e7bd      	b.n	10005e5c <usbd_control_xfer_cb+0x34>
10005ee0:	2000      	movs	r0, #0
10005ee2:	e7bb      	b.n	10005e5c <usbd_control_xfer_cb+0x34>
10005ee4:	2000      	movs	r0, #0
10005ee6:	e7b9      	b.n	10005e5c <usbd_control_xfer_cb+0x34>
10005ee8:	200010b8 	.word	0x200010b8
10005eec:	10004ffd 	.word	0x10004ffd
10005ef0:	200010d4 	.word	0x200010d4

10005ef4 <_prep_out_transaction>:
10005ef4:	b570      	push	{r4, r5, r6, lr}
10005ef6:	0004      	movs	r4, r0
10005ef8:	0005      	movs	r5, r0
10005efa:	3510      	adds	r5, #16
10005efc:	0028      	movs	r0, r5
10005efe:	f000 fe6f 	bl	10006be0 <tu_fifo_remaining>
10005f02:	283f      	cmp	r0, #63	; 0x3f
10005f04:	d801      	bhi.n	10005f0a <_prep_out_transaction+0x16>
10005f06:	2000      	movs	r0, #0
10005f08:	bd70      	pop	{r4, r5, r6, pc}
10005f0a:	78e1      	ldrb	r1, [r4, #3]
10005f0c:	2000      	movs	r0, #0
10005f0e:	f7ff fb97 	bl	10005640 <usbd_edpt_claim>
10005f12:	2800      	cmp	r0, #0
10005f14:	d0f8      	beq.n	10005f08 <_prep_out_transaction+0x14>
10005f16:	0028      	movs	r0, r5
10005f18:	f000 fe62 	bl	10006be0 <tu_fifo_remaining>
10005f1c:	283f      	cmp	r0, #63	; 0x3f
10005f1e:	d908      	bls.n	10005f32 <_prep_out_transaction+0x3e>
10005f20:	2392      	movs	r3, #146	; 0x92
10005f22:	009b      	lsls	r3, r3, #2
10005f24:	18e2      	adds	r2, r4, r3
10005f26:	78e1      	ldrb	r1, [r4, #3]
10005f28:	2340      	movs	r3, #64	; 0x40
10005f2a:	2000      	movs	r0, #0
10005f2c:	f7ff fbb0 	bl	10005690 <usbd_edpt_xfer>
10005f30:	e7ea      	b.n	10005f08 <_prep_out_transaction+0x14>
10005f32:	78e1      	ldrb	r1, [r4, #3]
10005f34:	2000      	movs	r0, #0
10005f36:	f7ff fb97 	bl	10005668 <usbd_edpt_release>
10005f3a:	2000      	movs	r0, #0
10005f3c:	e7e4      	b.n	10005f08 <_prep_out_transaction+0x14>
	...

10005f40 <tud_cdc_n_connected>:
10005f40:	b510      	push	{r4, lr}
10005f42:	0004      	movs	r4, r0
10005f44:	f7ff fa9a 	bl	1000547c <tud_mounted>
10005f48:	2800      	cmp	r0, #0
10005f4a:	d10c      	bne.n	10005f66 <tud_cdc_n_connected+0x26>
10005f4c:	2200      	movs	r2, #0
10005f4e:	2a00      	cmp	r2, #0
10005f50:	d011      	beq.n	10005f76 <tud_cdc_n_connected+0x36>
10005f52:	23b2      	movs	r3, #178	; 0xb2
10005f54:	009b      	lsls	r3, r3, #2
10005f56:	4363      	muls	r3, r4
10005f58:	4809      	ldr	r0, [pc, #36]	; (10005f80 <tud_cdc_n_connected+0x40>)
10005f5a:	18c0      	adds	r0, r0, r3
10005f5c:	7903      	ldrb	r3, [r0, #4]
10005f5e:	07db      	lsls	r3, r3, #31
10005f60:	d50b      	bpl.n	10005f7a <tud_cdc_n_connected+0x3a>
10005f62:	2001      	movs	r0, #1
10005f64:	e008      	b.n	10005f78 <tud_cdc_n_connected+0x38>
10005f66:	f7ff fa91 	bl	1000548c <tud_suspended>
10005f6a:	2800      	cmp	r0, #0
10005f6c:	d101      	bne.n	10005f72 <tud_cdc_n_connected+0x32>
10005f6e:	2201      	movs	r2, #1
10005f70:	e7ed      	b.n	10005f4e <tud_cdc_n_connected+0xe>
10005f72:	2200      	movs	r2, #0
10005f74:	e7eb      	b.n	10005f4e <tud_cdc_n_connected+0xe>
10005f76:	2000      	movs	r0, #0
10005f78:	bd10      	pop	{r4, pc}
10005f7a:	2000      	movs	r0, #0
10005f7c:	e7fc      	b.n	10005f78 <tud_cdc_n_connected+0x38>
10005f7e:	46c0      	nop			; (mov r8, r8)
10005f80:	20000df0 	.word	0x20000df0

10005f84 <tud_cdc_n_available>:
10005f84:	b510      	push	{r4, lr}
10005f86:	23b2      	movs	r3, #178	; 0xb2
10005f88:	009b      	lsls	r3, r3, #2
10005f8a:	4358      	muls	r0, r3
10005f8c:	3010      	adds	r0, #16
10005f8e:	4b02      	ldr	r3, [pc, #8]	; (10005f98 <tud_cdc_n_available+0x14>)
10005f90:	18c0      	adds	r0, r0, r3
10005f92:	f000 fdf4 	bl	10006b7e <tu_fifo_count>
10005f96:	bd10      	pop	{r4, pc}
10005f98:	20000df0 	.word	0x20000df0

10005f9c <tud_cdc_n_read>:
10005f9c:	b570      	push	{r4, r5, r6, lr}
10005f9e:	23b2      	movs	r3, #178	; 0xb2
10005fa0:	009b      	lsls	r3, r3, #2
10005fa2:	4358      	muls	r0, r3
10005fa4:	4b06      	ldr	r3, [pc, #24]	; (10005fc0 <tud_cdc_n_read+0x24>)
10005fa6:	18c5      	adds	r5, r0, r3
10005fa8:	b292      	uxth	r2, r2
10005faa:	3010      	adds	r0, #16
10005fac:	18c0      	adds	r0, r0, r3
10005fae:	f000 fe4e 	bl	10006c4e <tu_fifo_read_n>
10005fb2:	0004      	movs	r4, r0
10005fb4:	0028      	movs	r0, r5
10005fb6:	f7ff ff9d 	bl	10005ef4 <_prep_out_transaction>
10005fba:	0020      	movs	r0, r4
10005fbc:	bd70      	pop	{r4, r5, r6, pc}
10005fbe:	46c0      	nop			; (mov r8, r8)
10005fc0:	20000df0 	.word	0x20000df0

10005fc4 <tud_cdc_n_write_flush>:
10005fc4:	b570      	push	{r4, r5, r6, lr}
10005fc6:	0005      	movs	r5, r0
10005fc8:	f7ff fa58 	bl	1000547c <tud_mounted>
10005fcc:	2800      	cmp	r0, #0
10005fce:	d104      	bne.n	10005fda <tud_cdc_n_write_flush+0x16>
10005fd0:	2300      	movs	r3, #0
10005fd2:	2b00      	cmp	r3, #0
10005fd4:	d109      	bne.n	10005fea <tud_cdc_n_write_flush+0x26>
10005fd6:	2000      	movs	r0, #0
10005fd8:	bd70      	pop	{r4, r5, r6, pc}
10005fda:	f7ff fa57 	bl	1000548c <tud_suspended>
10005fde:	2800      	cmp	r0, #0
10005fe0:	d101      	bne.n	10005fe6 <tud_cdc_n_write_flush+0x22>
10005fe2:	2301      	movs	r3, #1
10005fe4:	e7f5      	b.n	10005fd2 <tud_cdc_n_write_flush+0xe>
10005fe6:	2300      	movs	r3, #0
10005fe8:	e7f3      	b.n	10005fd2 <tud_cdc_n_write_flush+0xe>
10005fea:	24b2      	movs	r4, #178	; 0xb2
10005fec:	00a4      	lsls	r4, r4, #2
10005fee:	436c      	muls	r4, r5
10005ff0:	3420      	adds	r4, #32
10005ff2:	4b21      	ldr	r3, [pc, #132]	; (10006078 <tud_cdc_n_write_flush+0xb4>)
10005ff4:	18e4      	adds	r4, r4, r3
10005ff6:	3404      	adds	r4, #4
10005ff8:	0020      	movs	r0, r4
10005ffa:	f000 fdc0 	bl	10006b7e <tu_fifo_count>
10005ffe:	2800      	cmp	r0, #0
10006000:	d101      	bne.n	10006006 <tud_cdc_n_write_flush+0x42>
10006002:	2000      	movs	r0, #0
10006004:	e7e8      	b.n	10005fd8 <tud_cdc_n_write_flush+0x14>
10006006:	22b2      	movs	r2, #178	; 0xb2
10006008:	0092      	lsls	r2, r2, #2
1000600a:	436a      	muls	r2, r5
1000600c:	4b1a      	ldr	r3, [pc, #104]	; (10006078 <tud_cdc_n_write_flush+0xb4>)
1000600e:	189b      	adds	r3, r3, r2
10006010:	7899      	ldrb	r1, [r3, #2]
10006012:	2000      	movs	r0, #0
10006014:	f7ff fb14 	bl	10005640 <usbd_edpt_claim>
10006018:	2800      	cmp	r0, #0
1000601a:	d101      	bne.n	10006020 <tud_cdc_n_write_flush+0x5c>
1000601c:	2000      	movs	r0, #0
1000601e:	e7db      	b.n	10005fd8 <tud_cdc_n_write_flush+0x14>
10006020:	26b2      	movs	r6, #178	; 0xb2
10006022:	00b6      	lsls	r6, r6, #2
10006024:	436e      	muls	r6, r5
10006026:	23a2      	movs	r3, #162	; 0xa2
10006028:	009b      	lsls	r3, r3, #2
1000602a:	469c      	mov	ip, r3
1000602c:	4466      	add	r6, ip
1000602e:	4b12      	ldr	r3, [pc, #72]	; (10006078 <tud_cdc_n_write_flush+0xb4>)
10006030:	18f6      	adds	r6, r6, r3
10006032:	2240      	movs	r2, #64	; 0x40
10006034:	0031      	movs	r1, r6
10006036:	0020      	movs	r0, r4
10006038:	f000 fe09 	bl	10006c4e <tu_fifo_read_n>
1000603c:	1e04      	subs	r4, r0, #0
1000603e:	d00e      	beq.n	1000605e <tud_cdc_n_write_flush+0x9a>
10006040:	20b2      	movs	r0, #178	; 0xb2
10006042:	0080      	lsls	r0, r0, #2
10006044:	4368      	muls	r0, r5
10006046:	4d0c      	ldr	r5, [pc, #48]	; (10006078 <tud_cdc_n_write_flush+0xb4>)
10006048:	182d      	adds	r5, r5, r0
1000604a:	78a9      	ldrb	r1, [r5, #2]
1000604c:	0023      	movs	r3, r4
1000604e:	0032      	movs	r2, r6
10006050:	2000      	movs	r0, #0
10006052:	f7ff fb1d 	bl	10005690 <usbd_edpt_xfer>
10006056:	2800      	cmp	r0, #0
10006058:	d00c      	beq.n	10006074 <tud_cdc_n_write_flush+0xb0>
1000605a:	0020      	movs	r0, r4
1000605c:	e7bc      	b.n	10005fd8 <tud_cdc_n_write_flush+0x14>
1000605e:	20b2      	movs	r0, #178	; 0xb2
10006060:	0080      	lsls	r0, r0, #2
10006062:	4368      	muls	r0, r5
10006064:	4d04      	ldr	r5, [pc, #16]	; (10006078 <tud_cdc_n_write_flush+0xb4>)
10006066:	182d      	adds	r5, r5, r0
10006068:	78a9      	ldrb	r1, [r5, #2]
1000606a:	2000      	movs	r0, #0
1000606c:	f7ff fafc 	bl	10005668 <usbd_edpt_release>
10006070:	2000      	movs	r0, #0
10006072:	e7b1      	b.n	10005fd8 <tud_cdc_n_write_flush+0x14>
10006074:	2000      	movs	r0, #0
10006076:	e7af      	b.n	10005fd8 <tud_cdc_n_write_flush+0x14>
10006078:	20000df0 	.word	0x20000df0

1000607c <tud_cdc_n_write>:
1000607c:	b570      	push	{r4, r5, r6, lr}
1000607e:	0005      	movs	r5, r0
10006080:	24b2      	movs	r4, #178	; 0xb2
10006082:	00a4      	lsls	r4, r4, #2
10006084:	4344      	muls	r4, r0
10006086:	3420      	adds	r4, #32
10006088:	4b09      	ldr	r3, [pc, #36]	; (100060b0 <tud_cdc_n_write+0x34>)
1000608a:	18e4      	adds	r4, r4, r3
1000608c:	3404      	adds	r4, #4
1000608e:	b292      	uxth	r2, r2
10006090:	0020      	movs	r0, r4
10006092:	f000 fe13 	bl	10006cbc <tu_fifo_write_n>
10006096:	0006      	movs	r6, r0
10006098:	0020      	movs	r0, r4
1000609a:	f000 fd70 	bl	10006b7e <tu_fifo_count>
1000609e:	283f      	cmp	r0, #63	; 0x3f
100060a0:	d801      	bhi.n	100060a6 <tud_cdc_n_write+0x2a>
100060a2:	0030      	movs	r0, r6
100060a4:	bd70      	pop	{r4, r5, r6, pc}
100060a6:	0028      	movs	r0, r5
100060a8:	f7ff ff8c 	bl	10005fc4 <tud_cdc_n_write_flush>
100060ac:	e7f9      	b.n	100060a2 <tud_cdc_n_write+0x26>
100060ae:	46c0      	nop			; (mov r8, r8)
100060b0:	20000df0 	.word	0x20000df0

100060b4 <tud_cdc_n_write_available>:
100060b4:	b510      	push	{r4, lr}
100060b6:	23b2      	movs	r3, #178	; 0xb2
100060b8:	009b      	lsls	r3, r3, #2
100060ba:	4358      	muls	r0, r3
100060bc:	3020      	adds	r0, #32
100060be:	4b03      	ldr	r3, [pc, #12]	; (100060cc <tud_cdc_n_write_available+0x18>)
100060c0:	18c0      	adds	r0, r0, r3
100060c2:	3004      	adds	r0, #4
100060c4:	f000 fd8c 	bl	10006be0 <tu_fifo_remaining>
100060c8:	bd10      	pop	{r4, pc}
100060ca:	46c0      	nop			; (mov r8, r8)
100060cc:	20000df0 	.word	0x20000df0

100060d0 <cdcd_init>:
100060d0:	b5f0      	push	{r4, r5, r6, r7, lr}
100060d2:	46ce      	mov	lr, r9
100060d4:	4647      	mov	r7, r8
100060d6:	b580      	push	{r7, lr}
100060d8:	b083      	sub	sp, #12
100060da:	22b2      	movs	r2, #178	; 0xb2
100060dc:	0092      	lsls	r2, r2, #2
100060de:	2100      	movs	r1, #0
100060e0:	4828      	ldr	r0, [pc, #160]	; (10006184 <cdcd_init+0xb4>)
100060e2:	f7fe f8b9 	bl	10004258 <__wrap_memset>
100060e6:	2600      	movs	r6, #0
100060e8:	2e00      	cmp	r6, #0
100060ea:	d004      	beq.n	100060f6 <cdcd_init+0x26>
100060ec:	b003      	add	sp, #12
100060ee:	bcc0      	pop	{r6, r7}
100060f0:	46b9      	mov	r9, r7
100060f2:	46b0      	mov	r8, r6
100060f4:	bdf0      	pop	{r4, r5, r6, r7, pc}
100060f6:	4f23      	ldr	r7, [pc, #140]	; (10006184 <cdcd_init+0xb4>)
100060f8:	24b2      	movs	r4, #178	; 0xb2
100060fa:	00a4      	lsls	r4, r4, #2
100060fc:	4374      	muls	r4, r6
100060fe:	193d      	adds	r5, r7, r4
10006100:	23ff      	movs	r3, #255	; 0xff
10006102:	716b      	strb	r3, [r5, #5]
10006104:	2300      	movs	r3, #0
10006106:	4698      	mov	r8, r3
10006108:	4a1f      	ldr	r2, [pc, #124]	; (10006188 <cdcd_init+0xb8>)
1000610a:	80ea      	strh	r2, [r5, #6]
1000610c:	2201      	movs	r2, #1
1000610e:	812a      	strh	r2, [r5, #8]
10006110:	72ab      	strb	r3, [r5, #10]
10006112:	72eb      	strb	r3, [r5, #11]
10006114:	2308      	movs	r3, #8
10006116:	732b      	strb	r3, [r5, #12]
10006118:	0021      	movs	r1, r4
1000611a:	3138      	adds	r1, #56	; 0x38
1000611c:	19c9      	adds	r1, r1, r7
1000611e:	33f8      	adds	r3, #248	; 0xf8
10006120:	4699      	mov	r9, r3
10006122:	0020      	movs	r0, r4
10006124:	3010      	adds	r0, #16
10006126:	19c0      	adds	r0, r0, r7
10006128:	4643      	mov	r3, r8
1000612a:	9300      	str	r3, [sp, #0]
1000612c:	3301      	adds	r3, #1
1000612e:	464a      	mov	r2, r9
10006130:	f000 fce7 	bl	10006b02 <tu_fifo_config>
10006134:	0021      	movs	r1, r4
10006136:	3139      	adds	r1, #57	; 0x39
10006138:	31ff      	adds	r1, #255	; 0xff
1000613a:	19c9      	adds	r1, r1, r7
1000613c:	0020      	movs	r0, r4
1000613e:	3020      	adds	r0, #32
10006140:	19c0      	adds	r0, r0, r7
10006142:	3004      	adds	r0, #4
10006144:	2301      	movs	r3, #1
10006146:	9300      	str	r3, [sp, #0]
10006148:	464a      	mov	r2, r9
1000614a:	f000 fcda 	bl	10006b02 <tu_fifo_config>
1000614e:	238e      	movs	r3, #142	; 0x8e
10006150:	009b      	lsls	r3, r3, #2
10006152:	18e3      	adds	r3, r4, r3
10006154:	4699      	mov	r9, r3
10006156:	44b9      	add	r9, r7
10006158:	4648      	mov	r0, r9
1000615a:	f7fa fe63 	bl	10000e24 <mutex_init>
1000615e:	4643      	mov	r3, r8
10006160:	61eb      	str	r3, [r5, #28]
10006162:	464b      	mov	r3, r9
10006164:	622b      	str	r3, [r5, #32]
10006166:	2390      	movs	r3, #144	; 0x90
10006168:	009b      	lsls	r3, r3, #2
1000616a:	469c      	mov	ip, r3
1000616c:	4464      	add	r4, ip
1000616e:	19e4      	adds	r4, r4, r7
10006170:	0020      	movs	r0, r4
10006172:	f7fa fe57 	bl	10000e24 <mutex_init>
10006176:	632c      	str	r4, [r5, #48]	; 0x30
10006178:	4643      	mov	r3, r8
1000617a:	636b      	str	r3, [r5, #52]	; 0x34
1000617c:	3601      	adds	r6, #1
1000617e:	b2f6      	uxtb	r6, r6
10006180:	e7b2      	b.n	100060e8 <cdcd_init+0x18>
10006182:	46c0      	nop			; (mov r8, r8)
10006184:	20000df0 	.word	0x20000df0
10006188:	ffffc200 	.word	0xffffc200

1000618c <cdcd_reset>:
1000618c:	b570      	push	{r4, r5, r6, lr}
1000618e:	2500      	movs	r5, #0
10006190:	2d00      	cmp	r5, #0
10006192:	d000      	beq.n	10006196 <cdcd_reset+0xa>
10006194:	bd70      	pop	{r4, r5, r6, pc}
10006196:	24b2      	movs	r4, #178	; 0xb2
10006198:	00a4      	lsls	r4, r4, #2
1000619a:	436c      	muls	r4, r5
1000619c:	4e0b      	ldr	r6, [pc, #44]	; (100061cc <cdcd_reset+0x40>)
1000619e:	19a0      	adds	r0, r4, r6
100061a0:	2205      	movs	r2, #5
100061a2:	2100      	movs	r1, #0
100061a4:	f7fe f858 	bl	10004258 <__wrap_memset>
100061a8:	0020      	movs	r0, r4
100061aa:	3010      	adds	r0, #16
100061ac:	1980      	adds	r0, r0, r6
100061ae:	f000 fd8a 	bl	10006cc6 <tu_fifo_clear>
100061b2:	3420      	adds	r4, #32
100061b4:	19a4      	adds	r4, r4, r6
100061b6:	3404      	adds	r4, #4
100061b8:	0020      	movs	r0, r4
100061ba:	f000 fd84 	bl	10006cc6 <tu_fifo_clear>
100061be:	2101      	movs	r1, #1
100061c0:	0020      	movs	r0, r4
100061c2:	f000 fd9f 	bl	10006d04 <tu_fifo_set_overwritable>
100061c6:	3501      	adds	r5, #1
100061c8:	b2ed      	uxtb	r5, r5
100061ca:	e7e1      	b.n	10006190 <cdcd_reset+0x4>
100061cc:	20000df0 	.word	0x20000df0

100061d0 <cdcd_open>:
100061d0:	b5f0      	push	{r4, r5, r6, r7, lr}
100061d2:	b083      	sub	sp, #12
100061d4:	0006      	movs	r6, r0
100061d6:	794b      	ldrb	r3, [r1, #5]
100061d8:	2b02      	cmp	r3, #2
100061da:	d150      	bne.n	1000627e <cdcd_open+0xae>
100061dc:	798b      	ldrb	r3, [r1, #6]
100061de:	2b02      	cmp	r3, #2
100061e0:	d151      	bne.n	10006286 <cdcd_open+0xb6>
100061e2:	2300      	movs	r3, #0
100061e4:	2b00      	cmp	r3, #0
100061e6:	d008      	beq.n	100061fa <cdcd_open+0x2a>
100061e8:	2700      	movs	r7, #0
100061ea:	2f00      	cmp	r7, #0
100061ec:	d04d      	beq.n	1000628a <cdcd_open+0xba>
100061ee:	788b      	ldrb	r3, [r1, #2]
100061f0:	703b      	strb	r3, [r7, #0]
100061f2:	780c      	ldrb	r4, [r1, #0]
100061f4:	190c      	adds	r4, r1, r4
100061f6:	2509      	movs	r5, #9
100061f8:	e011      	b.n	1000621e <cdcd_open+0x4e>
100061fa:	24b2      	movs	r4, #178	; 0xb2
100061fc:	00a4      	lsls	r4, r4, #2
100061fe:	435c      	muls	r4, r3
10006200:	4825      	ldr	r0, [pc, #148]	; (10006298 <cdcd_open+0xc8>)
10006202:	1900      	adds	r0, r0, r4
10006204:	7880      	ldrb	r0, [r0, #2]
10006206:	2800      	cmp	r0, #0
10006208:	d002      	beq.n	10006210 <cdcd_open+0x40>
1000620a:	3301      	adds	r3, #1
1000620c:	b2db      	uxtb	r3, r3
1000620e:	e7e9      	b.n	100061e4 <cdcd_open+0x14>
10006210:	4f21      	ldr	r7, [pc, #132]	; (10006298 <cdcd_open+0xc8>)
10006212:	19e7      	adds	r7, r4, r7
10006214:	e7e9      	b.n	100061ea <cdcd_open+0x1a>
10006216:	7821      	ldrb	r1, [r4, #0]
10006218:	194d      	adds	r5, r1, r5
1000621a:	b2ad      	uxth	r5, r5
1000621c:	1864      	adds	r4, r4, r1
1000621e:	7863      	ldrb	r3, [r4, #1]
10006220:	2b24      	cmp	r3, #36	; 0x24
10006222:	d101      	bne.n	10006228 <cdcd_open+0x58>
10006224:	4295      	cmp	r5, r2
10006226:	d9f6      	bls.n	10006216 <cdcd_open+0x46>
10006228:	2b05      	cmp	r3, #5
1000622a:	d009      	beq.n	10006240 <cdcd_open+0x70>
1000622c:	7863      	ldrb	r3, [r4, #1]
1000622e:	2b04      	cmp	r3, #4
10006230:	d102      	bne.n	10006238 <cdcd_open+0x68>
10006232:	7963      	ldrb	r3, [r4, #5]
10006234:	2b0a      	cmp	r3, #10
10006236:	d010      	beq.n	1000625a <cdcd_open+0x8a>
10006238:	0038      	movs	r0, r7
1000623a:	f7ff fe5b 	bl	10005ef4 <_prep_out_transaction>
1000623e:	e01f      	b.n	10006280 <cdcd_open+0xb0>
10006240:	0021      	movs	r1, r4
10006242:	0030      	movs	r0, r6
10006244:	f7ff f9b0 	bl	100055a8 <usbd_edpt_open>
10006248:	2800      	cmp	r0, #0
1000624a:	d020      	beq.n	1000628e <cdcd_open+0xbe>
1000624c:	78a3      	ldrb	r3, [r4, #2]
1000624e:	707b      	strb	r3, [r7, #1]
10006250:	7822      	ldrb	r2, [r4, #0]
10006252:	1955      	adds	r5, r2, r5
10006254:	b2ad      	uxth	r5, r5
10006256:	18a4      	adds	r4, r4, r2
10006258:	e7e8      	b.n	1000622c <cdcd_open+0x5c>
1000625a:	7821      	ldrb	r1, [r4, #0]
1000625c:	194d      	adds	r5, r1, r5
1000625e:	b2ad      	uxth	r5, r5
10006260:	1861      	adds	r1, r4, r1
10006262:	1cbb      	adds	r3, r7, #2
10006264:	9301      	str	r3, [sp, #4]
10006266:	1cfb      	adds	r3, r7, #3
10006268:	9300      	str	r3, [sp, #0]
1000626a:	2302      	movs	r3, #2
1000626c:	2202      	movs	r2, #2
1000626e:	0030      	movs	r0, r6
10006270:	f7ff f9b4 	bl	100055dc <usbd_open_edpt_pair>
10006274:	2800      	cmp	r0, #0
10006276:	d00c      	beq.n	10006292 <cdcd_open+0xc2>
10006278:	350e      	adds	r5, #14
1000627a:	b2ad      	uxth	r5, r5
1000627c:	e7dc      	b.n	10006238 <cdcd_open+0x68>
1000627e:	2500      	movs	r5, #0
10006280:	0028      	movs	r0, r5
10006282:	b003      	add	sp, #12
10006284:	bdf0      	pop	{r4, r5, r6, r7, pc}
10006286:	2500      	movs	r5, #0
10006288:	e7fa      	b.n	10006280 <cdcd_open+0xb0>
1000628a:	2500      	movs	r5, #0
1000628c:	e7f8      	b.n	10006280 <cdcd_open+0xb0>
1000628e:	2500      	movs	r5, #0
10006290:	e7f6      	b.n	10006280 <cdcd_open+0xb0>
10006292:	2500      	movs	r5, #0
10006294:	e7f4      	b.n	10006280 <cdcd_open+0xb0>
10006296:	46c0      	nop			; (mov r8, r8)
10006298:	20000df0 	.word	0x20000df0

1000629c <cdcd_control_xfer_cb>:
1000629c:	b5f8      	push	{r3, r4, r5, r6, r7, lr}
1000629e:	0014      	movs	r4, r2
100062a0:	7812      	ldrb	r2, [r2, #0]
100062a2:	2360      	movs	r3, #96	; 0x60
100062a4:	4013      	ands	r3, r2
100062a6:	2b20      	cmp	r3, #32
100062a8:	d000      	beq.n	100062ac <cdcd_control_xfer_cb+0x10>
100062aa:	e07f      	b.n	100063ac <cdcd_control_xfer_cb+0x110>
100062ac:	4a44      	ldr	r2, [pc, #272]	; (100063c0 <cdcd_control_xfer_cb+0x124>)
100062ae:	2500      	movs	r5, #0
100062b0:	2d00      	cmp	r5, #0
100062b2:	d000      	beq.n	100062b6 <cdcd_control_xfer_cb+0x1a>
100062b4:	e07c      	b.n	100063b0 <cdcd_control_xfer_cb+0x114>
100062b6:	7816      	ldrb	r6, [r2, #0]
100062b8:	7927      	ldrb	r7, [r4, #4]
100062ba:	7963      	ldrb	r3, [r4, #5]
100062bc:	021b      	lsls	r3, r3, #8
100062be:	433b      	orrs	r3, r7
100062c0:	429e      	cmp	r6, r3
100062c2:	d006      	beq.n	100062d2 <cdcd_control_xfer_cb+0x36>
100062c4:	3501      	adds	r5, #1
100062c6:	b2ed      	uxtb	r5, r5
100062c8:	23b2      	movs	r3, #178	; 0xb2
100062ca:	009b      	lsls	r3, r3, #2
100062cc:	469c      	mov	ip, r3
100062ce:	4462      	add	r2, ip
100062d0:	e7ee      	b.n	100062b0 <cdcd_control_xfer_cb+0x14>
100062d2:	7863      	ldrb	r3, [r4, #1]
100062d4:	2b22      	cmp	r3, #34	; 0x22
100062d6:	d031      	beq.n	1000633c <cdcd_control_xfer_cb+0xa0>
100062d8:	d809      	bhi.n	100062ee <cdcd_control_xfer_cb+0x52>
100062da:	2b20      	cmp	r3, #32
100062dc:	d011      	beq.n	10006302 <cdcd_control_xfer_cb+0x66>
100062de:	2b21      	cmp	r3, #33	; 0x21
100062e0:	d103      	bne.n	100062ea <cdcd_control_xfer_cb+0x4e>
100062e2:	2901      	cmp	r1, #1
100062e4:	d023      	beq.n	1000632e <cdcd_control_xfer_cb+0x92>
100062e6:	2001      	movs	r0, #1
100062e8:	e061      	b.n	100063ae <cdcd_control_xfer_cb+0x112>
100062ea:	2000      	movs	r0, #0
100062ec:	e05f      	b.n	100063ae <cdcd_control_xfer_cb+0x112>
100062ee:	2b23      	cmp	r3, #35	; 0x23
100062f0:	d105      	bne.n	100062fe <cdcd_control_xfer_cb+0x62>
100062f2:	2901      	cmp	r1, #1
100062f4:	d049      	beq.n	1000638a <cdcd_control_xfer_cb+0xee>
100062f6:	2903      	cmp	r1, #3
100062f8:	d04c      	beq.n	10006394 <cdcd_control_xfer_cb+0xf8>
100062fa:	2001      	movs	r0, #1
100062fc:	e057      	b.n	100063ae <cdcd_control_xfer_cb+0x112>
100062fe:	2000      	movs	r0, #0
10006300:	e055      	b.n	100063ae <cdcd_control_xfer_cb+0x112>
10006302:	2901      	cmp	r1, #1
10006304:	d003      	beq.n	1000630e <cdcd_control_xfer_cb+0x72>
10006306:	2903      	cmp	r1, #3
10006308:	d008      	beq.n	1000631c <cdcd_control_xfer_cb+0x80>
1000630a:	2001      	movs	r0, #1
1000630c:	e04f      	b.n	100063ae <cdcd_control_xfer_cb+0x112>
1000630e:	3206      	adds	r2, #6
10006310:	2307      	movs	r3, #7
10006312:	0021      	movs	r1, r4
10006314:	f7ff fd30 	bl	10005d78 <tud_control_xfer>
10006318:	2001      	movs	r0, #1
1000631a:	e048      	b.n	100063ae <cdcd_control_xfer_cb+0x112>
1000631c:	4b29      	ldr	r3, [pc, #164]	; (100063c4 <cdcd_control_xfer_cb+0x128>)
1000631e:	2b00      	cmp	r3, #0
10006320:	d048      	beq.n	100063b4 <cdcd_control_xfer_cb+0x118>
10006322:	1d91      	adds	r1, r2, #6
10006324:	0028      	movs	r0, r5
10006326:	f7fe fa77 	bl	10004818 <tud_cdc_line_coding_cb>
1000632a:	2001      	movs	r0, #1
1000632c:	e03f      	b.n	100063ae <cdcd_control_xfer_cb+0x112>
1000632e:	3206      	adds	r2, #6
10006330:	2307      	movs	r3, #7
10006332:	0021      	movs	r1, r4
10006334:	f7ff fd20 	bl	10005d78 <tud_control_xfer>
10006338:	2001      	movs	r0, #1
1000633a:	e038      	b.n	100063ae <cdcd_control_xfer_cb+0x112>
1000633c:	2901      	cmp	r1, #1
1000633e:	d003      	beq.n	10006348 <cdcd_control_xfer_cb+0xac>
10006340:	2903      	cmp	r1, #3
10006342:	d006      	beq.n	10006352 <cdcd_control_xfer_cb+0xb6>
10006344:	2001      	movs	r0, #1
10006346:	e032      	b.n	100063ae <cdcd_control_xfer_cb+0x112>
10006348:	0021      	movs	r1, r4
1000634a:	f7ff fcf9 	bl	10005d40 <tud_control_status>
1000634e:	2001      	movs	r0, #1
10006350:	e02d      	b.n	100063ae <cdcd_control_xfer_cb+0x112>
10006352:	78a1      	ldrb	r1, [r4, #2]
10006354:	78e3      	ldrb	r3, [r4, #3]
10006356:	021b      	lsls	r3, r3, #8
10006358:	430b      	orrs	r3, r1
1000635a:	2001      	movs	r0, #1
1000635c:	0019      	movs	r1, r3
1000635e:	4001      	ands	r1, r0
10006360:	000e      	movs	r6, r1
10006362:	085c      	lsrs	r4, r3, #1
10006364:	4004      	ands	r4, r0
10006366:	7113      	strb	r3, [r2, #4]
10006368:	424b      	negs	r3, r1
1000636a:	4159      	adcs	r1, r3
1000636c:	b2c9      	uxtb	r1, r1
1000636e:	3224      	adds	r2, #36	; 0x24
10006370:	0010      	movs	r0, r2
10006372:	f000 fcc7 	bl	10006d04 <tu_fifo_set_overwritable>
10006376:	4b14      	ldr	r3, [pc, #80]	; (100063c8 <cdcd_control_xfer_cb+0x12c>)
10006378:	2b00      	cmp	r3, #0
1000637a:	d01d      	beq.n	100063b8 <cdcd_control_xfer_cb+0x11c>
1000637c:	0022      	movs	r2, r4
1000637e:	0031      	movs	r1, r6
10006380:	0028      	movs	r0, r5
10006382:	e000      	b.n	10006386 <cdcd_control_xfer_cb+0xea>
10006384:	bf00      	nop
10006386:	2001      	movs	r0, #1
10006388:	e011      	b.n	100063ae <cdcd_control_xfer_cb+0x112>
1000638a:	0021      	movs	r1, r4
1000638c:	f7ff fcd8 	bl	10005d40 <tud_control_status>
10006390:	2001      	movs	r0, #1
10006392:	e00c      	b.n	100063ae <cdcd_control_xfer_cb+0x112>
10006394:	4b0d      	ldr	r3, [pc, #52]	; (100063cc <cdcd_control_xfer_cb+0x130>)
10006396:	2b00      	cmp	r3, #0
10006398:	d010      	beq.n	100063bc <cdcd_control_xfer_cb+0x120>
1000639a:	78a3      	ldrb	r3, [r4, #2]
1000639c:	78e1      	ldrb	r1, [r4, #3]
1000639e:	0209      	lsls	r1, r1, #8
100063a0:	4319      	orrs	r1, r3
100063a2:	0028      	movs	r0, r5
100063a4:	e000      	b.n	100063a8 <cdcd_control_xfer_cb+0x10c>
100063a6:	bf00      	nop
100063a8:	2001      	movs	r0, #1
100063aa:	e000      	b.n	100063ae <cdcd_control_xfer_cb+0x112>
100063ac:	2000      	movs	r0, #0
100063ae:	bdf8      	pop	{r3, r4, r5, r6, r7, pc}
100063b0:	2000      	movs	r0, #0
100063b2:	e7fc      	b.n	100063ae <cdcd_control_xfer_cb+0x112>
100063b4:	2001      	movs	r0, #1
100063b6:	e7fa      	b.n	100063ae <cdcd_control_xfer_cb+0x112>
100063b8:	2001      	movs	r0, #1
100063ba:	e7f8      	b.n	100063ae <cdcd_control_xfer_cb+0x112>
100063bc:	2001      	movs	r0, #1
100063be:	e7f6      	b.n	100063ae <cdcd_control_xfer_cb+0x112>
100063c0:	20000df0 	.word	0x20000df0
100063c4:	10004819 	.word	0x10004819
	...

100063d0 <cdcd_xfer_cb>:
100063d0:	b5f0      	push	{r4, r5, r6, r7, lr}
100063d2:	46d6      	mov	lr, sl
100063d4:	b500      	push	{lr}
100063d6:	b082      	sub	sp, #8
100063d8:	9001      	str	r0, [sp, #4]
100063da:	000f      	movs	r7, r1
100063dc:	9300      	str	r3, [sp, #0]
100063de:	2400      	movs	r4, #0
100063e0:	2c00      	cmp	r4, #0
100063e2:	d00e      	beq.n	10006402 <cdcd_xfer_cb+0x32>
100063e4:	2c00      	cmp	r4, #0
100063e6:	d000      	beq.n	100063ea <cdcd_xfer_cb+0x1a>
100063e8:	e07c      	b.n	100064e4 <cdcd_xfer_cb+0x114>
100063ea:	78eb      	ldrb	r3, [r5, #3]
100063ec:	42bb      	cmp	r3, r7
100063ee:	d016      	beq.n	1000641e <cdcd_xfer_cb+0x4e>
100063f0:	78ab      	ldrb	r3, [r5, #2]
100063f2:	42bb      	cmp	r3, r7
100063f4:	d04d      	beq.n	10006492 <cdcd_xfer_cb+0xc2>
100063f6:	2401      	movs	r4, #1
100063f8:	0020      	movs	r0, r4
100063fa:	b002      	add	sp, #8
100063fc:	bc80      	pop	{r7}
100063fe:	46ba      	mov	sl, r7
10006400:	bdf0      	pop	{r4, r5, r6, r7, pc}
10006402:	25b2      	movs	r5, #178	; 0xb2
10006404:	00ad      	lsls	r5, r5, #2
10006406:	4365      	muls	r5, r4
10006408:	4b39      	ldr	r3, [pc, #228]	; (100064f0 <cdcd_xfer_cb+0x120>)
1000640a:	18ed      	adds	r5, r5, r3
1000640c:	78eb      	ldrb	r3, [r5, #3]
1000640e:	42bb      	cmp	r3, r7
10006410:	d0e8      	beq.n	100063e4 <cdcd_xfer_cb+0x14>
10006412:	78ab      	ldrb	r3, [r5, #2]
10006414:	42bb      	cmp	r3, r7
10006416:	d0e5      	beq.n	100063e4 <cdcd_xfer_cb+0x14>
10006418:	3401      	adds	r4, #1
1000641a:	b2e4      	uxtb	r4, r4
1000641c:	e7e0      	b.n	100063e0 <cdcd_xfer_cb+0x10>
1000641e:	2310      	movs	r3, #16
10006420:	469a      	mov	sl, r3
10006422:	44aa      	add	sl, r5
10006424:	2392      	movs	r3, #146	; 0x92
10006426:	009b      	lsls	r3, r3, #2
10006428:	18e9      	adds	r1, r5, r3
1000642a:	466b      	mov	r3, sp
1000642c:	881a      	ldrh	r2, [r3, #0]
1000642e:	4650      	mov	r0, sl
10006430:	f000 fc44 	bl	10006cbc <tu_fifo_write_n>
10006434:	4b2f      	ldr	r3, [pc, #188]	; (100064f4 <cdcd_xfer_cb+0x124>)
10006436:	2b00      	cmp	r3, #0
10006438:	d01b      	beq.n	10006472 <cdcd_xfer_cb+0xa2>
1000643a:	796b      	ldrb	r3, [r5, #5]
1000643c:	2bff      	cmp	r3, #255	; 0xff
1000643e:	d018      	beq.n	10006472 <cdcd_xfer_cb+0xa2>
10006440:	2600      	movs	r6, #0
10006442:	e000      	b.n	10006446 <cdcd_xfer_cb+0x76>
10006444:	3601      	adds	r6, #1
10006446:	9b00      	ldr	r3, [sp, #0]
10006448:	429e      	cmp	r6, r3
1000644a:	d212      	bcs.n	10006472 <cdcd_xfer_cb+0xa2>
1000644c:	796a      	ldrb	r2, [r5, #5]
1000644e:	19ab      	adds	r3, r5, r6
10006450:	2192      	movs	r1, #146	; 0x92
10006452:	0089      	lsls	r1, r1, #2
10006454:	468c      	mov	ip, r1
10006456:	4463      	add	r3, ip
10006458:	781b      	ldrb	r3, [r3, #0]
1000645a:	429a      	cmp	r2, r3
1000645c:	d1f2      	bne.n	10006444 <cdcd_xfer_cb+0x74>
1000645e:	4650      	mov	r0, sl
10006460:	f000 fba2 	bl	10006ba8 <tu_fifo_empty>
10006464:	2800      	cmp	r0, #0
10006466:	d1ed      	bne.n	10006444 <cdcd_xfer_cb+0x74>
10006468:	7969      	ldrb	r1, [r5, #5]
1000646a:	0020      	movs	r0, r4
1000646c:	e000      	b.n	10006470 <cdcd_xfer_cb+0xa0>
1000646e:	bf00      	nop
10006470:	e7e8      	b.n	10006444 <cdcd_xfer_cb+0x74>
10006472:	4b21      	ldr	r3, [pc, #132]	; (100064f8 <cdcd_xfer_cb+0x128>)
10006474:	2b00      	cmp	r3, #0
10006476:	d004      	beq.n	10006482 <cdcd_xfer_cb+0xb2>
10006478:	4650      	mov	r0, sl
1000647a:	f000 fb95 	bl	10006ba8 <tu_fifo_empty>
1000647e:	2800      	cmp	r0, #0
10006480:	d003      	beq.n	1000648a <cdcd_xfer_cb+0xba>
10006482:	0028      	movs	r0, r5
10006484:	f7ff fd36 	bl	10005ef4 <_prep_out_transaction>
10006488:	e7b2      	b.n	100063f0 <cdcd_xfer_cb+0x20>
1000648a:	0020      	movs	r0, r4
1000648c:	f7fe fa86 	bl	1000499c <tud_cdc_rx_cb>
10006490:	e7f7      	b.n	10006482 <cdcd_xfer_cb+0xb2>
10006492:	4b1a      	ldr	r3, [pc, #104]	; (100064fc <cdcd_xfer_cb+0x12c>)
10006494:	2b00      	cmp	r3, #0
10006496:	d002      	beq.n	1000649e <cdcd_xfer_cb+0xce>
10006498:	0020      	movs	r0, r4
1000649a:	e000      	b.n	1000649e <cdcd_xfer_cb+0xce>
1000649c:	bf00      	nop
1000649e:	0020      	movs	r0, r4
100064a0:	f7ff fd90 	bl	10005fc4 <tud_cdc_n_write_flush>
100064a4:	2800      	cmp	r0, #0
100064a6:	d001      	beq.n	100064ac <cdcd_xfer_cb+0xdc>
100064a8:	2401      	movs	r4, #1
100064aa:	e7a5      	b.n	100063f8 <cdcd_xfer_cb+0x28>
100064ac:	0028      	movs	r0, r5
100064ae:	3024      	adds	r0, #36	; 0x24
100064b0:	f000 fb65 	bl	10006b7e <tu_fifo_count>
100064b4:	2800      	cmp	r0, #0
100064b6:	d117      	bne.n	100064e8 <cdcd_xfer_cb+0x118>
100064b8:	9b00      	ldr	r3, [sp, #0]
100064ba:	2b00      	cmp	r3, #0
100064bc:	d016      	beq.n	100064ec <cdcd_xfer_cb+0x11c>
100064be:	069b      	lsls	r3, r3, #26
100064c0:	d001      	beq.n	100064c6 <cdcd_xfer_cb+0xf6>
100064c2:	2401      	movs	r4, #1
100064c4:	e798      	b.n	100063f8 <cdcd_xfer_cb+0x28>
100064c6:	78a9      	ldrb	r1, [r5, #2]
100064c8:	9801      	ldr	r0, [sp, #4]
100064ca:	f7ff f8b9 	bl	10005640 <usbd_edpt_claim>
100064ce:	1e04      	subs	r4, r0, #0
100064d0:	d101      	bne.n	100064d6 <cdcd_xfer_cb+0x106>
100064d2:	2401      	movs	r4, #1
100064d4:	e790      	b.n	100063f8 <cdcd_xfer_cb+0x28>
100064d6:	78a9      	ldrb	r1, [r5, #2]
100064d8:	2300      	movs	r3, #0
100064da:	2200      	movs	r2, #0
100064dc:	9801      	ldr	r0, [sp, #4]
100064de:	f7ff f8d7 	bl	10005690 <usbd_edpt_xfer>
100064e2:	e789      	b.n	100063f8 <cdcd_xfer_cb+0x28>
100064e4:	2400      	movs	r4, #0
100064e6:	e787      	b.n	100063f8 <cdcd_xfer_cb+0x28>
100064e8:	2401      	movs	r4, #1
100064ea:	e785      	b.n	100063f8 <cdcd_xfer_cb+0x28>
100064ec:	2401      	movs	r4, #1
100064ee:	e783      	b.n	100063f8 <cdcd_xfer_cb+0x28>
100064f0:	20000df0 	.word	0x20000df0
100064f4:	00000000 	.word	0x00000000
100064f8:	1000499d 	.word	0x1000499d
100064fc:	00000000 	.word	0x00000000

10006500 <tusb_init>:
10006500:	b510      	push	{r4, lr}
10006502:	2000      	movs	r0, #0
10006504:	f7fe ffd4 	bl	100054b0 <tud_init>
10006508:	bd10      	pop	{r4, pc}

1000650a <tusb_inited>:
1000650a:	b510      	push	{r4, lr}
1000650c:	f7fe ffc6 	bl	1000549c <tud_inited>
10006510:	2800      	cmp	r0, #0
10006512:	d000      	beq.n	10006516 <tusb_inited+0xc>
10006514:	2001      	movs	r0, #1
10006516:	bd10      	pop	{r4, pc}

10006518 <tu_edpt_claim>:
10006518:	b570      	push	{r4, r5, r6, lr}
1000651a:	0004      	movs	r4, r0
1000651c:	000d      	movs	r5, r1
1000651e:	7803      	ldrb	r3, [r0, #0]
10006520:	07db      	lsls	r3, r3, #31
10006522:	0fde      	lsrs	r6, r3, #31
10006524:	2b00      	cmp	r3, #0
10006526:	d11c      	bne.n	10006562 <tu_edpt_claim+0x4a>
10006528:	7803      	ldrb	r3, [r0, #0]
1000652a:	075b      	lsls	r3, r3, #29
1000652c:	d41a      	bmi.n	10006564 <tu_edpt_claim+0x4c>
1000652e:	2101      	movs	r1, #1
10006530:	4249      	negs	r1, r1
10006532:	0028      	movs	r0, r5
10006534:	f000 fc74 	bl	10006e20 <__mutex_enter_timeout_ms_veneer>
10006538:	7823      	ldrb	r3, [r4, #0]
1000653a:	07db      	lsls	r3, r3, #31
1000653c:	d404      	bmi.n	10006548 <tu_edpt_claim+0x30>
1000653e:	7823      	ldrb	r3, [r4, #0]
10006540:	075b      	lsls	r3, r3, #29
10006542:	d50c      	bpl.n	1000655e <tu_edpt_claim+0x46>
10006544:	2600      	movs	r6, #0
10006546:	e000      	b.n	1000654a <tu_edpt_claim+0x32>
10006548:	2600      	movs	r6, #0
1000654a:	2e00      	cmp	r6, #0
1000654c:	d003      	beq.n	10006556 <tu_edpt_claim+0x3e>
1000654e:	7823      	ldrb	r3, [r4, #0]
10006550:	2204      	movs	r2, #4
10006552:	4313      	orrs	r3, r2
10006554:	7023      	strb	r3, [r4, #0]
10006556:	0028      	movs	r0, r5
10006558:	f000 fc32 	bl	10006dc0 <__mutex_exit_veneer>
1000655c:	e002      	b.n	10006564 <tu_edpt_claim+0x4c>
1000655e:	2601      	movs	r6, #1
10006560:	e7f3      	b.n	1000654a <tu_edpt_claim+0x32>
10006562:	2600      	movs	r6, #0
10006564:	0030      	movs	r0, r6
10006566:	bd70      	pop	{r4, r5, r6, pc}

10006568 <tu_edpt_release>:
10006568:	b570      	push	{r4, r5, r6, lr}
1000656a:	0004      	movs	r4, r0
1000656c:	000e      	movs	r6, r1
1000656e:	2101      	movs	r1, #1
10006570:	4249      	negs	r1, r1
10006572:	0030      	movs	r0, r6
10006574:	f000 fc54 	bl	10006e20 <__mutex_enter_timeout_ms_veneer>
10006578:	7823      	ldrb	r3, [r4, #0]
1000657a:	075b      	lsls	r3, r3, #29
1000657c:	d40b      	bmi.n	10006596 <tu_edpt_release+0x2e>
1000657e:	2500      	movs	r5, #0
10006580:	2d00      	cmp	r5, #0
10006582:	d003      	beq.n	1000658c <tu_edpt_release+0x24>
10006584:	7823      	ldrb	r3, [r4, #0]
10006586:	2204      	movs	r2, #4
10006588:	4393      	bics	r3, r2
1000658a:	7023      	strb	r3, [r4, #0]
1000658c:	0030      	movs	r0, r6
1000658e:	f000 fc17 	bl	10006dc0 <__mutex_exit_veneer>
10006592:	0028      	movs	r0, r5
10006594:	bd70      	pop	{r4, r5, r6, pc}
10006596:	7823      	ldrb	r3, [r4, #0]
10006598:	07db      	lsls	r3, r3, #31
1000659a:	d501      	bpl.n	100065a0 <tu_edpt_release+0x38>
1000659c:	2500      	movs	r5, #0
1000659e:	e7ef      	b.n	10006580 <tu_edpt_release+0x18>
100065a0:	2501      	movs	r5, #1
100065a2:	e7ed      	b.n	10006580 <tu_edpt_release+0x18>

100065a4 <tu_edpt_validate>:
100065a4:	b510      	push	{r4, lr}
100065a6:	7904      	ldrb	r4, [r0, #4]
100065a8:	7943      	ldrb	r3, [r0, #5]
100065aa:	021b      	lsls	r3, r3, #8
100065ac:	4323      	orrs	r3, r4
100065ae:	055b      	lsls	r3, r3, #21
100065b0:	0d5b      	lsrs	r3, r3, #21
100065b2:	78c2      	ldrb	r2, [r0, #3]
100065b4:	0792      	lsls	r2, r2, #30
100065b6:	0f92      	lsrs	r2, r2, #30
100065b8:	2a02      	cmp	r2, #2
100065ba:	d00f      	beq.n	100065dc <tu_edpt_validate+0x38>
100065bc:	2a03      	cmp	r2, #3
100065be:	d019      	beq.n	100065f4 <tu_edpt_validate+0x50>
100065c0:	2a01      	cmp	r2, #1
100065c2:	d001      	beq.n	100065c8 <tu_edpt_validate+0x24>
100065c4:	2000      	movs	r0, #0
100065c6:	bd10      	pop	{r4, pc}
100065c8:	2902      	cmp	r1, #2
100065ca:	d004      	beq.n	100065d6 <tu_edpt_validate+0x32>
100065cc:	4a12      	ldr	r2, [pc, #72]	; (10006618 <tu_edpt_validate+0x74>)
100065ce:	429a      	cmp	r2, r3
100065d0:	d31a      	bcc.n	10006608 <tu_edpt_validate+0x64>
100065d2:	2001      	movs	r0, #1
100065d4:	e7f7      	b.n	100065c6 <tu_edpt_validate+0x22>
100065d6:	2280      	movs	r2, #128	; 0x80
100065d8:	00d2      	lsls	r2, r2, #3
100065da:	e7f8      	b.n	100065ce <tu_edpt_validate+0x2a>
100065dc:	2902      	cmp	r1, #2
100065de:	d003      	beq.n	100065e8 <tu_edpt_validate+0x44>
100065e0:	2b40      	cmp	r3, #64	; 0x40
100065e2:	d815      	bhi.n	10006610 <tu_edpt_validate+0x6c>
100065e4:	2001      	movs	r0, #1
100065e6:	e7ee      	b.n	100065c6 <tu_edpt_validate+0x22>
100065e8:	2280      	movs	r2, #128	; 0x80
100065ea:	0092      	lsls	r2, r2, #2
100065ec:	4293      	cmp	r3, r2
100065ee:	d10d      	bne.n	1000660c <tu_edpt_validate+0x68>
100065f0:	2001      	movs	r0, #1
100065f2:	e7e8      	b.n	100065c6 <tu_edpt_validate+0x22>
100065f4:	2902      	cmp	r1, #2
100065f6:	d004      	beq.n	10006602 <tu_edpt_validate+0x5e>
100065f8:	2240      	movs	r2, #64	; 0x40
100065fa:	429a      	cmp	r2, r3
100065fc:	d30a      	bcc.n	10006614 <tu_edpt_validate+0x70>
100065fe:	2001      	movs	r0, #1
10006600:	e7e1      	b.n	100065c6 <tu_edpt_validate+0x22>
10006602:	2280      	movs	r2, #128	; 0x80
10006604:	00d2      	lsls	r2, r2, #3
10006606:	e7f8      	b.n	100065fa <tu_edpt_validate+0x56>
10006608:	2000      	movs	r0, #0
1000660a:	e7dc      	b.n	100065c6 <tu_edpt_validate+0x22>
1000660c:	2000      	movs	r0, #0
1000660e:	e7da      	b.n	100065c6 <tu_edpt_validate+0x22>
10006610:	2000      	movs	r0, #0
10006612:	e7d8      	b.n	100065c6 <tu_edpt_validate+0x22>
10006614:	2000      	movs	r0, #0
10006616:	e7d6      	b.n	100065c6 <tu_edpt_validate+0x22>
10006618:	000003ff 	.word	0x000003ff

1000661c <tu_edpt_bind_driver>:
1000661c:	b530      	push	{r4, r5, lr}
1000661e:	188a      	adds	r2, r1, r2
10006620:	e001      	b.n	10006626 <tu_edpt_bind_driver+0xa>
10006622:	780c      	ldrb	r4, [r1, #0]
10006624:	1909      	adds	r1, r1, r4
10006626:	4291      	cmp	r1, r2
10006628:	d20a      	bcs.n	10006640 <tu_edpt_bind_driver+0x24>
1000662a:	784c      	ldrb	r4, [r1, #1]
1000662c:	2c05      	cmp	r4, #5
1000662e:	d1f8      	bne.n	10006622 <tu_edpt_bind_driver+0x6>
10006630:	788d      	ldrb	r5, [r1, #2]
10006632:	347a      	adds	r4, #122	; 0x7a
10006634:	402c      	ands	r4, r5
10006636:	0064      	lsls	r4, r4, #1
10006638:	1904      	adds	r4, r0, r4
1000663a:	09ed      	lsrs	r5, r5, #7
1000663c:	5563      	strb	r3, [r4, r5]
1000663e:	e7f0      	b.n	10006622 <tu_edpt_bind_driver+0x6>
10006640:	bd30      	pop	{r4, r5, pc}

10006642 <advance_index>:
10006642:	0003      	movs	r3, r0
10006644:	188a      	adds	r2, r1, r2
10006646:	b290      	uxth	r0, r2
10006648:	4281      	cmp	r1, r0
1000664a:	d802      	bhi.n	10006652 <advance_index+0x10>
1000664c:	005a      	lsls	r2, r3, #1
1000664e:	4290      	cmp	r0, r2
10006650:	db03      	blt.n	1000665a <advance_index+0x18>
10006652:	005b      	lsls	r3, r3, #1
10006654:	b29b      	uxth	r3, r3
10006656:	1ac0      	subs	r0, r0, r3
10006658:	b280      	uxth	r0, r0
1000665a:	4770      	bx	lr

1000665c <_tu_fifo_peek>:
1000665c:	b570      	push	{r4, r5, r6, lr}
1000665e:	0005      	movs	r5, r0
10006660:	0008      	movs	r0, r1
10006662:	88ac      	ldrh	r4, [r5, #4]
10006664:	429a      	cmp	r2, r3
10006666:	d30b      	bcc.n	10006680 <_tu_fifo_peek+0x24>
10006668:	1ad1      	subs	r1, r2, r3
1000666a:	b289      	uxth	r1, r1
1000666c:	2900      	cmp	r1, #0
1000666e:	d01e      	beq.n	100066ae <_tu_fifo_peek+0x52>
10006670:	428c      	cmp	r4, r1
10006672:	d210      	bcs.n	10006696 <_tu_fifo_peek+0x3a>
10006674:	4294      	cmp	r4, r2
10006676:	d809      	bhi.n	1000668c <_tu_fifo_peek+0x30>
10006678:	1b13      	subs	r3, r2, r4
1000667a:	b29b      	uxth	r3, r3
1000667c:	816b      	strh	r3, [r5, #10]
1000667e:	e00a      	b.n	10006696 <_tu_fifo_peek+0x3a>
10006680:	1ad1      	subs	r1, r2, r3
10006682:	b289      	uxth	r1, r1
10006684:	0066      	lsls	r6, r4, #1
10006686:	1989      	adds	r1, r1, r6
10006688:	b289      	uxth	r1, r1
1000668a:	e7ef      	b.n	1000666c <_tu_fifo_peek+0x10>
1000668c:	18a2      	adds	r2, r4, r2
1000668e:	b293      	uxth	r3, r2
10006690:	e7f4      	b.n	1000667c <_tu_fifo_peek+0x20>
10006692:	1b1b      	subs	r3, r3, r4
10006694:	b29b      	uxth	r3, r3
10006696:	429c      	cmp	r4, r3
10006698:	d9fb      	bls.n	10006692 <_tu_fifo_peek+0x36>
1000669a:	6829      	ldr	r1, [r5, #0]
1000669c:	88ea      	ldrh	r2, [r5, #6]
1000669e:	0452      	lsls	r2, r2, #17
100066a0:	0c52      	lsrs	r2, r2, #17
100066a2:	4353      	muls	r3, r2
100066a4:	18c9      	adds	r1, r1, r3
100066a6:	f7fd fddd 	bl	10004264 <__wrap___aeabi_memcpy>
100066aa:	2001      	movs	r0, #1
100066ac:	bd70      	pop	{r4, r5, r6, pc}
100066ae:	2000      	movs	r0, #0
100066b0:	e7fc      	b.n	100066ac <_tu_fifo_peek+0x50>

100066b2 <_ff_pull_const_addr>:
100066b2:	b5f0      	push	{r4, r5, r6, r7, lr}
100066b4:	b083      	sub	sp, #12
100066b6:	0006      	movs	r6, r0
100066b8:	0893      	lsrs	r3, r2, #2
100066ba:	e00c      	b.n	100066d6 <_ff_pull_const_addr+0x24>
100066bc:	780b      	ldrb	r3, [r1, #0]
100066be:	784d      	ldrb	r5, [r1, #1]
100066c0:	022d      	lsls	r5, r5, #8
100066c2:	431d      	orrs	r5, r3
100066c4:	788c      	ldrb	r4, [r1, #2]
100066c6:	0424      	lsls	r4, r4, #16
100066c8:	4325      	orrs	r5, r4
100066ca:	78cb      	ldrb	r3, [r1, #3]
100066cc:	061b      	lsls	r3, r3, #24
100066ce:	432b      	orrs	r3, r5
100066d0:	6033      	str	r3, [r6, #0]
100066d2:	3104      	adds	r1, #4
100066d4:	003b      	movs	r3, r7
100066d6:	1e5f      	subs	r7, r3, #1
100066d8:	b2bf      	uxth	r7, r7
100066da:	2b00      	cmp	r3, #0
100066dc:	d1ee      	bne.n	100066bc <_ff_pull_const_addr+0xa>
100066de:	3303      	adds	r3, #3
100066e0:	0010      	movs	r0, r2
100066e2:	4018      	ands	r0, r3
100066e4:	421a      	tst	r2, r3
100066e6:	d101      	bne.n	100066ec <_ff_pull_const_addr+0x3a>
100066e8:	b003      	add	sp, #12
100066ea:	bdf0      	pop	{r4, r5, r6, r7, pc}
100066ec:	2300      	movs	r3, #0
100066ee:	9301      	str	r3, [sp, #4]
100066f0:	0002      	movs	r2, r0
100066f2:	a801      	add	r0, sp, #4
100066f4:	f7fd fdb6 	bl	10004264 <__wrap___aeabi_memcpy>
100066f8:	9b01      	ldr	r3, [sp, #4]
100066fa:	6033      	str	r3, [r6, #0]
100066fc:	e7f4      	b.n	100066e8 <_ff_pull_const_addr+0x36>

100066fe <_ff_pull_n>:
100066fe:	b5f0      	push	{r4, r5, r6, r7, lr}
10006700:	46de      	mov	lr, fp
10006702:	4657      	mov	r7, sl
10006704:	464e      	mov	r6, r9
10006706:	4645      	mov	r5, r8
10006708:	b5e0      	push	{r5, r6, r7, lr}
1000670a:	b083      	sub	sp, #12
1000670c:	0005      	movs	r5, r0
1000670e:	468a      	mov	sl, r1
10006710:	a90c      	add	r1, sp, #48	; 0x30
10006712:	7809      	ldrb	r1, [r1, #0]
10006714:	8884      	ldrh	r4, [r0, #4]
10006716:	1ae0      	subs	r0, r4, r3
10006718:	b280      	uxth	r0, r0
1000671a:	1b1c      	subs	r4, r3, r4
1000671c:	1914      	adds	r4, r2, r4
1000671e:	b2a4      	uxth	r4, r4
10006720:	88ef      	ldrh	r7, [r5, #6]
10006722:	047f      	lsls	r7, r7, #17
10006724:	0c7e      	lsrs	r6, r7, #17
10006726:	0007      	movs	r7, r0
10006728:	4377      	muls	r7, r6
1000672a:	b2bf      	uxth	r7, r7
1000672c:	4374      	muls	r4, r6
1000672e:	b2a4      	uxth	r4, r4
10006730:	46a3      	mov	fp, r4
10006732:	4373      	muls	r3, r6
10006734:	682c      	ldr	r4, [r5, #0]
10006736:	46a0      	mov	r8, r4
10006738:	4498      	add	r8, r3
1000673a:	2900      	cmp	r1, #0
1000673c:	d008      	beq.n	10006750 <_ff_pull_n+0x52>
1000673e:	2901      	cmp	r1, #1
10006740:	d01a      	beq.n	10006778 <_ff_pull_n+0x7a>
10006742:	b003      	add	sp, #12
10006744:	bcf0      	pop	{r4, r5, r6, r7}
10006746:	46bb      	mov	fp, r7
10006748:	46b2      	mov	sl, r6
1000674a:	46a9      	mov	r9, r5
1000674c:	46a0      	mov	r8, r4
1000674e:	bdf0      	pop	{r4, r5, r6, r7, pc}
10006750:	4290      	cmp	r0, r2
10006752:	d305      	bcc.n	10006760 <_ff_pull_n+0x62>
10006754:	4372      	muls	r2, r6
10006756:	4641      	mov	r1, r8
10006758:	4650      	mov	r0, sl
1000675a:	f7fd fd83 	bl	10004264 <__wrap___aeabi_memcpy>
1000675e:	e7f0      	b.n	10006742 <_ff_pull_n+0x44>
10006760:	003a      	movs	r2, r7
10006762:	4641      	mov	r1, r8
10006764:	4650      	mov	r0, sl
10006766:	f7fd fd7d 	bl	10004264 <__wrap___aeabi_memcpy>
1000676a:	6829      	ldr	r1, [r5, #0]
1000676c:	0038      	movs	r0, r7
1000676e:	4450      	add	r0, sl
10006770:	465a      	mov	r2, fp
10006772:	f7fd fd77 	bl	10004264 <__wrap___aeabi_memcpy>
10006776:	e7e4      	b.n	10006742 <_ff_pull_n+0x44>
10006778:	4290      	cmp	r0, r2
1000677a:	d306      	bcc.n	1000678a <_ff_pull_n+0x8c>
1000677c:	4372      	muls	r2, r6
1000677e:	b292      	uxth	r2, r2
10006780:	4641      	mov	r1, r8
10006782:	4650      	mov	r0, sl
10006784:	f7ff ff95 	bl	100066b2 <_ff_pull_const_addr>
10006788:	e7db      	b.n	10006742 <_ff_pull_n+0x44>
1000678a:	2303      	movs	r3, #3
1000678c:	003a      	movs	r2, r7
1000678e:	439a      	bics	r2, r3
10006790:	4691      	mov	r9, r2
10006792:	4641      	mov	r1, r8
10006794:	4650      	mov	r0, sl
10006796:	f7ff ff8c 	bl	100066b2 <_ff_pull_const_addr>
1000679a:	4643      	mov	r3, r8
1000679c:	444b      	add	r3, r9
1000679e:	2103      	movs	r1, #3
100067a0:	003a      	movs	r2, r7
100067a2:	400a      	ands	r2, r1
100067a4:	420f      	tst	r7, r1
100067a6:	d030      	beq.n	1000680a <_ff_pull_n+0x10c>
100067a8:	2104      	movs	r1, #4
100067aa:	1a89      	subs	r1, r1, r2
100067ac:	b289      	uxth	r1, r1
100067ae:	1c08      	adds	r0, r1, #0
100067b0:	4559      	cmp	r1, fp
100067b2:	d900      	bls.n	100067b6 <_ff_pull_n+0xb8>
100067b4:	4658      	mov	r0, fp
100067b6:	b2c7      	uxtb	r7, r0
100067b8:	21ff      	movs	r1, #255	; 0xff
100067ba:	4001      	ands	r1, r0
100067bc:	4658      	mov	r0, fp
100067be:	1a44      	subs	r4, r0, r1
100067c0:	b2a1      	uxth	r1, r4
100067c2:	468b      	mov	fp, r1
100067c4:	2100      	movs	r1, #0
100067c6:	9101      	str	r1, [sp, #4]
100067c8:	a801      	add	r0, sp, #4
100067ca:	e004      	b.n	100067d6 <_ff_pull_n+0xd8>
100067cc:	781a      	ldrb	r2, [r3, #0]
100067ce:	7002      	strb	r2, [r0, #0]
100067d0:	3001      	adds	r0, #1
100067d2:	000a      	movs	r2, r1
100067d4:	3301      	adds	r3, #1
100067d6:	1e51      	subs	r1, r2, #1
100067d8:	b2c9      	uxtb	r1, r1
100067da:	2a00      	cmp	r2, #0
100067dc:	d1f6      	bne.n	100067cc <_ff_pull_n+0xce>
100067de:	6829      	ldr	r1, [r5, #0]
100067e0:	e004      	b.n	100067ec <_ff_pull_n+0xee>
100067e2:	780a      	ldrb	r2, [r1, #0]
100067e4:	7002      	strb	r2, [r0, #0]
100067e6:	3001      	adds	r0, #1
100067e8:	001f      	movs	r7, r3
100067ea:	3101      	adds	r1, #1
100067ec:	1e7b      	subs	r3, r7, #1
100067ee:	b2db      	uxtb	r3, r3
100067f0:	2f00      	cmp	r7, #0
100067f2:	d1f6      	bne.n	100067e2 <_ff_pull_n+0xe4>
100067f4:	4653      	mov	r3, sl
100067f6:	9a01      	ldr	r2, [sp, #4]
100067f8:	601a      	str	r2, [r3, #0]
100067fa:	465b      	mov	r3, fp
100067fc:	2b00      	cmp	r3, #0
100067fe:	d0a0      	beq.n	10006742 <_ff_pull_n+0x44>
10006800:	465a      	mov	r2, fp
10006802:	4650      	mov	r0, sl
10006804:	f7ff ff55 	bl	100066b2 <_ff_pull_const_addr>
10006808:	e79b      	b.n	10006742 <_ff_pull_n+0x44>
1000680a:	6829      	ldr	r1, [r5, #0]
1000680c:	e7f5      	b.n	100067fa <_ff_pull_n+0xfc>

1000680e <_tu_fifo_peek_n>:
1000680e:	b5f0      	push	{r4, r5, r6, r7, lr}
10006810:	46c6      	mov	lr, r8
10006812:	b500      	push	{lr}
10006814:	b082      	sub	sp, #8
10006816:	001e      	movs	r6, r3
10006818:	ab08      	add	r3, sp, #32
1000681a:	881b      	ldrh	r3, [r3, #0]
1000681c:	ac09      	add	r4, sp, #36	; 0x24
1000681e:	7827      	ldrb	r7, [r4, #0]
10006820:	8884      	ldrh	r4, [r0, #4]
10006822:	429e      	cmp	r6, r3
10006824:	d30f      	bcc.n	10006846 <_tu_fifo_peek_n+0x38>
10006826:	1af5      	subs	r5, r6, r3
10006828:	b2ad      	uxth	r5, r5
1000682a:	2d00      	cmp	r5, #0
1000682c:	d01f      	beq.n	1000686e <_tu_fifo_peek_n+0x60>
1000682e:	42ac      	cmp	r4, r5
10006830:	d205      	bcs.n	1000683e <_tu_fifo_peek_n+0x30>
10006832:	42b4      	cmp	r4, r6
10006834:	d810      	bhi.n	10006858 <_tu_fifo_peek_n+0x4a>
10006836:	1b33      	subs	r3, r6, r4
10006838:	b29b      	uxth	r3, r3
1000683a:	8143      	strh	r3, [r0, #10]
1000683c:	0025      	movs	r5, r4
1000683e:	4295      	cmp	r5, r2
10006840:	d30f      	bcc.n	10006862 <_tu_fifo_peek_n+0x54>
10006842:	0015      	movs	r5, r2
10006844:	e00d      	b.n	10006862 <_tu_fifo_peek_n+0x54>
10006846:	1af5      	subs	r5, r6, r3
10006848:	b2ad      	uxth	r5, r5
1000684a:	46a8      	mov	r8, r5
1000684c:	0065      	lsls	r5, r4, #1
1000684e:	46ac      	mov	ip, r5
10006850:	4645      	mov	r5, r8
10006852:	4465      	add	r5, ip
10006854:	b2ad      	uxth	r5, r5
10006856:	e7e8      	b.n	1000682a <_tu_fifo_peek_n+0x1c>
10006858:	19a6      	adds	r6, r4, r6
1000685a:	b2b3      	uxth	r3, r6
1000685c:	e7ed      	b.n	1000683a <_tu_fifo_peek_n+0x2c>
1000685e:	1b1b      	subs	r3, r3, r4
10006860:	b29b      	uxth	r3, r3
10006862:	429c      	cmp	r4, r3
10006864:	d9fb      	bls.n	1000685e <_tu_fifo_peek_n+0x50>
10006866:	9700      	str	r7, [sp, #0]
10006868:	002a      	movs	r2, r5
1000686a:	f7ff ff48 	bl	100066fe <_ff_pull_n>
1000686e:	0028      	movs	r0, r5
10006870:	b002      	add	sp, #8
10006872:	bc80      	pop	{r7}
10006874:	46b8      	mov	r8, r7
10006876:	bdf0      	pop	{r4, r5, r6, r7, pc}

10006878 <_tu_fifo_read_n>:
10006878:	b5f0      	push	{r4, r5, r6, r7, lr}
1000687a:	b083      	sub	sp, #12
1000687c:	0004      	movs	r4, r0
1000687e:	000d      	movs	r5, r1
10006880:	0016      	movs	r6, r2
10006882:	001f      	movs	r7, r3
10006884:	6900      	ldr	r0, [r0, #16]
10006886:	2800      	cmp	r0, #0
10006888:	d003      	beq.n	10006892 <_tu_fifo_read_n+0x1a>
1000688a:	2101      	movs	r1, #1
1000688c:	4249      	negs	r1, r1
1000688e:	f000 fac7 	bl	10006e20 <__mutex_enter_timeout_ms_veneer>
10006892:	8923      	ldrh	r3, [r4, #8]
10006894:	b29b      	uxth	r3, r3
10006896:	8962      	ldrh	r2, [r4, #10]
10006898:	9701      	str	r7, [sp, #4]
1000689a:	9200      	str	r2, [sp, #0]
1000689c:	0032      	movs	r2, r6
1000689e:	0029      	movs	r1, r5
100068a0:	0020      	movs	r0, r4
100068a2:	f7ff ffb4 	bl	1000680e <_tu_fifo_peek_n>
100068a6:	0005      	movs	r5, r0
100068a8:	8961      	ldrh	r1, [r4, #10]
100068aa:	b289      	uxth	r1, r1
100068ac:	88a0      	ldrh	r0, [r4, #4]
100068ae:	002a      	movs	r2, r5
100068b0:	f7ff fec7 	bl	10006642 <advance_index>
100068b4:	8160      	strh	r0, [r4, #10]
100068b6:	6920      	ldr	r0, [r4, #16]
100068b8:	2800      	cmp	r0, #0
100068ba:	d001      	beq.n	100068c0 <_tu_fifo_read_n+0x48>
100068bc:	f000 fa80 	bl	10006dc0 <__mutex_exit_veneer>
100068c0:	0028      	movs	r0, r5
100068c2:	b003      	add	sp, #12
100068c4:	bdf0      	pop	{r4, r5, r6, r7, pc}

100068c6 <_ff_push_const_addr>:
100068c6:	b570      	push	{r4, r5, r6, lr}
100068c8:	b082      	sub	sp, #8
100068ca:	0016      	movs	r6, r2
100068cc:	0895      	lsrs	r5, r2, #2
100068ce:	e009      	b.n	100068e4 <_ff_push_const_addr+0x1e>
100068d0:	680b      	ldr	r3, [r1, #0]
100068d2:	7003      	strb	r3, [r0, #0]
100068d4:	0a1d      	lsrs	r5, r3, #8
100068d6:	7045      	strb	r5, [r0, #1]
100068d8:	0c1d      	lsrs	r5, r3, #16
100068da:	7085      	strb	r5, [r0, #2]
100068dc:	0e1b      	lsrs	r3, r3, #24
100068de:	70c3      	strb	r3, [r0, #3]
100068e0:	3004      	adds	r0, #4
100068e2:	0025      	movs	r5, r4
100068e4:	1e6c      	subs	r4, r5, #1
100068e6:	b2a4      	uxth	r4, r4
100068e8:	2d00      	cmp	r5, #0
100068ea:	d1f1      	bne.n	100068d0 <_ff_push_const_addr+0xa>
100068ec:	2303      	movs	r3, #3
100068ee:	0032      	movs	r2, r6
100068f0:	401a      	ands	r2, r3
100068f2:	421e      	tst	r6, r3
100068f4:	d101      	bne.n	100068fa <_ff_push_const_addr+0x34>
100068f6:	b002      	add	sp, #8
100068f8:	bd70      	pop	{r4, r5, r6, pc}
100068fa:	680b      	ldr	r3, [r1, #0]
100068fc:	9301      	str	r3, [sp, #4]
100068fe:	a901      	add	r1, sp, #4
10006900:	f7fd fcb0 	bl	10004264 <__wrap___aeabi_memcpy>
10006904:	e7f7      	b.n	100068f6 <_ff_push_const_addr+0x30>

10006906 <_ff_push_n>:
10006906:	b5f0      	push	{r4, r5, r6, r7, lr}
10006908:	46de      	mov	lr, fp
1000690a:	4657      	mov	r7, sl
1000690c:	464e      	mov	r6, r9
1000690e:	4645      	mov	r5, r8
10006910:	b5e0      	push	{r5, r6, r7, lr}
10006912:	b083      	sub	sp, #12
10006914:	0005      	movs	r5, r0
10006916:	468a      	mov	sl, r1
10006918:	a90c      	add	r1, sp, #48	; 0x30
1000691a:	7808      	ldrb	r0, [r1, #0]
1000691c:	88ac      	ldrh	r4, [r5, #4]
1000691e:	1ae1      	subs	r1, r4, r3
10006920:	b289      	uxth	r1, r1
10006922:	1b1c      	subs	r4, r3, r4
10006924:	1914      	adds	r4, r2, r4
10006926:	b2a4      	uxth	r4, r4
10006928:	88ef      	ldrh	r7, [r5, #6]
1000692a:	047f      	lsls	r7, r7, #17
1000692c:	0c7e      	lsrs	r6, r7, #17
1000692e:	000f      	movs	r7, r1
10006930:	4377      	muls	r7, r6
10006932:	b2bf      	uxth	r7, r7
10006934:	4374      	muls	r4, r6
10006936:	b2a4      	uxth	r4, r4
10006938:	46a3      	mov	fp, r4
1000693a:	4373      	muls	r3, r6
1000693c:	682c      	ldr	r4, [r5, #0]
1000693e:	46a0      	mov	r8, r4
10006940:	4498      	add	r8, r3
10006942:	2800      	cmp	r0, #0
10006944:	d008      	beq.n	10006958 <_ff_push_n+0x52>
10006946:	2801      	cmp	r0, #1
10006948:	d01a      	beq.n	10006980 <_ff_push_n+0x7a>
1000694a:	b003      	add	sp, #12
1000694c:	bcf0      	pop	{r4, r5, r6, r7}
1000694e:	46bb      	mov	fp, r7
10006950:	46b2      	mov	sl, r6
10006952:	46a9      	mov	r9, r5
10006954:	46a0      	mov	r8, r4
10006956:	bdf0      	pop	{r4, r5, r6, r7, pc}
10006958:	4291      	cmp	r1, r2
1000695a:	d305      	bcc.n	10006968 <_ff_push_n+0x62>
1000695c:	4372      	muls	r2, r6
1000695e:	4651      	mov	r1, sl
10006960:	4640      	mov	r0, r8
10006962:	f7fd fc7f 	bl	10004264 <__wrap___aeabi_memcpy>
10006966:	e7f0      	b.n	1000694a <_ff_push_n+0x44>
10006968:	003a      	movs	r2, r7
1000696a:	4651      	mov	r1, sl
1000696c:	4640      	mov	r0, r8
1000696e:	f7fd fc79 	bl	10004264 <__wrap___aeabi_memcpy>
10006972:	6828      	ldr	r0, [r5, #0]
10006974:	0039      	movs	r1, r7
10006976:	4451      	add	r1, sl
10006978:	465a      	mov	r2, fp
1000697a:	f7fd fc73 	bl	10004264 <__wrap___aeabi_memcpy>
1000697e:	e7e4      	b.n	1000694a <_ff_push_n+0x44>
10006980:	4291      	cmp	r1, r2
10006982:	d306      	bcc.n	10006992 <_ff_push_n+0x8c>
10006984:	4372      	muls	r2, r6
10006986:	b292      	uxth	r2, r2
10006988:	4651      	mov	r1, sl
1000698a:	4640      	mov	r0, r8
1000698c:	f7ff ff9b 	bl	100068c6 <_ff_push_const_addr>
10006990:	e7db      	b.n	1000694a <_ff_push_n+0x44>
10006992:	2303      	movs	r3, #3
10006994:	003a      	movs	r2, r7
10006996:	439a      	bics	r2, r3
10006998:	4691      	mov	r9, r2
1000699a:	4651      	mov	r1, sl
1000699c:	4640      	mov	r0, r8
1000699e:	f7ff ff92 	bl	100068c6 <_ff_push_const_addr>
100069a2:	4643      	mov	r3, r8
100069a4:	444b      	add	r3, r9
100069a6:	2103      	movs	r1, #3
100069a8:	003a      	movs	r2, r7
100069aa:	400a      	ands	r2, r1
100069ac:	420f      	tst	r7, r1
100069ae:	d02e      	beq.n	10006a0e <_ff_push_n+0x108>
100069b0:	2104      	movs	r1, #4
100069b2:	1a89      	subs	r1, r1, r2
100069b4:	b289      	uxth	r1, r1
100069b6:	1c08      	adds	r0, r1, #0
100069b8:	4559      	cmp	r1, fp
100069ba:	d900      	bls.n	100069be <_ff_push_n+0xb8>
100069bc:	4658      	mov	r0, fp
100069be:	b2c7      	uxtb	r7, r0
100069c0:	21ff      	movs	r1, #255	; 0xff
100069c2:	4001      	ands	r1, r0
100069c4:	4658      	mov	r0, fp
100069c6:	1a44      	subs	r4, r0, r1
100069c8:	b2a1      	uxth	r1, r4
100069ca:	468b      	mov	fp, r1
100069cc:	4651      	mov	r1, sl
100069ce:	6809      	ldr	r1, [r1, #0]
100069d0:	9101      	str	r1, [sp, #4]
100069d2:	a901      	add	r1, sp, #4
100069d4:	e004      	b.n	100069e0 <_ff_push_n+0xda>
100069d6:	780a      	ldrb	r2, [r1, #0]
100069d8:	701a      	strb	r2, [r3, #0]
100069da:	3101      	adds	r1, #1
100069dc:	0002      	movs	r2, r0
100069de:	3301      	adds	r3, #1
100069e0:	1e50      	subs	r0, r2, #1
100069e2:	b2c0      	uxtb	r0, r0
100069e4:	2a00      	cmp	r2, #0
100069e6:	d1f6      	bne.n	100069d6 <_ff_push_n+0xd0>
100069e8:	6828      	ldr	r0, [r5, #0]
100069ea:	e004      	b.n	100069f6 <_ff_push_n+0xf0>
100069ec:	780a      	ldrb	r2, [r1, #0]
100069ee:	7002      	strb	r2, [r0, #0]
100069f0:	3101      	adds	r1, #1
100069f2:	001f      	movs	r7, r3
100069f4:	3001      	adds	r0, #1
100069f6:	1e7b      	subs	r3, r7, #1
100069f8:	b2db      	uxtb	r3, r3
100069fa:	2f00      	cmp	r7, #0
100069fc:	d1f6      	bne.n	100069ec <_ff_push_n+0xe6>
100069fe:	465b      	mov	r3, fp
10006a00:	2b00      	cmp	r3, #0
10006a02:	d0a2      	beq.n	1000694a <_ff_push_n+0x44>
10006a04:	465a      	mov	r2, fp
10006a06:	4651      	mov	r1, sl
10006a08:	f7ff ff5d 	bl	100068c6 <_ff_push_const_addr>
10006a0c:	e79d      	b.n	1000694a <_ff_push_n+0x44>
10006a0e:	6828      	ldr	r0, [r5, #0]
10006a10:	e7f5      	b.n	100069fe <_ff_push_n+0xf8>

10006a12 <_tu_fifo_write_n>:
10006a12:	b5f0      	push	{r4, r5, r6, r7, lr}
10006a14:	b085      	sub	sp, #20
10006a16:	0006      	movs	r6, r0
10006a18:	9103      	str	r1, [sp, #12]
10006a1a:	1e15      	subs	r5, r2, #0
10006a1c:	9302      	str	r3, [sp, #8]
10006a1e:	d100      	bne.n	10006a22 <_tu_fifo_write_n+0x10>
10006a20:	e06d      	b.n	10006afe <_tu_fifo_write_n+0xec>
10006a22:	68c0      	ldr	r0, [r0, #12]
10006a24:	2800      	cmp	r0, #0
10006a26:	d003      	beq.n	10006a30 <_tu_fifo_write_n+0x1e>
10006a28:	2101      	movs	r1, #1
10006a2a:	4249      	negs	r1, r1
10006a2c:	f000 f9f8 	bl	10006e20 <__mutex_enter_timeout_ms_veneer>
10006a30:	8934      	ldrh	r4, [r6, #8]
10006a32:	b2a4      	uxth	r4, r4
10006a34:	8971      	ldrh	r1, [r6, #10]
10006a36:	b289      	uxth	r1, r1
10006a38:	79f3      	ldrb	r3, [r6, #7]
10006a3a:	09db      	lsrs	r3, r3, #7
10006a3c:	d11a      	bne.n	10006a74 <_tu_fifo_write_n+0x62>
10006a3e:	88b3      	ldrh	r3, [r6, #4]
10006a40:	428c      	cmp	r4, r1
10006a42:	d30f      	bcc.n	10006a64 <_tu_fifo_write_n+0x52>
10006a44:	1a61      	subs	r1, r4, r1
10006a46:	b289      	uxth	r1, r1
10006a48:	428b      	cmp	r3, r1
10006a4a:	d911      	bls.n	10006a70 <_tu_fifo_write_n+0x5e>
10006a4c:	1a5b      	subs	r3, r3, r1
10006a4e:	b29b      	uxth	r3, r3
10006a50:	1c2f      	adds	r7, r5, #0
10006a52:	429d      	cmp	r5, r3
10006a54:	d900      	bls.n	10006a58 <_tu_fifo_write_n+0x46>
10006a56:	1c1f      	adds	r7, r3, #0
10006a58:	b2bf      	uxth	r7, r7
10006a5a:	2f00      	cmp	r7, #0
10006a5c:	d047      	beq.n	10006aee <_tu_fifo_write_n+0xdc>
10006a5e:	88b2      	ldrh	r2, [r6, #4]
10006a60:	0023      	movs	r3, r4
10006a62:	e035      	b.n	10006ad0 <_tu_fifo_write_n+0xbe>
10006a64:	1a61      	subs	r1, r4, r1
10006a66:	b289      	uxth	r1, r1
10006a68:	005a      	lsls	r2, r3, #1
10006a6a:	1889      	adds	r1, r1, r2
10006a6c:	b289      	uxth	r1, r1
10006a6e:	e7eb      	b.n	10006a48 <_tu_fifo_write_n+0x36>
10006a70:	2300      	movs	r3, #0
10006a72:	e7ed      	b.n	10006a50 <_tu_fifo_write_n+0x3e>
10006a74:	88b7      	ldrh	r7, [r6, #4]
10006a76:	42af      	cmp	r7, r5
10006a78:	d80e      	bhi.n	10006a98 <_tu_fifo_write_n+0x86>
10006a7a:	9b02      	ldr	r3, [sp, #8]
10006a7c:	2b00      	cmp	r3, #0
10006a7e:	d121      	bne.n	10006ac4 <_tu_fifo_write_n+0xb2>
10006a80:	1bed      	subs	r5, r5, r7
10006a82:	88f3      	ldrh	r3, [r6, #6]
10006a84:	045b      	lsls	r3, r3, #17
10006a86:	0c5a      	lsrs	r2, r3, #17
10006a88:	436a      	muls	r2, r5
10006a8a:	9b03      	ldr	r3, [sp, #12]
10006a8c:	469c      	mov	ip, r3
10006a8e:	4494      	add	ip, r2
10006a90:	4663      	mov	r3, ip
10006a92:	9303      	str	r3, [sp, #12]
10006a94:	000c      	movs	r4, r1
10006a96:	e7e0      	b.n	10006a5a <_tu_fifo_write_n+0x48>
10006a98:	428c      	cmp	r4, r1
10006a9a:	d30d      	bcc.n	10006ab8 <_tu_fifo_write_n+0xa6>
10006a9c:	1a63      	subs	r3, r4, r1
10006a9e:	b29b      	uxth	r3, r3
10006aa0:	195b      	adds	r3, r3, r5
10006aa2:	007a      	lsls	r2, r7, #1
10006aa4:	4293      	cmp	r3, r2
10006aa6:	db0f      	blt.n	10006ac8 <_tu_fifo_write_n+0xb6>
10006aa8:	1b7a      	subs	r2, r7, r5
10006aaa:	b292      	uxth	r2, r2
10006aac:	0038      	movs	r0, r7
10006aae:	f7ff fdc8 	bl	10006642 <advance_index>
10006ab2:	0004      	movs	r4, r0
10006ab4:	002f      	movs	r7, r5
10006ab6:	e7d0      	b.n	10006a5a <_tu_fifo_write_n+0x48>
10006ab8:	1a63      	subs	r3, r4, r1
10006aba:	b29b      	uxth	r3, r3
10006abc:	007a      	lsls	r2, r7, #1
10006abe:	189b      	adds	r3, r3, r2
10006ac0:	b29b      	uxth	r3, r3
10006ac2:	e7ed      	b.n	10006aa0 <_tu_fifo_write_n+0x8e>
10006ac4:	000c      	movs	r4, r1
10006ac6:	e7c8      	b.n	10006a5a <_tu_fifo_write_n+0x48>
10006ac8:	002f      	movs	r7, r5
10006aca:	e7c6      	b.n	10006a5a <_tu_fifo_write_n+0x48>
10006acc:	1a9b      	subs	r3, r3, r2
10006ace:	b29b      	uxth	r3, r3
10006ad0:	429a      	cmp	r2, r3
10006ad2:	d9fb      	bls.n	10006acc <_tu_fifo_write_n+0xba>
10006ad4:	9a02      	ldr	r2, [sp, #8]
10006ad6:	9200      	str	r2, [sp, #0]
10006ad8:	003a      	movs	r2, r7
10006ada:	9903      	ldr	r1, [sp, #12]
10006adc:	0030      	movs	r0, r6
10006ade:	f7ff ff12 	bl	10006906 <_ff_push_n>
10006ae2:	88b0      	ldrh	r0, [r6, #4]
10006ae4:	003a      	movs	r2, r7
10006ae6:	0021      	movs	r1, r4
10006ae8:	f7ff fdab 	bl	10006642 <advance_index>
10006aec:	8130      	strh	r0, [r6, #8]
10006aee:	68f0      	ldr	r0, [r6, #12]
10006af0:	2800      	cmp	r0, #0
10006af2:	d001      	beq.n	10006af8 <_tu_fifo_write_n+0xe6>
10006af4:	f000 f964 	bl	10006dc0 <__mutex_exit_veneer>
10006af8:	0038      	movs	r0, r7
10006afa:	b005      	add	sp, #20
10006afc:	bdf0      	pop	{r4, r5, r6, r7, pc}
10006afe:	0017      	movs	r7, r2
10006b00:	e7fa      	b.n	10006af8 <_tu_fifo_write_n+0xe6>

10006b02 <tu_fifo_config>:
10006b02:	b5f0      	push	{r4, r5, r6, r7, lr}
10006b04:	b083      	sub	sp, #12
10006b06:	0004      	movs	r4, r0
10006b08:	9101      	str	r1, [sp, #4]
10006b0a:	0016      	movs	r6, r2
10006b0c:	001d      	movs	r5, r3
10006b0e:	ab08      	add	r3, sp, #32
10006b10:	781f      	ldrb	r7, [r3, #0]
10006b12:	2380      	movs	r3, #128	; 0x80
10006b14:	021b      	lsls	r3, r3, #8
10006b16:	429a      	cmp	r2, r3
10006b18:	d82d      	bhi.n	10006b76 <tu_fifo_config+0x74>
10006b1a:	68c0      	ldr	r0, [r0, #12]
10006b1c:	2800      	cmp	r0, #0
10006b1e:	d003      	beq.n	10006b28 <tu_fifo_config+0x26>
10006b20:	2101      	movs	r1, #1
10006b22:	4249      	negs	r1, r1
10006b24:	f000 f97c 	bl	10006e20 <__mutex_enter_timeout_ms_veneer>
10006b28:	6920      	ldr	r0, [r4, #16]
10006b2a:	2800      	cmp	r0, #0
10006b2c:	d003      	beq.n	10006b36 <tu_fifo_config+0x34>
10006b2e:	2101      	movs	r1, #1
10006b30:	4249      	negs	r1, r1
10006b32:	f000 f975 	bl	10006e20 <__mutex_enter_timeout_ms_veneer>
10006b36:	9b01      	ldr	r3, [sp, #4]
10006b38:	6023      	str	r3, [r4, #0]
10006b3a:	80a6      	strh	r6, [r4, #4]
10006b3c:	046d      	lsls	r5, r5, #17
10006b3e:	0c6b      	lsrs	r3, r5, #17
10006b40:	88e2      	ldrh	r2, [r4, #6]
10006b42:	0bd2      	lsrs	r2, r2, #15
10006b44:	03d5      	lsls	r5, r2, #15
10006b46:	431d      	orrs	r5, r3
10006b48:	80e5      	strh	r5, [r4, #6]
10006b4a:	01fb      	lsls	r3, r7, #7
10006b4c:	79e2      	ldrb	r2, [r4, #7]
10006b4e:	277f      	movs	r7, #127	; 0x7f
10006b50:	4017      	ands	r7, r2
10006b52:	431f      	orrs	r7, r3
10006b54:	71e7      	strb	r7, [r4, #7]
10006b56:	2300      	movs	r3, #0
10006b58:	8163      	strh	r3, [r4, #10]
10006b5a:	8123      	strh	r3, [r4, #8]
10006b5c:	68e0      	ldr	r0, [r4, #12]
10006b5e:	2800      	cmp	r0, #0
10006b60:	d001      	beq.n	10006b66 <tu_fifo_config+0x64>
10006b62:	f000 f92d 	bl	10006dc0 <__mutex_exit_veneer>
10006b66:	6920      	ldr	r0, [r4, #16]
10006b68:	2800      	cmp	r0, #0
10006b6a:	d006      	beq.n	10006b7a <tu_fifo_config+0x78>
10006b6c:	f000 f928 	bl	10006dc0 <__mutex_exit_veneer>
10006b70:	2001      	movs	r0, #1
10006b72:	b003      	add	sp, #12
10006b74:	bdf0      	pop	{r4, r5, r6, r7, pc}
10006b76:	2000      	movs	r0, #0
10006b78:	e7fb      	b.n	10006b72 <tu_fifo_config+0x70>
10006b7a:	2001      	movs	r0, #1
10006b7c:	e7f9      	b.n	10006b72 <tu_fifo_config+0x70>

10006b7e <tu_fifo_count>:
10006b7e:	8881      	ldrh	r1, [r0, #4]
10006b80:	8903      	ldrh	r3, [r0, #8]
10006b82:	b29b      	uxth	r3, r3
10006b84:	8942      	ldrh	r2, [r0, #10]
10006b86:	b292      	uxth	r2, r2
10006b88:	4293      	cmp	r3, r2
10006b8a:	d307      	bcc.n	10006b9c <tu_fifo_count+0x1e>
10006b8c:	1a9b      	subs	r3, r3, r2
10006b8e:	b29b      	uxth	r3, r3
10006b90:	1c08      	adds	r0, r1, #0
10006b92:	4299      	cmp	r1, r3
10006b94:	d900      	bls.n	10006b98 <tu_fifo_count+0x1a>
10006b96:	1c18      	adds	r0, r3, #0
10006b98:	b280      	uxth	r0, r0
10006b9a:	4770      	bx	lr
10006b9c:	1a9b      	subs	r3, r3, r2
10006b9e:	b29b      	uxth	r3, r3
10006ba0:	004a      	lsls	r2, r1, #1
10006ba2:	189b      	adds	r3, r3, r2
10006ba4:	b29b      	uxth	r3, r3
10006ba6:	e7f3      	b.n	10006b90 <tu_fifo_count+0x12>

10006ba8 <tu_fifo_empty>:
10006ba8:	0003      	movs	r3, r0
10006baa:	8900      	ldrh	r0, [r0, #8]
10006bac:	895b      	ldrh	r3, [r3, #10]
10006bae:	1ac0      	subs	r0, r0, r3
10006bb0:	4243      	negs	r3, r0
10006bb2:	4158      	adcs	r0, r3
10006bb4:	b2c0      	uxtb	r0, r0
10006bb6:	4770      	bx	lr

10006bb8 <tu_fifo_full>:
10006bb8:	8881      	ldrh	r1, [r0, #4]
10006bba:	8903      	ldrh	r3, [r0, #8]
10006bbc:	b29b      	uxth	r3, r3
10006bbe:	8942      	ldrh	r2, [r0, #10]
10006bc0:	b292      	uxth	r2, r2
10006bc2:	4293      	cmp	r3, r2
10006bc4:	d306      	bcc.n	10006bd4 <tu_fifo_full+0x1c>
10006bc6:	1a9b      	subs	r3, r3, r2
10006bc8:	b29b      	uxth	r3, r3
10006bca:	2000      	movs	r0, #0
10006bcc:	428b      	cmp	r3, r1
10006bce:	4140      	adcs	r0, r0
10006bd0:	b2c0      	uxtb	r0, r0
10006bd2:	4770      	bx	lr
10006bd4:	1a9b      	subs	r3, r3, r2
10006bd6:	b29b      	uxth	r3, r3
10006bd8:	004a      	lsls	r2, r1, #1
10006bda:	189b      	adds	r3, r3, r2
10006bdc:	b29b      	uxth	r3, r3
10006bde:	e7f4      	b.n	10006bca <tu_fifo_full+0x12>

10006be0 <tu_fifo_remaining>:
10006be0:	8882      	ldrh	r2, [r0, #4]
10006be2:	8903      	ldrh	r3, [r0, #8]
10006be4:	b29b      	uxth	r3, r3
10006be6:	8940      	ldrh	r0, [r0, #10]
10006be8:	b280      	uxth	r0, r0
10006bea:	4283      	cmp	r3, r0
10006bec:	d306      	bcc.n	10006bfc <tu_fifo_remaining+0x1c>
10006bee:	1a1b      	subs	r3, r3, r0
10006bf0:	b29b      	uxth	r3, r3
10006bf2:	429a      	cmp	r2, r3
10006bf4:	d908      	bls.n	10006c08 <tu_fifo_remaining+0x28>
10006bf6:	1ad3      	subs	r3, r2, r3
10006bf8:	b298      	uxth	r0, r3
10006bfa:	4770      	bx	lr
10006bfc:	1a1b      	subs	r3, r3, r0
10006bfe:	b29b      	uxth	r3, r3
10006c00:	0050      	lsls	r0, r2, #1
10006c02:	181b      	adds	r3, r3, r0
10006c04:	b29b      	uxth	r3, r3
10006c06:	e7f4      	b.n	10006bf2 <tu_fifo_remaining+0x12>
10006c08:	2000      	movs	r0, #0
10006c0a:	e7f6      	b.n	10006bfa <tu_fifo_remaining+0x1a>

10006c0c <tu_fifo_read>:
10006c0c:	b570      	push	{r4, r5, r6, lr}
10006c0e:	0004      	movs	r4, r0
10006c10:	000d      	movs	r5, r1
10006c12:	6900      	ldr	r0, [r0, #16]
10006c14:	2800      	cmp	r0, #0
10006c16:	d003      	beq.n	10006c20 <tu_fifo_read+0x14>
10006c18:	2101      	movs	r1, #1
10006c1a:	4249      	negs	r1, r1
10006c1c:	f000 f900 	bl	10006e20 <__mutex_enter_timeout_ms_veneer>
10006c20:	8922      	ldrh	r2, [r4, #8]
10006c22:	b292      	uxth	r2, r2
10006c24:	8963      	ldrh	r3, [r4, #10]
10006c26:	b29b      	uxth	r3, r3
10006c28:	0029      	movs	r1, r5
10006c2a:	0020      	movs	r0, r4
10006c2c:	f7ff fd16 	bl	1000665c <_tu_fifo_peek>
10006c30:	0005      	movs	r5, r0
10006c32:	8961      	ldrh	r1, [r4, #10]
10006c34:	b289      	uxth	r1, r1
10006c36:	b282      	uxth	r2, r0
10006c38:	88a0      	ldrh	r0, [r4, #4]
10006c3a:	f7ff fd02 	bl	10006642 <advance_index>
10006c3e:	8160      	strh	r0, [r4, #10]
10006c40:	6920      	ldr	r0, [r4, #16]
10006c42:	2800      	cmp	r0, #0
10006c44:	d001      	beq.n	10006c4a <tu_fifo_read+0x3e>
10006c46:	f000 f8bb 	bl	10006dc0 <__mutex_exit_veneer>
10006c4a:	0028      	movs	r0, r5
10006c4c:	bd70      	pop	{r4, r5, r6, pc}

10006c4e <tu_fifo_read_n>:
10006c4e:	b510      	push	{r4, lr}
10006c50:	2300      	movs	r3, #0
10006c52:	f7ff fe11 	bl	10006878 <_tu_fifo_read_n>
10006c56:	bd10      	pop	{r4, pc}

10006c58 <tu_fifo_write>:
10006c58:	b5f8      	push	{r3, r4, r5, r6, r7, lr}
10006c5a:	0004      	movs	r4, r0
10006c5c:	000e      	movs	r6, r1
10006c5e:	68c0      	ldr	r0, [r0, #12]
10006c60:	2800      	cmp	r0, #0
10006c62:	d003      	beq.n	10006c6c <tu_fifo_write+0x14>
10006c64:	2101      	movs	r1, #1
10006c66:	4249      	negs	r1, r1
10006c68:	f000 f8da 	bl	10006e20 <__mutex_enter_timeout_ms_veneer>
10006c6c:	8925      	ldrh	r5, [r4, #8]
10006c6e:	b2ad      	uxth	r5, r5
10006c70:	0020      	movs	r0, r4
10006c72:	f7ff ffa1 	bl	10006bb8 <tu_fifo_full>
10006c76:	2800      	cmp	r0, #0
10006c78:	d002      	beq.n	10006c80 <tu_fifo_write+0x28>
10006c7a:	79e7      	ldrb	r7, [r4, #7]
10006c7c:	09ff      	lsrs	r7, r7, #7
10006c7e:	d016      	beq.n	10006cae <tu_fifo_write+0x56>
10006c80:	88a2      	ldrh	r2, [r4, #4]
10006c82:	002b      	movs	r3, r5
10006c84:	e001      	b.n	10006c8a <tu_fifo_write+0x32>
10006c86:	1a9b      	subs	r3, r3, r2
10006c88:	b29b      	uxth	r3, r3
10006c8a:	429a      	cmp	r2, r3
10006c8c:	d9fb      	bls.n	10006c86 <tu_fifo_write+0x2e>
10006c8e:	88e2      	ldrh	r2, [r4, #6]
10006c90:	0452      	lsls	r2, r2, #17
10006c92:	0c52      	lsrs	r2, r2, #17
10006c94:	4353      	muls	r3, r2
10006c96:	6821      	ldr	r1, [r4, #0]
10006c98:	18c8      	adds	r0, r1, r3
10006c9a:	0031      	movs	r1, r6
10006c9c:	f7fd fae2 	bl	10004264 <__wrap___aeabi_memcpy>
10006ca0:	88a0      	ldrh	r0, [r4, #4]
10006ca2:	2201      	movs	r2, #1
10006ca4:	0029      	movs	r1, r5
10006ca6:	f7ff fccc 	bl	10006642 <advance_index>
10006caa:	8120      	strh	r0, [r4, #8]
10006cac:	2701      	movs	r7, #1
10006cae:	68e0      	ldr	r0, [r4, #12]
10006cb0:	2800      	cmp	r0, #0
10006cb2:	d001      	beq.n	10006cb8 <tu_fifo_write+0x60>
10006cb4:	f000 f884 	bl	10006dc0 <__mutex_exit_veneer>
10006cb8:	0038      	movs	r0, r7
10006cba:	bdf8      	pop	{r3, r4, r5, r6, r7, pc}

10006cbc <tu_fifo_write_n>:
10006cbc:	b510      	push	{r4, lr}
10006cbe:	2300      	movs	r3, #0
10006cc0:	f7ff fea7 	bl	10006a12 <_tu_fifo_write_n>
10006cc4:	bd10      	pop	{r4, pc}

10006cc6 <tu_fifo_clear>:
10006cc6:	b510      	push	{r4, lr}
10006cc8:	0004      	movs	r4, r0
10006cca:	68c0      	ldr	r0, [r0, #12]
10006ccc:	2800      	cmp	r0, #0
10006cce:	d003      	beq.n	10006cd8 <tu_fifo_clear+0x12>
10006cd0:	2101      	movs	r1, #1
10006cd2:	4249      	negs	r1, r1
10006cd4:	f000 f8a4 	bl	10006e20 <__mutex_enter_timeout_ms_veneer>
10006cd8:	6920      	ldr	r0, [r4, #16]
10006cda:	2800      	cmp	r0, #0
10006cdc:	d003      	beq.n	10006ce6 <tu_fifo_clear+0x20>
10006cde:	2101      	movs	r1, #1
10006ce0:	4249      	negs	r1, r1
10006ce2:	f000 f89d 	bl	10006e20 <__mutex_enter_timeout_ms_veneer>
10006ce6:	2300      	movs	r3, #0
10006ce8:	8163      	strh	r3, [r4, #10]
10006cea:	8123      	strh	r3, [r4, #8]
10006cec:	68e0      	ldr	r0, [r4, #12]
10006cee:	2800      	cmp	r0, #0
10006cf0:	d001      	beq.n	10006cf6 <tu_fifo_clear+0x30>
10006cf2:	f000 f865 	bl	10006dc0 <__mutex_exit_veneer>
10006cf6:	6920      	ldr	r0, [r4, #16]
10006cf8:	2800      	cmp	r0, #0
10006cfa:	d001      	beq.n	10006d00 <tu_fifo_clear+0x3a>
10006cfc:	f000 f860 	bl	10006dc0 <__mutex_exit_veneer>
10006d00:	2001      	movs	r0, #1
10006d02:	bd10      	pop	{r4, pc}

10006d04 <tu_fifo_set_overwritable>:
10006d04:	b570      	push	{r4, r5, r6, lr}
10006d06:	0004      	movs	r4, r0
10006d08:	000d      	movs	r5, r1
10006d0a:	68c0      	ldr	r0, [r0, #12]
10006d0c:	2800      	cmp	r0, #0
10006d0e:	d003      	beq.n	10006d18 <tu_fifo_set_overwritable+0x14>
10006d10:	2101      	movs	r1, #1
10006d12:	4249      	negs	r1, r1
10006d14:	f000 f884 	bl	10006e20 <__mutex_enter_timeout_ms_veneer>
10006d18:	6920      	ldr	r0, [r4, #16]
10006d1a:	2800      	cmp	r0, #0
10006d1c:	d003      	beq.n	10006d26 <tu_fifo_set_overwritable+0x22>
10006d1e:	2101      	movs	r1, #1
10006d20:	4249      	negs	r1, r1
10006d22:	f000 f87d 	bl	10006e20 <__mutex_enter_timeout_ms_veneer>
10006d26:	01ed      	lsls	r5, r5, #7
10006d28:	79e3      	ldrb	r3, [r4, #7]
10006d2a:	217f      	movs	r1, #127	; 0x7f
10006d2c:	4019      	ands	r1, r3
10006d2e:	4329      	orrs	r1, r5
10006d30:	71e1      	strb	r1, [r4, #7]
10006d32:	68e0      	ldr	r0, [r4, #12]
10006d34:	2800      	cmp	r0, #0
10006d36:	d001      	beq.n	10006d3c <tu_fifo_set_overwritable+0x38>
10006d38:	f000 f842 	bl	10006dc0 <__mutex_exit_veneer>
10006d3c:	6920      	ldr	r0, [r4, #16]
10006d3e:	2800      	cmp	r0, #0
10006d40:	d001      	beq.n	10006d46 <tu_fifo_set_overwritable+0x42>
10006d42:	f000 f83d 	bl	10006dc0 <__mutex_exit_veneer>
10006d46:	2001      	movs	r0, #1
10006d48:	bd70      	pop	{r4, r5, r6, pc}
	...

10006d4c <strlen>:
10006d4c:	b510      	push	{r4, lr}
10006d4e:	0783      	lsls	r3, r0, #30
10006d50:	d00a      	beq.n	10006d68 <strlen+0x1c>
10006d52:	0003      	movs	r3, r0
10006d54:	2103      	movs	r1, #3
10006d56:	e002      	b.n	10006d5e <strlen+0x12>
10006d58:	3301      	adds	r3, #1
10006d5a:	420b      	tst	r3, r1
10006d5c:	d005      	beq.n	10006d6a <strlen+0x1e>
10006d5e:	781a      	ldrb	r2, [r3, #0]
10006d60:	2a00      	cmp	r2, #0
10006d62:	d1f9      	bne.n	10006d58 <strlen+0xc>
10006d64:	1a18      	subs	r0, r3, r0
10006d66:	bd10      	pop	{r4, pc}
10006d68:	0003      	movs	r3, r0
10006d6a:	6819      	ldr	r1, [r3, #0]
10006d6c:	4a0c      	ldr	r2, [pc, #48]	; (10006da0 <strlen+0x54>)
10006d6e:	4c0d      	ldr	r4, [pc, #52]	; (10006da4 <strlen+0x58>)
10006d70:	188a      	adds	r2, r1, r2
10006d72:	438a      	bics	r2, r1
10006d74:	4222      	tst	r2, r4
10006d76:	d10f      	bne.n	10006d98 <strlen+0x4c>
10006d78:	6859      	ldr	r1, [r3, #4]
10006d7a:	4a09      	ldr	r2, [pc, #36]	; (10006da0 <strlen+0x54>)
10006d7c:	3304      	adds	r3, #4
10006d7e:	188a      	adds	r2, r1, r2
10006d80:	438a      	bics	r2, r1
10006d82:	4222      	tst	r2, r4
10006d84:	d108      	bne.n	10006d98 <strlen+0x4c>
10006d86:	6859      	ldr	r1, [r3, #4]
10006d88:	4a05      	ldr	r2, [pc, #20]	; (10006da0 <strlen+0x54>)
10006d8a:	3304      	adds	r3, #4
10006d8c:	188a      	adds	r2, r1, r2
10006d8e:	438a      	bics	r2, r1
10006d90:	4222      	tst	r2, r4
10006d92:	d0f1      	beq.n	10006d78 <strlen+0x2c>
10006d94:	e000      	b.n	10006d98 <strlen+0x4c>
10006d96:	3301      	adds	r3, #1
10006d98:	781a      	ldrb	r2, [r3, #0]
10006d9a:	2a00      	cmp	r2, #0
10006d9c:	d1fb      	bne.n	10006d96 <strlen+0x4a>
10006d9e:	e7e1      	b.n	10006d64 <strlen+0x18>
10006da0:	fefefeff 	.word	0xfefefeff
10006da4:	80808080 	.word	0x80808080

10006da8 <_fini>:
10006da8:	b5f8      	push	{r3, r4, r5, r6, r7, lr}
10006daa:	46c0      	nop			; (mov r8, r8)
10006dac:	0000      	movs	r0, r0
	...

10006db0 <__flash_do_cmd_veneer>:
10006db0:	b401      	push	{r0}
10006db2:	4802      	ldr	r0, [pc, #8]	; (10006dbc <__flash_do_cmd_veneer+0xc>)
10006db4:	4684      	mov	ip, r0
10006db6:	bc01      	pop	{r0}
10006db8:	4760      	bx	ip
10006dba:	bf00      	nop
10006dbc:	200002e5 	.word	0x200002e5

10006dc0 <__mutex_exit_veneer>:
10006dc0:	b401      	push	{r0}
10006dc2:	4802      	ldr	r0, [pc, #8]	; (10006dcc <__mutex_exit_veneer+0xc>)
10006dc4:	4684      	mov	ip, r0
10006dc6:	bc01      	pop	{r0}
10006dc8:	4760      	bx	ip
10006dca:	bf00      	nop
10006dcc:	20000231 	.word	0x20000231

10006dd0 <____aeabi_ldiv0_veneer>:
10006dd0:	b401      	push	{r0}
10006dd2:	4802      	ldr	r0, [pc, #8]	; (10006ddc <____aeabi_ldiv0_veneer+0xc>)
10006dd4:	4684      	mov	ip, r0
10006dd6:	bc01      	pop	{r0}
10006dd8:	4760      	bx	ip
10006dda:	bf00      	nop
10006ddc:	20000b1d 	.word	0x20000b1d

10006de0 <__e15_is_critical_frame_period_veneer>:
10006de0:	b401      	push	{r0}
10006de2:	4802      	ldr	r0, [pc, #8]	; (10006dec <__e15_is_critical_frame_period_veneer+0xc>)
10006de4:	4684      	mov	ip, r0
10006de6:	bc01      	pop	{r0}
10006de8:	4760      	bx	ip
10006dea:	bf00      	nop
10006dec:	20000699 	.word	0x20000699

10006df0 <__e15_is_bulkin_ep_veneer>:
10006df0:	b401      	push	{r0}
10006df2:	4802      	ldr	r0, [pc, #8]	; (10006dfc <__e15_is_bulkin_ep_veneer+0xc>)
10006df4:	4684      	mov	ip, r0
10006df6:	bc01      	pop	{r0}
10006df8:	4760      	bx	ip
10006dfa:	bf00      	nop
10006dfc:	2000066d 	.word	0x2000066d

10006e00 <____aeabi_idiv0_veneer>:
10006e00:	b401      	push	{r0}
10006e02:	4802      	ldr	r0, [pc, #8]	; (10006e0c <____aeabi_idiv0_veneer+0xc>)
10006e04:	4684      	mov	ip, r0
10006e06:	bc01      	pop	{r0}
10006e08:	4760      	bx	ip
10006e0a:	bf00      	nop
10006e0c:	20000b1d 	.word	0x20000b1d

10006e10 <__mutex_try_enter_veneer>:
10006e10:	b401      	push	{r0}
10006e12:	4802      	ldr	r0, [pc, #8]	; (10006e1c <__mutex_try_enter_veneer+0xc>)
10006e14:	4684      	mov	ip, r0
10006e16:	bc01      	pop	{r0}
10006e18:	4760      	bx	ip
10006e1a:	bf00      	nop
10006e1c:	200000c1 	.word	0x200000c1

10006e20 <__mutex_enter_timeout_ms_veneer>:
10006e20:	b401      	push	{r0}
10006e22:	4802      	ldr	r0, [pc, #8]	; (10006e2c <__mutex_enter_timeout_ms_veneer+0xc>)
10006e24:	4684      	mov	ip, r0
10006e26:	bc01      	pop	{r0}
10006e28:	4760      	bx	ip
10006e2a:	bf00      	nop
10006e2c:	200001c9 	.word	0x200001c9

10006e30 <__dcd_event_handler_veneer>:
10006e30:	b401      	push	{r0}
10006e32:	4802      	ldr	r0, [pc, #8]	; (10006e3c <__dcd_event_handler_veneer+0xc>)
10006e34:	4684      	mov	ip, r0
10006e36:	bc01      	pop	{r0}
10006e38:	4760      	bx	ip
10006e3a:	bf00      	nop
10006e3c:	2000091d 	.word	0x2000091d

10006e40 <__mutex_try_enter_block_until_veneer>:
10006e40:	b401      	push	{r0}
10006e42:	4802      	ldr	r0, [pc, #8]	; (10006e4c <__mutex_try_enter_block_until_veneer+0xc>)
10006e44:	4684      	mov	ip, r0
10006e46:	bc01      	pop	{r0}
10006e48:	4760      	bx	ip
10006e4a:	bf00      	nop
10006e4c:	20000195 	.word	0x20000195

10006e50 <__hw_endpoint_start_next_buffer_veneer>:
10006e50:	b401      	push	{r0}
10006e52:	4802      	ldr	r0, [pc, #8]	; (10006e5c <__hw_endpoint_start_next_buffer_veneer+0xc>)
10006e54:	4684      	mov	ip, r0
10006e56:	bc01      	pop	{r0}
10006e58:	4760      	bx	ip
10006e5a:	bf00      	nop
10006e5c:	20000845 	.word	0x20000845

10006e60 <__hw_endpoint_reset_transfer_veneer>:
10006e60:	b401      	push	{r0}
10006e62:	4802      	ldr	r0, [pc, #8]	; (10006e6c <__hw_endpoint_reset_transfer_veneer+0xc>)
10006e64:	4684      	mov	ip, r0
10006e66:	bc01      	pop	{r0}
10006e68:	4760      	bx	ip
10006e6a:	bf00      	nop
10006e6c:	200007e1 	.word	0x200007e1

10006e70 <__reset_non_control_endpoints_veneer>:
10006e70:	b401      	push	{r0}
10006e72:	4802      	ldr	r0, [pc, #8]	; (10006e7c <__reset_non_control_endpoints_veneer+0xc>)
10006e74:	4684      	mov	ip, r0
10006e76:	bc01      	pop	{r0}
10006e78:	4760      	bx	ip
10006e7a:	bf00      	nop
10006e7c:	200003bd 	.word	0x200003bd

10006e80 <___hw_endpoint_buffer_control_update32_veneer>:
10006e80:	b401      	push	{r0}
10006e82:	4802      	ldr	r0, [pc, #8]	; (10006e8c <___hw_endpoint_buffer_control_update32_veneer+0xc>)
10006e84:	4684      	mov	ip, r0
10006e86:	bc01      	pop	{r0}
10006e88:	4760      	bx	ip
10006e8a:	bf00      	nop
10006e8c:	200007ed 	.word	0x200007ed

Disassembly of section .data:

200000c0 <mutex_try_enter>:
200000c0:	0003      	movs	r3, r0
200000c2:	6800      	ldr	r0, [r0, #0]
200000c4:	f3ef 8c10 	mrs	ip, PRIMASK
200000c8:	b672      	cpsid	i
200000ca:	6802      	ldr	r2, [r0, #0]
200000cc:	2a00      	cmp	r2, #0
200000ce:	d0fc      	beq.n	200000ca <mutex_try_enter+0xa>
200000d0:	f3bf 8f5f 	dmb	sy
200000d4:	2204      	movs	r2, #4
200000d6:	569a      	ldrsb	r2, [r3, r2]
200000d8:	2a00      	cmp	r2, #0
200000da:	db0b      	blt.n	200000f4 <mutex_try_enter+0x34>
200000dc:	2900      	cmp	r1, #0
200000de:	d010      	beq.n	20000102 <mutex_try_enter+0x42>
200000e0:	600a      	str	r2, [r1, #0]
200000e2:	2000      	movs	r0, #0
200000e4:	681b      	ldr	r3, [r3, #0]
200000e6:	f3bf 8f5f 	dmb	sy
200000ea:	2200      	movs	r2, #0
200000ec:	601a      	str	r2, [r3, #0]
200000ee:	f38c 8810 	msr	PRIMASK, ip
200000f2:	4770      	bx	lr
200000f4:	22d0      	movs	r2, #208	; 0xd0
200000f6:	0612      	lsls	r2, r2, #24
200000f8:	7812      	ldrb	r2, [r2, #0]
200000fa:	b252      	sxtb	r2, r2
200000fc:	711a      	strb	r2, [r3, #4]
200000fe:	2001      	movs	r0, #1
20000100:	e7f0      	b.n	200000e4 <mutex_try_enter+0x24>
20000102:	2000      	movs	r0, #0
20000104:	e7ee      	b.n	200000e4 <mutex_try_enter+0x24>
	...

20000108 <mutex_enter_block_until>:
20000108:	b5f8      	push	{r3, r4, r5, r6, r7, lr}
2000010a:	46ce      	mov	lr, r9
2000010c:	4647      	mov	r7, r8
2000010e:	b580      	push	{r7, lr}
20000110:	0004      	movs	r4, r0
20000112:	0017      	movs	r7, r2
20000114:	4698      	mov	r8, r3
20000116:	6803      	ldr	r3, [r0, #0]
20000118:	2b00      	cmp	r3, #0
2000011a:	d020      	beq.n	2000015e <mutex_enter_block_until+0x56>
2000011c:	23d0      	movs	r3, #208	; 0xd0
2000011e:	061b      	lsls	r3, r3, #24
20000120:	781b      	ldrb	r3, [r3, #0]
20000122:	b25b      	sxtb	r3, r3
20000124:	4699      	mov	r9, r3
20000126:	6826      	ldr	r6, [r4, #0]
20000128:	f3ef 8c10 	mrs	ip, PRIMASK
2000012c:	b672      	cpsid	i
2000012e:	6835      	ldr	r5, [r6, #0]
20000130:	2d00      	cmp	r5, #0
20000132:	d0fc      	beq.n	2000012e <mutex_enter_block_until+0x26>
20000134:	f3bf 8f5f 	dmb	sy
20000138:	2504      	movs	r5, #4
2000013a:	5765      	ldrsb	r5, [r4, r5]
2000013c:	2d00      	cmp	r5, #0
2000013e:	db14      	blt.n	2000016a <mutex_enter_block_until+0x62>
20000140:	6823      	ldr	r3, [r4, #0]
20000142:	f3bf 8f5f 	dmb	sy
20000146:	2200      	movs	r2, #0
20000148:	601a      	str	r2, [r3, #0]
2000014a:	f38c 8810 	msr	PRIMASK, ip
2000014e:	0038      	movs	r0, r7
20000150:	4641      	mov	r1, r8
20000152:	f000 fcf5 	bl	20000b40 <__best_effort_wfe_or_timeout_veneer>
20000156:	2800      	cmp	r0, #0
20000158:	d0e5      	beq.n	20000126 <mutex_enter_block_until+0x1e>
2000015a:	2000      	movs	r0, #0
2000015c:	e00f      	b.n	2000017e <mutex_enter_block_until+0x76>
2000015e:	4b0a      	ldr	r3, [pc, #40]	; (20000188 <mutex_enter_block_until+0x80>)
20000160:	4a0a      	ldr	r2, [pc, #40]	; (2000018c <mutex_enter_block_until+0x84>)
20000162:	2185      	movs	r1, #133	; 0x85
20000164:	480a      	ldr	r0, [pc, #40]	; (20000190 <mutex_enter_block_until+0x88>)
20000166:	f000 fd13 	bl	20000b90 <____assert_func_veneer>
2000016a:	464b      	mov	r3, r9
2000016c:	7123      	strb	r3, [r4, #4]
2000016e:	6823      	ldr	r3, [r4, #0]
20000170:	f3bf 8f5f 	dmb	sy
20000174:	2200      	movs	r2, #0
20000176:	601a      	str	r2, [r3, #0]
20000178:	f38c 8810 	msr	PRIMASK, ip
2000017c:	2001      	movs	r0, #1
2000017e:	bcc0      	pop	{r6, r7}
20000180:	46b9      	mov	r9, r7
20000182:	46b0      	mov	r8, r6
20000184:	bdf8      	pop	{r3, r4, r5, r6, r7, pc}
20000186:	46c0      	nop			; (mov r8, r8)
20000188:	1000723c 	.word	0x1000723c
2000018c:	10007314 	.word	0x10007314
20000190:	100071e8 	.word	0x100071e8

20000194 <mutex_try_enter_block_until>:
20000194:	b570      	push	{r4, r5, r6, lr}
20000196:	b082      	sub	sp, #8
20000198:	0006      	movs	r6, r0
2000019a:	0015      	movs	r5, r2
2000019c:	001c      	movs	r4, r3
2000019e:	a901      	add	r1, sp, #4
200001a0:	f7ff ff8e 	bl	200000c0 <mutex_try_enter>
200001a4:	2800      	cmp	r0, #0
200001a6:	d107      	bne.n	200001b8 <mutex_try_enter_block_until+0x24>
200001a8:	9b01      	ldr	r3, [sp, #4]
200001aa:	b25b      	sxtb	r3, r3
200001ac:	22d0      	movs	r2, #208	; 0xd0
200001ae:	0612      	lsls	r2, r2, #24
200001b0:	7812      	ldrb	r2, [r2, #0]
200001b2:	b252      	sxtb	r2, r2
200001b4:	4293      	cmp	r3, r2
200001b6:	d101      	bne.n	200001bc <mutex_try_enter_block_until+0x28>
200001b8:	b002      	add	sp, #8
200001ba:	bd70      	pop	{r4, r5, r6, pc}
200001bc:	002a      	movs	r2, r5
200001be:	0023      	movs	r3, r4
200001c0:	0030      	movs	r0, r6
200001c2:	f7ff ffa1 	bl	20000108 <mutex_enter_block_until>
200001c6:	e7f7      	b.n	200001b8 <mutex_try_enter_block_until+0x24>

200001c8 <mutex_enter_timeout_ms>:
200001c8:	b5f8      	push	{r3, r4, r5, r6, r7, lr}
200001ca:	0006      	movs	r6, r0
200001cc:	000f      	movs	r7, r1
200001ce:	f000 fcc7 	bl	20000b60 <__time_us_64_veneer>
200001d2:	0004      	movs	r4, r0
200001d4:	1e0d      	subs	r5, r1, #0
200001d6:	db12      	blt.n	200001fe <mutex_enter_timeout_ms+0x36>
200001d8:	22fa      	movs	r2, #250	; 0xfa
200001da:	0092      	lsls	r2, r2, #2
200001dc:	2300      	movs	r3, #0
200001de:	0038      	movs	r0, r7
200001e0:	2100      	movs	r1, #0
200001e2:	f000 fcb5 	bl	20000b50 <____wrap___aeabi_lmul_veneer>
200001e6:	0022      	movs	r2, r4
200001e8:	002b      	movs	r3, r5
200001ea:	1812      	adds	r2, r2, r0
200001ec:	414b      	adcs	r3, r1
200001ee:	2b00      	cmp	r3, #0
200001f0:	db0b      	blt.n	2000020a <mutex_enter_timeout_ms+0x42>
200001f2:	2b00      	cmp	r3, #0
200001f4:	db0d      	blt.n	20000212 <mutex_enter_timeout_ms+0x4a>
200001f6:	0030      	movs	r0, r6
200001f8:	f7ff ff86 	bl	20000108 <mutex_enter_block_until>
200001fc:	bdf8      	pop	{r3, r4, r5, r6, r7, pc}
200001fe:	4b08      	ldr	r3, [pc, #32]	; (20000220 <mutex_enter_timeout_ms+0x58>)
20000200:	4a08      	ldr	r2, [pc, #32]	; (20000224 <mutex_enter_timeout_ms+0x5c>)
20000202:	213f      	movs	r1, #63	; 0x3f
20000204:	4808      	ldr	r0, [pc, #32]	; (20000228 <mutex_enter_timeout_ms+0x60>)
20000206:	f000 fcc3 	bl	20000b90 <____assert_func_veneer>
2000020a:	2201      	movs	r2, #1
2000020c:	4252      	negs	r2, r2
2000020e:	4b07      	ldr	r3, [pc, #28]	; (2000022c <mutex_enter_timeout_ms+0x64>)
20000210:	e7ef      	b.n	200001f2 <mutex_enter_timeout_ms+0x2a>
20000212:	4b03      	ldr	r3, [pc, #12]	; (20000220 <mutex_enter_timeout_ms+0x58>)
20000214:	4a03      	ldr	r2, [pc, #12]	; (20000224 <mutex_enter_timeout_ms+0x5c>)
20000216:	213f      	movs	r1, #63	; 0x3f
20000218:	4803      	ldr	r0, [pc, #12]	; (20000228 <mutex_enter_timeout_ms+0x60>)
2000021a:	f000 fcb9 	bl	20000b90 <____assert_func_veneer>
2000021e:	46c0      	nop			; (mov r8, r8)
20000220:	10007250 	.word	0x10007250
20000224:	1000732c 	.word	0x1000732c
20000228:	1000726c 	.word	0x1000726c
2000022c:	7fffffff 	.word	0x7fffffff

20000230 <mutex_exit>:
20000230:	b510      	push	{r4, lr}
20000232:	6802      	ldr	r2, [r0, #0]
20000234:	f3ef 8110 	mrs	r1, PRIMASK
20000238:	b672      	cpsid	i
2000023a:	6813      	ldr	r3, [r2, #0]
2000023c:	2b00      	cmp	r3, #0
2000023e:	d0fc      	beq.n	2000023a <mutex_exit+0xa>
20000240:	f3bf 8f5f 	dmb	sy
20000244:	2304      	movs	r3, #4
20000246:	56c3      	ldrsb	r3, [r0, r3]
20000248:	2b00      	cmp	r3, #0
2000024a:	db0a      	blt.n	20000262 <mutex_exit+0x32>
2000024c:	23ff      	movs	r3, #255	; 0xff
2000024e:	7103      	strb	r3, [r0, #4]
20000250:	6803      	ldr	r3, [r0, #0]
20000252:	f3bf 8f5f 	dmb	sy
20000256:	2200      	movs	r2, #0
20000258:	601a      	str	r2, [r3, #0]
2000025a:	f381 8810 	msr	PRIMASK, r1
2000025e:	bf40      	sev
20000260:	bd10      	pop	{r4, pc}
20000262:	4b03      	ldr	r3, [pc, #12]	; (20000270 <mutex_exit+0x40>)
20000264:	4a03      	ldr	r2, [pc, #12]	; (20000274 <mutex_exit+0x44>)
20000266:	21b4      	movs	r1, #180	; 0xb4
20000268:	4803      	ldr	r0, [pc, #12]	; (20000278 <mutex_exit+0x48>)
2000026a:	f000 fc91 	bl	20000b90 <____assert_func_veneer>
2000026e:	46c0      	nop			; (mov r8, r8)
20000270:	100072d0 	.word	0x100072d0
20000274:	10007308 	.word	0x10007308
20000278:	100071e8 	.word	0x100071e8

2000027c <flash_init_boot2_copyout>:
2000027c:	4b09      	ldr	r3, [pc, #36]	; (200002a4 <flash_init_boot2_copyout+0x28>)
2000027e:	781b      	ldrb	r3, [r3, #0]
20000280:	2b00      	cmp	r3, #0
20000282:	d008      	beq.n	20000296 <flash_init_boot2_copyout+0x1a>
20000284:	e00c      	b.n	200002a0 <flash_init_boot2_copyout+0x24>
20000286:	009a      	lsls	r2, r3, #2
20000288:	2180      	movs	r1, #128	; 0x80
2000028a:	0549      	lsls	r1, r1, #21
2000028c:	1851      	adds	r1, r2, r1
2000028e:	6808      	ldr	r0, [r1, #0]
20000290:	4905      	ldr	r1, [pc, #20]	; (200002a8 <flash_init_boot2_copyout+0x2c>)
20000292:	5050      	str	r0, [r2, r1]
20000294:	3301      	adds	r3, #1
20000296:	2b3f      	cmp	r3, #63	; 0x3f
20000298:	ddf5      	ble.n	20000286 <flash_init_boot2_copyout+0xa>
2000029a:	4b02      	ldr	r3, [pc, #8]	; (200002a4 <flash_init_boot2_copyout+0x28>)
2000029c:	2201      	movs	r2, #1
2000029e:	701a      	strb	r2, [r3, #0]
200002a0:	4770      	bx	lr
200002a2:	46c0      	nop			; (mov r8, r8)
200002a4:	20001a53 	.word	0x20001a53
200002a8:	20001240 	.word	0x20001240

200002ac <flash_enable_xip_via_boot2>:
200002ac:	b510      	push	{r4, lr}
200002ae:	4b02      	ldr	r3, [pc, #8]	; (200002b8 <flash_enable_xip_via_boot2+0xc>)
200002b0:	3301      	adds	r3, #1
200002b2:	4798      	blx	r3
200002b4:	bd10      	pop	{r4, pc}
200002b6:	46c0      	nop			; (mov r8, r8)
200002b8:	20001240 	.word	0x20001240

200002bc <flash_cs_force>:
200002bc:	2800      	cmp	r0, #0
200002be:	d00a      	beq.n	200002d6 <flash_cs_force+0x1a>
200002c0:	2303      	movs	r3, #3
200002c2:	021b      	lsls	r3, r3, #8
200002c4:	4a05      	ldr	r2, [pc, #20]	; (200002dc <flash_cs_force+0x20>)
200002c6:	6812      	ldr	r2, [r2, #0]
200002c8:	4053      	eors	r3, r2
200002ca:	22c0      	movs	r2, #192	; 0xc0
200002cc:	0092      	lsls	r2, r2, #2
200002ce:	4013      	ands	r3, r2
200002d0:	4a03      	ldr	r2, [pc, #12]	; (200002e0 <flash_cs_force+0x24>)
200002d2:	6013      	str	r3, [r2, #0]
200002d4:	4770      	bx	lr
200002d6:	2302      	movs	r3, #2
200002d8:	e7f3      	b.n	200002c2 <flash_cs_force+0x6>
200002da:	46c0      	nop			; (mov r8, r8)
200002dc:	4001800c 	.word	0x4001800c
200002e0:	4001900c 	.word	0x4001900c

200002e4 <flash_do_cmd>:
200002e4:	b5f0      	push	{r4, r5, r6, r7, lr}
200002e6:	46d6      	mov	lr, sl
200002e8:	464f      	mov	r7, r9
200002ea:	4646      	mov	r6, r8
200002ec:	b5c0      	push	{r6, r7, lr}
200002ee:	0007      	movs	r7, r0
200002f0:	000e      	movs	r6, r1
200002f2:	0015      	movs	r5, r2
200002f4:	2318      	movs	r3, #24
200002f6:	469a      	mov	sl, r3
200002f8:	881b      	ldrh	r3, [r3, #0]
200002fa:	2214      	movs	r2, #20
200002fc:	4690      	mov	r8, r2
200002fe:	8810      	ldrh	r0, [r2, #0]
20000300:	4928      	ldr	r1, [pc, #160]	; (200003a4 <flash_do_cmd+0xc0>)
20000302:	4798      	blx	r3
20000304:	4681      	mov	r9, r0
20000306:	4653      	mov	r3, sl
20000308:	881b      	ldrh	r3, [r3, #0]
2000030a:	4642      	mov	r2, r8
2000030c:	8810      	ldrh	r0, [r2, #0]
2000030e:	4926      	ldr	r1, [pc, #152]	; (200003a8 <flash_do_cmd+0xc4>)
20000310:	4798      	blx	r3
20000312:	0004      	movs	r4, r0
20000314:	4653      	mov	r3, sl
20000316:	881b      	ldrh	r3, [r3, #0]
20000318:	4642      	mov	r2, r8
2000031a:	8810      	ldrh	r0, [r2, #0]
2000031c:	4923      	ldr	r1, [pc, #140]	; (200003ac <flash_do_cmd+0xc8>)
2000031e:	4798      	blx	r3
20000320:	4680      	mov	r8, r0
20000322:	464b      	mov	r3, r9
20000324:	2b00      	cmp	r3, #0
20000326:	d00c      	beq.n	20000342 <flash_do_cmd+0x5e>
20000328:	2c00      	cmp	r4, #0
2000032a:	d00a      	beq.n	20000342 <flash_do_cmd+0x5e>
2000032c:	2800      	cmp	r0, #0
2000032e:	d008      	beq.n	20000342 <flash_do_cmd+0x5e>
20000330:	f7ff ffa4 	bl	2000027c <flash_init_boot2_copyout>
20000334:	47c8      	blx	r9
20000336:	47a0      	blx	r4
20000338:	2000      	movs	r0, #0
2000033a:	f7ff ffbf 	bl	200002bc <flash_cs_force>
2000033e:	002a      	movs	r2, r5
20000340:	e00f      	b.n	20000362 <flash_do_cmd+0x7e>
20000342:	4b1b      	ldr	r3, [pc, #108]	; (200003b0 <flash_do_cmd+0xcc>)
20000344:	4a1b      	ldr	r2, [pc, #108]	; (200003b4 <flash_do_cmd+0xd0>)
20000346:	2180      	movs	r1, #128	; 0x80
20000348:	481b      	ldr	r0, [pc, #108]	; (200003b8 <flash_do_cmd+0xd4>)
2000034a:	f000 fc21 	bl	20000b90 <____assert_func_veneer>
2000034e:	2b00      	cmp	r3, #0
20000350:	d007      	beq.n	20000362 <flash_do_cmd+0x7e>
20000352:	2a00      	cmp	r2, #0
20000354:	d005      	beq.n	20000362 <flash_do_cmd+0x7e>
20000356:	23c0      	movs	r3, #192	; 0xc0
20000358:	055b      	lsls	r3, r3, #21
2000035a:	6e1b      	ldr	r3, [r3, #96]	; 0x60
2000035c:	7033      	strb	r3, [r6, #0]
2000035e:	3a01      	subs	r2, #1
20000360:	3601      	adds	r6, #1
20000362:	002b      	movs	r3, r5
20000364:	4313      	orrs	r3, r2
20000366:	d012      	beq.n	2000038e <flash_do_cmd+0xaa>
20000368:	23c0      	movs	r3, #192	; 0xc0
2000036a:	055b      	lsls	r3, r3, #21
2000036c:	6a9c      	ldr	r4, [r3, #40]	; 0x28
2000036e:	2308      	movs	r3, #8
20000370:	4023      	ands	r3, r4
20000372:	07a1      	lsls	r1, r4, #30
20000374:	d5eb      	bpl.n	2000034e <flash_do_cmd+0x6a>
20000376:	2d00      	cmp	r5, #0
20000378:	d0e9      	beq.n	2000034e <flash_do_cmd+0x6a>
2000037a:	1b51      	subs	r1, r2, r5
2000037c:	290d      	cmp	r1, #13
2000037e:	d8e6      	bhi.n	2000034e <flash_do_cmd+0x6a>
20000380:	7838      	ldrb	r0, [r7, #0]
20000382:	21c0      	movs	r1, #192	; 0xc0
20000384:	0549      	lsls	r1, r1, #21
20000386:	6608      	str	r0, [r1, #96]	; 0x60
20000388:	3d01      	subs	r5, #1
2000038a:	3701      	adds	r7, #1
2000038c:	e7df      	b.n	2000034e <flash_do_cmd+0x6a>
2000038e:	2001      	movs	r0, #1
20000390:	f7ff ff94 	bl	200002bc <flash_cs_force>
20000394:	47c0      	blx	r8
20000396:	f7ff ff89 	bl	200002ac <flash_enable_xip_via_boot2>
2000039a:	bce0      	pop	{r5, r6, r7}
2000039c:	46ba      	mov	sl, r7
2000039e:	46b1      	mov	r9, r6
200003a0:	46a8      	mov	r8, r5
200003a2:	bdf0      	pop	{r4, r5, r6, r7, pc}
200003a4:	00004649 	.word	0x00004649
200003a8:	00005845 	.word	0x00005845
200003ac:	00004346 	.word	0x00004346
200003b0:	10008370 	.word	0x10008370
200003b4:	100083b0 	.word	0x100083b0
200003b8:	10008264 	.word	0x10008264

200003bc <reset_non_control_endpoints>:
200003bc:	b510      	push	{r4, lr}
200003be:	2300      	movs	r3, #0
200003c0:	e008      	b.n	200003d4 <reset_non_control_endpoints+0x18>
200003c2:	3301      	adds	r3, #1
200003c4:	00da      	lsls	r2, r3, #3
200003c6:	2100      	movs	r1, #0
200003c8:	4808      	ldr	r0, [pc, #32]	; (200003ec <reset_non_control_endpoints+0x30>)
200003ca:	5011      	str	r1, [r2, r0]
200003cc:	4684      	mov	ip, r0
200003ce:	4462      	add	r2, ip
200003d0:	6051      	str	r1, [r2, #4]
200003d2:	b2db      	uxtb	r3, r3
200003d4:	2b0e      	cmp	r3, #14
200003d6:	d9f4      	bls.n	200003c2 <reset_non_control_endpoints+0x6>
200003d8:	22f0      	movs	r2, #240	; 0xf0
200003da:	0092      	lsls	r2, r2, #2
200003dc:	2100      	movs	r1, #0
200003de:	4804      	ldr	r0, [pc, #16]	; (200003f0 <reset_non_control_endpoints+0x34>)
200003e0:	f000 fbde 	bl	20000ba0 <____wrap_memset_veneer>
200003e4:	4b03      	ldr	r3, [pc, #12]	; (200003f4 <reset_non_control_endpoints+0x38>)
200003e6:	4a04      	ldr	r2, [pc, #16]	; (200003f8 <reset_non_control_endpoints+0x3c>)
200003e8:	601a      	str	r2, [r3, #0]
200003ea:	bd10      	pop	{r4, pc}
200003ec:	50100000 	.word	0x50100000
200003f0:	20001430 	.word	0x20001430
200003f4:	200017f4 	.word	0x200017f4
200003f8:	50100180 	.word	0x50100180

200003fc <hw_handle_buff_status>:
200003fc:	b5f0      	push	{r4, r5, r6, r7, lr}
200003fe:	46ce      	mov	lr, r9
20000400:	4647      	mov	r7, r8
20000402:	b580      	push	{r7, lr}
20000404:	b085      	sub	sp, #20
20000406:	4b23      	ldr	r3, [pc, #140]	; (20000494 <hw_handle_buff_status+0x98>)
20000408:	6d9f      	ldr	r7, [r3, #88]	; 0x58
2000040a:	2400      	movs	r4, #0
2000040c:	2601      	movs	r6, #1
2000040e:	e003      	b.n	20000418 <hw_handle_buff_status+0x1c>
20000410:	43b7      	bics	r7, r6
20000412:	0076      	lsls	r6, r6, #1
20000414:	3401      	adds	r4, #1
20000416:	b2e4      	uxtb	r4, r4
20000418:	2f00      	cmp	r7, #0
2000041a:	d036      	beq.n	2000048a <hw_handle_buff_status+0x8e>
2000041c:	2c1f      	cmp	r4, #31
2000041e:	d834      	bhi.n	2000048a <hw_handle_buff_status+0x8e>
20000420:	423e      	tst	r6, r7
20000422:	d0f6      	beq.n	20000412 <hw_handle_buff_status+0x16>
20000424:	4b1c      	ldr	r3, [pc, #112]	; (20000498 <hw_handle_buff_status+0x9c>)
20000426:	659e      	str	r6, [r3, #88]	; 0x58
20000428:	0863      	lsrs	r3, r4, #1
2000042a:	4699      	mov	r9, r3
2000042c:	2301      	movs	r3, #1
2000042e:	4063      	eors	r3, r4
20000430:	2201      	movs	r2, #1
20000432:	401a      	ands	r2, r3
20000434:	4690      	mov	r8, r2
20000436:	464b      	mov	r3, r9
20000438:	005d      	lsls	r5, r3, #1
2000043a:	4445      	add	r5, r8
2000043c:	016d      	lsls	r5, r5, #5
2000043e:	4b17      	ldr	r3, [pc, #92]	; (2000049c <hw_handle_buff_status+0xa0>)
20000440:	18ed      	adds	r5, r5, r3
20000442:	0028      	movs	r0, r5
20000444:	f000 fa42 	bl	200008cc <hw_endpoint_xfer_continue>
20000448:	2800      	cmp	r0, #0
2000044a:	d0e1      	beq.n	20000410 <hw_handle_buff_status+0x14>
2000044c:	464b      	mov	r3, r9
2000044e:	005b      	lsls	r3, r3, #1
20000450:	4443      	add	r3, r8
20000452:	015b      	lsls	r3, r3, #5
20000454:	4a11      	ldr	r2, [pc, #68]	; (2000049c <hw_handle_buff_status+0xa0>)
20000456:	18d3      	adds	r3, r2, r3
20000458:	789a      	ldrb	r2, [r3, #2]
2000045a:	4691      	mov	r9, r2
2000045c:	8adb      	ldrh	r3, [r3, #22]
2000045e:	4698      	mov	r8, r3
20000460:	220c      	movs	r2, #12
20000462:	2100      	movs	r1, #0
20000464:	a801      	add	r0, sp, #4
20000466:	f000 fb9b 	bl	20000ba0 <____wrap_memset_veneer>
2000046a:	2307      	movs	r3, #7
2000046c:	466a      	mov	r2, sp
2000046e:	7153      	strb	r3, [r2, #5]
20000470:	466b      	mov	r3, sp
20000472:	464a      	mov	r2, r9
20000474:	721a      	strb	r2, [r3, #8]
20000476:	4643      	mov	r3, r8
20000478:	9303      	str	r3, [sp, #12]
2000047a:	2101      	movs	r1, #1
2000047c:	a801      	add	r0, sp, #4
2000047e:	f000 fa4d 	bl	2000091c <dcd_event_handler>
20000482:	0028      	movs	r0, r5
20000484:	f000 f9ac 	bl	200007e0 <hw_endpoint_reset_transfer>
20000488:	e7c2      	b.n	20000410 <hw_handle_buff_status+0x14>
2000048a:	b005      	add	sp, #20
2000048c:	bcc0      	pop	{r6, r7}
2000048e:	46b9      	mov	r9, r7
20000490:	46b0      	mov	r8, r6
20000492:	bdf0      	pop	{r4, r5, r6, r7, pc}
20000494:	50110000 	.word	0x50110000
20000498:	50113000 	.word	0x50113000
2000049c:	200013f0 	.word	0x200013f0

200004a0 <dcd_rp2040_irq>:
200004a0:	b5f0      	push	{r4, r5, r6, r7, lr}
200004a2:	b085      	sub	sp, #20
200004a4:	4a68      	ldr	r2, [pc, #416]	; (20000648 <dcd_rp2040_irq+0x1a8>)
200004a6:	2398      	movs	r3, #152	; 0x98
200004a8:	58d5      	ldr	r5, [r2, r3]
200004aa:	2380      	movs	r3, #128	; 0x80
200004ac:	029b      	lsls	r3, r3, #10
200004ae:	002c      	movs	r4, r5
200004b0:	401c      	ands	r4, r3
200004b2:	421d      	tst	r5, r3
200004b4:	d04a      	beq.n	2000054c <dcd_rp2040_irq+0xac>
200004b6:	4b65      	ldr	r3, [pc, #404]	; (2000064c <dcd_rp2040_irq+0x1ac>)
200004b8:	6a9a      	ldr	r2, [r3, #40]	; 0x28
200004ba:	4b65      	ldr	r3, [pc, #404]	; (20000650 <dcd_rp2040_irq+0x1b0>)
200004bc:	601a      	str	r2, [r3, #0]
200004be:	2400      	movs	r4, #0
200004c0:	2600      	movs	r6, #0
200004c2:	e009      	b.n	200004d8 <dcd_rp2040_irq+0x38>
200004c4:	4b63      	ldr	r3, [pc, #396]	; (20000654 <dcd_rp2040_irq+0x1b4>)
200004c6:	1899      	adds	r1, r3, r2
200004c8:	313c      	adds	r1, #60	; 0x3c
200004ca:	2300      	movs	r3, #0
200004cc:	700b      	strb	r3, [r1, #0]
200004ce:	f000 f9b9 	bl	20000844 <hw_endpoint_start_next_buffer>
200004d2:	003e      	movs	r6, r7
200004d4:	3401      	adds	r4, #1
200004d6:	b2e4      	uxtb	r4, r4
200004d8:	2c0f      	cmp	r4, #15
200004da:	d817      	bhi.n	2000050c <dcd_rp2040_irq+0x6c>
200004dc:	01a2      	lsls	r2, r4, #6
200004de:	0010      	movs	r0, r2
200004e0:	3020      	adds	r0, #32
200004e2:	4b5c      	ldr	r3, [pc, #368]	; (20000654 <dcd_rp2040_irq+0x1b4>)
200004e4:	18c0      	adds	r0, r0, r3
200004e6:	189b      	adds	r3, r3, r2
200004e8:	333b      	adds	r3, #59	; 0x3b
200004ea:	781b      	ldrb	r3, [r3, #0]
200004ec:	2b02      	cmp	r3, #2
200004ee:	d1f1      	bne.n	200004d4 <dcd_rp2040_irq+0x34>
200004f0:	4b58      	ldr	r3, [pc, #352]	; (20000654 <dcd_rp2040_irq+0x1b4>)
200004f2:	189b      	adds	r3, r3, r2
200004f4:	333a      	adds	r3, #58	; 0x3a
200004f6:	781f      	ldrb	r7, [r3, #0]
200004f8:	2f00      	cmp	r7, #0
200004fa:	d0eb      	beq.n	200004d4 <dcd_rp2040_irq+0x34>
200004fc:	4b55      	ldr	r3, [pc, #340]	; (20000654 <dcd_rp2040_irq+0x1b4>)
200004fe:	189b      	adds	r3, r3, r2
20000500:	333c      	adds	r3, #60	; 0x3c
20000502:	781b      	ldrb	r3, [r3, #0]
20000504:	2b00      	cmp	r3, #0
20000506:	d1dd      	bne.n	200004c4 <dcd_rp2040_irq+0x24>
20000508:	003e      	movs	r6, r7
2000050a:	e7e3      	b.n	200004d4 <dcd_rp2040_irq+0x34>
2000050c:	2e00      	cmp	r6, #0
2000050e:	d108      	bne.n	20000522 <dcd_rp2040_irq+0x82>
20000510:	4b51      	ldr	r3, [pc, #324]	; (20000658 <dcd_rp2040_irq+0x1b8>)
20000512:	781b      	ldrb	r3, [r3, #0]
20000514:	2b00      	cmp	r3, #0
20000516:	d104      	bne.n	20000522 <dcd_rp2040_irq+0x82>
20000518:	4a50      	ldr	r2, [pc, #320]	; (2000065c <dcd_rp2040_irq+0x1bc>)
2000051a:	3390      	adds	r3, #144	; 0x90
2000051c:	2180      	movs	r1, #128	; 0x80
2000051e:	0289      	lsls	r1, r1, #10
20000520:	50d1      	str	r1, [r2, r3]
20000522:	4b49      	ldr	r3, [pc, #292]	; (20000648 <dcd_rp2040_irq+0x1a8>)
20000524:	6c9c      	ldr	r4, [r3, #72]	; 0x48
20000526:	0564      	lsls	r4, r4, #21
20000528:	0d64      	lsrs	r4, r4, #21
2000052a:	220c      	movs	r2, #12
2000052c:	2100      	movs	r1, #0
2000052e:	a801      	add	r0, sp, #4
20000530:	f000 fb36 	bl	20000ba0 <____wrap_memset_veneer>
20000534:	2300      	movs	r3, #0
20000536:	466a      	mov	r2, sp
20000538:	7113      	strb	r3, [r2, #4]
2000053a:	3303      	adds	r3, #3
2000053c:	7153      	strb	r3, [r2, #5]
2000053e:	9402      	str	r4, [sp, #8]
20000540:	2101      	movs	r1, #1
20000542:	a801      	add	r0, sp, #4
20000544:	f000 f9ea 	bl	2000091c <dcd_event_handler>
20000548:	2480      	movs	r4, #128	; 0x80
2000054a:	02a4      	lsls	r4, r4, #10
2000054c:	06eb      	lsls	r3, r5, #27
2000054e:	d409      	bmi.n	20000564 <dcd_rp2040_irq+0xc4>
20000550:	03eb      	lsls	r3, r5, #15
20000552:	d529      	bpl.n	200005a8 <dcd_rp2040_irq+0x108>
20000554:	2380      	movs	r3, #128	; 0x80
20000556:	025b      	lsls	r3, r3, #9
20000558:	431c      	orrs	r4, r3
2000055a:	ab01      	add	r3, sp, #4
2000055c:	4a40      	ldr	r2, [pc, #256]	; (20000660 <dcd_rp2040_irq+0x1c0>)
2000055e:	801a      	strh	r2, [r3, #0]
20000560:	2600      	movs	r6, #0
20000562:	e00b      	b.n	2000057c <dcd_rp2040_irq+0xdc>
20000564:	2310      	movs	r3, #16
20000566:	431c      	orrs	r4, r3
20000568:	f7ff ff48 	bl	200003fc <hw_handle_buff_status>
2000056c:	e7f0      	b.n	20000550 <dcd_rp2040_irq+0xb0>
2000056e:	ab01      	add	r3, sp, #4
20000570:	5d98      	ldrb	r0, [r3, r6]
20000572:	f000 fb05 	bl	20000b80 <__hw_endpoint_get_by_addr_veneer>
20000576:	2301      	movs	r3, #1
20000578:	70c3      	strb	r3, [r0, #3]
2000057a:	3601      	adds	r6, #1
2000057c:	2e01      	cmp	r6, #1
2000057e:	d9f6      	bls.n	2000056e <dcd_rp2040_irq+0xce>
20000580:	ae01      	add	r6, sp, #4
20000582:	220c      	movs	r2, #12
20000584:	2100      	movs	r1, #0
20000586:	0030      	movs	r0, r6
20000588:	f000 fb0a 	bl	20000ba0 <____wrap_memset_veneer>
2000058c:	2306      	movs	r3, #6
2000058e:	7073      	strb	r3, [r6, #1]
20000590:	4a34      	ldr	r2, [pc, #208]	; (20000664 <dcd_rp2040_irq+0x1c4>)
20000592:	ab02      	add	r3, sp, #8
20000594:	ca03      	ldmia	r2!, {r0, r1}
20000596:	c303      	stmia	r3!, {r0, r1}
20000598:	2101      	movs	r1, #1
2000059a:	0030      	movs	r0, r6
2000059c:	f000 f9be 	bl	2000091c <dcd_event_handler>
200005a0:	4b2e      	ldr	r3, [pc, #184]	; (2000065c <dcd_rp2040_irq+0x1bc>)
200005a2:	2280      	movs	r2, #128	; 0x80
200005a4:	0292      	lsls	r2, r2, #10
200005a6:	651a      	str	r2, [r3, #80]	; 0x50
200005a8:	04eb      	lsls	r3, r5, #19
200005aa:	d407      	bmi.n	200005bc <dcd_rp2040_irq+0x11c>
200005ac:	046b      	lsls	r3, r5, #17
200005ae:	d41e      	bmi.n	200005ee <dcd_rp2040_irq+0x14e>
200005b0:	042b      	lsls	r3, r5, #16
200005b2:	d42f      	bmi.n	20000614 <dcd_rp2040_irq+0x174>
200005b4:	42ac      	cmp	r4, r5
200005b6:	d141      	bne.n	2000063c <dcd_rp2040_irq+0x19c>
200005b8:	b005      	add	sp, #20
200005ba:	bdf0      	pop	{r4, r5, r6, r7, pc}
200005bc:	2380      	movs	r3, #128	; 0x80
200005be:	015b      	lsls	r3, r3, #5
200005c0:	431c      	orrs	r4, r3
200005c2:	4b21      	ldr	r3, [pc, #132]	; (20000648 <dcd_rp2040_irq+0x1a8>)
200005c4:	2200      	movs	r2, #0
200005c6:	601a      	str	r2, [r3, #0]
200005c8:	f7ff fef8 	bl	200003bc <reset_non_control_endpoints>
200005cc:	ae01      	add	r6, sp, #4
200005ce:	220c      	movs	r2, #12
200005d0:	2100      	movs	r1, #0
200005d2:	0030      	movs	r0, r6
200005d4:	f000 fae4 	bl	20000ba0 <____wrap_memset_veneer>
200005d8:	2301      	movs	r3, #1
200005da:	7073      	strb	r3, [r6, #1]
200005dc:	2101      	movs	r1, #1
200005de:	0030      	movs	r0, r6
200005e0:	f000 f99c 	bl	2000091c <dcd_event_handler>
200005e4:	4b1d      	ldr	r3, [pc, #116]	; (2000065c <dcd_rp2040_irq+0x1bc>)
200005e6:	2280      	movs	r2, #128	; 0x80
200005e8:	0312      	lsls	r2, r2, #12
200005ea:	651a      	str	r2, [r3, #80]	; 0x50
200005ec:	e7de      	b.n	200005ac <dcd_rp2040_irq+0x10c>
200005ee:	2380      	movs	r3, #128	; 0x80
200005f0:	01db      	lsls	r3, r3, #7
200005f2:	431c      	orrs	r4, r3
200005f4:	ae01      	add	r6, sp, #4
200005f6:	220c      	movs	r2, #12
200005f8:	2100      	movs	r1, #0
200005fa:	0030      	movs	r0, r6
200005fc:	f000 fad0 	bl	20000ba0 <____wrap_memset_veneer>
20000600:	2304      	movs	r3, #4
20000602:	7073      	strb	r3, [r6, #1]
20000604:	2101      	movs	r1, #1
20000606:	0030      	movs	r0, r6
20000608:	f000 f988 	bl	2000091c <dcd_event_handler>
2000060c:	4b13      	ldr	r3, [pc, #76]	; (2000065c <dcd_rp2040_irq+0x1bc>)
2000060e:	2210      	movs	r2, #16
20000610:	651a      	str	r2, [r3, #80]	; 0x50
20000612:	e7cd      	b.n	200005b0 <dcd_rp2040_irq+0x110>
20000614:	2380      	movs	r3, #128	; 0x80
20000616:	021b      	lsls	r3, r3, #8
20000618:	431c      	orrs	r4, r3
2000061a:	ae01      	add	r6, sp, #4
2000061c:	220c      	movs	r2, #12
2000061e:	2100      	movs	r1, #0
20000620:	0030      	movs	r0, r6
20000622:	f000 fabd 	bl	20000ba0 <____wrap_memset_veneer>
20000626:	2305      	movs	r3, #5
20000628:	7073      	strb	r3, [r6, #1]
2000062a:	2101      	movs	r1, #1
2000062c:	0030      	movs	r0, r6
2000062e:	f000 f975 	bl	2000091c <dcd_event_handler>
20000632:	4b0a      	ldr	r3, [pc, #40]	; (2000065c <dcd_rp2040_irq+0x1bc>)
20000634:	2280      	movs	r2, #128	; 0x80
20000636:	0112      	lsls	r2, r2, #4
20000638:	651a      	str	r2, [r3, #80]	; 0x50
2000063a:	e7bb      	b.n	200005b4 <dcd_rp2040_irq+0x114>
2000063c:	0021      	movs	r1, r4
2000063e:	4069      	eors	r1, r5
20000640:	4809      	ldr	r0, [pc, #36]	; (20000668 <dcd_rp2040_irq+0x1c8>)
20000642:	f000 fa6d 	bl	20000b20 <__panic_veneer>
20000646:	46c0      	nop			; (mov r8, r8)
20000648:	50110000 	.word	0x50110000
2000064c:	40054000 	.word	0x40054000
20000650:	200013e8 	.word	0x200013e8
20000654:	200013f0 	.word	0x200013f0
20000658:	20001a52 	.word	0x20001a52
2000065c:	50113000 	.word	0x50113000
20000660:	ffff8000 	.word	0xffff8000
20000664:	50100000 	.word	0x50100000
20000668:	10008494 	.word	0x10008494

2000066c <e15_is_bulkin_ep>:
2000066c:	4b09      	ldr	r3, [pc, #36]	; (20000694 <e15_is_bulkin_ep+0x28>)
2000066e:	6c1b      	ldr	r3, [r3, #64]	; 0x40
20000670:	079b      	lsls	r3, r3, #30
20000672:	d40c      	bmi.n	2000068e <e15_is_bulkin_ep+0x22>
20000674:	7883      	ldrb	r3, [r0, #2]
20000676:	09db      	lsrs	r3, r3, #7
20000678:	2b01      	cmp	r3, #1
2000067a:	d001      	beq.n	20000680 <e15_is_bulkin_ep+0x14>
2000067c:	2000      	movs	r0, #0
2000067e:	e007      	b.n	20000690 <e15_is_bulkin_ep+0x24>
20000680:	7ec3      	ldrb	r3, [r0, #27]
20000682:	2b02      	cmp	r3, #2
20000684:	d001      	beq.n	2000068a <e15_is_bulkin_ep+0x1e>
20000686:	2000      	movs	r0, #0
20000688:	e002      	b.n	20000690 <e15_is_bulkin_ep+0x24>
2000068a:	2001      	movs	r0, #1
2000068c:	e000      	b.n	20000690 <e15_is_bulkin_ep+0x24>
2000068e:	2000      	movs	r0, #0
20000690:	4770      	bx	lr
20000692:	46c0      	nop			; (mov r8, r8)
20000694:	50110000 	.word	0x50110000

20000698 <e15_is_critical_frame_period>:
20000698:	b510      	push	{r4, lr}
2000069a:	f7ff ffe7 	bl	2000066c <e15_is_bulkin_ep>
2000069e:	2800      	cmp	r0, #0
200006a0:	d009      	beq.n	200006b6 <e15_is_critical_frame_period+0x1e>
200006a2:	4b06      	ldr	r3, [pc, #24]	; (200006bc <e15_is_critical_frame_period+0x24>)
200006a4:	6a9b      	ldr	r3, [r3, #40]	; 0x28
200006a6:	4a06      	ldr	r2, [pc, #24]	; (200006c0 <e15_is_critical_frame_period+0x28>)
200006a8:	6812      	ldr	r2, [r2, #0]
200006aa:	1a9b      	subs	r3, r3, r2
200006ac:	4a05      	ldr	r2, [pc, #20]	; (200006c4 <e15_is_critical_frame_period+0x2c>)
200006ae:	4694      	mov	ip, r2
200006b0:	4463      	add	r3, ip
200006b2:	2bc6      	cmp	r3, #198	; 0xc6
200006b4:	d800      	bhi.n	200006b8 <e15_is_critical_frame_period+0x20>
200006b6:	bd10      	pop	{r4, pc}
200006b8:	2000      	movs	r0, #0
200006ba:	e7fc      	b.n	200006b6 <e15_is_critical_frame_period+0x1e>
200006bc:	40054000 	.word	0x40054000
200006c0:	200013e8 	.word	0x200013e8
200006c4:	fffffce0 	.word	0xfffffce0

200006c8 <prepare_ep_buffer>:
200006c8:	b5f8      	push	{r3, r4, r5, r6, r7, lr}
200006ca:	0004      	movs	r4, r0
200006cc:	000f      	movs	r7, r1
200006ce:	8a83      	ldrh	r3, [r0, #20]
200006d0:	8b02      	ldrh	r2, [r0, #24]
200006d2:	1c1e      	adds	r6, r3, #0
200006d4:	4293      	cmp	r3, r2
200006d6:	d900      	bls.n	200006da <prepare_ep_buffer+0x12>
200006d8:	1c16      	adds	r6, r2, #0
200006da:	b2b6      	uxth	r6, r6
200006dc:	1b9b      	subs	r3, r3, r6
200006de:	82a3      	strh	r3, [r4, #20]
200006e0:	2580      	movs	r5, #128	; 0x80
200006e2:	00ed      	lsls	r5, r5, #3
200006e4:	4335      	orrs	r5, r6
200006e6:	78e3      	ldrb	r3, [r4, #3]
200006e8:	2b00      	cmp	r3, #0
200006ea:	d013      	beq.n	20000714 <prepare_ep_buffer+0x4c>
200006ec:	2280      	movs	r2, #128	; 0x80
200006ee:	0192      	lsls	r2, r2, #6
200006f0:	4315      	orrs	r5, r2
200006f2:	2201      	movs	r2, #1
200006f4:	4053      	eors	r3, r2
200006f6:	70e3      	strb	r3, [r4, #3]
200006f8:	7863      	ldrb	r3, [r4, #1]
200006fa:	2b00      	cmp	r3, #0
200006fc:	d00c      	beq.n	20000718 <prepare_ep_buffer+0x50>
200006fe:	8aa3      	ldrh	r3, [r4, #20]
20000700:	2b00      	cmp	r3, #0
20000702:	d102      	bne.n	2000070a <prepare_ep_buffer+0x42>
20000704:	2380      	movs	r3, #128	; 0x80
20000706:	01db      	lsls	r3, r3, #7
20000708:	431d      	orrs	r5, r3
2000070a:	2f00      	cmp	r7, #0
2000070c:	d000      	beq.n	20000710 <prepare_ep_buffer+0x48>
2000070e:	042d      	lsls	r5, r5, #16
20000710:	0028      	movs	r0, r5
20000712:	bdf8      	pop	{r3, r4, r5, r6, r7, pc}
20000714:	2200      	movs	r2, #0
20000716:	e7eb      	b.n	200006f0 <prepare_ep_buffer+0x28>
20000718:	01b8      	lsls	r0, r7, #6
2000071a:	68e3      	ldr	r3, [r4, #12]
2000071c:	469c      	mov	ip, r3
2000071e:	4460      	add	r0, ip
20000720:	0032      	movs	r2, r6
20000722:	6921      	ldr	r1, [r4, #16]
20000724:	f000 fa04 	bl	20000b30 <____wrap_memcpy_veneer>
20000728:	6923      	ldr	r3, [r4, #16]
2000072a:	469c      	mov	ip, r3
2000072c:	4466      	add	r6, ip
2000072e:	6126      	str	r6, [r4, #16]
20000730:	2380      	movs	r3, #128	; 0x80
20000732:	021b      	lsls	r3, r3, #8
20000734:	431d      	orrs	r5, r3
20000736:	e7e2      	b.n	200006fe <prepare_ep_buffer+0x36>

20000738 <sync_ep_buffer>:
20000738:	b570      	push	{r4, r5, r6, lr}
2000073a:	0004      	movs	r4, r0
2000073c:	6883      	ldr	r3, [r0, #8]
2000073e:	681b      	ldr	r3, [r3, #0]
20000740:	2900      	cmp	r1, #0
20000742:	d000      	beq.n	20000746 <sync_ep_buffer+0xe>
20000744:	0c1b      	lsrs	r3, r3, #16
20000746:	059d      	lsls	r5, r3, #22
20000748:	0dad      	lsrs	r5, r5, #22
2000074a:	7862      	ldrb	r2, [r4, #1]
2000074c:	2a00      	cmp	r2, #0
2000074e:	d112      	bne.n	20000776 <sync_ep_buffer+0x3e>
20000750:	041b      	lsls	r3, r3, #16
20000752:	d409      	bmi.n	20000768 <sync_ep_buffer+0x30>
20000754:	8ae3      	ldrh	r3, [r4, #22]
20000756:	195b      	adds	r3, r3, r5
20000758:	82e3      	strh	r3, [r4, #22]
2000075a:	8b23      	ldrh	r3, [r4, #24]
2000075c:	42ab      	cmp	r3, r5
2000075e:	d901      	bls.n	20000764 <sync_ep_buffer+0x2c>
20000760:	2300      	movs	r3, #0
20000762:	82a3      	strh	r3, [r4, #20]
20000764:	0028      	movs	r0, r5
20000766:	bd70      	pop	{r4, r5, r6, pc}
20000768:	2181      	movs	r1, #129	; 0x81
2000076a:	4b0f      	ldr	r3, [pc, #60]	; (200007a8 <sync_ep_buffer+0x70>)
2000076c:	4a0f      	ldr	r2, [pc, #60]	; (200007ac <sync_ep_buffer+0x74>)
2000076e:	0049      	lsls	r1, r1, #1
20000770:	480f      	ldr	r0, [pc, #60]	; (200007b0 <sync_ep_buffer+0x78>)
20000772:	f000 fa0d 	bl	20000b90 <____assert_func_veneer>
20000776:	041b      	lsls	r3, r3, #16
20000778:	d50e      	bpl.n	20000798 <sync_ep_buffer+0x60>
2000077a:	0189      	lsls	r1, r1, #6
2000077c:	68e3      	ldr	r3, [r4, #12]
2000077e:	469c      	mov	ip, r3
20000780:	4461      	add	r1, ip
20000782:	002a      	movs	r2, r5
20000784:	6920      	ldr	r0, [r4, #16]
20000786:	f000 f9d3 	bl	20000b30 <____wrap_memcpy_veneer>
2000078a:	8ae3      	ldrh	r3, [r4, #22]
2000078c:	195b      	adds	r3, r3, r5
2000078e:	82e3      	strh	r3, [r4, #22]
20000790:	6923      	ldr	r3, [r4, #16]
20000792:	195b      	adds	r3, r3, r5
20000794:	6123      	str	r3, [r4, #16]
20000796:	e7e0      	b.n	2000075a <sync_ep_buffer+0x22>
20000798:	210a      	movs	r1, #10
2000079a:	4b06      	ldr	r3, [pc, #24]	; (200007b4 <sync_ep_buffer+0x7c>)
2000079c:	4a03      	ldr	r2, [pc, #12]	; (200007ac <sync_ep_buffer+0x74>)
2000079e:	31ff      	adds	r1, #255	; 0xff
200007a0:	4803      	ldr	r0, [pc, #12]	; (200007b0 <sync_ep_buffer+0x78>)
200007a2:	f000 f9f5 	bl	20000b90 <____assert_func_veneer>
200007a6:	46c0      	nop			; (mov r8, r8)
200007a8:	10008514 	.word	0x10008514
200007ac:	10008610 	.word	0x10008610
200007b0:	10008534 	.word	0x10008534
200007b4:	100085a4 	.word	0x100085a4

200007b8 <_hw_endpoint_xfer_sync>:
200007b8:	b510      	push	{r4, lr}
200007ba:	0004      	movs	r4, r0
200007bc:	6883      	ldr	r3, [r0, #8]
200007be:	681b      	ldr	r3, [r3, #0]
200007c0:	2100      	movs	r1, #0
200007c2:	f7ff ffb9 	bl	20000738 <sync_ep_buffer>
200007c6:	6863      	ldr	r3, [r4, #4]
200007c8:	681b      	ldr	r3, [r3, #0]
200007ca:	005b      	lsls	r3, r3, #1
200007cc:	d502      	bpl.n	200007d4 <_hw_endpoint_xfer_sync+0x1c>
200007ce:	8b23      	ldrh	r3, [r4, #24]
200007d0:	4283      	cmp	r3, r0
200007d2:	d000      	beq.n	200007d6 <_hw_endpoint_xfer_sync+0x1e>
200007d4:	bd10      	pop	{r4, pc}
200007d6:	2101      	movs	r1, #1
200007d8:	0020      	movs	r0, r4
200007da:	f7ff ffad 	bl	20000738 <sync_ep_buffer>
200007de:	e7f9      	b.n	200007d4 <_hw_endpoint_xfer_sync+0x1c>

200007e0 <hw_endpoint_reset_transfer>:
200007e0:	2300      	movs	r3, #0
200007e2:	7683      	strb	r3, [r0, #26]
200007e4:	8283      	strh	r3, [r0, #20]
200007e6:	82c3      	strh	r3, [r0, #22]
200007e8:	6103      	str	r3, [r0, #16]
200007ea:	4770      	bx	lr

200007ec <_hw_endpoint_buffer_control_update32>:
200007ec:	b510      	push	{r4, lr}
200007ee:	2900      	cmp	r1, #0
200007f0:	d002      	beq.n	200007f8 <_hw_endpoint_buffer_control_update32+0xc>
200007f2:	6883      	ldr	r3, [r0, #8]
200007f4:	681b      	ldr	r3, [r3, #0]
200007f6:	4019      	ands	r1, r3
200007f8:	2a00      	cmp	r2, #0
200007fa:	d00f      	beq.n	2000081c <_hw_endpoint_buffer_control_update32+0x30>
200007fc:	4311      	orrs	r1, r2
200007fe:	0553      	lsls	r3, r2, #21
20000800:	d50c      	bpl.n	2000081c <_hw_endpoint_buffer_control_update32+0x30>
20000802:	6882      	ldr	r2, [r0, #8]
20000804:	6813      	ldr	r3, [r2, #0]
20000806:	055b      	lsls	r3, r3, #21
20000808:	d40b      	bmi.n	20000822 <_hw_endpoint_buffer_control_update32+0x36>
2000080a:	4b0b      	ldr	r3, [pc, #44]	; (20000838 <_hw_endpoint_buffer_control_update32+0x4c>)
2000080c:	400b      	ands	r3, r1
2000080e:	6013      	str	r3, [r2, #0]
20000810:	e7ff      	b.n	20000812 <_hw_endpoint_buffer_control_update32+0x26>
20000812:	e7ff      	b.n	20000814 <_hw_endpoint_buffer_control_update32+0x28>
20000814:	e7ff      	b.n	20000816 <_hw_endpoint_buffer_control_update32+0x2a>
20000816:	e7ff      	b.n	20000818 <_hw_endpoint_buffer_control_update32+0x2c>
20000818:	e7ff      	b.n	2000081a <_hw_endpoint_buffer_control_update32+0x2e>
2000081a:	e7ff      	b.n	2000081c <_hw_endpoint_buffer_control_update32+0x30>
2000081c:	6883      	ldr	r3, [r0, #8]
2000081e:	6019      	str	r1, [r3, #0]
20000820:	bd10      	pop	{r4, pc}
20000822:	7883      	ldrb	r3, [r0, #2]
20000824:	217f      	movs	r1, #127	; 0x7f
20000826:	4019      	ands	r1, r3
20000828:	09db      	lsrs	r3, r3, #7
2000082a:	009b      	lsls	r3, r3, #2
2000082c:	4a03      	ldr	r2, [pc, #12]	; (2000083c <_hw_endpoint_buffer_control_update32+0x50>)
2000082e:	589a      	ldr	r2, [r3, r2]
20000830:	4803      	ldr	r0, [pc, #12]	; (20000840 <_hw_endpoint_buffer_control_update32+0x54>)
20000832:	f000 f975 	bl	20000b20 <__panic_veneer>
20000836:	46c0      	nop			; (mov r8, r8)
20000838:	fffffbff 	.word	0xfffffbff
2000083c:	20000c80 	.word	0x20000c80
20000840:	100085c4 	.word	0x100085c4

20000844 <hw_endpoint_start_next_buffer>:
20000844:	b570      	push	{r4, r5, r6, lr}
20000846:	0004      	movs	r4, r0
20000848:	6843      	ldr	r3, [r0, #4]
2000084a:	681e      	ldr	r6, [r3, #0]
2000084c:	2100      	movs	r1, #0
2000084e:	f7ff ff3b 	bl	200006c8 <prepare_ep_buffer>
20000852:	2580      	movs	r5, #128	; 0x80
20000854:	016d      	lsls	r5, r5, #5
20000856:	4305      	orrs	r5, r0
20000858:	4b19      	ldr	r3, [pc, #100]	; (200008c0 <hw_endpoint_start_next_buffer+0x7c>)
2000085a:	6c1b      	ldr	r3, [r3, #64]	; 0x40
2000085c:	2202      	movs	r2, #2
2000085e:	0011      	movs	r1, r2
20000860:	4019      	ands	r1, r3
20000862:	421a      	tst	r2, r3
20000864:	d102      	bne.n	2000086c <hw_endpoint_start_next_buffer+0x28>
20000866:	78a3      	ldrb	r3, [r4, #2]
20000868:	09db      	lsrs	r3, r3, #7
2000086a:	d006      	beq.n	2000087a <hw_endpoint_start_next_buffer+0x36>
2000086c:	2900      	cmp	r1, #0
2000086e:	d006      	beq.n	2000087e <hw_endpoint_start_next_buffer+0x3a>
20000870:	78a3      	ldrb	r3, [r4, #2]
20000872:	065b      	lsls	r3, r3, #25
20000874:	d116      	bne.n	200008a4 <hw_endpoint_start_next_buffer+0x60>
20000876:	2300      	movs	r3, #0
20000878:	e002      	b.n	20000880 <hw_endpoint_start_next_buffer+0x3c>
2000087a:	2301      	movs	r3, #1
2000087c:	e000      	b.n	20000880 <hw_endpoint_start_next_buffer+0x3c>
2000087e:	2300      	movs	r3, #0
20000880:	8aa2      	ldrh	r2, [r4, #20]
20000882:	2a00      	cmp	r2, #0
20000884:	d001      	beq.n	2000088a <hw_endpoint_start_next_buffer+0x46>
20000886:	2b00      	cmp	r3, #0
20000888:	d00e      	beq.n	200008a8 <hw_endpoint_start_next_buffer+0x64>
2000088a:	4b0e      	ldr	r3, [pc, #56]	; (200008c4 <hw_endpoint_start_next_buffer+0x80>)
2000088c:	401e      	ands	r6, r3
2000088e:	2380      	movs	r3, #128	; 0x80
20000890:	059b      	lsls	r3, r3, #22
20000892:	4333      	orrs	r3, r6
20000894:	6862      	ldr	r2, [r4, #4]
20000896:	6013      	str	r3, [r2, #0]
20000898:	002a      	movs	r2, r5
2000089a:	2100      	movs	r1, #0
2000089c:	0020      	movs	r0, r4
2000089e:	f7ff ffa5 	bl	200007ec <_hw_endpoint_buffer_control_update32>
200008a2:	bd70      	pop	{r4, r5, r6, pc}
200008a4:	2301      	movs	r3, #1
200008a6:	e7eb      	b.n	20000880 <hw_endpoint_start_next_buffer+0x3c>
200008a8:	2101      	movs	r1, #1
200008aa:	0020      	movs	r0, r4
200008ac:	f7ff ff0c 	bl	200006c8 <prepare_ep_buffer>
200008b0:	4305      	orrs	r5, r0
200008b2:	4b05      	ldr	r3, [pc, #20]	; (200008c8 <hw_endpoint_start_next_buffer+0x84>)
200008b4:	401e      	ands	r6, r3
200008b6:	23a0      	movs	r3, #160	; 0xa0
200008b8:	05db      	lsls	r3, r3, #23
200008ba:	4333      	orrs	r3, r6
200008bc:	e7ea      	b.n	20000894 <hw_endpoint_start_next_buffer+0x50>
200008be:	46c0      	nop			; (mov r8, r8)
200008c0:	50110000 	.word	0x50110000
200008c4:	afffffff 	.word	0xafffffff
200008c8:	dfffffff 	.word	0xdfffffff

200008cc <hw_endpoint_xfer_continue>:
200008cc:	b570      	push	{r4, r5, r6, lr}
200008ce:	0004      	movs	r4, r0
200008d0:	7e85      	ldrb	r5, [r0, #26]
200008d2:	2d00      	cmp	r5, #0
200008d4:	d006      	beq.n	200008e4 <hw_endpoint_xfer_continue+0x18>
200008d6:	f7ff ff6f 	bl	200007b8 <_hw_endpoint_xfer_sync>
200008da:	8aa3      	ldrh	r3, [r4, #20]
200008dc:	2b00      	cmp	r3, #0
200008de:	d10b      	bne.n	200008f8 <hw_endpoint_xfer_continue+0x2c>
200008e0:	0028      	movs	r0, r5
200008e2:	bd70      	pop	{r4, r5, r6, pc}
200008e4:	7883      	ldrb	r3, [r0, #2]
200008e6:	217f      	movs	r1, #127	; 0x7f
200008e8:	4019      	ands	r1, r3
200008ea:	09db      	lsrs	r3, r3, #7
200008ec:	009b      	lsls	r3, r3, #2
200008ee:	4a09      	ldr	r2, [pc, #36]	; (20000914 <hw_endpoint_xfer_continue+0x48>)
200008f0:	589a      	ldr	r2, [r3, r2]
200008f2:	4809      	ldr	r0, [pc, #36]	; (20000918 <hw_endpoint_xfer_continue+0x4c>)
200008f4:	f000 f914 	bl	20000b20 <__panic_veneer>
200008f8:	0020      	movs	r0, r4
200008fa:	f7ff fecd 	bl	20000698 <e15_is_critical_frame_period>
200008fe:	1e05      	subs	r5, r0, #0
20000900:	d003      	beq.n	2000090a <hw_endpoint_xfer_continue+0x3e>
20000902:	2301      	movs	r3, #1
20000904:	7723      	strb	r3, [r4, #28]
20000906:	2500      	movs	r5, #0
20000908:	e7ea      	b.n	200008e0 <hw_endpoint_xfer_continue+0x14>
2000090a:	0020      	movs	r0, r4
2000090c:	f7ff ff9a 	bl	20000844 <hw_endpoint_start_next_buffer>
20000910:	e7e6      	b.n	200008e0 <hw_endpoint_xfer_continue+0x14>
20000912:	46c0      	nop			; (mov r8, r8)
20000914:	20000c80 	.word	0x20000c80
20000918:	100085e4 	.word	0x100085e4

2000091c <dcd_event_handler>:
2000091c:	b530      	push	{r4, r5, lr}
2000091e:	b085      	sub	sp, #20
20000920:	0005      	movs	r5, r0
20000922:	7843      	ldrb	r3, [r0, #1]
20000924:	2b04      	cmp	r3, #4
20000926:	d100      	bne.n	2000092a <dcd_event_handler+0xe>
20000928:	e059      	b.n	200009de <dcd_event_handler+0xc2>
2000092a:	d806      	bhi.n	2000093a <dcd_event_handler+0x1e>
2000092c:	2b02      	cmp	r3, #2
2000092e:	d02b      	beq.n	20000988 <dcd_event_handler+0x6c>
20000930:	2b03      	cmp	r3, #3
20000932:	d000      	beq.n	20000936 <dcd_event_handler+0x1a>
20000934:	e0cb      	b.n	20000ace <dcd_event_handler+0x1b2>
20000936:	2400      	movs	r4, #0
20000938:	e083      	b.n	20000a42 <dcd_event_handler+0x126>
2000093a:	2b05      	cmp	r3, #5
2000093c:	d000      	beq.n	20000940 <dcd_event_handler+0x24>
2000093e:	e0c6      	b.n	20000ace <dcd_event_handler+0x1b2>
20000940:	4b70      	ldr	r3, [pc, #448]	; (20000b04 <dcd_event_handler+0x1e8>)
20000942:	781b      	ldrb	r3, [r3, #0]
20000944:	07db      	lsls	r3, r3, #31
20000946:	d548      	bpl.n	200009da <dcd_event_handler+0xbe>
20000948:	4a6e      	ldr	r2, [pc, #440]	; (20000b04 <dcd_event_handler+0x1e8>)
2000094a:	7813      	ldrb	r3, [r2, #0]
2000094c:	2104      	movs	r1, #4
2000094e:	438b      	bics	r3, r1
20000950:	7013      	strb	r3, [r2, #0]
20000952:	4b6d      	ldr	r3, [pc, #436]	; (20000b08 <dcd_event_handler+0x1ec>)
20000954:	681c      	ldr	r4, [r3, #0]
20000956:	0021      	movs	r1, r4
20000958:	3114      	adds	r1, #20
2000095a:	6962      	ldr	r2, [r4, #20]
2000095c:	f3ef 8010 	mrs	r0, PRIMASK
20000960:	b672      	cpsid	i
20000962:	6813      	ldr	r3, [r2, #0]
20000964:	2b00      	cmp	r3, #0
20000966:	d0fc      	beq.n	20000962 <dcd_event_handler+0x46>
20000968:	f3bf 8f5f 	dmb	sy
2000096c:	6048      	str	r0, [r1, #4]
2000096e:	0029      	movs	r1, r5
20000970:	0020      	movs	r0, r4
20000972:	f000 f8fd 	bl	20000b70 <__tu_fifo_write_veneer>
20000976:	6962      	ldr	r2, [r4, #20]
20000978:	69a3      	ldr	r3, [r4, #24]
2000097a:	f3bf 8f5f 	dmb	sy
2000097e:	2100      	movs	r1, #0
20000980:	6011      	str	r1, [r2, #0]
20000982:	f383 8810 	msr	PRIMASK, r3
20000986:	e028      	b.n	200009da <dcd_event_handler+0xbe>
20000988:	4b5e      	ldr	r3, [pc, #376]	; (20000b04 <dcd_event_handler+0x1e8>)
2000098a:	781a      	ldrb	r2, [r3, #0]
2000098c:	2101      	movs	r1, #1
2000098e:	438a      	bics	r2, r1
20000990:	701a      	strb	r2, [r3, #0]
20000992:	781a      	ldrb	r2, [r3, #0]
20000994:	3101      	adds	r1, #1
20000996:	438a      	bics	r2, r1
20000998:	701a      	strb	r2, [r3, #0]
2000099a:	2200      	movs	r2, #0
2000099c:	705a      	strb	r2, [r3, #1]
2000099e:	781a      	ldrb	r2, [r3, #0]
200009a0:	3102      	adds	r1, #2
200009a2:	438a      	bics	r2, r1
200009a4:	701a      	strb	r2, [r3, #0]
200009a6:	4b58      	ldr	r3, [pc, #352]	; (20000b08 <dcd_event_handler+0x1ec>)
200009a8:	681c      	ldr	r4, [r3, #0]
200009aa:	0021      	movs	r1, r4
200009ac:	3114      	adds	r1, #20
200009ae:	6962      	ldr	r2, [r4, #20]
200009b0:	f3ef 8010 	mrs	r0, PRIMASK
200009b4:	b672      	cpsid	i
200009b6:	6813      	ldr	r3, [r2, #0]
200009b8:	2b00      	cmp	r3, #0
200009ba:	d0fc      	beq.n	200009b6 <dcd_event_handler+0x9a>
200009bc:	f3bf 8f5f 	dmb	sy
200009c0:	6048      	str	r0, [r1, #4]
200009c2:	0029      	movs	r1, r5
200009c4:	0020      	movs	r0, r4
200009c6:	f000 f8d3 	bl	20000b70 <__tu_fifo_write_veneer>
200009ca:	6962      	ldr	r2, [r4, #20]
200009cc:	69a3      	ldr	r3, [r4, #24]
200009ce:	f3bf 8f5f 	dmb	sy
200009d2:	2100      	movs	r1, #0
200009d4:	6011      	str	r1, [r2, #0]
200009d6:	f383 8810 	msr	PRIMASK, r3
200009da:	b005      	add	sp, #20
200009dc:	bd30      	pop	{r4, r5, pc}
200009de:	4b49      	ldr	r3, [pc, #292]	; (20000b04 <dcd_event_handler+0x1e8>)
200009e0:	781b      	ldrb	r3, [r3, #0]
200009e2:	07db      	lsls	r3, r3, #31
200009e4:	d5f9      	bpl.n	200009da <dcd_event_handler+0xbe>
200009e6:	4a47      	ldr	r2, [pc, #284]	; (20000b04 <dcd_event_handler+0x1e8>)
200009e8:	7813      	ldrb	r3, [r2, #0]
200009ea:	2104      	movs	r1, #4
200009ec:	430b      	orrs	r3, r1
200009ee:	7013      	strb	r3, [r2, #0]
200009f0:	4b45      	ldr	r3, [pc, #276]	; (20000b08 <dcd_event_handler+0x1ec>)
200009f2:	681c      	ldr	r4, [r3, #0]
200009f4:	0021      	movs	r1, r4
200009f6:	3114      	adds	r1, #20
200009f8:	6962      	ldr	r2, [r4, #20]
200009fa:	f3ef 8010 	mrs	r0, PRIMASK
200009fe:	b672      	cpsid	i
20000a00:	6813      	ldr	r3, [r2, #0]
20000a02:	2b00      	cmp	r3, #0
20000a04:	d0fc      	beq.n	20000a00 <dcd_event_handler+0xe4>
20000a06:	f3bf 8f5f 	dmb	sy
20000a0a:	6048      	str	r0, [r1, #4]
20000a0c:	0029      	movs	r1, r5
20000a0e:	0020      	movs	r0, r4
20000a10:	f000 f8ae 	bl	20000b70 <__tu_fifo_write_veneer>
20000a14:	6962      	ldr	r2, [r4, #20]
20000a16:	69a3      	ldr	r3, [r4, #24]
20000a18:	f3bf 8f5f 	dmb	sy
20000a1c:	2100      	movs	r1, #0
20000a1e:	6011      	str	r1, [r2, #0]
20000a20:	f383 8810 	msr	PRIMASK, r3
20000a24:	e7d9      	b.n	200009da <dcd_event_handler+0xbe>
20000a26:	0063      	lsls	r3, r4, #1
20000a28:	191b      	adds	r3, r3, r4
20000a2a:	00da      	lsls	r2, r3, #3
20000a2c:	4b37      	ldr	r3, [pc, #220]	; (20000b0c <dcd_event_handler+0x1f0>)
20000a2e:	681b      	ldr	r3, [r3, #0]
20000a30:	189b      	adds	r3, r3, r2
20000a32:	e018      	b.n	20000a66 <dcd_event_handler+0x14a>
20000a34:	0023      	movs	r3, r4
20000a36:	e00f      	b.n	20000a58 <dcd_event_handler+0x13c>
20000a38:	7828      	ldrb	r0, [r5, #0]
20000a3a:	6869      	ldr	r1, [r5, #4]
20000a3c:	4798      	blx	r3
20000a3e:	3401      	adds	r4, #1
20000a40:	b2e4      	uxtb	r4, r4
20000a42:	4b33      	ldr	r3, [pc, #204]	; (20000b10 <dcd_event_handler+0x1f4>)
20000a44:	781b      	ldrb	r3, [r3, #0]
20000a46:	42a3      	cmp	r3, r4
20000a48:	d313      	bcc.n	20000a72 <dcd_event_handler+0x156>
20000a4a:	4a32      	ldr	r2, [pc, #200]	; (20000b14 <dcd_event_handler+0x1f8>)
20000a4c:	2a00      	cmp	r2, #0
20000a4e:	d0f1      	beq.n	20000a34 <dcd_event_handler+0x118>
20000a50:	42a3      	cmp	r3, r4
20000a52:	d8e8      	bhi.n	20000a26 <dcd_event_handler+0x10a>
20000a54:	1ae3      	subs	r3, r4, r3
20000a56:	b2db      	uxtb	r3, r3
20000a58:	2b00      	cmp	r3, #0
20000a5a:	d1f0      	bne.n	20000a3e <dcd_event_handler+0x122>
20000a5c:	005a      	lsls	r2, r3, #1
20000a5e:	18d2      	adds	r2, r2, r3
20000a60:	00d2      	lsls	r2, r2, #3
20000a62:	4b2d      	ldr	r3, [pc, #180]	; (20000b18 <dcd_event_handler+0x1fc>)
20000a64:	189b      	adds	r3, r3, r2
20000a66:	2b00      	cmp	r3, #0
20000a68:	d0e9      	beq.n	20000a3e <dcd_event_handler+0x122>
20000a6a:	695b      	ldr	r3, [r3, #20]
20000a6c:	2b00      	cmp	r3, #0
20000a6e:	d1e3      	bne.n	20000a38 <dcd_event_handler+0x11c>
20000a70:	e7e5      	b.n	20000a3e <dcd_event_handler+0x122>
20000a72:	4b24      	ldr	r3, [pc, #144]	; (20000b04 <dcd_event_handler+0x1e8>)
20000a74:	781b      	ldrb	r3, [r3, #0]
20000a76:	075b      	lsls	r3, r3, #29
20000a78:	d5af      	bpl.n	200009da <dcd_event_handler+0xbe>
20000a7a:	4a22      	ldr	r2, [pc, #136]	; (20000b04 <dcd_event_handler+0x1e8>)
20000a7c:	7813      	ldrb	r3, [r2, #0]
20000a7e:	2104      	movs	r1, #4
20000a80:	438b      	bics	r3, r1
20000a82:	7013      	strb	r3, [r2, #0]
20000a84:	220c      	movs	r2, #12
20000a86:	2100      	movs	r1, #0
20000a88:	a801      	add	r0, sp, #4
20000a8a:	f000 f889 	bl	20000ba0 <____wrap_memset_veneer>
20000a8e:	782b      	ldrb	r3, [r5, #0]
20000a90:	466a      	mov	r2, sp
20000a92:	7113      	strb	r3, [r2, #4]
20000a94:	2305      	movs	r3, #5
20000a96:	7153      	strb	r3, [r2, #5]
20000a98:	4b1b      	ldr	r3, [pc, #108]	; (20000b08 <dcd_event_handler+0x1ec>)
20000a9a:	681c      	ldr	r4, [r3, #0]
20000a9c:	0021      	movs	r1, r4
20000a9e:	3114      	adds	r1, #20
20000aa0:	6962      	ldr	r2, [r4, #20]
20000aa2:	f3ef 8010 	mrs	r0, PRIMASK
20000aa6:	b672      	cpsid	i
20000aa8:	6813      	ldr	r3, [r2, #0]
20000aaa:	2b00      	cmp	r3, #0
20000aac:	d0fc      	beq.n	20000aa8 <dcd_event_handler+0x18c>
20000aae:	f3bf 8f5f 	dmb	sy
20000ab2:	6048      	str	r0, [r1, #4]
20000ab4:	a901      	add	r1, sp, #4
20000ab6:	0020      	movs	r0, r4
20000ab8:	f000 f85a 	bl	20000b70 <__tu_fifo_write_veneer>
20000abc:	6962      	ldr	r2, [r4, #20]
20000abe:	69a3      	ldr	r3, [r4, #24]
20000ac0:	f3bf 8f5f 	dmb	sy
20000ac4:	2100      	movs	r1, #0
20000ac6:	6011      	str	r1, [r2, #0]
20000ac8:	f383 8810 	msr	PRIMASK, r3
20000acc:	e785      	b.n	200009da <dcd_event_handler+0xbe>
20000ace:	4b0e      	ldr	r3, [pc, #56]	; (20000b08 <dcd_event_handler+0x1ec>)
20000ad0:	681c      	ldr	r4, [r3, #0]
20000ad2:	0021      	movs	r1, r4
20000ad4:	3114      	adds	r1, #20
20000ad6:	6962      	ldr	r2, [r4, #20]
20000ad8:	f3ef 8010 	mrs	r0, PRIMASK
20000adc:	b672      	cpsid	i
20000ade:	6813      	ldr	r3, [r2, #0]
20000ae0:	2b00      	cmp	r3, #0
20000ae2:	d0fc      	beq.n	20000ade <dcd_event_handler+0x1c2>
20000ae4:	f3bf 8f5f 	dmb	sy
20000ae8:	6048      	str	r0, [r1, #4]
20000aea:	0029      	movs	r1, r5
20000aec:	0020      	movs	r0, r4
20000aee:	f000 f83f 	bl	20000b70 <__tu_fifo_write_veneer>
20000af2:	6962      	ldr	r2, [r4, #20]
20000af4:	69a3      	ldr	r3, [r4, #24]
20000af6:	f3bf 8f5f 	dmb	sy
20000afa:	2100      	movs	r1, #0
20000afc:	6011      	str	r1, [r2, #0]
20000afe:	f383 8810 	msr	PRIMASK, r3
20000b02:	e76a      	b.n	200009da <dcd_event_handler+0xbe>
20000b04:	20001114 	.word	0x20001114
20000b08:	2000116c 	.word	0x2000116c
20000b0c:	20000dec 	.word	0x20000dec
20000b10:	20001a51 	.word	0x20001a51
20000b14:	1000480d 	.word	0x1000480d
20000b18:	100086ac 	.word	0x100086ac

20000b1c <__aeabi_idiv0>:
20000b1c:	4770      	bx	lr
20000b1e:	46c0      	nop			; (mov r8, r8)

20000b20 <__panic_veneer>:
20000b20:	b401      	push	{r0}
20000b22:	4802      	ldr	r0, [pc, #8]	; (20000b2c <__panic_veneer+0xc>)
20000b24:	4684      	mov	ip, r0
20000b26:	bc01      	pop	{r0}
20000b28:	4760      	bx	ip
20000b2a:	bf00      	nop
20000b2c:	1000282d 	.word	0x1000282d

20000b30 <____wrap_memcpy_veneer>:
20000b30:	b401      	push	{r0}
20000b32:	4802      	ldr	r0, [pc, #8]	; (20000b3c <____wrap_memcpy_veneer+0xc>)
20000b34:	4684      	mov	ip, r0
20000b36:	bc01      	pop	{r0}
20000b38:	4760      	bx	ip
20000b3a:	bf00      	nop
20000b3c:	10004265 	.word	0x10004265

20000b40 <__best_effort_wfe_or_timeout_veneer>:
20000b40:	b401      	push	{r0}
20000b42:	4802      	ldr	r0, [pc, #8]	; (20000b4c <__best_effort_wfe_or_timeout_veneer+0xc>)
20000b44:	4684      	mov	ip, r0
20000b46:	bc01      	pop	{r0}
20000b48:	4760      	bx	ip
20000b4a:	bf00      	nop
20000b4c:	1000193d 	.word	0x1000193d

20000b50 <____wrap___aeabi_lmul_veneer>:
20000b50:	b401      	push	{r0}
20000b52:	4802      	ldr	r0, [pc, #8]	; (20000b5c <____wrap___aeabi_lmul_veneer+0xc>)
20000b54:	4684      	mov	ip, r0
20000b56:	bc01      	pop	{r0}
20000b58:	4760      	bx	ip
20000b5a:	bf00      	nop
20000b5c:	10004181 	.word	0x10004181

20000b60 <__time_us_64_veneer>:
20000b60:	b401      	push	{r0}
20000b62:	4802      	ldr	r0, [pc, #8]	; (20000b6c <__time_us_64_veneer+0xc>)
20000b64:	4684      	mov	ip, r0
20000b66:	bc01      	pop	{r0}
20000b68:	4760      	bx	ip
20000b6a:	bf00      	nop
20000b6c:	10001a91 	.word	0x10001a91

20000b70 <__tu_fifo_write_veneer>:
20000b70:	b401      	push	{r0}
20000b72:	4802      	ldr	r0, [pc, #8]	; (20000b7c <__tu_fifo_write_veneer+0xc>)
20000b74:	4684      	mov	ip, r0
20000b76:	bc01      	pop	{r0}
20000b78:	4760      	bx	ip
20000b7a:	bf00      	nop
20000b7c:	10006c59 	.word	0x10006c59

20000b80 <__hw_endpoint_get_by_addr_veneer>:
20000b80:	b401      	push	{r0}
20000b82:	4802      	ldr	r0, [pc, #8]	; (20000b8c <__hw_endpoint_get_by_addr_veneer+0xc>)
20000b84:	4684      	mov	ip, r0
20000b86:	bc01      	pop	{r0}
20000b88:	4760      	bx	ip
20000b8a:	bf00      	nop
20000b8c:	10004df1 	.word	0x10004df1

20000b90 <____assert_func_veneer>:
20000b90:	b401      	push	{r0}
20000b92:	4802      	ldr	r0, [pc, #8]	; (20000b9c <____assert_func_veneer+0xc>)
20000b94:	4684      	mov	ip, r0
20000b96:	bc01      	pop	{r0}
20000b98:	4760      	bx	ip
20000b9a:	bf00      	nop
20000b9c:	100026f9 	.word	0x100026f9

20000ba0 <____wrap_memset_veneer>:
20000ba0:	b401      	push	{r0}
20000ba2:	4802      	ldr	r0, [pc, #8]	; (20000bac <____wrap_memset_veneer+0xc>)
20000ba4:	4684      	mov	ip, r0
20000ba6:	bc01      	pop	{r0}
20000ba8:	4760      	bx	ip
20000baa:	bf00      	nop
20000bac:	10004259 	.word	0x10004259

20000bb0 <injectString>:
20000bb0:	10006ed4                                .n..

20000bb4 <striped_spin_lock_num>:
20000bb4:	00000010                                ....

20000bb8 <irq_handler_chain_slots>:
20000bb8:	00000000 	.word	0x00000000
20000bbc:	00010000 	.word	0x00010000
	...
20000bc8:	00020000 	.word	0x00020000
	...
20000bd4:	00030000 	.word	0x00030000
	...
20000be0:	00ff0000 	.word	0x00ff0000
20000be4:	00000000 	.word	0x00000000

20000be8 <irq_handler_chain_first_slot>:
20000be8:	b501      	push	{r0, lr}
20000bea:	6848      	ldr	r0, [r1, #4]
20000bec:	3101      	adds	r1, #1
20000bee:	468e      	mov	lr, r1
20000bf0:	4700      	bx	r0

20000bf2 <irq_handler_chain_remove_tail>:
20000bf2:	4670      	mov	r0, lr
20000bf4:	3809      	subs	r0, #9
20000bf6:	4901      	ldr	r1, [pc, #4]	; (20000bfc <irq_handler_chain_remove_tail+0xa>)
20000bf8:	4788      	blx	r1
20000bfa:	bd01      	pop	{r0, pc}
20000bfc:	10000ce1 	.word	0x10000ce1

20000c00 <default_alarm_pool>:
20000c00:	20000c18 00000000 20000cc8 2000137c     ... ....... |.. 
	...

20000c18 <default_alarm_pool_heap>:
20000c18:	2000138c 00000000 00000000 00000010     ... ............
	...

20000c30 <aeabi_bits_funcs>:
20000c30:	00003350 	.word	0x00003350
20000c34:	0000334c 	.word	0x0000334c
20000c38:	00003354 	.word	0x00003354
20000c3c:	00003352 	.word	0x00003352

20000c40 <aeabi_bits_funcs_end>:
20000c40:	0000534d 	.word	0x0000534d
20000c44:	0000434d 	.word	0x0000434d
20000c48:	00003453 	.word	0x00003453
20000c4c:	00003443 	.word	0x00003443

20000c50 <stdio_uart>:
20000c50:	1000453d 00000000 100045b1 10004659     =E.......E..YF..
20000c60:	00000000 00000100                       ........

20000c68 <stdio_usb>:
20000c68:	10004ba9 00000000 10004ae5 10004841     .K.......J..AH..
20000c78:	00000000 00000100                       ........

20000c80 <ep_dir_string>:
20000c80:	10008024 10008004                       $.......

20000c88 <_usbd_qdef>:
20000c88:	20001170 000c0010 00000000 00000000     p.. ............
	...

20000ca4 <_usbd_rhport>:
20000ca4:	000000ff                                ....

20000ca8 <print_mutex>:
	...

20000cb0 <__mutex_array_end>:
20000cb0:	10004249 	.word	0x10004249
20000cb4:	1000399d 	.word	0x1000399d
20000cb8:	10004081 	.word	0x10004081
20000cbc:	100041c1 	.word	0x100041c1

20000cc0 <__frame_dummy_init_array_entry>:
20000cc0:	100002e5 10004d39                       ....9M..
